ARM GAS  /var/folders/5n/p_75w94d66l9ssrldxqdhh700000gn/T//ccDYaWON.s 			page 1


   1              		.syntax unified
   2              		.cpu cortex-m4
   3              		.fpu softvfp
   4              		.eabi_attribute 20, 1
   5              		.eabi_attribute 21, 1
   6              		.eabi_attribute 23, 3
   7              		.eabi_attribute 24, 1
   8              		.eabi_attribute 25, 1
   9              		.eabi_attribute 26, 1
  10              		.eabi_attribute 30, 2
  11              		.eabi_attribute 18, 4
  12              		.thumb
  13              		.file	"testbmk.c"
  14              		.text
  15              	.Ltext0:
  16              		.cfi_sections	.debug_frame
  17              		.section	.text.thread2,"ax",%progbits
  18              		.align	2
  19              		.p2align 4,,15
  20              		.thumb
  21              		.thumb_func
  22              		.type	thread2, %function
  23              	thread2:
  24              	.LFB11:
  25              		.file 1 "../../test/testbmk.c"
  26              		.loc 1 158 0
  27              		.cfi_startproc
  28              		@ args = 0, pretend = 0, frame = 0
  29              		@ frame_needed = 0, uses_anonymous_args = 0
  30              		@ link register save eliminated.
  31              	.LVL0:
  32              		.loc 1 161 0
  33 0000 7047     		bx	lr
  34              		.cfi_endproc
  35              	.LFE11:
  36              		.size	thread2, .-thread2
  37 0002 00BFAFF3 		.section	.text.tmo,"ax",%progbits
  37      0080AFF3 
  37      0080AFF3 
  37      0080
  38              		.align	2
  39              		.p2align 4,,15
  40              		.thumb
  41              		.thumb_func
  42              		.type	tmo, %function
  43              	tmo:
  44              	.LFB23:
  45              		.loc 1 504 0
  46              		.cfi_startproc
  47              		@ args = 0, pretend = 0, frame = 0
  48              		@ frame_needed = 0, uses_anonymous_args = 0
  49              		@ link register save eliminated.
  50              	.LVL1:
  51              		.loc 1 504 0
  52 0000 7047     		bx	lr
  53              		.cfi_endproc
  54              	.LFE23:
ARM GAS  /var/folders/5n/p_75w94d66l9ssrldxqdhh700000gn/T//ccDYaWON.s 			page 2


  55              		.size	tmo, .-tmo
  56 0002 00BFAFF3 		.section	.text.bmk13_execute,"ax",%progbits
  56      0080AFF3 
  56      0080AFF3 
  56      0080
  57              		.align	2
  58              		.p2align 4,,15
  59              		.thumb
  60              		.thumb_func
  61              		.type	bmk13_execute, %function
  62              	bmk13_execute:
  63              	.LFB29:
  64              		.loc 1 637 0
  65              		.cfi_startproc
  66              		@ args = 0, pretend = 0, frame = 0
  67              		@ frame_needed = 0, uses_anonymous_args = 0
  68              		.loc 1 639 0
  69 0000 40F20000 		movw	r0, #:lower16:.LC0
  70              		.loc 1 637 0
  71 0004 10B5     		push	{r4, lr}
  72              	.LCFI0:
  73              		.cfi_def_cfa_offset 8
  74              		.cfi_offset 14, -4
  75              		.cfi_offset 4, -8
  76              		.loc 1 639 0
  77 0006 C0F20000 		movt	r0, #:upper16:.LC0
  78              		.loc 1 645 0
  79 000a 40F20004 		movw	r4, #:lower16:.LC1
  80 000e C0F20004 		movt	r4, #:upper16:.LC1
  81              		.loc 1 639 0
  82 0012 FFF7FEFF 		bl	test_print
  83              		.loc 1 640 0
  84 0016 4FF4CA70 		mov	r0, #404
  85 001a FFF7FEFF 		bl	test_printn
  86              		.loc 1 645 0
  87 001e 2046     		mov	r0, r4
  88 0020 FFF7FEFF 		bl	test_println
  89              		.loc 1 646 0
  90 0024 40F20000 		movw	r0, #:lower16:.LC2
  91 0028 C0F20000 		movt	r0, #:upper16:.LC2
  92 002c FFF7FEFF 		bl	test_print
  93              		.loc 1 647 0
  94 0030 4820     		movs	r0, #72
  95 0032 FFF7FEFF 		bl	test_printn
  96              		.loc 1 648 0
  97 0036 2046     		mov	r0, r4
  98 0038 FFF7FEFF 		bl	test_println
  99              		.loc 1 649 0
 100 003c 40F20000 		movw	r0, #:lower16:.LC3
 101 0040 C0F20000 		movt	r0, #:upper16:.LC3
 102 0044 FFF7FEFF 		bl	test_print
 103              		.loc 1 650 0
 104 0048 1420     		movs	r0, #20
 105 004a FFF7FEFF 		bl	test_printn
 106              		.loc 1 651 0
 107 004e 2046     		mov	r0, r4
 108 0050 FFF7FEFF 		bl	test_println
ARM GAS  /var/folders/5n/p_75w94d66l9ssrldxqdhh700000gn/T//ccDYaWON.s 			page 3


 109              		.loc 1 652 0
 110 0054 40F20000 		movw	r0, #:lower16:.LC4
 111 0058 C0F20000 		movt	r0, #:upper16:.LC4
 112 005c FFF7FEFF 		bl	test_print
 113              		.loc 1 653 0
 114 0060 0C20     		movs	r0, #12
 115 0062 FFF7FEFF 		bl	test_printn
 116              		.loc 1 654 0
 117 0066 2046     		mov	r0, r4
 118 0068 FFF7FEFF 		bl	test_println
 119              		.loc 1 656 0
 120 006c 40F20000 		movw	r0, #:lower16:.LC5
 121 0070 C0F20000 		movt	r0, #:upper16:.LC5
 122 0074 FFF7FEFF 		bl	test_print
 123              		.loc 1 657 0
 124 0078 0420     		movs	r0, #4
 125 007a FFF7FEFF 		bl	test_printn
 126              		.loc 1 658 0
 127 007e 2046     		mov	r0, r4
 128 0080 FFF7FEFF 		bl	test_println
 129              		.loc 1 659 0
 130 0084 40F20000 		movw	r0, #:lower16:.LC6
 131 0088 C0F20000 		movt	r0, #:upper16:.LC6
 132 008c FFF7FEFF 		bl	test_print
 133              		.loc 1 660 0
 134 0090 1020     		movs	r0, #16
 135 0092 FFF7FEFF 		bl	test_printn
 136              		.loc 1 661 0
 137 0096 2046     		mov	r0, r4
 138 0098 FFF7FEFF 		bl	test_println
 139              		.loc 1 664 0
 140 009c 40F20000 		movw	r0, #:lower16:.LC7
 141 00a0 C0F20000 		movt	r0, #:upper16:.LC7
 142 00a4 FFF7FEFF 		bl	test_print
 143              		.loc 1 665 0
 144 00a8 1020     		movs	r0, #16
 145 00aa FFF7FEFF 		bl	test_printn
 146              		.loc 1 666 0
 147 00ae 2046     		mov	r0, r4
 148 00b0 FFF7FEFF 		bl	test_println
 149              		.loc 1 669 0
 150 00b4 40F20000 		movw	r0, #:lower16:.LC8
 151 00b8 C0F20000 		movt	r0, #:upper16:.LC8
 152 00bc FFF7FEFF 		bl	test_print
 153              		.loc 1 670 0
 154 00c0 0820     		movs	r0, #8
 155 00c2 FFF7FEFF 		bl	test_printn
 156              		.loc 1 671 0
 157 00c6 2046     		mov	r0, r4
 158 00c8 FFF7FEFF 		bl	test_println
 159              		.loc 1 674 0
 160 00cc 40F20000 		movw	r0, #:lower16:.LC9
 161 00d0 C0F20000 		movt	r0, #:upper16:.LC9
 162 00d4 FFF7FEFF 		bl	test_print
 163              		.loc 1 675 0
 164 00d8 2420     		movs	r0, #36
 165 00da FFF7FEFF 		bl	test_printn
ARM GAS  /var/folders/5n/p_75w94d66l9ssrldxqdhh700000gn/T//ccDYaWON.s 			page 4


 166              		.loc 1 676 0
 167 00de 2046     		mov	r0, r4
 168 00e0 FFF7FEFF 		bl	test_println
 169              		.loc 1 679 0
 170 00e4 40F20000 		movw	r0, #:lower16:.LC10
 171 00e8 C0F20000 		movt	r0, #:upper16:.LC10
 172 00ec FFF7FEFF 		bl	test_print
 173              		.loc 1 680 0
 174 00f0 2820     		movs	r0, #40
 175 00f2 FFF7FEFF 		bl	test_printn
 176              		.loc 1 681 0
 177 00f6 2046     		mov	r0, r4
 178              		.loc 1 683 0
 179 00f8 BDE81040 		pop	{r4, lr}
 180              		.loc 1 681 0
 181 00fc FFF7FEBF 		b	test_println
 182              		.cfi_endproc
 183              	.LFE29:
 184              		.size	bmk13_execute, .-bmk13_execute
 185              		.section	.text.bmk12_execute,"ax",%progbits
 186              		.align	2
 187              		.p2align 4,,15
 188              		.thumb
 189              		.thumb_func
 190              		.type	bmk12_execute, %function
 191              	bmk12_execute:
 192              	.LFB28:
 193              		.loc 1 598 0
 194              		.cfi_startproc
 195              		@ args = 0, pretend = 0, frame = 0
 196              		@ frame_needed = 0, uses_anonymous_args = 0
 197              	.LVL2:
 198 0000 38B5     		push	{r3, r4, r5, lr}
 199              	.LCFI1:
 200              		.cfi_def_cfa_offset 16
 201              		.cfi_offset 14, -4
 202              		.cfi_offset 5, -8
 203              		.cfi_offset 4, -12
 204              		.cfi_offset 3, -16
 205              		.loc 1 601 0
 206 0002 FFF7FEFF 		bl	test_wait_tick
 207              		.loc 1 602 0
 208 0006 4FF47A70 		mov	r0, #1000
 209 000a FFF7FEFF 		bl	test_start_timer
 210 000e 124D     		ldr	r5, .L8
 211              		.loc 1 599 0
 212 0010 0024     		movs	r4, #0
 213              	.LVL3:
 214              	.L5:
 215              		.loc 1 604 0 discriminator 1
 216 0012 1248     		ldr	r0, .L8+4
 217 0014 FFF7FEFF 		bl	chMtxLock
 218              		.loc 1 605 0 discriminator 1
 219 0018 FFF7FEFF 		bl	chMtxUnlock
 220              		.loc 1 606 0 discriminator 1
 221 001c 0F48     		ldr	r0, .L8+4
 222 001e FFF7FEFF 		bl	chMtxLock
ARM GAS  /var/folders/5n/p_75w94d66l9ssrldxqdhh700000gn/T//ccDYaWON.s 			page 5


 223              		.loc 1 607 0 discriminator 1
 224 0022 FFF7FEFF 		bl	chMtxUnlock
 225              		.loc 1 608 0 discriminator 1
 226 0026 0D48     		ldr	r0, .L8+4
 227 0028 FFF7FEFF 		bl	chMtxLock
 228              		.loc 1 609 0 discriminator 1
 229 002c FFF7FEFF 		bl	chMtxUnlock
 230              		.loc 1 610 0 discriminator 1
 231 0030 0A48     		ldr	r0, .L8+4
 232 0032 FFF7FEFF 		bl	chMtxLock
 233              		.loc 1 611 0 discriminator 1
 234 0036 FFF7FEFF 		bl	chMtxUnlock
 235              		.loc 1 616 0 discriminator 1
 236 003a 2B68     		ldr	r3, [r5, #0]
 237              		.loc 1 612 0 discriminator 1
 238 003c 0134     		adds	r4, r4, #1
 239              	.LVL4:
 240              		.loc 1 616 0 discriminator 1
 241 003e 002B     		cmp	r3, #0
 242 0040 E7D0     		beq	.L5
 243              		.loc 1 617 0
 244 0042 0748     		ldr	r0, .L8+8
 245 0044 FFF7FEFF 		bl	test_print
 246              		.loc 1 618 0
 247 0048 A000     		lsls	r0, r4, #2
 248 004a FFF7FEFF 		bl	test_printn
 249              		.loc 1 619 0
 250 004e 0548     		ldr	r0, .L8+12
 251              		.loc 1 620 0
 252 0050 BDE83840 		pop	{r3, r4, r5, lr}
 253              		.loc 1 619 0
 254 0054 FFF7FEBF 		b	test_println
 255              	.L9:
 256              		.align	2
 257              	.L8:
 258 0058 00000000 		.word	test_timer_done
 259 005c 00000000 		.word	.LANCHOR0
 260 0060 A8000000 		.word	.LC11
 261 0064 B8000000 		.word	.LC12
 262              		.cfi_endproc
 263              	.LFE28:
 264              		.size	bmk12_execute, .-bmk12_execute
 265 0068 AFF30080 		.section	.text.bmk12_setup,"ax",%progbits
 265      AFF30080 
 266              		.align	2
 267              		.p2align 4,,15
 268              		.thumb
 269              		.thumb_func
 270              		.type	bmk12_setup, %function
 271              	bmk12_setup:
 272              	.LFB27:
 273              		.loc 1 593 0
 274              		.cfi_startproc
 275              		@ args = 0, pretend = 0, frame = 0
 276              		@ frame_needed = 0, uses_anonymous_args = 0
 277              		@ link register save eliminated.
 278              		.loc 1 595 0
ARM GAS  /var/folders/5n/p_75w94d66l9ssrldxqdhh700000gn/T//ccDYaWON.s 			page 6


 279 0000 40F20000 		movw	r0, #:lower16:.LANCHOR0
 280 0004 C0F20000 		movt	r0, #:upper16:.LANCHOR0
 281              		.loc 1 596 0
 282              		.loc 1 595 0
 283 0008 FFF7FEBF 		b	chMtxInit
 284              		.cfi_endproc
 285              	.LFE27:
 286              		.size	bmk12_setup, .-bmk12_setup
 287 000c AFF30080 		.section	.text.thread3,"ax",%progbits
 288              		.align	2
 289              		.p2align 4,,15
 290              		.thumb
 291              		.thumb_func
 292              		.type	thread3, %function
 293              	thread3:
 294              	.LFB17:
 295              		.loc 1 345 0
 296              		.cfi_startproc
 297              		@ args = 0, pretend = 0, frame = 0
 298              		@ frame_needed = 0, uses_anonymous_args = 0
 299              	.LVL5:
 300 0000 10B5     		push	{r4, lr}
 301              	.LCFI2:
 302              		.cfi_def_cfa_offset 8
 303              		.cfi_offset 14, -4
 304              		.cfi_offset 4, -8
 305              		.loc 1 348 0
 306 0002 074C     		ldr	r4, .L16
 307 0004 A369     		ldr	r3, [r4, #24]
 308 0006 5B7F     		ldrb	r3, [r3, #29]	@ zero_extendqisi2
 309 0008 5A07     		lsls	r2, r3, #29
 310 000a 06D4     		bmi	.L12
 311              	.LVL6:
 312              	.L14:
 313              		.loc 1 349 0
 314 000c 0548     		ldr	r0, .L16+4
 315 000e FFF7FEFF 		bl	chSemWait
 316              		.loc 1 348 0
 317 0012 A369     		ldr	r3, [r4, #24]
 318 0014 5B7F     		ldrb	r3, [r3, #29]	@ zero_extendqisi2
 319 0016 5B07     		lsls	r3, r3, #29
 320 0018 F8D5     		bpl	.L14
 321              	.L12:
 322              		.loc 1 351 0
 323 001a 0020     		movs	r0, #0
 324 001c 10BD     		pop	{r4, pc}
 325              	.L17:
 326 001e 00BF     		.align	2
 327              	.L16:
 328 0020 00000000 		.word	rlist
 329 0024 00000000 		.word	.LANCHOR1
 330              		.cfi_endproc
 331              	.LFE17:
 332              		.size	thread3, .-thread3
 333 0028 AFF30080 		.section	.text.bmk11_execute,"ax",%progbits
 333      AFF30080 
 334              		.align	2
ARM GAS  /var/folders/5n/p_75w94d66l9ssrldxqdhh700000gn/T//ccDYaWON.s 			page 7


 335              		.p2align 4,,15
 336              		.thumb
 337              		.thumb_func
 338              		.type	bmk11_execute, %function
 339              	bmk11_execute:
 340              	.LFB26:
 341              		.loc 1 551 0
 342              		.cfi_startproc
 343              		@ args = 0, pretend = 0, frame = 0
 344              		@ frame_needed = 0, uses_anonymous_args = 0
 345              	.LVL7:
 346 0000 38B5     		push	{r3, r4, r5, lr}
 347              	.LCFI3:
 348              		.cfi_def_cfa_offset 16
 349              		.cfi_offset 14, -4
 350              		.cfi_offset 5, -8
 351              		.cfi_offset 4, -12
 352              		.cfi_offset 3, -16
 353              		.loc 1 554 0
 354 0002 FFF7FEFF 		bl	test_wait_tick
 355              		.loc 1 555 0
 356 0006 4FF47A70 		mov	r0, #1000
 357 000a FFF7FEFF 		bl	test_start_timer
 358 000e 144D     		ldr	r5, .L21
 359              		.loc 1 552 0
 360 0010 0024     		movs	r4, #0
 361              	.LVL8:
 362              	.L19:
 363              		.loc 1 557 0 discriminator 1
 364 0012 1448     		ldr	r0, .L21+4
 365 0014 FFF7FEFF 		bl	chSemWait
 366              		.loc 1 558 0 discriminator 1
 367 0018 1248     		ldr	r0, .L21+4
 368 001a FFF7FEFF 		bl	chSemSignal
 369              		.loc 1 559 0 discriminator 1
 370 001e 1148     		ldr	r0, .L21+4
 371 0020 FFF7FEFF 		bl	chSemWait
 372              		.loc 1 560 0 discriminator 1
 373 0024 0F48     		ldr	r0, .L21+4
 374 0026 FFF7FEFF 		bl	chSemSignal
 375              		.loc 1 561 0 discriminator 1
 376 002a 0E48     		ldr	r0, .L21+4
 377 002c FFF7FEFF 		bl	chSemWait
 378              		.loc 1 562 0 discriminator 1
 379 0030 0C48     		ldr	r0, .L21+4
 380 0032 FFF7FEFF 		bl	chSemSignal
 381              		.loc 1 563 0 discriminator 1
 382 0036 0B48     		ldr	r0, .L21+4
 383 0038 FFF7FEFF 		bl	chSemWait
 384              		.loc 1 564 0 discriminator 1
 385 003c 0948     		ldr	r0, .L21+4
 386 003e FFF7FEFF 		bl	chSemSignal
 387              		.loc 1 569 0 discriminator 1
 388 0042 2B68     		ldr	r3, [r5, #0]
 389              		.loc 1 565 0 discriminator 1
 390 0044 0134     		adds	r4, r4, #1
 391              	.LVL9:
ARM GAS  /var/folders/5n/p_75w94d66l9ssrldxqdhh700000gn/T//ccDYaWON.s 			page 8


 392              		.loc 1 569 0 discriminator 1
 393 0046 002B     		cmp	r3, #0
 394 0048 E3D0     		beq	.L19
 395              		.loc 1 570 0
 396 004a 0748     		ldr	r0, .L21+8
 397 004c FFF7FEFF 		bl	test_print
 398              		.loc 1 571 0
 399 0050 A000     		lsls	r0, r4, #2
 400 0052 FFF7FEFF 		bl	test_printn
 401              		.loc 1 572 0
 402 0056 0548     		ldr	r0, .L21+12
 403              		.loc 1 573 0
 404 0058 BDE83840 		pop	{r3, r4, r5, lr}
 405              		.loc 1 572 0
 406 005c FFF7FEBF 		b	test_println
 407              	.L22:
 408              		.align	2
 409              	.L21:
 410 0060 00000000 		.word	test_timer_done
 411 0064 00000000 		.word	.LANCHOR1
 412 0068 A8000000 		.word	.LC11
 413 006c C8000000 		.word	.LC13
 414              		.cfi_endproc
 415              	.LFE26:
 416              		.size	bmk11_execute, .-bmk11_execute
 417              		.section	.text.bmk11_setup,"ax",%progbits
 418              		.align	2
 419              		.p2align 4,,15
 420              		.thumb
 421              		.thumb_func
 422              		.type	bmk11_setup, %function
 423              	bmk11_setup:
 424              	.LFB25:
 425              		.loc 1 546 0
 426              		.cfi_startproc
 427              		@ args = 0, pretend = 0, frame = 0
 428              		@ frame_needed = 0, uses_anonymous_args = 0
 429              		@ link register save eliminated.
 430              		.loc 1 548 0
 431 0000 40F20000 		movw	r0, #:lower16:.LANCHOR1
 432 0004 C0F20000 		movt	r0, #:upper16:.LANCHOR1
 433 0008 0121     		movs	r1, #1
 434              		.loc 1 549 0
 435              		.loc 1 548 0
 436 000a FFF7FEBF 		b	chSemInit
 437              		.cfi_endproc
 438              	.LFE25:
 439              		.size	bmk11_setup, .-bmk11_setup
 440 000e 00BF     		.section	.text.bmk7_setup,"ax",%progbits
 441              		.align	2
 442              		.p2align 4,,15
 443              		.thumb
 444              		.thumb_func
 445              		.type	bmk7_setup, %function
 446              	bmk7_setup:
 447              	.LFB18:
 448              		.loc 1 353 0
ARM GAS  /var/folders/5n/p_75w94d66l9ssrldxqdhh700000gn/T//ccDYaWON.s 			page 9


 449              		.cfi_startproc
 450              		@ args = 0, pretend = 0, frame = 0
 451              		@ frame_needed = 0, uses_anonymous_args = 0
 452              		@ link register save eliminated.
 453              		.loc 1 355 0
 454 0000 40F20000 		movw	r0, #:lower16:.LANCHOR1
 455 0004 C0F20000 		movt	r0, #:upper16:.LANCHOR1
 456 0008 0021     		movs	r1, #0
 457              		.loc 1 356 0
 458              		.loc 1 355 0
 459 000a FFF7FEBF 		b	chSemInit
 460              		.cfi_endproc
 461              	.LFE18:
 462              		.size	bmk7_setup, .-bmk7_setup
 463 000e 00BF     		.section	.text.bmk10_execute,"ax",%progbits
 464              		.align	2
 465              		.p2align 4,,15
 466              		.thumb
 467              		.thumb_func
 468              		.type	bmk10_execute, %function
 469              	bmk10_execute:
 470              	.LFB24:
 471              		.loc 1 506 0
 472              		.cfi_startproc
 473              		@ args = 0, pretend = 0, frame = 0
 474              		@ frame_needed = 0, uses_anonymous_args = 0
 475              	.LVL10:
 476 0000 38B5     		push	{r3, r4, r5, lr}
 477              	.LCFI4:
 478              		.cfi_def_cfa_offset 16
 479              		.cfi_offset 14, -4
 480              		.cfi_offset 5, -8
 481              		.cfi_offset 4, -12
 482              		.cfi_offset 3, -16
 483              		.loc 1 510 0
 484 0002 FFF7FEFF 		bl	test_wait_tick
 485              		.loc 1 511 0
 486 0006 4FF47A70 		mov	r0, #1000
 487 000a FFF7FEFF 		bl	test_start_timer
 488 000e 154D     		ldr	r5, .L28
 489              		.loc 1 508 0
 490 0010 0024     		movs	r4, #0
 491              	.LVL11:
 492              	.L26:
 493              	.LBB2:
 494              		.loc 1 513 0 discriminator 1
 495 0012 2023     		movs	r3, #32
 496              	.LVL12:
 497              	@ 513 "../../test/testbmk.c" 1
 498 0014 83F31188 		msr     BASEPRI, r3
 499              	@ 0 "" 2
 500              	.LVL13:
 501              		.thumb
 502              	.LBE2:
 503              		.loc 1 514 0 discriminator 1
 504 0018 0121     		movs	r1, #1
 505 001a 0023     		movs	r3, #0
ARM GAS  /var/folders/5n/p_75w94d66l9ssrldxqdhh700000gn/T//ccDYaWON.s 			page 10


 506              	.LVL14:
 507 001c 1248     		ldr	r0, .L28+4
 508 001e 134A     		ldr	r2, .L28+8
 509 0020 FFF7FEFF 		bl	chVTSetI
 510              		.loc 1 515 0 discriminator 1
 511 0024 0023     		movs	r3, #0
 512 0026 42F21071 		movw	r1, #10000
 513 002a 104A     		ldr	r2, .L28+8
 514 002c 1048     		ldr	r0, .L28+12
 515 002e FFF7FEFF 		bl	chVTSetI
 516              		.loc 1 516 0 discriminator 1
 517 0032 0D48     		ldr	r0, .L28+4
 518 0034 FFF7FEFF 		bl	chVTResetI
 519              		.loc 1 517 0 discriminator 1
 520 0038 0D48     		ldr	r0, .L28+12
 521 003a FFF7FEFF 		bl	chVTResetI
 522              	.LBB3:
 523              		.loc 1 518 0 discriminator 1
 524 003e 0023     		movs	r3, #0
 525              	.LVL15:
 526              	@ 518 "../../test/testbmk.c" 1
 527 0040 83F31188 		msr     BASEPRI, r3
 528              	@ 0 "" 2
 529              	.LVL16:
 530              		.thumb
 531              	.LBE3:
 532              		.loc 1 523 0 discriminator 1
 533 0044 2B68     		ldr	r3, [r5, #0]
 534              	.LVL17:
 535              		.loc 1 519 0 discriminator 1
 536 0046 0134     		adds	r4, r4, #1
 537              	.LVL18:
 538              		.loc 1 523 0 discriminator 1
 539 0048 002B     		cmp	r3, #0
 540 004a E2D0     		beq	.L26
 541              		.loc 1 524 0
 542 004c 0948     		ldr	r0, .L28+16
 543 004e FFF7FEFF 		bl	test_print
 544              		.loc 1 525 0
 545 0052 6000     		lsls	r0, r4, #1
 546 0054 FFF7FEFF 		bl	test_printn
 547              		.loc 1 526 0
 548 0058 0748     		ldr	r0, .L28+20
 549              		.loc 1 527 0
 550 005a BDE83840 		pop	{r3, r4, r5, lr}
 551              		.loc 1 526 0
 552 005e FFF7FEBF 		b	test_println
 553              	.L29:
 554 0062 00BF     		.align	2
 555              	.L28:
 556 0064 00000000 		.word	test_timer_done
 557 0068 00000000 		.word	.LANCHOR2
 558 006c 00000000 		.word	tmo
 559 0070 00000000 		.word	.LANCHOR3
 560 0074 A8000000 		.word	.LC11
 561 0078 D8000000 		.word	.LC14
 562              		.cfi_endproc
ARM GAS  /var/folders/5n/p_75w94d66l9ssrldxqdhh700000gn/T//ccDYaWON.s 			page 11


 563              	.LFE24:
 564              		.size	bmk10_execute, .-bmk10_execute
 565 007c AFF30080 		.section	.text.bmk9_execute,"ax",%progbits
 566              		.align	2
 567              		.p2align 4,,15
 568              		.thumb
 569              		.thumb_func
 570              		.type	bmk9_execute, %function
 571              	bmk9_execute:
 572              	.LFB22:
 573              		.loc 1 458 0
 574              		.cfi_startproc
 575              		@ args = 0, pretend = 0, frame = 0
 576              		@ frame_needed = 0, uses_anonymous_args = 0
 577 0000 30B5     		push	{r4, r5, lr}
 578              	.LCFI5:
 579              		.cfi_def_cfa_offset 12
 580              		.cfi_offset 14, -4
 581              		.cfi_offset 5, -8
 582              		.cfi_offset 4, -12
 583              		.loc 1 463 0
 584 0002 0024     		movs	r4, #0
 585              		.loc 1 458 0
 586 0004 83B0     		sub	sp, sp, #12
 587              	.LCFI6:
 588              		.cfi_def_cfa_offset 24
 589              		.loc 1 463 0
 590 0006 2449     		ldr	r1, .L33
 591 0008 2448     		ldr	r0, .L33+4
 592 000a 0094     		str	r4, [sp, #0]
 593 000c 1022     		movs	r2, #16
 594 000e 2346     		mov	r3, r4
 595 0010 FFF7FEFF 		bl	chIQInit
 596              	.LVL19:
 597              		.loc 1 465 0
 598 0014 FFF7FEFF 		bl	test_wait_tick
 599              		.loc 1 466 0
 600 0018 4FF47A70 		mov	r0, #1000
 601 001c FFF7FEFF 		bl	test_start_timer
 602 0020 1F4D     		ldr	r5, .L33+8
 603              	.LVL20:
 604              	.L31:
 605              	.LBB4:
 606              		.loc 1 468 0 discriminator 1
 607 0022 2023     		movs	r3, #32
 608              	.LVL21:
 609              	@ 468 "../../test/testbmk.c" 1
 610 0024 83F31188 		msr     BASEPRI, r3
 611              	@ 0 "" 2
 612              	.LVL22:
 613              		.thumb
 614              	.LBE4:
 615              		.loc 1 469 0 discriminator 1
 616 0028 0021     		movs	r1, #0
 617 002a 1C48     		ldr	r0, .L33+4
 618 002c FFF7FEFF 		bl	chIQPutI
 619              	.LVL23:
ARM GAS  /var/folders/5n/p_75w94d66l9ssrldxqdhh700000gn/T//ccDYaWON.s 			page 12


 620              		.loc 1 470 0 discriminator 1
 621 0030 0121     		movs	r1, #1
 622 0032 1A48     		ldr	r0, .L33+4
 623 0034 FFF7FEFF 		bl	chIQPutI
 624              		.loc 1 471 0 discriminator 1
 625 0038 0221     		movs	r1, #2
 626 003a 1848     		ldr	r0, .L33+4
 627 003c FFF7FEFF 		bl	chIQPutI
 628              		.loc 1 472 0 discriminator 1
 629 0040 0321     		movs	r1, #3
 630 0042 1648     		ldr	r0, .L33+4
 631 0044 FFF7FEFF 		bl	chIQPutI
 632              	.LBB5:
 633              		.loc 1 473 0 discriminator 1
 634 0048 0023     		movs	r3, #0
 635              	.LVL24:
 636              	@ 473 "../../test/testbmk.c" 1
 637 004a 83F31188 		msr     BASEPRI, r3
 638              	@ 0 "" 2
 639              	.LVL25:
 640              		.thumb
 641              	.LBE5:
 642              		.loc 1 474 0 discriminator 1
 643 004e 4FF0FF31 		mov	r1, #-1
 644 0052 1248     		ldr	r0, .L33+4
 645 0054 FFF7FEFF 		bl	chIQGetTimeout
 646              	.LVL26:
 647              		.loc 1 475 0 discriminator 1
 648 0058 4FF0FF31 		mov	r1, #-1
 649 005c 0F48     		ldr	r0, .L33+4
 650 005e FFF7FEFF 		bl	chIQGetTimeout
 651              		.loc 1 476 0 discriminator 1
 652 0062 4FF0FF31 		mov	r1, #-1
 653 0066 0D48     		ldr	r0, .L33+4
 654 0068 FFF7FEFF 		bl	chIQGetTimeout
 655              		.loc 1 477 0 discriminator 1
 656 006c 0B48     		ldr	r0, .L33+4
 657 006e 4FF0FF31 		mov	r1, #-1
 658 0072 FFF7FEFF 		bl	chIQGetTimeout
 659              		.loc 1 482 0 discriminator 1
 660 0076 2B68     		ldr	r3, [r5, #0]
 661              		.loc 1 478 0 discriminator 1
 662 0078 0134     		adds	r4, r4, #1
 663              	.LVL27:
 664              		.loc 1 482 0 discriminator 1
 665 007a 002B     		cmp	r3, #0
 666 007c D1D0     		beq	.L31
 667              		.loc 1 483 0
 668 007e 0948     		ldr	r0, .L33+12
 669 0080 FFF7FEFF 		bl	test_print
 670              		.loc 1 484 0
 671 0084 A000     		lsls	r0, r4, #2
 672 0086 FFF7FEFF 		bl	test_printn
 673              		.loc 1 485 0
 674 008a 0748     		ldr	r0, .L33+16
 675              		.loc 1 486 0
 676 008c 03B0     		add	sp, sp, #12
ARM GAS  /var/folders/5n/p_75w94d66l9ssrldxqdhh700000gn/T//ccDYaWON.s 			page 13


 677 008e BDE83040 		pop	{r4, r5, lr}
 678              		.loc 1 485 0
 679 0092 FFF7FEBF 		b	test_println
 680              	.L34:
 681 0096 00BF     		.align	2
 682              	.L33:
 683 0098 00000000 		.word	.LANCHOR5
 684 009c 00000000 		.word	.LANCHOR4
 685 00a0 00000000 		.word	test_timer_done
 686 00a4 A8000000 		.word	.LC11
 687 00a8 E4000000 		.word	.LC15
 688              		.cfi_endproc
 689              	.LFE22:
 690              		.size	bmk9_execute, .-bmk9_execute
 691 00ac AFF30080 		.section	.text.bmk6_execute,"ax",%progbits
 692              		.align	2
 693              		.p2align 4,,15
 694              		.thumb
 695              		.thumb_func
 696              		.type	bmk6_execute, %function
 697              	bmk6_execute:
 698              	.LFB16:
 699              		.loc 1 308 0
 700              		.cfi_startproc
 701              		@ args = 0, pretend = 0, frame = 0
 702              		@ frame_needed = 0, uses_anonymous_args = 0
 703              	.LVL28:
 704 0000 2DE9F041 		push	{r4, r5, r6, r7, r8, lr}
 705              	.LCFI7:
 706              		.cfi_def_cfa_offset 24
 707              		.cfi_offset 14, -4
 708              		.cfi_offset 8, -8
 709              		.cfi_offset 7, -12
 710              		.cfi_offset 6, -16
 711              		.cfi_offset 5, -20
 712              		.cfi_offset 4, -24
 713              		.loc 1 312 0
 714 0004 144B     		ldr	r3, .L38
 715              		.loc 1 311 0
 716 0006 154A     		ldr	r2, .L38+4
 717              		.loc 1 312 0
 718 0008 9B69     		ldr	r3, [r3, #24]
 719              		.loc 1 311 0
 720 000a D2F80080 		ldr	r8, [r2, #0]
 721              	.LVL29:
 722              		.loc 1 312 0
 723 000e 9E68     		ldr	r6, [r3, #8]
 724 0010 134F     		ldr	r7, .L38+8
 725              		.loc 1 308 0
 726 0012 82B0     		sub	sp, sp, #8
 727              	.LCFI8:
 728              		.cfi_def_cfa_offset 32
 729              		.loc 1 313 0
 730 0014 FFF7FEFF 		bl	test_wait_tick
 731              	.LVL30:
 732              		.loc 1 314 0
 733 0018 4FF47A70 		mov	r0, #1000
ARM GAS  /var/folders/5n/p_75w94d66l9ssrldxqdhh700000gn/T//ccDYaWON.s 			page 14


 734 001c FFF7FEFF 		bl	test_start_timer
 735              		.loc 1 310 0
 736 0020 0024     		movs	r4, #0
 737              		.loc 1 312 0
 738 0022 0136     		adds	r6, r6, #1
 739              	.LVL31:
 740              		.loc 1 316 0
 741 0024 2546     		mov	r5, r4
 742              	.LVL32:
 743              	.L36:
 744              		.loc 1 316 0 is_stmt 0 discriminator 1
 745 0026 0F4B     		ldr	r3, .L38+12
 746 0028 0095     		str	r5, [sp, #0]
 747 002a 4046     		mov	r0, r8
 748 002c 4FF49871 		mov	r1, #304
 749 0030 3246     		mov	r2, r6
 750 0032 FFF7FEFF 		bl	chThdCreateStatic
 751              		.loc 1 321 0 is_stmt 1 discriminator 1
 752 0036 3B68     		ldr	r3, [r7, #0]
 753              		.loc 1 317 0 discriminator 1
 754 0038 0134     		adds	r4, r4, #1
 755              	.LVL33:
 756              		.loc 1 321 0 discriminator 1
 757 003a 002B     		cmp	r3, #0
 758 003c F3D0     		beq	.L36
 759              		.loc 1 322 0
 760 003e 0A48     		ldr	r0, .L38+16
 761 0040 FFF7FEFF 		bl	test_print
 762              		.loc 1 323 0
 763 0044 2046     		mov	r0, r4
 764 0046 FFF7FEFF 		bl	test_printn
 765              		.loc 1 324 0
 766 004a 0848     		ldr	r0, .L38+20
 767              		.loc 1 325 0
 768 004c 02B0     		add	sp, sp, #8
 769 004e BDE8F041 		pop	{r4, r5, r6, r7, r8, lr}
 770              		.loc 1 324 0
 771 0052 FFF7FEBF 		b	test_println
 772              	.L39:
 773 0056 00BF     		.align	2
 774              	.L38:
 775 0058 00000000 		.word	rlist
 776 005c 00000000 		.word	wa
 777 0060 00000000 		.word	test_timer_done
 778 0064 00000000 		.word	thread2
 779 0068 A8000000 		.word	.LC11
 780 006c F0000000 		.word	.LC16
 781              		.cfi_endproc
 782              	.LFE16:
 783              		.size	bmk6_execute, .-bmk6_execute
 784              		.section	.text.bmk8_execute,"ax",%progbits
 785              		.align	2
 786              		.p2align 4,,15
 787              		.thumb
 788              		.thumb_func
 789              		.type	bmk8_execute, %function
 790              	bmk8_execute:
ARM GAS  /var/folders/5n/p_75w94d66l9ssrldxqdhh700000gn/T//ccDYaWON.s 			page 15


 791              	.LFB21:
 792              		.loc 1 420 0
 793              		.cfi_startproc
 794              		@ args = 0, pretend = 0, frame = 8
 795              		@ frame_needed = 0, uses_anonymous_args = 0
 796 0000 2DE9F041 		push	{r4, r5, r6, r7, r8, lr}
 797              	.LCFI9:
 798              		.cfi_def_cfa_offset 24
 799              		.cfi_offset 14, -4
 800              		.cfi_offset 8, -8
 801              		.cfi_offset 7, -12
 802              		.cfi_offset 6, -16
 803              		.cfi_offset 5, -20
 804              		.cfi_offset 4, -24
 805              		.loc 1 426 0
 806 0004 40F20007 		movw	r7, #:lower16:rlist
 807              		.loc 1 420 0
 808 0008 84B0     		sub	sp, sp, #16
 809              	.LCFI10:
 810              		.cfi_def_cfa_offset 40
 811              		.loc 1 423 0
 812 000a 04AC     		add	r4, sp, #16
 813              		.loc 1 426 0
 814 000c C0F20007 		movt	r7, #:upper16:rlist
 815              		.loc 1 423 0
 816 0010 0023     		movs	r3, #0
 817 0012 44F8043D 		str	r3, [r4, #-4]!
 818              	.LVL34:
 819              		.loc 1 424 0
 820 0016 FFF7FEFF 		bl	test_wait_tick
 821              		.loc 1 426 0
 822 001a BB69     		ldr	r3, [r7, #24]
 823 001c 40F20006 		movw	r6, #:lower16:wa
 824 0020 C0F20006 		movt	r6, #:upper16:wa
 825 0024 9A68     		ldr	r2, [r3, #8]
 826 0026 3068     		ldr	r0, [r6, #0]
 827 0028 0094     		str	r4, [sp, #0]
 828 002a 40F20005 		movw	r5, #:lower16:thread8
 829 002e C0F20005 		movt	r5, #:upper16:thread8
 830 0032 013A     		subs	r2, r2, #1
 831 0034 2B46     		mov	r3, r5
 832 0036 4FF49871 		mov	r1, #304
 833 003a FFF7FEFF 		bl	chThdCreateStatic
 834              		.loc 1 427 0
 835 003e BB69     		ldr	r3, [r7, #24]
 836 0040 D6F804E0 		ldr	lr, [r6, #4]
 837 0044 9A68     		ldr	r2, [r3, #8]
 838 0046 0094     		str	r4, [sp, #0]
 839              		.loc 1 426 0
 840 0048 40F20008 		movw	r8, #:lower16:threads
 841 004c C0F20008 		movt	r8, #:upper16:threads
 842              		.loc 1 427 0
 843 0050 013A     		subs	r2, r2, #1
 844              		.loc 1 426 0
 845 0052 C8F80000 		str	r0, [r8, #0]
 846              		.loc 1 427 0
 847 0056 2B46     		mov	r3, r5
ARM GAS  /var/folders/5n/p_75w94d66l9ssrldxqdhh700000gn/T//ccDYaWON.s 			page 16


 848 0058 4FF49871 		mov	r1, #304
 849 005c 7046     		mov	r0, lr
 850 005e FFF7FEFF 		bl	chThdCreateStatic
 851              		.loc 1 428 0
 852 0062 BB69     		ldr	r3, [r7, #24]
 853 0064 D6F808E0 		ldr	lr, [r6, #8]
 854 0068 9A68     		ldr	r2, [r3, #8]
 855              		.loc 1 427 0
 856 006a C8F80400 		str	r0, [r8, #4]
 857              		.loc 1 428 0
 858 006e 013A     		subs	r2, r2, #1
 859 0070 2B46     		mov	r3, r5
 860 0072 4FF49871 		mov	r1, #304
 861 0076 7046     		mov	r0, lr
 862 0078 0094     		str	r4, [sp, #0]
 863 007a FFF7FEFF 		bl	chThdCreateStatic
 864              		.loc 1 429 0
 865 007e BB69     		ldr	r3, [r7, #24]
 866 0080 D6F80CE0 		ldr	lr, [r6, #12]
 867 0084 9A68     		ldr	r2, [r3, #8]
 868              		.loc 1 428 0
 869 0086 C8F80800 		str	r0, [r8, #8]
 870              		.loc 1 429 0
 871 008a 013A     		subs	r2, r2, #1
 872 008c 7046     		mov	r0, lr
 873 008e 2B46     		mov	r3, r5
 874 0090 4FF49871 		mov	r1, #304
 875 0094 0094     		str	r4, [sp, #0]
 876 0096 FFF7FEFF 		bl	chThdCreateStatic
 877              		.loc 1 430 0
 878 009a BB69     		ldr	r3, [r7, #24]
 879 009c 3669     		ldr	r6, [r6, #16]
 880 009e 9A68     		ldr	r2, [r3, #8]
 881              		.loc 1 429 0
 882 00a0 C8F80C00 		str	r0, [r8, #12]
 883              		.loc 1 430 0
 884 00a4 4FF49871 		mov	r1, #304
 885 00a8 013A     		subs	r2, r2, #1
 886 00aa 2B46     		mov	r3, r5
 887 00ac 3046     		mov	r0, r6
 888 00ae 0094     		str	r4, [sp, #0]
 889 00b0 FFF7FEFF 		bl	chThdCreateStatic
 890 00b4 C8F81000 		str	r0, [r8, #16]
 891              		.loc 1 432 0
 892 00b8 4FF47A70 		mov	r0, #1000
 893 00bc FFF7FEFF 		bl	chThdSleep
 894              		.loc 1 433 0
 895 00c0 FFF7FEFF 		bl	test_terminate_threads
 896              		.loc 1 434 0
 897 00c4 FFF7FEFF 		bl	test_wait_threads
 898              		.loc 1 436 0
 899 00c8 40F20000 		movw	r0, #:lower16:.LC11
 900 00cc C0F20000 		movt	r0, #:upper16:.LC11
 901 00d0 FFF7FEFF 		bl	test_print
 902              		.loc 1 437 0
 903 00d4 0398     		ldr	r0, [sp, #12]
 904 00d6 FFF7FEFF 		bl	test_printn
ARM GAS  /var/folders/5n/p_75w94d66l9ssrldxqdhh700000gn/T//ccDYaWON.s 			page 17


 905              		.loc 1 438 0
 906 00da 40F20000 		movw	r0, #:lower16:.LC17
 907 00de C0F20000 		movt	r0, #:upper16:.LC17
 908 00e2 FFF7FEFF 		bl	test_println
 909              		.loc 1 439 0
 910 00e6 04B0     		add	sp, sp, #16
 911 00e8 BDE8F081 		pop	{r4, r5, r6, r7, r8, pc}
 912              		.cfi_endproc
 913              	.LFE21:
 914              		.size	bmk8_execute, .-bmk8_execute
 915 00ec AFF30080 		.section	.text.thread8,"ax",%progbits
 916              		.align	2
 917              		.p2align 4,,15
 918              		.thumb
 919              		.thumb_func
 920              		.type	thread8, %function
 921              	thread8:
 922              	.LFB20:
 923              		.loc 1 405 0
 924              		.cfi_startproc
 925              		@ args = 0, pretend = 0, frame = 0
 926              		@ frame_needed = 0, uses_anonymous_args = 0
 927              	.LVL35:
 928 0000 38B5     		push	{r3, r4, r5, lr}
 929              	.LCFI11:
 930              		.cfi_def_cfa_offset 16
 931              		.cfi_offset 14, -4
 932              		.cfi_offset 5, -8
 933              		.cfi_offset 4, -12
 934              		.cfi_offset 3, -16
 935 0002 094C     		ldr	r4, .L44
 936              		.loc 1 405 0
 937 0004 0546     		mov	r5, r0
 938              	.LVL36:
 939              	.L42:
 940              		.loc 1 408 0 discriminator 1
 941 0006 FFF7FEFF 		bl	chThdYield
 942              		.loc 1 409 0 discriminator 1
 943 000a FFF7FEFF 		bl	chThdYield
 944              		.loc 1 410 0 discriminator 1
 945 000e FFF7FEFF 		bl	chThdYield
 946              		.loc 1 411 0 discriminator 1
 947 0012 FFF7FEFF 		bl	chThdYield
 948              		.loc 1 412 0 discriminator 1
 949 0016 2A68     		ldr	r2, [r5, #0]
 950              		.loc 1 416 0 discriminator 1
 951 0018 A369     		ldr	r3, [r4, #24]
 952              		.loc 1 412 0 discriminator 1
 953 001a 0432     		adds	r2, r2, #4
 954 001c 2A60     		str	r2, [r5, #0]
 955              		.loc 1 416 0 discriminator 1
 956 001e 5B7F     		ldrb	r3, [r3, #29]	@ zero_extendqisi2
 957 0020 5907     		lsls	r1, r3, #29
 958 0022 F0D5     		bpl	.L42
 959              		.loc 1 418 0
 960 0024 0020     		movs	r0, #0
 961 0026 38BD     		pop	{r3, r4, r5, pc}
ARM GAS  /var/folders/5n/p_75w94d66l9ssrldxqdhh700000gn/T//ccDYaWON.s 			page 18


 962              	.L45:
 963              		.align	2
 964              	.L44:
 965 0028 00000000 		.word	rlist
 966              		.cfi_endproc
 967              	.LFE20:
 968              		.size	thread8, .-thread8
 969 002c AFF30080 		.section	.text.bmk7_execute,"ax",%progbits
 970              		.align	2
 971              		.p2align 4,,15
 972              		.thumb
 973              		.thumb_func
 974              		.type	bmk7_execute, %function
 975              	bmk7_execute:
 976              	.LFB19:
 977              		.loc 1 358 0
 978              		.cfi_startproc
 979              		@ args = 0, pretend = 0, frame = 0
 980              		@ frame_needed = 0, uses_anonymous_args = 0
 981 0000 2DE9F041 		push	{r4, r5, r6, r7, r8, lr}
 982              	.LCFI12:
 983              		.cfi_def_cfa_offset 24
 984              		.cfi_offset 14, -4
 985              		.cfi_offset 8, -8
 986              		.cfi_offset 7, -12
 987              		.cfi_offset 6, -16
 988              		.cfi_offset 5, -20
 989              		.cfi_offset 4, -24
 990              		.loc 1 361 0
 991 0004 394F     		ldr	r7, .L49
 992 0006 3A4E     		ldr	r6, .L49+4
 993 0008 BB69     		ldr	r3, [r7, #24]
 994 000a 3068     		ldr	r0, [r6, #0]
 995 000c 9A68     		ldr	r2, [r3, #8]
 996 000e 394B     		ldr	r3, .L49+8
 997 0010 DFF8F880 		ldr	r8, .L49+32
 998 0014 384C     		ldr	r4, .L49+12
 999              		.loc 1 358 0
 1000 0016 82B0     		sub	sp, sp, #8
 1001              	.LCFI13:
 1002              		.cfi_def_cfa_offset 32
 1003              		.loc 1 361 0
 1004 0018 0025     		movs	r5, #0
 1005 001a 4FF49871 		mov	r1, #304
 1006 001e 0532     		adds	r2, r2, #5
 1007 0020 0095     		str	r5, [sp, #0]
 1008 0022 FFF7FEFF 		bl	chThdCreateStatic
 1009              		.loc 1 362 0
 1010 0026 BB69     		ldr	r3, [r7, #24]
 1011 0028 D6F804E0 		ldr	lr, [r6, #4]
 1012 002c 9A68     		ldr	r2, [r3, #8]
 1013              		.loc 1 361 0
 1014 002e C8F80000 		str	r0, [r8, #0]
 1015              		.loc 1 362 0
 1016 0032 4FF49871 		mov	r1, #304
 1017 0036 0432     		adds	r2, r2, #4
 1018 0038 2E4B     		ldr	r3, .L49+8
ARM GAS  /var/folders/5n/p_75w94d66l9ssrldxqdhh700000gn/T//ccDYaWON.s 			page 19


 1019 003a 0095     		str	r5, [sp, #0]
 1020 003c 7046     		mov	r0, lr
 1021 003e FFF7FEFF 		bl	chThdCreateStatic
 1022              		.loc 1 363 0
 1023 0042 BB69     		ldr	r3, [r7, #24]
 1024 0044 D6F808E0 		ldr	lr, [r6, #8]
 1025 0048 9A68     		ldr	r2, [r3, #8]
 1026              		.loc 1 362 0
 1027 004a C8F80400 		str	r0, [r8, #4]
 1028              		.loc 1 363 0
 1029 004e 4FF49871 		mov	r1, #304
 1030 0052 0332     		adds	r2, r2, #3
 1031 0054 274B     		ldr	r3, .L49+8
 1032 0056 0095     		str	r5, [sp, #0]
 1033 0058 7046     		mov	r0, lr
 1034 005a FFF7FEFF 		bl	chThdCreateStatic
 1035              		.loc 1 364 0
 1036 005e BB69     		ldr	r3, [r7, #24]
 1037 0060 D6F80CE0 		ldr	lr, [r6, #12]
 1038 0064 9A68     		ldr	r2, [r3, #8]
 1039              		.loc 1 363 0
 1040 0066 C8F80800 		str	r0, [r8, #8]
 1041              		.loc 1 364 0
 1042 006a 4FF49871 		mov	r1, #304
 1043 006e 7046     		mov	r0, lr
 1044 0070 0232     		adds	r2, r2, #2
 1045 0072 204B     		ldr	r3, .L49+8
 1046 0074 0095     		str	r5, [sp, #0]
 1047 0076 FFF7FEFF 		bl	chThdCreateStatic
 1048              		.loc 1 365 0
 1049 007a BB69     		ldr	r3, [r7, #24]
 1050 007c 3669     		ldr	r6, [r6, #16]
 1051 007e 9A68     		ldr	r2, [r3, #8]
 1052 0080 1C4B     		ldr	r3, .L49+8
 1053              		.loc 1 364 0
 1054 0082 C8F80C00 		str	r0, [r8, #12]
 1055              		.loc 1 365 0
 1056 0086 4FF49871 		mov	r1, #304
 1057 008a 0132     		adds	r2, r2, #1
 1058 008c 3046     		mov	r0, r6
 1059 008e 0095     		str	r5, [sp, #0]
 1060 0090 FFF7FEFF 		bl	chThdCreateStatic
 1061 0094 C8F81000 		str	r0, [r8, #16]
 1062              	.LVL37:
 1063              		.loc 1 368 0
 1064 0098 FFF7FEFF 		bl	test_wait_tick
 1065              		.loc 1 369 0
 1066 009c 4FF47A70 		mov	r0, #1000
 1067 00a0 FFF7FEFF 		bl	test_start_timer
 1068              	.LVL38:
 1069              	.L47:
 1070              		.loc 1 371 0 discriminator 1
 1071 00a4 1548     		ldr	r0, .L49+16
 1072 00a6 0021     		movs	r1, #0
 1073 00a8 FFF7FEFF 		bl	chSemReset
 1074              		.loc 1 376 0 discriminator 1
 1075 00ac 2368     		ldr	r3, [r4, #0]
ARM GAS  /var/folders/5n/p_75w94d66l9ssrldxqdhh700000gn/T//ccDYaWON.s 			page 20


 1076              		.loc 1 372 0 discriminator 1
 1077 00ae 0135     		adds	r5, r5, #1
 1078              	.LVL39:
 1079              		.loc 1 376 0 discriminator 1
 1080 00b0 002B     		cmp	r3, #0
 1081 00b2 F7D0     		beq	.L47
 1082              		.loc 1 377 0
 1083 00b4 FFF7FEFF 		bl	test_terminate_threads
 1084              		.loc 1 378 0
 1085 00b8 0021     		movs	r1, #0
 1086 00ba 1048     		ldr	r0, .L49+16
 1087 00bc FFF7FEFF 		bl	chSemReset
 1088              		.loc 1 379 0
 1089 00c0 FFF7FEFF 		bl	test_wait_threads
 1090              		.loc 1 381 0
 1091 00c4 0E48     		ldr	r0, .L49+20
 1092 00c6 FFF7FEFF 		bl	test_print
 1093              		.loc 1 382 0
 1094 00ca 2846     		mov	r0, r5
 1095 00cc FFF7FEFF 		bl	test_printn
 1096              		.loc 1 384 0
 1097 00d0 05EB4505 		add	r5, r5, r5, lsl #1
 1098              	.LVL40:
 1099              		.loc 1 383 0
 1100 00d4 0B48     		ldr	r0, .L49+24
 1101 00d6 FFF7FEFF 		bl	test_print
 1102              		.loc 1 384 0
 1103 00da 6800     		lsls	r0, r5, #1
 1104 00dc FFF7FEFF 		bl	test_printn
 1105              		.loc 1 385 0
 1106 00e0 0948     		ldr	r0, .L49+28
 1107              		.loc 1 386 0
 1108 00e2 02B0     		add	sp, sp, #8
 1109 00e4 BDE8F041 		pop	{r4, r5, r6, r7, r8, lr}
 1110              		.loc 1 385 0
 1111 00e8 FFF7FEBF 		b	test_println
 1112              	.L50:
 1113              		.align	2
 1114              	.L49:
 1115 00ec 00000000 		.word	rlist
 1116 00f0 00000000 		.word	wa
 1117 00f4 00000000 		.word	thread3
 1118 00f8 00000000 		.word	test_timer_done
 1119 00fc 00000000 		.word	.LANCHOR1
 1120 0100 A8000000 		.word	.LC11
 1121 0104 08010000 		.word	.LC18
 1122 0108 FC000000 		.word	.LC17
 1123 010c 00000000 		.word	threads
 1124              		.cfi_endproc
 1125              	.LFE19:
 1126              		.size	bmk7_execute, .-bmk7_execute
 1127              		.section	.text.bmk5_execute,"ax",%progbits
 1128              		.align	2
 1129              		.p2align 4,,15
 1130              		.thumb
 1131              		.thumb_func
 1132              		.type	bmk5_execute, %function
ARM GAS  /var/folders/5n/p_75w94d66l9ssrldxqdhh700000gn/T//ccDYaWON.s 			page 21


 1133              	bmk5_execute:
 1134              	.LFB15:
 1135              		.loc 1 269 0
 1136              		.cfi_startproc
 1137              		@ args = 0, pretend = 0, frame = 0
 1138              		@ frame_needed = 0, uses_anonymous_args = 0
 1139              	.LVL41:
 1140 0000 2DE9F041 		push	{r4, r5, r6, r7, r8, lr}
 1141              	.LCFI14:
 1142              		.cfi_def_cfa_offset 24
 1143              		.cfi_offset 14, -4
 1144              		.cfi_offset 8, -8
 1145              		.cfi_offset 7, -12
 1146              		.cfi_offset 6, -16
 1147              		.cfi_offset 5, -20
 1148              		.cfi_offset 4, -24
 1149              		.loc 1 273 0
 1150 0004 154B     		ldr	r3, .L54
 1151              		.loc 1 272 0
 1152 0006 164A     		ldr	r2, .L54+4
 1153              		.loc 1 273 0
 1154 0008 9B69     		ldr	r3, [r3, #24]
 1155              		.loc 1 272 0
 1156 000a D2F80080 		ldr	r8, [r2, #0]
 1157              	.LVL42:
 1158              		.loc 1 273 0
 1159 000e 9E68     		ldr	r6, [r3, #8]
 1160 0010 144F     		ldr	r7, .L54+8
 1161              		.loc 1 269 0
 1162 0012 82B0     		sub	sp, sp, #8
 1163              	.LCFI15:
 1164              		.cfi_def_cfa_offset 32
 1165              		.loc 1 274 0
 1166 0014 FFF7FEFF 		bl	test_wait_tick
 1167              	.LVL43:
 1168              		.loc 1 275 0
 1169 0018 4FF47A70 		mov	r0, #1000
 1170 001c FFF7FEFF 		bl	test_start_timer
 1171              		.loc 1 271 0
 1172 0020 0024     		movs	r4, #0
 1173              		.loc 1 273 0
 1174 0022 013E     		subs	r6, r6, #1
 1175              	.LVL44:
 1176              		.loc 1 277 0
 1177 0024 2546     		mov	r5, r4
 1178              	.LVL45:
 1179              	.L52:
 1180              		.loc 1 277 0 is_stmt 0 discriminator 1
 1181 0026 104B     		ldr	r3, .L54+12
 1182 0028 0095     		str	r5, [sp, #0]
 1183 002a 4FF49871 		mov	r1, #304
 1184 002e 3246     		mov	r2, r6
 1185 0030 4046     		mov	r0, r8
 1186 0032 FFF7FEFF 		bl	chThdCreateStatic
 1187 0036 FFF7FEFF 		bl	chThdWait
 1188              		.loc 1 282 0 is_stmt 1 discriminator 1
 1189 003a 3B68     		ldr	r3, [r7, #0]
ARM GAS  /var/folders/5n/p_75w94d66l9ssrldxqdhh700000gn/T//ccDYaWON.s 			page 22


 1190              		.loc 1 278 0 discriminator 1
 1191 003c 0134     		adds	r4, r4, #1
 1192              	.LVL46:
 1193              		.loc 1 282 0 discriminator 1
 1194 003e 002B     		cmp	r3, #0
 1195 0040 F1D0     		beq	.L52
 1196              		.loc 1 283 0
 1197 0042 0A48     		ldr	r0, .L54+16
 1198 0044 FFF7FEFF 		bl	test_print
 1199              		.loc 1 284 0
 1200 0048 2046     		mov	r0, r4
 1201 004a FFF7FEFF 		bl	test_printn
 1202              		.loc 1 285 0
 1203 004e 0848     		ldr	r0, .L54+20
 1204              		.loc 1 286 0
 1205 0050 02B0     		add	sp, sp, #8
 1206 0052 BDE8F041 		pop	{r4, r5, r6, r7, r8, lr}
 1207              		.loc 1 285 0
 1208 0056 FFF7FEBF 		b	test_println
 1209              	.L55:
 1210 005a 00BF     		.align	2
 1211              	.L54:
 1212 005c 00000000 		.word	rlist
 1213 0060 00000000 		.word	wa
 1214 0064 00000000 		.word	test_timer_done
 1215 0068 00000000 		.word	thread2
 1216 006c A8000000 		.word	.LC11
 1217 0070 F0000000 		.word	.LC16
 1218              		.cfi_endproc
 1219              	.LFE15:
 1220              		.size	bmk5_execute, .-bmk5_execute
 1221 0074 AFF30080 		.section	.text.bmk4_execute,"ax",%progbits
 1221      AFF30080 
 1221      AFF30080 
 1222              		.align	2
 1223              		.p2align 4,,15
 1224              		.thumb
 1225              		.thumb_func
 1226              		.type	bmk4_execute, %function
 1227              	bmk4_execute:
 1228              	.LFB14:
 1229              		.loc 1 221 0
 1230              		.cfi_startproc
 1231              		@ args = 0, pretend = 0, frame = 0
 1232              		@ frame_needed = 0, uses_anonymous_args = 0
 1233 0000 70B5     		push	{r4, r5, r6, lr}
 1234              	.LCFI16:
 1235              		.cfi_def_cfa_offset 16
 1236              		.cfi_offset 14, -4
 1237              		.cfi_offset 6, -8
 1238              		.cfi_offset 5, -12
 1239              		.cfi_offset 4, -16
 1240              		.loc 1 225 0
 1241 0002 254B     		ldr	r3, .L59
 1242 0004 2548     		ldr	r0, .L59+4
 1243 0006 9B69     		ldr	r3, [r3, #24]
 1244 0008 0068     		ldr	r0, [r0, #0]
ARM GAS  /var/folders/5n/p_75w94d66l9ssrldxqdhh700000gn/T//ccDYaWON.s 			page 23


 1245 000a 9A68     		ldr	r2, [r3, #8]
 1246 000c 244B     		ldr	r3, .L59+8
 1247 000e 254C     		ldr	r4, .L59+12
 1248              		.loc 1 221 0
 1249 0010 82B0     		sub	sp, sp, #8
 1250              	.LCFI17:
 1251              		.cfi_def_cfa_offset 24
 1252              		.loc 1 225 0
 1253 0012 4FF49871 		mov	r1, #304
 1254 0016 0132     		adds	r2, r2, #1
 1255 0018 0025     		movs	r5, #0
 1256 001a 0095     		str	r5, [sp, #0]
 1257 001c FFF7FEFF 		bl	chThdCreateStatic
 1258 0020 214B     		ldr	r3, .L59+16
 1259 0022 1860     		str	r0, [r3, #0]
 1260 0024 0646     		mov	r6, r0
 1261              	.LVL47:
 1262              		.loc 1 227 0
 1263 0026 FFF7FEFF 		bl	test_wait_tick
 1264              	.LVL48:
 1265              		.loc 1 228 0
 1266 002a 4FF47A70 		mov	r0, #1000
 1267 002e FFF7FEFF 		bl	test_start_timer
 1268              	.LVL49:
 1269              	.L57:
 1270              	.LBB6:
 1271              		.loc 1 230 0 discriminator 1
 1272 0032 2023     		movs	r3, #32
 1273              	.LVL50:
 1274              	@ 230 "../../test/testbmk.c" 1
 1275 0034 83F31188 		msr     BASEPRI, r3
 1276              	@ 0 "" 2
 1277              	.LVL51:
 1278              		.thumb
 1279              	.LBE6:
 1280              		.loc 1 231 0 discriminator 1
 1281 0038 0021     		movs	r1, #0
 1282 003a 3046     		mov	r0, r6
 1283 003c FFF7FEFF 		bl	chSchWakeupS
 1284              	.LVL52:
 1285              		.loc 1 232 0 discriminator 1
 1286 0040 3046     		mov	r0, r6
 1287 0042 0021     		movs	r1, #0
 1288 0044 FFF7FEFF 		bl	chSchWakeupS
 1289              		.loc 1 233 0 discriminator 1
 1290 0048 3046     		mov	r0, r6
 1291 004a 0021     		movs	r1, #0
 1292 004c FFF7FEFF 		bl	chSchWakeupS
 1293              		.loc 1 234 0 discriminator 1
 1294 0050 3046     		mov	r0, r6
 1295 0052 0021     		movs	r1, #0
 1296 0054 FFF7FEFF 		bl	chSchWakeupS
 1297              	.LBB7:
 1298              		.loc 1 235 0 discriminator 1
 1299 0058 0023     		movs	r3, #0
 1300              	.LVL53:
 1301              	@ 235 "../../test/testbmk.c" 1
ARM GAS  /var/folders/5n/p_75w94d66l9ssrldxqdhh700000gn/T//ccDYaWON.s 			page 24


 1302 005a 83F31188 		msr     BASEPRI, r3
 1303              	@ 0 "" 2
 1304              	.LVL54:
 1305              		.thumb
 1306              	.LBE7:
 1307              		.loc 1 240 0 discriminator 1
 1308 005e 2368     		ldr	r3, [r4, #0]
 1309              	.LVL55:
 1310              		.loc 1 236 0 discriminator 1
 1311 0060 0435     		adds	r5, r5, #4
 1312              	.LVL56:
 1313              		.loc 1 240 0 discriminator 1
 1314 0062 002B     		cmp	r3, #0
 1315 0064 E5D0     		beq	.L57
 1316              	.LBB8:
 1317              		.loc 1 241 0
 1318 0066 2023     		movs	r3, #32
 1319              	.LVL57:
 1320              	@ 241 "../../test/testbmk.c" 1
 1321 0068 83F31188 		msr     BASEPRI, r3
 1322              	@ 0 "" 2
 1323              	.LVL58:
 1324              		.thumb
 1325              	.LBE8:
 1326              		.loc 1 242 0
 1327 006c 4FF0FF31 		mov	r1, #-1
 1328 0070 3046     		mov	r0, r6
 1329 0072 FFF7FEFF 		bl	chSchWakeupS
 1330              	.LVL59:
 1331              	.LBB9:
 1332              		.loc 1 243 0
 1333 0076 0023     		movs	r3, #0
 1334              	.LVL60:
 1335              	@ 243 "../../test/testbmk.c" 1
 1336 0078 83F31188 		msr     BASEPRI, r3
 1337              	@ 0 "" 2
 1338              	.LVL61:
 1339              		.thumb
 1340              	.LBE9:
 1341              		.loc 1 245 0
 1342 007c FFF7FEFF 		bl	test_wait_threads
 1343              	.LVL62:
 1344              		.loc 1 246 0
 1345 0080 0A48     		ldr	r0, .L59+20
 1346 0082 FFF7FEFF 		bl	test_print
 1347              		.loc 1 247 0
 1348 0086 6800     		lsls	r0, r5, #1
 1349 0088 FFF7FEFF 		bl	test_printn
 1350              		.loc 1 248 0
 1351 008c 0848     		ldr	r0, .L59+24
 1352              		.loc 1 249 0
 1353 008e 02B0     		add	sp, sp, #8
 1354 0090 BDE87040 		pop	{r4, r5, r6, lr}
 1355              		.loc 1 248 0
 1356 0094 FFF7FEBF 		b	test_println
 1357              	.L60:
 1358              		.align	2
ARM GAS  /var/folders/5n/p_75w94d66l9ssrldxqdhh700000gn/T//ccDYaWON.s 			page 25


 1359              	.L59:
 1360 0098 00000000 		.word	rlist
 1361 009c 00000000 		.word	wa
 1362 00a0 00000000 		.word	thread4
 1363 00a4 00000000 		.word	test_timer_done
 1364 00a8 00000000 		.word	threads
 1365 00ac A8000000 		.word	.LC11
 1366 00b0 FC000000 		.word	.LC17
 1367              		.cfi_endproc
 1368              	.LFE14:
 1369              		.size	bmk4_execute, .-bmk4_execute
 1370 00b4 AFF30080 		.section	.text.msg_loop_test,"ax",%progbits
 1370      AFF30080 
 1370      AFF30080 
 1371              		.align	2
 1372              		.p2align 4,,15
 1373              		.thumb
 1374              		.thumb_func
 1375              		.type	msg_loop_test, %function
 1376              	msg_loop_test:
 1377              	.LFB8:
 1378              		.loc 1 84 0
 1379              		.cfi_startproc
 1380              		@ args = 0, pretend = 0, frame = 0
 1381              		@ frame_needed = 0, uses_anonymous_args = 0
 1382              	.LVL63:
 1383 0000 70B5     		push	{r4, r5, r6, lr}
 1384              	.LCFI18:
 1385              		.cfi_def_cfa_offset 16
 1386              		.cfi_offset 14, -4
 1387              		.cfi_offset 6, -8
 1388              		.cfi_offset 5, -12
 1389              		.cfi_offset 4, -16
 1390              		.loc 1 84 0
 1391 0002 0546     		mov	r5, r0
 1392              		.loc 1 87 0
 1393 0004 FFF7FEFF 		bl	test_wait_tick
 1394              	.LVL64:
 1395              		.loc 1 88 0
 1396 0008 4FF47A70 		mov	r0, #1000
 1397 000c FFF7FEFF 		bl	test_start_timer
 1398 0010 074E     		ldr	r6, .L64
 1399              		.loc 1 86 0
 1400 0012 0024     		movs	r4, #0
 1401              	.LVL65:
 1402              	.L62:
 1403              		.loc 1 90 0 discriminator 1
 1404 0014 2846     		mov	r0, r5
 1405 0016 0121     		movs	r1, #1
 1406 0018 FFF7FEFF 		bl	chMsgSend
 1407              		.loc 1 95 0 discriminator 1
 1408 001c 3368     		ldr	r3, [r6, #0]
 1409              		.loc 1 91 0 discriminator 1
 1410 001e 0134     		adds	r4, r4, #1
 1411              	.LVL66:
 1412              		.loc 1 95 0 discriminator 1
 1413 0020 002B     		cmp	r3, #0
ARM GAS  /var/folders/5n/p_75w94d66l9ssrldxqdhh700000gn/T//ccDYaWON.s 			page 26


 1414 0022 F7D0     		beq	.L62
 1415              		.loc 1 96 0
 1416 0024 2846     		mov	r0, r5
 1417 0026 0021     		movs	r1, #0
 1418 0028 FFF7FEFF 		bl	chMsgSend
 1419              		.loc 1 98 0
 1420 002c 2046     		mov	r0, r4
 1421 002e 70BD     		pop	{r4, r5, r6, pc}
 1422              	.L65:
 1423              		.align	2
 1424              	.L64:
 1425 0030 00000000 		.word	test_timer_done
 1426              		.cfi_endproc
 1427              	.LFE8:
 1428              		.size	msg_loop_test, .-msg_loop_test
 1429 0034 AFF30080 		.section	.text.bmk3_execute,"ax",%progbits
 1429      AFF30080 
 1429      AFF30080 
 1430              		.align	2
 1431              		.p2align 4,,15
 1432              		.thumb
 1433              		.thumb_func
 1434              		.type	bmk3_execute, %function
 1435              	bmk3_execute:
 1436              	.LFB12:
 1437              		.loc 1 173 0
 1438              		.cfi_startproc
 1439              		@ args = 0, pretend = 0, frame = 0
 1440              		@ frame_needed = 0, uses_anonymous_args = 0
 1441 0000 2DE9F041 		push	{r4, r5, r6, r7, r8, lr}
 1442              	.LCFI19:
 1443              		.cfi_def_cfa_offset 24
 1444              		.cfi_offset 14, -4
 1445              		.cfi_offset 8, -8
 1446              		.cfi_offset 7, -12
 1447              		.cfi_offset 6, -16
 1448              		.cfi_offset 5, -20
 1449              		.cfi_offset 4, -24
 1450              		.loc 1 176 0
 1451 0004 40F20006 		movw	r6, #:lower16:rlist
 1452 0008 C0F20006 		movt	r6, #:upper16:rlist
 1453 000c 40F20005 		movw	r5, #:lower16:wa
 1454 0010 B369     		ldr	r3, [r6, #24]
 1455 0012 C0F20005 		movt	r5, #:upper16:wa
 1456 0016 9A68     		ldr	r2, [r3, #8]
 1457 0018 2868     		ldr	r0, [r5, #0]
 1458              		.loc 1 173 0
 1459 001a 82B0     		sub	sp, sp, #8
 1460              	.LCFI20:
 1461              		.cfi_def_cfa_offset 32
 1462              		.loc 1 176 0
 1463 001c 40F20003 		movw	r3, #:lower16:thread1
 1464 0020 4FF00008 		mov	r8, #0
 1465 0024 0132     		adds	r2, r2, #1
 1466 0026 4FF49871 		mov	r1, #304
 1467 002a C0F20003 		movt	r3, #:upper16:thread1
 1468 002e CDF80080 		str	r8, [sp, #0]
ARM GAS  /var/folders/5n/p_75w94d66l9ssrldxqdhh700000gn/T//ccDYaWON.s 			page 27


 1469 0032 FFF7FEFF 		bl	chThdCreateStatic
 1470              		.loc 1 177 0
 1471 0036 B369     		ldr	r3, [r6, #24]
 1472 0038 D5F804E0 		ldr	lr, [r5, #4]
 1473 003c 9A68     		ldr	r2, [r3, #8]
 1474 003e CDF80080 		str	r8, [sp, #0]
 1475              		.loc 1 176 0
 1476 0042 40F20004 		movw	r4, #:lower16:threads
 1477 0046 C0F20004 		movt	r4, #:upper16:threads
 1478              		.loc 1 177 0
 1479 004a 40F20007 		movw	r7, #:lower16:thread2
 1480 004e C0F20007 		movt	r7, #:upper16:thread2
 1481              		.loc 1 176 0
 1482 0052 2060     		str	r0, [r4, #0]
 1483              		.loc 1 177 0
 1484 0054 023A     		subs	r2, r2, #2
 1485 0056 3B46     		mov	r3, r7
 1486 0058 4FF49871 		mov	r1, #304
 1487 005c 7046     		mov	r0, lr
 1488 005e FFF7FEFF 		bl	chThdCreateStatic
 1489              		.loc 1 178 0
 1490 0062 B369     		ldr	r3, [r6, #24]
 1491 0064 D5F808E0 		ldr	lr, [r5, #8]
 1492 0068 9A68     		ldr	r2, [r3, #8]
 1493              		.loc 1 177 0
 1494 006a 6060     		str	r0, [r4, #4]
 1495              		.loc 1 178 0
 1496 006c 033A     		subs	r2, r2, #3
 1497 006e 3B46     		mov	r3, r7
 1498 0070 4FF49871 		mov	r1, #304
 1499 0074 7046     		mov	r0, lr
 1500 0076 CDF80080 		str	r8, [sp, #0]
 1501 007a FFF7FEFF 		bl	chThdCreateStatic
 1502              		.loc 1 179 0
 1503 007e B369     		ldr	r3, [r6, #24]
 1504 0080 D5F80CE0 		ldr	lr, [r5, #12]
 1505 0084 9A68     		ldr	r2, [r3, #8]
 1506              		.loc 1 178 0
 1507 0086 A060     		str	r0, [r4, #8]
 1508              		.loc 1 179 0
 1509 0088 043A     		subs	r2, r2, #4
 1510 008a 7046     		mov	r0, lr
 1511 008c 3B46     		mov	r3, r7
 1512 008e 4FF49871 		mov	r1, #304
 1513 0092 CDF80080 		str	r8, [sp, #0]
 1514 0096 FFF7FEFF 		bl	chThdCreateStatic
 1515              		.loc 1 180 0
 1516 009a B369     		ldr	r3, [r6, #24]
 1517 009c 2D69     		ldr	r5, [r5, #16]
 1518 009e 9A68     		ldr	r2, [r3, #8]
 1519              		.loc 1 179 0
 1520 00a0 E060     		str	r0, [r4, #12]
 1521              		.loc 1 180 0
 1522 00a2 4FF49871 		mov	r1, #304
 1523 00a6 053A     		subs	r2, r2, #5
 1524 00a8 3B46     		mov	r3, r7
 1525 00aa 2846     		mov	r0, r5
ARM GAS  /var/folders/5n/p_75w94d66l9ssrldxqdhh700000gn/T//ccDYaWON.s 			page 28


 1526 00ac CDF80080 		str	r8, [sp, #0]
 1527 00b0 FFF7FEFF 		bl	chThdCreateStatic
 1528 00b4 2061     		str	r0, [r4, #16]
 1529              		.loc 1 181 0
 1530 00b6 2068     		ldr	r0, [r4, #0]
 1531 00b8 FFF7FEFF 		bl	msg_loop_test
 1532 00bc 0446     		mov	r4, r0
 1533              	.LVL67:
 1534              		.loc 1 182 0
 1535 00be FFF7FEFF 		bl	test_wait_threads
 1536              	.LVL68:
 1537              		.loc 1 183 0
 1538 00c2 40F20000 		movw	r0, #:lower16:.LC11
 1539 00c6 C0F20000 		movt	r0, #:upper16:.LC11
 1540 00ca FFF7FEFF 		bl	test_print
 1541              		.loc 1 184 0
 1542 00ce 2046     		mov	r0, r4
 1543 00d0 FFF7FEFF 		bl	test_printn
 1544              		.loc 1 185 0
 1545 00d4 40F20000 		movw	r0, #:lower16:.LC19
 1546 00d8 C0F20000 		movt	r0, #:upper16:.LC19
 1547 00dc FFF7FEFF 		bl	test_print
 1548              		.loc 1 186 0
 1549 00e0 6000     		lsls	r0, r4, #1
 1550 00e2 FFF7FEFF 		bl	test_printn
 1551              		.loc 1 187 0
 1552 00e6 40F20000 		movw	r0, #:lower16:.LC17
 1553 00ea C0F20000 		movt	r0, #:upper16:.LC17
 1554              		.loc 1 188 0
 1555 00ee 02B0     		add	sp, sp, #8
 1556 00f0 BDE8F041 		pop	{r4, r5, r6, r7, r8, lr}
 1557              		.loc 1 187 0
 1558 00f4 FFF7FEBF 		b	test_println
 1559              		.cfi_endproc
 1560              	.LFE12:
 1561              		.size	bmk3_execute, .-bmk3_execute
 1562 00f8 AFF30080 		.section	.text.bmk2_execute,"ax",%progbits
 1562      AFF30080 
 1563              		.align	2
 1564              		.p2align 4,,15
 1565              		.thumb
 1566              		.thumb_func
 1567              		.type	bmk2_execute, %function
 1568              	bmk2_execute:
 1569              	.LFB10:
 1570              		.loc 1 138 0
 1571              		.cfi_startproc
 1572              		@ args = 0, pretend = 0, frame = 0
 1573              		@ frame_needed = 0, uses_anonymous_args = 0
 1574              		.loc 1 141 0
 1575 0000 40F20002 		movw	r2, #:lower16:rlist
 1576              		.loc 1 138 0
 1577 0004 10B5     		push	{r4, lr}
 1578              	.LCFI21:
 1579              		.cfi_def_cfa_offset 8
 1580              		.cfi_offset 14, -4
 1581              		.cfi_offset 4, -8
ARM GAS  /var/folders/5n/p_75w94d66l9ssrldxqdhh700000gn/T//ccDYaWON.s 			page 29


 1582              		.loc 1 141 0
 1583 0006 C0F20002 		movt	r2, #:upper16:rlist
 1584 000a 40F20003 		movw	r3, #:lower16:wa
 1585 000e 9269     		ldr	r2, [r2, #24]
 1586 0010 C0F20003 		movt	r3, #:upper16:wa
 1587 0014 9268     		ldr	r2, [r2, #8]
 1588 0016 1868     		ldr	r0, [r3, #0]
 1589              		.loc 1 138 0
 1590 0018 82B0     		sub	sp, sp, #8
 1591              	.LCFI22:
 1592              		.cfi_def_cfa_offset 16
 1593              		.loc 1 141 0
 1594 001a 40F20003 		movw	r3, #:lower16:thread1
 1595 001e 4FF49871 		mov	r1, #304
 1596 0022 0132     		adds	r2, r2, #1
 1597 0024 0024     		movs	r4, #0
 1598 0026 C0F20003 		movt	r3, #:upper16:thread1
 1599 002a 0094     		str	r4, [sp, #0]
 1600 002c FFF7FEFF 		bl	chThdCreateStatic
 1601 0030 40F20003 		movw	r3, #:lower16:threads
 1602 0034 C0F20003 		movt	r3, #:upper16:threads
 1603 0038 1860     		str	r0, [r3, #0]
 1604              		.loc 1 142 0
 1605 003a FFF7FEFF 		bl	msg_loop_test
 1606 003e 0446     		mov	r4, r0
 1607              	.LVL69:
 1608              		.loc 1 143 0
 1609 0040 FFF7FEFF 		bl	test_wait_threads
 1610              	.LVL70:
 1611              		.loc 1 144 0
 1612 0044 40F20000 		movw	r0, #:lower16:.LC11
 1613 0048 C0F20000 		movt	r0, #:upper16:.LC11
 1614 004c FFF7FEFF 		bl	test_print
 1615              		.loc 1 145 0
 1616 0050 2046     		mov	r0, r4
 1617 0052 FFF7FEFF 		bl	test_printn
 1618              		.loc 1 146 0
 1619 0056 40F20000 		movw	r0, #:lower16:.LC19
 1620 005a C0F20000 		movt	r0, #:upper16:.LC19
 1621 005e FFF7FEFF 		bl	test_print
 1622              		.loc 1 147 0
 1623 0062 6000     		lsls	r0, r4, #1
 1624 0064 FFF7FEFF 		bl	test_printn
 1625              		.loc 1 148 0
 1626 0068 40F20000 		movw	r0, #:lower16:.LC17
 1627 006c C0F20000 		movt	r0, #:upper16:.LC17
 1628              		.loc 1 149 0
 1629 0070 02B0     		add	sp, sp, #8
 1630 0072 BDE81040 		pop	{r4, lr}
 1631              		.loc 1 148 0
 1632 0076 FFF7FEBF 		b	test_println
 1633              		.cfi_endproc
 1634              	.LFE10:
 1635              		.size	bmk2_execute, .-bmk2_execute
 1636 007a 00BFAFF3 		.section	.text.bmk1_execute,"ax",%progbits
 1636      0080
 1637              		.align	2
ARM GAS  /var/folders/5n/p_75w94d66l9ssrldxqdhh700000gn/T//ccDYaWON.s 			page 30


 1638              		.p2align 4,,15
 1639              		.thumb
 1640              		.thumb_func
 1641              		.type	bmk1_execute, %function
 1642              	bmk1_execute:
 1643              	.LFB9:
 1644              		.loc 1 109 0
 1645              		.cfi_startproc
 1646              		@ args = 0, pretend = 0, frame = 0
 1647              		@ frame_needed = 0, uses_anonymous_args = 0
 1648              		.loc 1 112 0
 1649 0000 40F20002 		movw	r2, #:lower16:rlist
 1650              		.loc 1 109 0
 1651 0004 10B5     		push	{r4, lr}
 1652              	.LCFI23:
 1653              		.cfi_def_cfa_offset 8
 1654              		.cfi_offset 14, -4
 1655              		.cfi_offset 4, -8
 1656              		.loc 1 112 0
 1657 0006 C0F20002 		movt	r2, #:upper16:rlist
 1658 000a 40F20003 		movw	r3, #:lower16:wa
 1659 000e 9269     		ldr	r2, [r2, #24]
 1660 0010 C0F20003 		movt	r3, #:upper16:wa
 1661 0014 9268     		ldr	r2, [r2, #8]
 1662 0016 1868     		ldr	r0, [r3, #0]
 1663              		.loc 1 109 0
 1664 0018 82B0     		sub	sp, sp, #8
 1665              	.LCFI24:
 1666              		.cfi_def_cfa_offset 16
 1667              		.loc 1 112 0
 1668 001a 40F20003 		movw	r3, #:lower16:thread1
 1669 001e 4FF49871 		mov	r1, #304
 1670 0022 013A     		subs	r2, r2, #1
 1671 0024 0024     		movs	r4, #0
 1672 0026 C0F20003 		movt	r3, #:upper16:thread1
 1673 002a 0094     		str	r4, [sp, #0]
 1674 002c FFF7FEFF 		bl	chThdCreateStatic
 1675 0030 40F20003 		movw	r3, #:lower16:threads
 1676 0034 C0F20003 		movt	r3, #:upper16:threads
 1677 0038 1860     		str	r0, [r3, #0]
 1678              		.loc 1 113 0
 1679 003a FFF7FEFF 		bl	msg_loop_test
 1680 003e 0446     		mov	r4, r0
 1681              	.LVL71:
 1682              		.loc 1 114 0
 1683 0040 FFF7FEFF 		bl	test_wait_threads
 1684              	.LVL72:
 1685              		.loc 1 115 0
 1686 0044 40F20000 		movw	r0, #:lower16:.LC11
 1687 0048 C0F20000 		movt	r0, #:upper16:.LC11
 1688 004c FFF7FEFF 		bl	test_print
 1689              		.loc 1 116 0
 1690 0050 2046     		mov	r0, r4
 1691 0052 FFF7FEFF 		bl	test_printn
 1692              		.loc 1 117 0
 1693 0056 40F20000 		movw	r0, #:lower16:.LC19
 1694 005a C0F20000 		movt	r0, #:upper16:.LC19
ARM GAS  /var/folders/5n/p_75w94d66l9ssrldxqdhh700000gn/T//ccDYaWON.s 			page 31


 1695 005e FFF7FEFF 		bl	test_print
 1696              		.loc 1 118 0
 1697 0062 6000     		lsls	r0, r4, #1
 1698 0064 FFF7FEFF 		bl	test_printn
 1699              		.loc 1 119 0
 1700 0068 40F20000 		movw	r0, #:lower16:.LC17
 1701 006c C0F20000 		movt	r0, #:upper16:.LC17
 1702              		.loc 1 120 0
 1703 0070 02B0     		add	sp, sp, #8
 1704 0072 BDE81040 		pop	{r4, lr}
 1705              		.loc 1 119 0
 1706 0076 FFF7FEBF 		b	test_println
 1707              		.cfi_endproc
 1708              	.LFE9:
 1709              		.size	bmk1_execute, .-bmk1_execute
 1710 007a 00BFAFF3 		.section	.text.thread1,"ax",%progbits
 1710      0080
 1711              		.align	2
 1712              		.p2align 4,,15
 1713              		.thumb
 1714              		.thumb_func
 1715              		.type	thread1, %function
 1716              	thread1:
 1717              	.LFB7:
 1718              		.loc 1 68 0
 1719              		.cfi_startproc
 1720              		@ args = 0, pretend = 0, frame = 0
 1721              		@ frame_needed = 0, uses_anonymous_args = 0
 1722              	.LVL73:
 1723 0000 10B5     		push	{r4, lr}
 1724              	.LCFI25:
 1725              		.cfi_def_cfa_offset 8
 1726              		.cfi_offset 14, -4
 1727              		.cfi_offset 4, -8
 1728              	.LVL74:
 1729              	.L70:
 1730              		.loc 1 74 0 discriminator 1
 1731 0002 FFF7FEFF 		bl	chMsgWait
 1732              	.LVL75:
 1733              		.loc 1 75 0 discriminator 1
 1734 0006 446B     		ldr	r4, [r0, #52]
 1735              	.LVL76:
 1736              		.loc 1 76 0 discriminator 1
 1737 0008 2146     		mov	r1, r4
 1738 000a FFF7FEFF 		bl	chMsgRelease
 1739              	.LVL77:
 1740              		.loc 1 77 0 discriminator 1
 1741 000e 002C     		cmp	r4, #0
 1742 0010 F7D1     		bne	.L70
 1743              		.loc 1 79 0
 1744 0012 2046     		mov	r0, r4
 1745 0014 10BD     		pop	{r4, pc}
 1746              		.cfi_endproc
 1747              	.LFE7:
 1748              		.size	thread1, .-thread1
 1749 0016 00BFAFF3 		.section	.text.thread4,"ax",%progbits
 1749      0080AFF3 
ARM GAS  /var/folders/5n/p_75w94d66l9ssrldxqdhh700000gn/T//ccDYaWON.s 			page 32


 1749      0080
 1750              		.align	2
 1751              		.p2align 4,,15
 1752              		.global	thread4
 1753              		.thumb
 1754              		.thumb_func
 1755              		.type	thread4, %function
 1756              	thread4:
 1757              	.LFB13:
 1758              		.loc 1 207 0
 1759              		.cfi_startproc
 1760              		@ args = 0, pretend = 0, frame = 0
 1761              		@ frame_needed = 0, uses_anonymous_args = 0
 1762              	.LVL78:
 1763              		.loc 1 209 0
 1764 0000 084A     		ldr	r2, .L75
 1765              		.loc 1 207 0
 1766 0002 10B5     		push	{r4, lr}
 1767              	.LCFI26:
 1768              		.cfi_def_cfa_offset 8
 1769              		.cfi_offset 14, -4
 1770              		.cfi_offset 4, -8
 1771              	.LBB10:
 1772              		.loc 1 212 0
 1773 0004 2023     		movs	r3, #32
 1774              	.LVL79:
 1775              	.LBE10:
 1776              		.loc 1 209 0
 1777 0006 9469     		ldr	r4, [r2, #24]
 1778              	.LVL80:
 1779              	.LBB11:
 1780              		.loc 1 212 0
 1781              	@ 212 "../../test/testbmk.c" 1
 1782 0008 83F31188 		msr     BASEPRI, r3
 1783              	@ 0 "" 2
 1784              	.LVL81:
 1785              		.thumb
 1786              	.L73:
 1787              	.LBE11:
 1788              		.loc 1 214 0 discriminator 1
 1789 000c 0220     		movs	r0, #2
 1790 000e FFF7FEFF 		bl	chSchGoSleepS
 1791              	.LVL82:
 1792              		.loc 1 216 0 discriminator 1
 1793 0012 636A     		ldr	r3, [r4, #36]
 1794 0014 002B     		cmp	r3, #0
 1795 0016 F9D0     		beq	.L73
 1796              	.LBB12:
 1797              		.loc 1 217 0
 1798 0018 0023     		movs	r3, #0
 1799              	.LVL83:
 1800              	@ 217 "../../test/testbmk.c" 1
 1801 001a 83F31188 		msr     BASEPRI, r3
 1802              	@ 0 "" 2
 1803              	.LVL84:
 1804              		.thumb
 1805              	.LBE12:
ARM GAS  /var/folders/5n/p_75w94d66l9ssrldxqdhh700000gn/T//ccDYaWON.s 			page 33


 1806              		.loc 1 219 0
 1807 001e 1846     		mov	r0, r3
 1808 0020 10BD     		pop	{r4, pc}
 1809              	.L76:
 1810 0022 00BF     		.align	2
 1811              	.L75:
 1812 0024 00000000 		.word	rlist
 1813              		.cfi_endproc
 1814              	.LFE13:
 1815              		.size	thread4, .-thread4
 1816              		.global	patternbmk
 1817              		.global	testbmk13
 1818              		.global	testbmk12
 1819              		.global	testbmk11
 1820              		.global	testbmk10
 1821              		.global	testbmk9
 1822              		.global	testbmk8
 1823              		.global	testbmk7
 1824              		.global	testbmk6
 1825              		.global	testbmk5
 1826              		.global	testbmk4
 1827              		.global	testbmk3
 1828              		.global	testbmk2
 1829              		.global	testbmk1
 1830 0028 AFF30080 		.section	.rodata.testbmk8,"a",%progbits
 1830      AFF30080 
 1831              		.align	2
 1832              		.type	testbmk8, %object
 1833              		.size	testbmk8, 16
 1834              	testbmk8:
 1835 0000 D0010000 		.word	.LC25
 1836 0004 00000000 		.word	0
 1837 0008 00000000 		.word	0
 1838 000c 00000000 		.word	bmk8_execute
 1839              		.section	.rodata.patternbmk,"a",%progbits
 1840              		.align	2
 1841              		.type	patternbmk, %object
 1842              		.size	patternbmk, 56
 1843              	patternbmk:
 1844 0000 00000000 		.word	testbmk1
 1845 0004 00000000 		.word	testbmk2
 1846 0008 00000000 		.word	testbmk3
 1847 000c 00000000 		.word	testbmk4
 1848 0010 00000000 		.word	testbmk5
 1849 0014 00000000 		.word	testbmk6
 1850 0018 00000000 		.word	testbmk7
 1851 001c 00000000 		.word	testbmk8
 1852 0020 00000000 		.word	testbmk9
 1853 0024 00000000 		.word	testbmk10
 1854 0028 00000000 		.word	testbmk11
 1855 002c 00000000 		.word	testbmk12
 1856 0030 00000000 		.word	testbmk13
 1857 0034 00000000 		.word	0
 1858              		.section	.bss.vt1.2143,"aw",%nobits
 1859              		.align	2
 1860              		.set	.LANCHOR2,. + 0
 1861              		.type	vt1.2143, %object
ARM GAS  /var/folders/5n/p_75w94d66l9ssrldxqdhh700000gn/T//ccDYaWON.s 			page 34


 1862              		.size	vt1.2143, 20
 1863              	vt1.2143:
 1864 0000 00000000 		.space	20
 1864      00000000 
 1864      00000000 
 1864      00000000 
 1864      00000000 
 1865              		.section	.rodata.testbmk3,"a",%progbits
 1866              		.align	2
 1867              		.type	testbmk3, %object
 1868              		.size	testbmk3, 16
 1869              	testbmk3:
 1870 0000 80020000 		.word	.LC30
 1871 0004 00000000 		.word	0
 1872 0008 00000000 		.word	0
 1873 000c 00000000 		.word	bmk3_execute
 1874              		.section	.rodata.testbmk10,"a",%progbits
 1875              		.align	2
 1876              		.type	testbmk10, %object
 1877              		.size	testbmk10, 16
 1878              	testbmk10:
 1879 0000 88010000 		.word	.LC23
 1880 0004 00000000 		.word	0
 1881 0008 00000000 		.word	0
 1882 000c 00000000 		.word	bmk10_execute
 1883              		.section	.rodata.testbmk11,"a",%progbits
 1884              		.align	2
 1885              		.type	testbmk11, %object
 1886              		.size	testbmk11, 16
 1887              	testbmk11:
 1888 0000 64010000 		.word	.LC22
 1889 0004 00000000 		.word	bmk11_setup
 1890 0008 00000000 		.word	0
 1891 000c 00000000 		.word	bmk11_execute
 1892              		.section	.bss.ib.2130,"aw",%nobits
 1893              		.align	2
 1894              		.set	.LANCHOR5,. + 0
 1895              		.type	ib.2130, %object
 1896              		.size	ib.2130, 16
 1897              	ib.2130:
 1898 0000 00000000 		.space	16
 1898      00000000 
 1898      00000000 
 1898      00000000 
 1899              		.section	.bss.mtx1,"aw",%nobits
 1900              		.align	2
 1901              		.set	.LANCHOR0,. + 0
 1902              		.type	mtx1, %object
 1903              		.size	mtx1, 16
 1904              	mtx1:
 1905 0000 00000000 		.space	16
 1905      00000000 
 1905      00000000 
 1905      00000000 
 1906              		.section	.bss.vt2.2144,"aw",%nobits
 1907              		.align	2
 1908              		.set	.LANCHOR3,. + 0
ARM GAS  /var/folders/5n/p_75w94d66l9ssrldxqdhh700000gn/T//ccDYaWON.s 			page 35


 1909              		.type	vt2.2144, %object
 1910              		.size	vt2.2144, 20
 1911              	vt2.2144:
 1912 0000 00000000 		.space	20
 1912      00000000 
 1912      00000000 
 1912      00000000 
 1912      00000000 
 1913              		.section	.rodata.testbmk2,"a",%progbits
 1914              		.align	2
 1915              		.type	testbmk2, %object
 1916              		.size	testbmk2, 16
 1917              	testbmk2:
 1918 0000 98020000 		.word	.LC31
 1919 0004 00000000 		.word	0
 1920 0008 00000000 		.word	0
 1921 000c 00000000 		.word	bmk2_execute
 1922              		.section	.rodata.str1.4,"aMS",%progbits,1
 1923              		.align	2
 1924              	.LC0:
 1925 0000 2D2D2D20 		.ascii	"--- System: \000"
 1925      53797374 
 1925      656D3A20 
 1925      00
 1926 000d 000000   		.space	3
 1927              	.LC1:
 1928 0010 20627974 		.ascii	" bytes\000"
 1928      657300
 1929 0017 00       		.space	1
 1930              	.LC2:
 1931 0018 2D2D2D20 		.ascii	"--- Thread: \000"
 1931      54687265 
 1931      61643A20 
 1931      00
 1932 0025 000000   		.space	3
 1933              	.LC3:
 1934 0028 2D2D2D20 		.ascii	"--- Timer : \000"
 1934      54696D65 
 1934      72203A20 
 1934      00
 1935 0035 000000   		.space	3
 1936              	.LC4:
 1937 0038 2D2D2D20 		.ascii	"--- Semaph: \000"
 1937      53656D61 
 1937      70683A20 
 1937      00
 1938 0045 000000   		.space	3
 1939              	.LC5:
 1940 0048 2D2D2D20 		.ascii	"--- EventS: \000"
 1940      4576656E 
 1940      74533A20 
 1940      00
 1941 0055 000000   		.space	3
 1942              	.LC6:
 1943 0058 2D2D2D20 		.ascii	"--- EventL: \000"
 1943      4576656E 
 1943      744C3A20 
ARM GAS  /var/folders/5n/p_75w94d66l9ssrldxqdhh700000gn/T//ccDYaWON.s 			page 36


 1943      00
 1944 0065 000000   		.space	3
 1945              	.LC7:
 1946 0068 2D2D2D20 		.ascii	"--- Mutex : \000"
 1946      4D757465 
 1946      78203A20 
 1946      00
 1947 0075 000000   		.space	3
 1948              	.LC8:
 1949 0078 2D2D2D20 		.ascii	"--- CondV.: \000"
 1949      436F6E64 
 1949      562E3A20 
 1949      00
 1950 0085 000000   		.space	3
 1951              	.LC9:
 1952 0088 2D2D2D20 		.ascii	"--- Queue : \000"
 1952      51756575 
 1952      65203A20 
 1952      00
 1953 0095 000000   		.space	3
 1954              	.LC10:
 1955 0098 2D2D2D20 		.ascii	"--- MailB.: \000"
 1955      4D61696C 
 1955      422E3A20 
 1955      00
 1956 00a5 000000   		.space	3
 1957              	.LC11:
 1958 00a8 2D2D2D20 		.ascii	"--- Score : \000"
 1958      53636F72 
 1958      65203A20 
 1958      00
 1959 00b5 000000   		.space	3
 1960              	.LC12:
 1961 00b8 206C6F63 		.ascii	" lock+unlock/S\000"
 1961      6B2B756E 
 1961      6C6F636B 
 1961      2F5300
 1962 00c7 00       		.space	1
 1963              	.LC13:
 1964 00c8 20776169 		.ascii	" wait+signal/S\000"
 1964      742B7369 
 1964      676E616C 
 1964      2F5300
 1965 00d7 00       		.space	1
 1966              	.LC14:
 1967 00d8 2074696D 		.ascii	" timers/S\000"
 1967      6572732F 
 1967      5300
 1968 00e2 0000     		.space	2
 1969              	.LC15:
 1970 00e4 20627974 		.ascii	" bytes/S\000"
 1970      65732F53 
 1970      00
 1971 00ed 000000   		.space	3
 1972              	.LC16:
 1973 00f0 20746872 		.ascii	" threads/S\000"
 1973      65616473 
ARM GAS  /var/folders/5n/p_75w94d66l9ssrldxqdhh700000gn/T//ccDYaWON.s 			page 37


 1973      2F5300
 1974 00fb 00       		.space	1
 1975              	.LC17:
 1976 00fc 20637478 		.ascii	" ctxswc/S\000"
 1976      7377632F 
 1976      5300
 1977 0106 0000     		.space	2
 1978              	.LC18:
 1979 0108 20726573 		.ascii	" reschedules/S, \000"
 1979      63686564 
 1979      756C6573 
 1979      2F532C20 
 1979      00
 1980 0119 000000   		.space	3
 1981              	.LC19:
 1982 011c 206D7367 		.ascii	" msgs/S, \000"
 1982      732F532C 
 1982      2000
 1983 0126 0000     		.space	2
 1984              	.LC20:
 1985 0128 42656E63 		.ascii	"Benchmark, RAM footprint\000"
 1985      686D6172 
 1985      6B2C2052 
 1985      414D2066 
 1985      6F6F7470 
 1986 0141 000000   		.space	3
 1987              	.LC21:
 1988 0144 42656E63 		.ascii	"Benchmark, mutexes lock/unlock\000"
 1988      686D6172 
 1988      6B2C206D 
 1988      75746578 
 1988      6573206C 
 1989 0163 00       		.space	1
 1990              	.LC22:
 1991 0164 42656E63 		.ascii	"Benchmark, semaphores wait/signal\000"
 1991      686D6172 
 1991      6B2C2073 
 1991      656D6170 
 1991      686F7265 
 1992 0186 0000     		.space	2
 1993              	.LC23:
 1994 0188 42656E63 		.ascii	"Benchmark, virtual timers set/reset\000"
 1994      686D6172 
 1994      6B2C2076 
 1994      69727475 
 1994      616C2074 
 1995              	.LC24:
 1996 01ac 42656E63 		.ascii	"Benchmark, I/O Queues throughput\000"
 1996      686D6172 
 1996      6B2C2049 
 1996      2F4F2051 
 1996      75657565 
 1997 01cd 000000   		.space	3
 1998              	.LC25:
 1999 01d0 42656E63 		.ascii	"Benchmark, round robin context switching\000"
 1999      686D6172 
 1999      6B2C2072 
ARM GAS  /var/folders/5n/p_75w94d66l9ssrldxqdhh700000gn/T//ccDYaWON.s 			page 38


 1999      6F756E64 
 1999      20726F62 
 2000 01f9 000000   		.space	3
 2001              	.LC26:
 2002 01fc 42656E63 		.ascii	"Benchmark, mass reschedule, 5 threads\000"
 2002      686D6172 
 2002      6B2C206D 
 2002      61737320 
 2002      72657363 
 2003 0222 0000     		.space	2
 2004              	.LC27:
 2005 0224 42656E63 		.ascii	"Benchmark, threads, create only\000"
 2005      686D6172 
 2005      6B2C2074 
 2005      68726561 
 2005      64732C20 
 2006              	.LC28:
 2007 0244 42656E63 		.ascii	"Benchmark, threads, full cycle\000"
 2007      686D6172 
 2007      6B2C2074 
 2007      68726561 
 2007      64732C20 
 2008 0263 00       		.space	1
 2009              	.LC29:
 2010 0264 42656E63 		.ascii	"Benchmark, context switch\000"
 2010      686D6172 
 2010      6B2C2063 
 2010      6F6E7465 
 2010      78742073 
 2011 027e 0000     		.space	2
 2012              	.LC30:
 2013 0280 42656E63 		.ascii	"Benchmark, messages #3\000"
 2013      686D6172 
 2013      6B2C206D 
 2013      65737361 
 2013      67657320 
 2014 0297 00       		.space	1
 2015              	.LC31:
 2016 0298 42656E63 		.ascii	"Benchmark, messages #2\000"
 2016      686D6172 
 2016      6B2C206D 
 2016      65737361 
 2016      67657320 
 2017 02af 00       		.space	1
 2018              	.LC32:
 2019 02b0 42656E63 		.ascii	"Benchmark, messages #1\000"
 2019      686D6172 
 2019      6B2C206D 
 2019      65737361 
 2019      67657320 
 2020 02c7 00       		.section	.rodata.testbmk9,"a",%progbits
 2021              		.align	2
 2022              		.type	testbmk9, %object
 2023              		.size	testbmk9, 16
 2024              	testbmk9:
 2025 0000 AC010000 		.word	.LC24
 2026 0004 00000000 		.word	0
ARM GAS  /var/folders/5n/p_75w94d66l9ssrldxqdhh700000gn/T//ccDYaWON.s 			page 39


 2027 0008 00000000 		.word	0
 2028 000c 00000000 		.word	bmk9_execute
 2029              		.section	.bss.sem1,"aw",%nobits
 2030              		.align	2
 2031              		.set	.LANCHOR1,. + 0
 2032              		.type	sem1, %object
 2033              		.size	sem1, 12
 2034              	sem1:
 2035 0000 00000000 		.space	12
 2035      00000000 
 2035      00000000 
 2036              		.section	.rodata.testbmk4,"a",%progbits
 2037              		.align	2
 2038              		.type	testbmk4, %object
 2039              		.size	testbmk4, 16
 2040              	testbmk4:
 2041 0000 64020000 		.word	.LC29
 2042 0004 00000000 		.word	0
 2043 0008 00000000 		.word	0
 2044 000c 00000000 		.word	bmk4_execute
 2045              		.section	.rodata.testbmk1,"a",%progbits
 2046              		.align	2
 2047              		.type	testbmk1, %object
 2048              		.size	testbmk1, 16
 2049              	testbmk1:
 2050 0000 B0020000 		.word	.LC32
 2051 0004 00000000 		.word	0
 2052 0008 00000000 		.word	0
 2053 000c 00000000 		.word	bmk1_execute
 2054              		.section	.bss.iq.2131,"aw",%nobits
 2055              		.align	2
 2056              		.set	.LANCHOR4,. + 0
 2057              		.type	iq.2131, %object
 2058              		.size	iq.2131, 36
 2059              	iq.2131:
 2060 0000 00000000 		.space	36
 2060      00000000 
 2060      00000000 
 2060      00000000 
 2060      00000000 
 2061              		.section	.rodata.testbmk12,"a",%progbits
 2062              		.align	2
 2063              		.type	testbmk12, %object
 2064              		.size	testbmk12, 16
 2065              	testbmk12:
 2066 0000 44010000 		.word	.LC21
 2067 0004 00000000 		.word	bmk12_setup
 2068 0008 00000000 		.word	0
 2069 000c 00000000 		.word	bmk12_execute
 2070              		.section	.rodata.testbmk13,"a",%progbits
 2071              		.align	2
 2072              		.type	testbmk13, %object
 2073              		.size	testbmk13, 16
 2074              	testbmk13:
 2075 0000 28010000 		.word	.LC20
 2076 0004 00000000 		.word	0
 2077 0008 00000000 		.word	0
ARM GAS  /var/folders/5n/p_75w94d66l9ssrldxqdhh700000gn/T//ccDYaWON.s 			page 40


 2078 000c 00000000 		.word	bmk13_execute
 2079              		.section	.rodata.testbmk5,"a",%progbits
 2080              		.align	2
 2081              		.type	testbmk5, %object
 2082              		.size	testbmk5, 16
 2083              	testbmk5:
 2084 0000 44020000 		.word	.LC28
 2085 0004 00000000 		.word	0
 2086 0008 00000000 		.word	0
 2087 000c 00000000 		.word	bmk5_execute
 2088              		.section	.rodata.testbmk6,"a",%progbits
 2089              		.align	2
 2090              		.type	testbmk6, %object
 2091              		.size	testbmk6, 16
 2092              	testbmk6:
 2093 0000 24020000 		.word	.LC27
 2094 0004 00000000 		.word	0
 2095 0008 00000000 		.word	0
 2096 000c 00000000 		.word	bmk6_execute
 2097              		.section	.rodata.testbmk7,"a",%progbits
 2098              		.align	2
 2099              		.type	testbmk7, %object
 2100              		.size	testbmk7, 16
 2101              	testbmk7:
 2102 0000 FC010000 		.word	.LC26
 2103 0004 00000000 		.word	bmk7_setup
 2104 0008 00000000 		.word	0
 2105 000c 00000000 		.word	bmk7_execute
 2106              		.text
 2107              	.Letext0:
 2108              		.file 2 "/usr/local/summon/lib/gcc/arm-none-eabi/4.6.2/include/stddef.h"
 2109              		.file 3 "/usr/local/summon/lib/gcc/arm-none-eabi/4.6.2/../../../../arm-none-eabi/include/stdint.h"
 2110              		.file 4 "../../os/ports/GCC/ARMCMx/chtypes.h"
 2111              		.file 5 "../../os/kernel/include/chlists.h"
 2112              		.file 6 "../../os/kernel/include/chthreads.h"
 2113              		.file 7 "../../os/ports/GCC/ARMCMx/chcore_v7m.h"
 2114              		.file 8 "../../os/kernel/include/chvt.h"
 2115              		.file 9 "../../os/kernel/include/chschd.h"
 2116              		.file 10 "../../os/kernel/include/chsem.h"
 2117              		.file 11 "../../os/kernel/include/chmtx.h"
 2118              		.file 12 "../../os/kernel/include/chqueues.h"
 2119              		.file 13 "../../test/test.h"