ARM GAS  /var/folders/5n/p_75w94d66l9ssrldxqdhh700000gn/T//ccHwdw52.s 			page 1


   1              		.syntax unified
   2              		.cpu cortex-m4
   3              		.fpu softvfp
   4              		.eabi_attribute 20, 1
   5              		.eabi_attribute 21, 1
   6              		.eabi_attribute 23, 3
   7              		.eabi_attribute 24, 1
   8              		.eabi_attribute 25, 1
   9              		.eabi_attribute 26, 1
  10              		.eabi_attribute 30, 2
  11              		.eabi_attribute 18, 4
  12              		.thumb
  13              		.file	"testmbox.c"
  14              		.text
  15              	.Ltext0:
  16              		.cfi_sections	.debug_frame
  17              		.section	.text.mbox1_setup,"ax",%progbits
  18              		.align	2
  19              		.p2align 4,,15
  20              		.thumb
  21              		.thumb_func
  22              		.type	mbox1_setup, %function
  23              	mbox1_setup:
  24              	.LFB7:
  25              		.file 1 "../../test/testmbox.c"
  26              		.loc 1 75 0
  27              		.cfi_startproc
  28              		@ args = 0, pretend = 0, frame = 0
  29              		@ frame_needed = 0, uses_anonymous_args = 0
  30              		@ link register save eliminated.
  31              		.loc 1 77 0
  32 0000 40F20000 		movw	r0, #:lower16:.LANCHOR0
  33 0004 40F20001 		movw	r1, #:lower16:test
  34 0008 C0F20000 		movt	r0, #:upper16:.LANCHOR0
  35 000c C0F20001 		movt	r1, #:upper16:test
  36 0010 0522     		movs	r2, #5
  37              		.loc 1 78 0
  38              		.loc 1 77 0
  39 0012 FFF7FEBF 		b	chMBInit
  40              		.cfi_endproc
  41              	.LFE7:
  42              		.size	mbox1_setup, .-mbox1_setup
  43 0016 00BFAFF3 		.section	.text.mbox1_execute,"ax",%progbits
  43      0080AFF3 
  43      0080
  44              		.align	2
  45              		.p2align 4,,15
  46              		.thumb
  47              		.thumb_func
  48              		.type	mbox1_execute, %function
  49              	mbox1_execute:
  50              	.LFB8:
  51              		.loc 1 80 0
  52              		.cfi_startproc
  53              		@ args = 0, pretend = 0, frame = 8
  54              		@ frame_needed = 0, uses_anonymous_args = 0
  55 0000 F0B5     		push	{r4, r5, r6, r7, lr}
ARM GAS  /var/folders/5n/p_75w94d66l9ssrldxqdhh700000gn/T//ccHwdw52.s 			page 2


  56              	.LCFI0:
  57              		.cfi_def_cfa_offset 20
  58              		.cfi_offset 14, -4
  59              		.cfi_offset 7, -8
  60              		.cfi_offset 6, -12
  61              		.cfi_offset 5, -16
  62              		.cfi_offset 4, -20
  63              		.loc 1 87 0
  64 0002 B84D     		ldr	r5, .L29
  65 0004 696A     		ldr	r1, [r5, #36]
  66 0006 A1F10503 		sub	r3, r1, #5
  67 000a 0120     		movs	r0, #1
  68 000c 5942     		rsbs	r1, r3, #0
  69 000e 41EB0301 		adc	r1, r1, r3
  70              		.loc 1 80 0
  71 0012 83B0     		sub	sp, sp, #12
  72              	.LCFI1:
  73              		.cfi_def_cfa_offset 32
  74              		.loc 1 87 0
  75 0014 FFF7FEFF 		bl	_test_assert
  76 0018 00BB     		cbnz	r0, .L2
  77 001a 4226     		movs	r6, #66
  78              	.L4:
  79              		.loc 1 93 0
  80 001c B14C     		ldr	r4, .L29
  81 001e 3146     		mov	r1, r6
  82 0020 2046     		mov	r0, r4
  83 0022 4FF0FF32 		mov	r2, #-1
  84 0026 FFF7FEFF 		bl	chMBPost
  85              	.LVL0:
  86              		.loc 1 94 0
  87 002a D0F10101 		rsbs	r1, r0, #1
  88 002e 38BF     		it	cc
  89 0030 0021     		movcc	r1, #0
  90 0032 0220     		movs	r0, #2
  91              	.LVL1:
  92 0034 0136     		adds	r6, r6, #1
  93 0036 FFF7FEFF 		bl	_test_assert
  94 003a 78B9     		cbnz	r0, .L2
  95              		.loc 1 92 0
  96 003c 462E     		cmp	r6, #70
  97 003e EDD1     		bne	.L4
  98              		.loc 1 96 0
  99 0040 4121     		movs	r1, #65
 100 0042 2046     		mov	r0, r4
 101 0044 4FF0FF32 		mov	r2, #-1
 102 0048 FFF7FEFF 		bl	chMBPostAhead
 103              	.LVL2:
 104              		.loc 1 97 0
 105 004c D0F10101 		rsbs	r1, r0, #1
 106 0050 38BF     		it	cc
 107 0052 0021     		movcc	r1, #0
 108 0054 0320     		movs	r0, #3
 109              	.LVL3:
 110 0056 FFF7FEFF 		bl	_test_assert
 111 005a 08B1     		cbz	r0, .L28
 112              	.LVL4:
ARM GAS  /var/folders/5n/p_75w94d66l9ssrldxqdhh700000gn/T//ccHwdw52.s 			page 3


 113              	.L2:
 114              		.loc 1 224 0
 115 005c 03B0     		add	sp, sp, #12
 116 005e F0BD     		pop	{r4, r5, r6, r7, pc}
 117              	.LVL5:
 118              	.L28:
 119              	.LBB116:
 120              	.LBB117:
 121              		.loc 1 102 0
 122 0060 0122     		movs	r2, #1
 123 0062 5821     		movs	r1, #88
 124 0064 2046     		mov	r0, r4
 125 0066 FFF7FEFF 		bl	chMBPost
 126              	.LVL6:
 127              		.loc 1 103 0
 128 006a A0F1FF3C 		sub	ip, r0, #-1
 129 006e DCF10001 		rsbs	r1, ip, #0
 130 0072 41EB0C01 		adc	r1, r1, ip
 131 0076 0420     		movs	r0, #4
 132              	.LVL7:
 133 0078 FFF7FEFF 		bl	_test_assert
 134              	.LVL8:
 135 007c 0646     		mov	r6, r0
 136 007e 0028     		cmp	r0, #0
 137 0080 ECD1     		bne	.L2
 138              	.LBB118:
 139              		.loc 1 104 0
 140 0082 2023     		movs	r3, #32
 141              	.LVL9:
 142              	@ 104 "../../test/testmbox.c" 1
 143 0084 83F31188 		msr     BASEPRI, r3
 144              	@ 0 "" 2
 145              	.LVL10:
 146              		.thumb
 147              	.LBE118:
 148              		.loc 1 105 0
 149 0088 5821     		movs	r1, #88
 150 008a 2046     		mov	r0, r4
 151 008c FFF7FEFF 		bl	chMBPostI
 152              	.LVL11:
 153              	.LBB119:
 154              		.loc 1 106 0
 155 0090 3346     		mov	r3, r6
 156              	.LVL12:
 157              	.LBE119:
 158              		.loc 1 105 0
 159 0092 0146     		mov	r1, r0
 160              	.LVL13:
 161              	.LBB120:
 162              		.loc 1 106 0
 163              	@ 106 "../../test/testmbox.c" 1
 164 0094 83F31188 		msr     BASEPRI, r3
 165              	@ 0 "" 2
 166              	.LVL14:
 167              		.thumb
 168              	.LBE120:
 169              		.loc 1 107 0
ARM GAS  /var/folders/5n/p_75w94d66l9ssrldxqdhh700000gn/T//ccHwdw52.s 			page 4


 170 0098 A1F1FF3E 		sub	lr, r1, #-1
 171 009c 0520     		movs	r0, #5
 172              	.LVL15:
 173 009e DEF10001 		rsbs	r1, lr, #0
 174              	.LVL16:
 175 00a2 41EB0E01 		adc	r1, r1, lr
 176 00a6 FFF7FEFF 		bl	_test_assert
 177              	.LVL17:
 178 00aa 0028     		cmp	r0, #0
 179 00ac D6D1     		bne	.L2
 180              		.loc 1 108 0
 181 00ae 0122     		movs	r2, #1
 182 00b0 5821     		movs	r1, #88
 183 00b2 2046     		mov	r0, r4
 184 00b4 FFF7FEFF 		bl	chMBPostAhead
 185              	.LVL18:
 186              		.loc 1 109 0
 187 00b8 A0F1FF32 		sub	r2, r0, #-1
 188 00bc 5142     		rsbs	r1, r2, #0
 189 00be 41EB0201 		adc	r1, r1, r2
 190 00c2 0620     		movs	r0, #6
 191              	.LVL19:
 192 00c4 FFF7FEFF 		bl	_test_assert
 193              	.LVL20:
 194 00c8 0646     		mov	r6, r0
 195 00ca 0028     		cmp	r0, #0
 196 00cc C6D1     		bne	.L2
 197              	.LBB121:
 198              		.loc 1 110 0
 199 00ce 2023     		movs	r3, #32
 200              	.LVL21:
 201              	@ 110 "../../test/testmbox.c" 1
 202 00d0 83F31188 		msr     BASEPRI, r3
 203              	@ 0 "" 2
 204              	.LVL22:
 205              		.thumb
 206              	.LBE121:
 207              		.loc 1 111 0
 208 00d4 5821     		movs	r1, #88
 209 00d6 2046     		mov	r0, r4
 210 00d8 FFF7FEFF 		bl	chMBPostAheadI
 211              	.LVL23:
 212              	.LBB122:
 213              		.loc 1 112 0
 214 00dc 3346     		mov	r3, r6
 215              	.LVL24:
 216              	.LBE122:
 217              		.loc 1 111 0
 218 00de 0146     		mov	r1, r0
 219              	.LVL25:
 220              	.LBB123:
 221              		.loc 1 112 0
 222              	@ 112 "../../test/testmbox.c" 1
 223 00e0 83F31188 		msr     BASEPRI, r3
 224              	@ 0 "" 2
 225              	.LVL26:
 226              		.thumb
ARM GAS  /var/folders/5n/p_75w94d66l9ssrldxqdhh700000gn/T//ccHwdw52.s 			page 5


 227              	.LBE123:
 228              		.loc 1 113 0
 229 00e4 A1F1FF33 		sub	r3, r1, #-1
 230              	.LVL27:
 231 00e8 0720     		movs	r0, #7
 232              	.LVL28:
 233 00ea 5942     		rsbs	r1, r3, #0
 234              	.LVL29:
 235 00ec 41EB0301 		adc	r1, r1, r3
 236 00f0 FFF7FEFF 		bl	_test_assert
 237              	.LVL30:
 238 00f4 0646     		mov	r6, r0
 239 00f6 0028     		cmp	r0, #0
 240 00f8 B0D1     		bne	.L2
 241              	.LBB124:
 242              		.loc 1 118 0
 243 00fa 2023     		movs	r3, #32
 244              	.LVL31:
 245              	@ 118 "../../test/testmbox.c" 1
 246 00fc 83F31188 		msr     BASEPRI, r3
 247              	@ 0 "" 2
 248              	.LVL32:
 249              		.thumb
 250              	.LBE124:
 251 0100 616A     		ldr	r1, [r4, #36]
 252 0102 0820     		movs	r0, #8
 253 0104 D1F10101 		rsbs	r1, r1, #1
 254 0108 38BF     		it	cc
 255 010a 0021     		movcc	r1, #0
 256 010c FFF7FEFF 		bl	_test_assert
 257              	.LVL33:
 258 0110 0746     		mov	r7, r0
 259 0112 18B1     		cbz	r0, .L5
 260              	.LBB125:
 261 0114 3346     		mov	r3, r6
 262              	@ 118 "../../test/testmbox.c" 1
 263 0116 83F31188 		msr     BASEPRI, r3
 264              	@ 0 "" 2
 265              	.LVL34:
 266              		.thumb
 267 011a 9FE7     		b	.L2
 268              	.LVL35:
 269              	.L5:
 270              	.LBE125:
 271              	.LBB126:
 272 011c 0346     		mov	r3, r0
 273              	.LVL36:
 274              	@ 118 "../../test/testmbox.c" 1
 275 011e 83F31188 		msr     BASEPRI, r3
 276              	@ 0 "" 2
 277              	.LVL37:
 278              		.thumb
 279              	.LBE126:
 280              	.LBB127:
 281              		.loc 1 119 0
 282 0122 2023     		movs	r3, #32
 283              	.LVL38:
ARM GAS  /var/folders/5n/p_75w94d66l9ssrldxqdhh700000gn/T//ccHwdw52.s 			page 6


 284              	@ 119 "../../test/testmbox.c" 1
 285 0124 83F31188 		msr     BASEPRI, r3
 286              	@ 0 "" 2
 287              	.LVL39:
 288              		.thumb
 289              	.LBE127:
 290 0128 A169     		ldr	r1, [r4, #24]
 291 012a A1F1050C 		sub	ip, r1, #5
 292 012e 0920     		movs	r0, #9
 293 0130 DCF10001 		rsbs	r1, ip, #0
 294 0134 41EB0C01 		adc	r1, r1, ip
 295 0138 FFF7FEFF 		bl	_test_assert
 296              	.LVL40:
 297 013c 0346     		mov	r3, r0
 298 013e 18B1     		cbz	r0, .L6
 299              	.LBB128:
 300 0140 3B46     		mov	r3, r7
 301              	@ 119 "../../test/testmbox.c" 1
 302 0142 83F31188 		msr     BASEPRI, r3
 303              	@ 0 "" 2
 304              	.LVL41:
 305              		.thumb
 306 0146 89E7     		b	.L2
 307              	.LVL42:
 308              	.L6:
 309              	.LBE128:
 310              	.LBB129:
 311              	@ 119 "../../test/testmbox.c" 1
 312 0148 83F31188 		msr     BASEPRI, r3
 313              	@ 0 "" 2
 314              	.LVL43:
 315              		.thumb
 316              	.LBE129:
 317              	.LBB130:
 318              		.loc 1 120 0
 319 014c 2023     		movs	r3, #32
 320              	.LVL44:
 321              	@ 120 "../../test/testmbox.c" 1
 322 014e 83F31188 		msr     BASEPRI, r3
 323              	@ 0 "" 2
 324              	.LVL45:
 325              		.thumb
 326              	.LBE130:
 327 0152 E168     		ldr	r1, [r4, #12]
 328 0154 A368     		ldr	r3, [r4, #8]
 329              	.LVL46:
 330 0156 C3EB010E 		rsb	lr, r3, r1
 331 015a 0A20     		movs	r0, #10
 332 015c DEF10001 		rsbs	r1, lr, #0
 333 0160 41EB0E01 		adc	r1, r1, lr
 334 0164 FFF7FEFF 		bl	_test_assert
 335              	.LBB131:
 336 0168 0023     		movs	r3, #0
 337              	@ 120 "../../test/testmbox.c" 1
 338 016a 83F31188 		msr     BASEPRI, r3
 339              	@ 0 "" 2
 340              	.LVL47:
ARM GAS  /var/folders/5n/p_75w94d66l9ssrldxqdhh700000gn/T//ccHwdw52.s 			page 7


 341              		.thumb
 342              	.LBE131:
 343 016e 0028     		cmp	r0, #0
 344 0170 7FF474AF 		bne	.L2
 345              	.LVL48:
 346              	.LBB132:
 347 0174 0526     		movs	r6, #5
 348              	.LVL49:
 349              	.L8:
 350              	.LBE132:
 351              		.loc 1 126 0
 352 0176 5B4C     		ldr	r4, .L29
 353 0178 01A9     		add	r1, sp, #4
 354 017a 4FF0FF32 		mov	r2, #-1
 355 017e 2046     		mov	r0, r4
 356 0180 FFF7FEFF 		bl	chMBFetch
 357              	.LVL50:
 358              		.loc 1 127 0
 359 0184 D0F10101 		rsbs	r1, r0, #1
 360 0188 38BF     		it	cc
 361 018a 0021     		movcc	r1, #0
 362 018c 0B20     		movs	r0, #11
 363              	.LVL51:
 364 018e FFF7FEFF 		bl	_test_assert
 365 0192 0028     		cmp	r0, #0
 366 0194 7FF462AF 		bne	.L2
 367              		.loc 1 128 0
 368 0198 9DF80400 		ldrb	r0, [sp, #4]	@ zero_extendqisi2
 369 019c FFF7FEFF 		bl	test_emit_token
 370              		.loc 1 125 0
 371 01a0 013E     		subs	r6, r6, #1
 372 01a2 E8D1     		bne	.L8
 373              		.loc 1 130 0
 374 01a4 0C20     		movs	r0, #12
 375 01a6 5049     		ldr	r1, .L29+4
 376 01a8 FFF7FEFF 		bl	_test_assert_sequence
 377 01ac 0028     		cmp	r0, #0
 378 01ae 7FF455AF 		bne	.L2
 379              		.loc 1 135 0
 380 01b2 4721     		movs	r1, #71
 381 01b4 2046     		mov	r0, r4
 382 01b6 4FF0FF32 		mov	r2, #-1
 383 01ba FFF7FEFF 		bl	chMBPost
 384              	.LVL52:
 385              		.loc 1 136 0
 386 01be D0F10101 		rsbs	r1, r0, #1
 387 01c2 38BF     		it	cc
 388 01c4 0021     		movcc	r1, #0
 389 01c6 0D20     		movs	r0, #13
 390              	.LVL53:
 391 01c8 FFF7FEFF 		bl	_test_assert
 392 01cc 0028     		cmp	r0, #0
 393 01ce 7FF445AF 		bne	.L2
 394              		.loc 1 137 0
 395 01d2 01A9     		add	r1, sp, #4
 396 01d4 2046     		mov	r0, r4
 397 01d6 4FF0FF32 		mov	r2, #-1
ARM GAS  /var/folders/5n/p_75w94d66l9ssrldxqdhh700000gn/T//ccHwdw52.s 			page 8


 398 01da FFF7FEFF 		bl	chMBFetch
 399              	.LVL54:
 400              		.loc 1 138 0
 401 01de D0F10101 		rsbs	r1, r0, #1
 402 01e2 38BF     		it	cc
 403 01e4 0021     		movcc	r1, #0
 404 01e6 0E20     		movs	r0, #14
 405              	.LVL55:
 406 01e8 FFF7FEFF 		bl	_test_assert
 407 01ec 0028     		cmp	r0, #0
 408 01ee 7FF435AF 		bne	.L2
 409              		.loc 1 139 0
 410 01f2 2168     		ldr	r1, [r4, #0]
 411 01f4 A368     		ldr	r3, [r4, #8]
 412 01f6 CA1A     		subs	r2, r1, r3
 413 01f8 0F20     		movs	r0, #15
 414 01fa 5142     		rsbs	r1, r2, #0
 415 01fc 41EB0201 		adc	r1, r1, r2
 416 0200 FFF7FEFF 		bl	_test_assert
 417 0204 0028     		cmp	r0, #0
 418 0206 7FF429AF 		bne	.L2
 419              		.loc 1 140 0
 420 020a 2168     		ldr	r1, [r4, #0]
 421 020c E368     		ldr	r3, [r4, #12]
 422 020e CB1A     		subs	r3, r1, r3
 423 0210 1020     		movs	r0, #16
 424 0212 5942     		rsbs	r1, r3, #0
 425 0214 41EB0301 		adc	r1, r1, r3
 426 0218 FFF7FEFF 		bl	_test_assert
 427 021c 0028     		cmp	r0, #0
 428 021e 7FF41DAF 		bne	.L2
 429              		.loc 1 145 0
 430 0222 01A9     		add	r1, sp, #4
 431 0224 0122     		movs	r2, #1
 432 0226 2046     		mov	r0, r4
 433 0228 FFF7FEFF 		bl	chMBFetch
 434              	.LVL56:
 435              		.loc 1 146 0
 436 022c A0F1FF3C 		sub	ip, r0, #-1
 437 0230 DCF10001 		rsbs	r1, ip, #0
 438 0234 41EB0C01 		adc	r1, r1, ip
 439 0238 1120     		movs	r0, #17
 440              	.LVL57:
 441 023a FFF7FEFF 		bl	_test_assert
 442              	.LVL58:
 443 023e 0028     		cmp	r0, #0
 444 0240 7FF40CAF 		bne	.L2
 445              	.LBB133:
 446              		.loc 1 147 0
 447 0244 2023     		movs	r3, #32
 448              	.LVL59:
 449              	@ 147 "../../test/testmbox.c" 1
 450 0246 83F31188 		msr     BASEPRI, r3
 451              	@ 0 "" 2
 452              	.LVL60:
 453              		.thumb
 454              	.LBE133:
ARM GAS  /var/folders/5n/p_75w94d66l9ssrldxqdhh700000gn/T//ccHwdw52.s 			page 9


 455              		.loc 1 148 0
 456 024a 01A9     		add	r1, sp, #4
 457 024c 2046     		mov	r0, r4
 458 024e FFF7FEFF 		bl	chMBFetchI
 459              	.LVL61:
 460              	.LBB134:
 461              		.loc 1 149 0
 462 0252 3346     		mov	r3, r6
 463              	.LVL62:
 464              	.LBE134:
 465              		.loc 1 148 0
 466 0254 0146     		mov	r1, r0
 467              	.LVL63:
 468              	.LBB135:
 469              		.loc 1 149 0
 470              	@ 149 "../../test/testmbox.c" 1
 471 0256 83F31188 		msr     BASEPRI, r3
 472              	@ 0 "" 2
 473              	.LVL64:
 474              		.thumb
 475              	.LBE135:
 476              		.loc 1 150 0
 477 025a A1F1FF3E 		sub	lr, r1, #-1
 478 025e 1220     		movs	r0, #18
 479              	.LVL65:
 480 0260 DEF10001 		rsbs	r1, lr, #0
 481              	.LVL66:
 482 0264 41EB0E01 		adc	r1, r1, lr
 483 0268 FFF7FEFF 		bl	_test_assert
 484              	.LVL67:
 485 026c 0028     		cmp	r0, #0
 486 026e 7FF4F5AE 		bne	.L2
 487              	.LBB136:
 488              		.loc 1 155 0
 489 0272 2023     		movs	r3, #32
 490              	.LVL68:
 491              	@ 155 "../../test/testmbox.c" 1
 492 0274 83F31188 		msr     BASEPRI, r3
 493              	@ 0 "" 2
 494              	.LVL69:
 495              		.thumb
 496              	.LBE136:
 497 0278 616A     		ldr	r1, [r4, #36]
 498 027a A1F10502 		sub	r2, r1, #5
 499 027e 1320     		movs	r0, #19
 500 0280 5142     		rsbs	r1, r2, #0
 501 0282 41EB0201 		adc	r1, r1, r2
 502 0286 FFF7FEFF 		bl	_test_assert
 503              	.LVL70:
 504              	.LBB137:
 505 028a 0023     		movs	r3, #0
 506              	@ 155 "../../test/testmbox.c" 1
 507 028c 83F31188 		msr     BASEPRI, r3
 508              	@ 0 "" 2
 509              	.LVL71:
 510              		.thumb
 511              	.LBE137:
ARM GAS  /var/folders/5n/p_75w94d66l9ssrldxqdhh700000gn/T//ccHwdw52.s 			page 10


 512 0290 0028     		cmp	r0, #0
 513 0292 7FF4E3AE 		bne	.L2
 514              	.LBB138:
 515              		.loc 1 156 0
 516 0296 2023     		movs	r3, #32
 517              	.LVL72:
 518              	@ 156 "../../test/testmbox.c" 1
 519 0298 83F31188 		msr     BASEPRI, r3
 520              	@ 0 "" 2
 521              	.LVL73:
 522              		.thumb
 523              	.LBE138:
 524 029c A969     		ldr	r1, [r5, #24]
 525 029e 114C     		ldr	r4, .L29
 526 02a0 1420     		movs	r0, #20
 527 02a2 D1F10101 		rsbs	r1, r1, #1
 528 02a6 38BF     		it	cc
 529 02a8 0021     		movcc	r1, #0
 530 02aa FFF7FEFF 		bl	_test_assert
 531              	.LVL74:
 532 02ae 0546     		mov	r5, r0
 533 02b0 18B1     		cbz	r0, .L10
 534              	.L26:
 535              	.LBB139:
 536              		.loc 1 223 0
 537 02b2 0023     		movs	r3, #0
 538              	@ 223 "../../test/testmbox.c" 1
 539 02b4 83F31188 		msr     BASEPRI, r3
 540              	@ 0 "" 2
 541              	.LVL75:
 542              		.thumb
 543 02b8 D0E6     		b	.L2
 544              	.LVL76:
 545              	.L10:
 546              	.LBE139:
 547              	.LBB140:
 548              		.loc 1 156 0
 549 02ba 0346     		mov	r3, r0
 550              	.LVL77:
 551              	@ 156 "../../test/testmbox.c" 1
 552 02bc 83F31188 		msr     BASEPRI, r3
 553              	@ 0 "" 2
 554              	.LVL78:
 555              		.thumb
 556              	.LBE140:
 557              	.LBB141:
 558              		.loc 1 157 0
 559 02c0 2023     		movs	r3, #32
 560              	.LVL79:
 561              	@ 157 "../../test/testmbox.c" 1
 562 02c2 83F31188 		msr     BASEPRI, r3
 563              	@ 0 "" 2
 564              	.LVL80:
 565              		.thumb
 566              	.LBE141:
 567 02c6 E168     		ldr	r1, [r4, #12]
 568 02c8 A368     		ldr	r3, [r4, #8]
ARM GAS  /var/folders/5n/p_75w94d66l9ssrldxqdhh700000gn/T//ccHwdw52.s 			page 11


 569              	.LVL81:
 570 02ca CB1A     		subs	r3, r1, r3
 571 02cc 1520     		movs	r0, #21
 572 02ce 5942     		rsbs	r1, r3, #0
 573 02d0 41EB0301 		adc	r1, r1, r3
 574 02d4 FFF7FEFF 		bl	_test_assert
 575 02d8 0346     		mov	r3, r0
 576 02da 38B1     		cbz	r0, .L11
 577              	.LBB142:
 578 02dc 2B46     		mov	r3, r5
 579              	@ 157 "../../test/testmbox.c" 1
 580 02de 83F31188 		msr     BASEPRI, r3
 581              	@ 0 "" 2
 582              	.LVL82:
 583              		.thumb
 584 02e2 BBE6     		b	.L2
 585              	.L30:
 586              		.align	2
 587              	.L29:
 588 02e4 00000000 		.word	.LANCHOR0
 589 02e8 00000000 		.word	.LC0
 590              	.LVL83:
 591              	.L11:
 592              	.LBE142:
 593              	.LBB143:
 594              	@ 157 "../../test/testmbox.c" 1
 595 02ec 83F31188 		msr     BASEPRI, r3
 596              	@ 0 "" 2
 597              	.LVL84:
 598              		.thumb
 599              	.LBE143:
 600              	.LBB144:
 601              		.loc 1 162 0
 602 02f0 2023     		movs	r3, #32
 603              	.LVL85:
 604              	@ 162 "../../test/testmbox.c" 1
 605 02f2 83F31188 		msr     BASEPRI, r3
 606              	@ 0 "" 2
 607              	.LVL86:
 608              		.thumb
 609              	.LBE144:
 610              		.loc 1 163 0
 611 02f6 4121     		movs	r1, #65
 612 02f8 2046     		mov	r0, r4
 613 02fa FFF7FEFF 		bl	chMBPostI
 614              	.LVL87:
 615              		.loc 1 164 0
 616 02fe D0F10101 		rsbs	r1, r0, #1
 617 0302 38BF     		it	cc
 618 0304 0021     		movcc	r1, #0
 619 0306 1620     		movs	r0, #22
 620              	.LVL88:
 621 0308 FFF7FEFF 		bl	_test_assert
 622 030c 0028     		cmp	r0, #0
 623 030e 7FF4A5AE 		bne	.L2
 624              		.loc 1 165 0
 625 0312 4221     		movs	r1, #66
ARM GAS  /var/folders/5n/p_75w94d66l9ssrldxqdhh700000gn/T//ccHwdw52.s 			page 12


 626 0314 2046     		mov	r0, r4
 627 0316 FFF7FEFF 		bl	chMBPostI
 628              	.LVL89:
 629              		.loc 1 166 0
 630 031a D0F10101 		rsbs	r1, r0, #1
 631 031e 38BF     		it	cc
 632 0320 0021     		movcc	r1, #0
 633 0322 1720     		movs	r0, #23
 634              	.LVL90:
 635 0324 FFF7FEFF 		bl	_test_assert
 636 0328 0028     		cmp	r0, #0
 637 032a 7FF497AE 		bne	.L2
 638              		.loc 1 167 0
 639 032e 4321     		movs	r1, #67
 640 0330 2046     		mov	r0, r4
 641 0332 FFF7FEFF 		bl	chMBPostI
 642              	.LVL91:
 643              		.loc 1 168 0
 644 0336 D0F10101 		rsbs	r1, r0, #1
 645 033a 38BF     		it	cc
 646 033c 0021     		movcc	r1, #0
 647 033e 1820     		movs	r0, #24
 648              	.LVL92:
 649 0340 FFF7FEFF 		bl	_test_assert
 650 0344 0028     		cmp	r0, #0
 651 0346 7FF489AE 		bne	.L2
 652              		.loc 1 169 0
 653 034a 4421     		movs	r1, #68
 654 034c 2046     		mov	r0, r4
 655 034e FFF7FEFF 		bl	chMBPostI
 656              	.LVL93:
 657              		.loc 1 170 0
 658 0352 D0F10101 		rsbs	r1, r0, #1
 659 0356 38BF     		it	cc
 660 0358 0021     		movcc	r1, #0
 661 035a 1920     		movs	r0, #25
 662              	.LVL94:
 663 035c FFF7FEFF 		bl	_test_assert
 664 0360 0546     		mov	r5, r0
 665 0362 0028     		cmp	r0, #0
 666 0364 7FF47AAE 		bne	.L2
 667              		.loc 1 171 0
 668 0368 4521     		movs	r1, #69
 669 036a 2046     		mov	r0, r4
 670 036c FFF7FEFF 		bl	chMBPostI
 671              	.LBB145:
 672              		.loc 1 172 0
 673 0370 2B46     		mov	r3, r5
 674              	.LVL95:
 675              	.LBE145:
 676              		.loc 1 171 0
 677 0372 0146     		mov	r1, r0
 678              	.LVL96:
 679              	.LBB146:
 680              		.loc 1 172 0
 681              	@ 172 "../../test/testmbox.c" 1
 682 0374 83F31188 		msr     BASEPRI, r3
ARM GAS  /var/folders/5n/p_75w94d66l9ssrldxqdhh700000gn/T//ccHwdw52.s 			page 13


 683              	@ 0 "" 2
 684              	.LVL97:
 685              		.thumb
 686              	.LBE146:
 687              		.loc 1 173 0
 688 0378 1A20     		movs	r0, #26
 689              	.LVL98:
 690 037a D1F10101 		rsbs	r1, r1, #1
 691              	.LVL99:
 692 037e 38BF     		it	cc
 693 0380 0021     		movcc	r1, #0
 694 0382 FFF7FEFF 		bl	_test_assert
 695              	.LVL100:
 696 0386 0028     		cmp	r0, #0
 697 0388 7FF468AE 		bne	.L2
 698              		.loc 1 174 0
 699 038c E168     		ldr	r1, [r4, #12]
 700 038e A368     		ldr	r3, [r4, #8]
 701 0390 C3EB010C 		rsb	ip, r3, r1
 702 0394 1B20     		movs	r0, #27
 703 0396 DCF10001 		rsbs	r1, ip, #0
 704 039a 41EB0C01 		adc	r1, r1, ip
 705 039e FFF7FEFF 		bl	_test_assert
 706 03a2 0028     		cmp	r0, #0
 707 03a4 7FF45AAE 		bne	.L2
 708 03a8 0525     		movs	r5, #5
 709              	.L12:
 710              	.LBB147:
 711              		.loc 1 176 0
 712 03aa 2023     		movs	r3, #32
 713              	.LVL101:
 714              	@ 176 "../../test/testmbox.c" 1
 715 03ac 83F31188 		msr     BASEPRI, r3
 716              	@ 0 "" 2
 717              	.LVL102:
 718              		.thumb
 719              	.LBE147:
 720              		.loc 1 177 0
 721 03b0 A44C     		ldr	r4, .L31
 722 03b2 01A9     		add	r1, sp, #4
 723 03b4 2046     		mov	r0, r4
 724 03b6 FFF7FEFF 		bl	chMBFetchI
 725              	.LVL103:
 726              	.LBB148:
 727              		.loc 1 178 0
 728 03ba 0023     		movs	r3, #0
 729              	.LVL104:
 730              	.LBE148:
 731              		.loc 1 177 0
 732 03bc 0146     		mov	r1, r0
 733              	.LVL105:
 734              	.LBB149:
 735              		.loc 1 178 0
 736              	@ 178 "../../test/testmbox.c" 1
 737 03be 83F31188 		msr     BASEPRI, r3
 738              	@ 0 "" 2
 739              	.LVL106:
ARM GAS  /var/folders/5n/p_75w94d66l9ssrldxqdhh700000gn/T//ccHwdw52.s 			page 14


 740              		.thumb
 741              	.LBE149:
 742              		.loc 1 179 0
 743 03c2 C3EB010E 		rsb	lr, r3, r1
 744              	.LVL107:
 745 03c6 1C20     		movs	r0, #28
 746              	.LVL108:
 747 03c8 DEF10001 		rsbs	r1, lr, #0
 748              	.LVL109:
 749 03cc 41EB0E01 		adc	r1, r1, lr
 750 03d0 FFF7FEFF 		bl	_test_assert
 751              	.LVL110:
 752 03d4 0028     		cmp	r0, #0
 753 03d6 7FF441AE 		bne	.L2
 754              		.loc 1 180 0
 755 03da 9DF80400 		ldrb	r0, [sp, #4]	@ zero_extendqisi2
 756 03de FFF7FEFF 		bl	test_emit_token
 757              		.loc 1 175 0
 758 03e2 013D     		subs	r5, r5, #1
 759 03e4 E1D1     		bne	.L12
 760              		.loc 1 182 0
 761 03e6 1D20     		movs	r0, #29
 762 03e8 9749     		ldr	r1, .L31+4
 763 03ea FFF7FEFF 		bl	_test_assert_sequence
 764 03ee 0028     		cmp	r0, #0
 765 03f0 7FF434AE 		bne	.L2
 766              	.LBB150:
 767              		.loc 1 183 0
 768 03f4 2023     		movs	r3, #32
 769              	.LVL111:
 770              	@ 183 "../../test/testmbox.c" 1
 771 03f6 83F31188 		msr     BASEPRI, r3
 772              	@ 0 "" 2
 773              	.LVL112:
 774              		.thumb
 775              	.LBE150:
 776 03fa 616A     		ldr	r1, [r4, #36]
 777 03fc A1F10502 		sub	r2, r1, #5
 778 0400 1E20     		movs	r0, #30
 779 0402 5142     		rsbs	r1, r2, #0
 780 0404 41EB0201 		adc	r1, r1, r2
 781 0408 FFF7FEFF 		bl	_test_assert
 782              	.LVL113:
 783              	.LBB151:
 784 040c 2B46     		mov	r3, r5
 785              	@ 183 "../../test/testmbox.c" 1
 786 040e 83F31188 		msr     BASEPRI, r3
 787              	@ 0 "" 2
 788              	.LVL114:
 789              		.thumb
 790              	.LBE151:
 791 0412 0028     		cmp	r0, #0
 792 0414 7FF422AE 		bne	.L2
 793              	.LBB152:
 794              		.loc 1 184 0
 795 0418 2023     		movs	r3, #32
 796              	.LVL115:
ARM GAS  /var/folders/5n/p_75w94d66l9ssrldxqdhh700000gn/T//ccHwdw52.s 			page 15


 797              	@ 184 "../../test/testmbox.c" 1
 798 041a 83F31188 		msr     BASEPRI, r3
 799              	@ 0 "" 2
 800              	.LVL116:
 801              		.thumb
 802              	.LBE152:
 803 041e A169     		ldr	r1, [r4, #24]
 804 0420 1F20     		movs	r0, #31
 805 0422 D1F10101 		rsbs	r1, r1, #1
 806 0426 38BF     		it	cc
 807 0428 0021     		movcc	r1, #0
 808 042a FFF7FEFF 		bl	_test_assert
 809              	.LVL117:
 810              	.LBB153:
 811 042e 2B46     		mov	r3, r5
 812              	@ 184 "../../test/testmbox.c" 1
 813 0430 83F31188 		msr     BASEPRI, r3
 814              	@ 0 "" 2
 815              	.LVL118:
 816              		.thumb
 817              	.LBE153:
 818 0434 0028     		cmp	r0, #0
 819 0436 7FF411AE 		bne	.L2
 820              		.loc 1 185 0
 821 043a E168     		ldr	r1, [r4, #12]
 822 043c A368     		ldr	r3, [r4, #8]
 823              	.LVL119:
 824 043e CB1A     		subs	r3, r1, r3
 825 0440 2020     		movs	r0, #32
 826 0442 5942     		rsbs	r1, r3, #0
 827 0444 41EB0301 		adc	r1, r1, r3
 828 0448 FFF7FEFF 		bl	_test_assert
 829 044c 0028     		cmp	r0, #0
 830 044e 7FF405AE 		bne	.L2
 831              	.LBB154:
 832              		.loc 1 187 0
 833 0452 2023     		movs	r3, #32
 834              	.LVL120:
 835              	@ 187 "../../test/testmbox.c" 1
 836 0454 83F31188 		msr     BASEPRI, r3
 837              	@ 0 "" 2
 838              	.LVL121:
 839              		.thumb
 840              	.LBE154:
 841              		.loc 1 188 0
 842 0458 4521     		movs	r1, #69
 843 045a 2046     		mov	r0, r4
 844 045c FFF7FEFF 		bl	chMBPostAheadI
 845              	.LVL122:
 846              		.loc 1 189 0
 847 0460 D0F10101 		rsbs	r1, r0, #1
 848 0464 38BF     		it	cc
 849 0466 0021     		movcc	r1, #0
 850 0468 2120     		movs	r0, #33
 851              	.LVL123:
 852 046a FFF7FEFF 		bl	_test_assert
 853 046e 0028     		cmp	r0, #0
ARM GAS  /var/folders/5n/p_75w94d66l9ssrldxqdhh700000gn/T//ccHwdw52.s 			page 16


 854 0470 7FF4F4AD 		bne	.L2
 855              		.loc 1 190 0
 856 0474 4421     		movs	r1, #68
 857 0476 2046     		mov	r0, r4
 858 0478 FFF7FEFF 		bl	chMBPostAheadI
 859              	.LVL124:
 860              		.loc 1 191 0
 861 047c D0F10101 		rsbs	r1, r0, #1
 862 0480 38BF     		it	cc
 863 0482 0021     		movcc	r1, #0
 864 0484 2220     		movs	r0, #34
 865              	.LVL125:
 866 0486 FFF7FEFF 		bl	_test_assert
 867 048a 0028     		cmp	r0, #0
 868 048c 7FF4E6AD 		bne	.L2
 869              		.loc 1 192 0
 870 0490 4321     		movs	r1, #67
 871 0492 2046     		mov	r0, r4
 872 0494 FFF7FEFF 		bl	chMBPostAheadI
 873              	.LVL126:
 874              		.loc 1 193 0
 875 0498 D0F10101 		rsbs	r1, r0, #1
 876 049c 38BF     		it	cc
 877 049e 0021     		movcc	r1, #0
 878 04a0 2320     		movs	r0, #35
 879              	.LVL127:
 880 04a2 FFF7FEFF 		bl	_test_assert
 881 04a6 0028     		cmp	r0, #0
 882 04a8 7FF4D8AD 		bne	.L2
 883              		.loc 1 194 0
 884 04ac 4221     		movs	r1, #66
 885 04ae 2046     		mov	r0, r4
 886 04b0 FFF7FEFF 		bl	chMBPostAheadI
 887              	.LVL128:
 888              		.loc 1 195 0
 889 04b4 D0F10101 		rsbs	r1, r0, #1
 890 04b8 38BF     		it	cc
 891 04ba 0021     		movcc	r1, #0
 892 04bc 2420     		movs	r0, #36
 893              	.LVL129:
 894 04be FFF7FEFF 		bl	_test_assert
 895 04c2 0028     		cmp	r0, #0
 896 04c4 7FF4CAAD 		bne	.L2
 897              		.loc 1 196 0
 898 04c8 5E4C     		ldr	r4, .L31
 899 04ca 4121     		movs	r1, #65
 900 04cc 2046     		mov	r0, r4
 901 04ce FFF7FEFF 		bl	chMBPostAheadI
 902              	.LBB155:
 903              		.loc 1 197 0
 904 04d2 0023     		movs	r3, #0
 905              	.LVL130:
 906              	.LBE155:
 907              		.loc 1 196 0
 908 04d4 0146     		mov	r1, r0
 909              	.LVL131:
 910              	.LBB156:
ARM GAS  /var/folders/5n/p_75w94d66l9ssrldxqdhh700000gn/T//ccHwdw52.s 			page 17


 911              		.loc 1 197 0
 912              	@ 197 "../../test/testmbox.c" 1
 913 04d6 83F31188 		msr     BASEPRI, r3
 914              	@ 0 "" 2
 915              	.LVL132:
 916              		.thumb
 917              	.LBE156:
 918              		.loc 1 198 0
 919 04da C3EB010C 		rsb	ip, r3, r1
 920              	.LVL133:
 921 04de 2520     		movs	r0, #37
 922              	.LVL134:
 923 04e0 DCF10001 		rsbs	r1, ip, #0
 924              	.LVL135:
 925 04e4 41EB0C01 		adc	r1, r1, ip
 926 04e8 FFF7FEFF 		bl	_test_assert
 927              	.LVL136:
 928 04ec 0028     		cmp	r0, #0
 929 04ee 7FF4B5AD 		bne	.L2
 930              		.loc 1 199 0
 931 04f2 E168     		ldr	r1, [r4, #12]
 932 04f4 A368     		ldr	r3, [r4, #8]
 933 04f6 C3EB010E 		rsb	lr, r3, r1
 934 04fa 2620     		movs	r0, #38
 935 04fc DEF10001 		rsbs	r1, lr, #0
 936 0500 41EB0E01 		adc	r1, r1, lr
 937 0504 FFF7FEFF 		bl	_test_assert
 938 0508 0028     		cmp	r0, #0
 939 050a 7FF4A7AD 		bne	.L2
 940 050e 0524     		movs	r4, #5
 941              	.L15:
 942              	.LBB157:
 943              		.loc 1 201 0
 944 0510 2023     		movs	r3, #32
 945              	.LVL137:
 946              	@ 201 "../../test/testmbox.c" 1
 947 0512 83F31188 		msr     BASEPRI, r3
 948              	@ 0 "" 2
 949              	.LVL138:
 950              		.thumb
 951              	.LBE157:
 952              		.loc 1 202 0
 953 0516 4B4D     		ldr	r5, .L31
 954 0518 01A9     		add	r1, sp, #4
 955 051a 2846     		mov	r0, r5
 956 051c FFF7FEFF 		bl	chMBFetchI
 957              	.LVL139:
 958              	.LBB158:
 959              		.loc 1 203 0
 960 0520 0023     		movs	r3, #0
 961              	.LVL140:
 962              	.LBE158:
 963              		.loc 1 202 0
 964 0522 0146     		mov	r1, r0
 965              	.LVL141:
 966              	.LBB159:
 967              		.loc 1 203 0
ARM GAS  /var/folders/5n/p_75w94d66l9ssrldxqdhh700000gn/T//ccHwdw52.s 			page 18


 968              	@ 203 "../../test/testmbox.c" 1
 969 0524 83F31188 		msr     BASEPRI, r3
 970              	@ 0 "" 2
 971              	.LVL142:
 972              		.thumb
 973              	.LBE159:
 974              		.loc 1 204 0
 975 0528 CA1A     		subs	r2, r1, r3
 976              	.LVL143:
 977 052a 2720     		movs	r0, #39
 978              	.LVL144:
 979 052c 5142     		rsbs	r1, r2, #0
 980              	.LVL145:
 981 052e 41EB0201 		adc	r1, r1, r2
 982 0532 FFF7FEFF 		bl	_test_assert
 983              	.LVL146:
 984 0536 0028     		cmp	r0, #0
 985 0538 7FF490AD 		bne	.L2
 986              		.loc 1 205 0
 987 053c 9DF80400 		ldrb	r0, [sp, #4]	@ zero_extendqisi2
 988 0540 FFF7FEFF 		bl	test_emit_token
 989              		.loc 1 200 0
 990 0544 013C     		subs	r4, r4, #1
 991 0546 E3D1     		bne	.L15
 992              		.loc 1 207 0
 993 0548 2820     		movs	r0, #40
 994 054a 3F49     		ldr	r1, .L31+4
 995 054c FFF7FEFF 		bl	_test_assert_sequence
 996 0550 0028     		cmp	r0, #0
 997 0552 7FF483AD 		bne	.L2
 998              	.LBB160:
 999              		.loc 1 208 0
 1000 0556 2023     		movs	r3, #32
 1001              	.LVL147:
 1002              	@ 208 "../../test/testmbox.c" 1
 1003 0558 83F31188 		msr     BASEPRI, r3
 1004              	@ 0 "" 2
 1005              	.LVL148:
 1006              		.thumb
 1007              	.LBE160:
 1008 055c 696A     		ldr	r1, [r5, #36]
 1009 055e A1F10503 		sub	r3, r1, #5
 1010              	.LVL149:
 1011 0562 2920     		movs	r0, #41
 1012 0564 5942     		rsbs	r1, r3, #0
 1013 0566 41EB0301 		adc	r1, r1, r3
 1014 056a FFF7FEFF 		bl	_test_assert
 1015              	.LBB161:
 1016 056e 2346     		mov	r3, r4
 1017              	@ 208 "../../test/testmbox.c" 1
 1018 0570 83F31188 		msr     BASEPRI, r3
 1019              	@ 0 "" 2
 1020              	.LVL150:
 1021              		.thumb
 1022              	.LBE161:
 1023 0574 0028     		cmp	r0, #0
 1024 0576 7FF471AD 		bne	.L2
ARM GAS  /var/folders/5n/p_75w94d66l9ssrldxqdhh700000gn/T//ccHwdw52.s 			page 19


 1025              	.LBB162:
 1026              		.loc 1 209 0
 1027 057a 2023     		movs	r3, #32
 1028              	.LVL151:
 1029              	@ 209 "../../test/testmbox.c" 1
 1030 057c 83F31188 		msr     BASEPRI, r3
 1031              	@ 0 "" 2
 1032              	.LVL152:
 1033              		.thumb
 1034              	.LBE162:
 1035 0580 A969     		ldr	r1, [r5, #24]
 1036 0582 2A20     		movs	r0, #42
 1037 0584 D1F10101 		rsbs	r1, r1, #1
 1038 0588 38BF     		it	cc
 1039 058a 0021     		movcc	r1, #0
 1040 058c FFF7FEFF 		bl	_test_assert
 1041              	.LVL153:
 1042              	.LBB163:
 1043 0590 2346     		mov	r3, r4
 1044              	@ 209 "../../test/testmbox.c" 1
 1045 0592 83F31188 		msr     BASEPRI, r3
 1046              	@ 0 "" 2
 1047              	.LVL154:
 1048              		.thumb
 1049              	.LBE163:
 1050 0596 0028     		cmp	r0, #0
 1051 0598 7FF460AD 		bne	.L2
 1052              		.loc 1 210 0
 1053 059c E968     		ldr	r1, [r5, #12]
 1054 059e AB68     		ldr	r3, [r5, #8]
 1055              	.LVL155:
 1056 05a0 C3EB010C 		rsb	ip, r3, r1
 1057 05a4 2B20     		movs	r0, #43
 1058 05a6 DCF10001 		rsbs	r1, ip, #0
 1059 05aa 41EB0C01 		adc	r1, r1, ip
 1060 05ae FFF7FEFF 		bl	_test_assert
 1061 05b2 0028     		cmp	r0, #0
 1062 05b4 7FF452AD 		bne	.L2
 1063              		.loc 1 215 0
 1064 05b8 2846     		mov	r0, r5
 1065 05ba FFF7FEFF 		bl	chMBReset
 1066              	.LBB164:
 1067              		.loc 1 220 0
 1068 05be 2023     		movs	r3, #32
 1069              	.LVL156:
 1070              	@ 220 "../../test/testmbox.c" 1
 1071 05c0 83F31188 		msr     BASEPRI, r3
 1072              	@ 0 "" 2
 1073              	.LVL157:
 1074              		.thumb
 1075              	.LBE164:
 1076 05c4 696A     		ldr	r1, [r5, #36]
 1077 05c6 A1F1050E 		sub	lr, r1, #5
 1078 05ca 2C20     		movs	r0, #44
 1079 05cc DEF10001 		rsbs	r1, lr, #0
 1080 05d0 41EB0E01 		adc	r1, r1, lr
 1081 05d4 FFF7FEFF 		bl	_test_assert
ARM GAS  /var/folders/5n/p_75w94d66l9ssrldxqdhh700000gn/T//ccHwdw52.s 			page 20


 1082              	.LVL158:
 1083              	.LBB165:
 1084 05d8 2346     		mov	r3, r4
 1085              	@ 220 "../../test/testmbox.c" 1
 1086 05da 83F31188 		msr     BASEPRI, r3
 1087              	@ 0 "" 2
 1088              	.LVL159:
 1089              		.thumb
 1090              	.LBE165:
 1091 05de 0028     		cmp	r0, #0
 1092 05e0 7FF43CAD 		bne	.L2
 1093              	.LBB166:
 1094              		.loc 1 221 0
 1095 05e4 2023     		movs	r3, #32
 1096              	.LVL160:
 1097              	@ 221 "../../test/testmbox.c" 1
 1098 05e6 83F31188 		msr     BASEPRI, r3
 1099              	@ 0 "" 2
 1100              	.LVL161:
 1101              		.thumb
 1102              	.LBE166:
 1103 05ea A969     		ldr	r1, [r5, #24]
 1104 05ec 2D20     		movs	r0, #45
 1105 05ee D1F10101 		rsbs	r1, r1, #1
 1106 05f2 38BF     		it	cc
 1107 05f4 0021     		movcc	r1, #0
 1108 05f6 FFF7FEFF 		bl	_test_assert
 1109              	.LVL162:
 1110              	.LBB167:
 1111 05fa 2346     		mov	r3, r4
 1112              	@ 221 "../../test/testmbox.c" 1
 1113 05fc 83F31188 		msr     BASEPRI, r3
 1114              	@ 0 "" 2
 1115              	.LVL163:
 1116              		.thumb
 1117              	.LBE167:
 1118 0600 0028     		cmp	r0, #0
 1119 0602 7FF42BAD 		bne	.L2
 1120              	.LBB168:
 1121              		.loc 1 222 0
 1122 0606 2023     		movs	r3, #32
 1123              	.LVL164:
 1124              	@ 222 "../../test/testmbox.c" 1
 1125 0608 83F31188 		msr     BASEPRI, r3
 1126              	@ 0 "" 2
 1127              	.LVL165:
 1128              		.thumb
 1129              	.LBE168:
 1130 060c 2968     		ldr	r1, [r5, #0]
 1131 060e AB68     		ldr	r3, [r5, #8]
 1132              	.LVL166:
 1133 0610 CA1A     		subs	r2, r1, r3
 1134 0612 2E20     		movs	r0, #46
 1135 0614 5142     		rsbs	r1, r2, #0
 1136 0616 41EB0201 		adc	r1, r1, r2
 1137 061a FFF7FEFF 		bl	_test_assert
 1138              	.LBB169:
ARM GAS  /var/folders/5n/p_75w94d66l9ssrldxqdhh700000gn/T//ccHwdw52.s 			page 21


 1139 061e 2346     		mov	r3, r4
 1140              	@ 222 "../../test/testmbox.c" 1
 1141 0620 83F31188 		msr     BASEPRI, r3
 1142              	@ 0 "" 2
 1143              	.LVL167:
 1144              		.thumb
 1145              	.LBE169:
 1146 0624 0028     		cmp	r0, #0
 1147 0626 7FF419AD 		bne	.L2
 1148              	.LBB170:
 1149              		.loc 1 223 0
 1150 062a 2023     		movs	r3, #32
 1151              	.LVL168:
 1152              	@ 223 "../../test/testmbox.c" 1
 1153 062c 83F31188 		msr     BASEPRI, r3
 1154              	@ 0 "" 2
 1155              	.LVL169:
 1156              		.thumb
 1157              	.LBE170:
 1158 0630 2968     		ldr	r1, [r5, #0]
 1159 0632 EB68     		ldr	r3, [r5, #12]
 1160              	.LVL170:
 1161 0634 CB1A     		subs	r3, r1, r3
 1162 0636 2F20     		movs	r0, #47
 1163 0638 5942     		rsbs	r1, r3, #0
 1164 063a 41EB0301 		adc	r1, r1, r3
 1165 063e FFF7FEFF 		bl	_test_assert
 1166 0642 36E6     		b	.L26
 1167              	.L32:
 1168              		.align	2
 1169              	.L31:
 1170 0644 00000000 		.word	.LANCHOR0
 1171 0648 00000000 		.word	.LC0
 1172              	.LBE117:
 1173              	.LBE116:
 1174              		.cfi_endproc
 1175              	.LFE8:
 1176              		.size	mbox1_execute, .-mbox1_execute
 1177              		.global	patternmbox
 1178              		.global	testmbox1
 1179 064c AFF30080 		.section	.data.mb1,"aw",%progbits
 1180              		.align	2
 1181              		.set	.LANCHOR0,. + 0
 1182              		.type	mb1, %object
 1183              		.size	mb1, 40
 1184              	mb1:
 1185 0000 00000000 		.word	test
 1186 0004 14000000 		.word	test+20
 1187 0008 00000000 		.word	test
 1188 000c 00000000 		.word	test
 1189 0010 10000000 		.word	mb1+16
 1190 0014 10000000 		.word	mb1+16
 1191 0018 00000000 		.word	0
 1192 001c 1C000000 		.word	mb1+28
 1193 0020 1C000000 		.word	mb1+28
 1194 0024 05000000 		.word	5
 1195              		.section	.rodata.patternmbox,"a",%progbits
ARM GAS  /var/folders/5n/p_75w94d66l9ssrldxqdhh700000gn/T//ccHwdw52.s 			page 22


 1196              		.align	2
 1197              		.type	patternmbox, %object
 1198              		.size	patternmbox, 8
 1199              	patternmbox:
 1200 0000 00000000 		.word	testmbox1
 1201 0004 00000000 		.word	0
 1202              		.section	.rodata.str1.4,"aMS",%progbits,1
 1203              		.align	2
 1204              	.LC0:
 1205 0000 41424344 		.ascii	"ABCDE\000"
 1205      4500
 1206 0006 0000     		.space	2
 1207              	.LC1:
 1208 0008 4D61696C 		.ascii	"Mailboxes, queuing and timeouts\000"
 1208      626F7865 
 1208      732C2071 
 1208      75657569 
 1208      6E672061 
 1209              		.section	.rodata.testmbox1,"a",%progbits
 1210              		.align	2
 1211              		.type	testmbox1, %object
 1212              		.size	testmbox1, 16
 1213              	testmbox1:
 1214 0000 08000000 		.word	.LC1
 1215 0004 00000000 		.word	mbox1_setup
 1216 0008 00000000 		.word	0
 1217 000c 00000000 		.word	mbox1_execute
 1218              		.text
 1219              	.Letext0:
 1220              		.file 2 "/usr/local/summon/lib/gcc/arm-none-eabi/4.6.2/../../../../arm-none-eabi/include/stdint.h"
 1221              		.file 3 "../../os/ports/GCC/ARMCMx/chtypes.h"
 1222              		.file 4 "../../os/kernel/include/chlists.h"
 1223              		.file 5 "../../os/kernel/include/chthreads.h"
 1224              		.file 6 "../../os/ports/GCC/ARMCMx/chcore_v7m.h"
 1225              		.file 7 "../../os/kernel/include/chsem.h"
 1226              		.file 8 "../../os/kernel/include/chmtx.h"
 1227              		.file 9 "../../os/kernel/include/chmboxes.h"
 1228              		.file 10 "../../test/test.h"