ARM GAS  /var/folders/5n/p_75w94d66l9ssrldxqdhh700000gn/T//ccHwdw52.s 			page 1


   1              		.syntax unified
   2              		.cpu cortex-m4
   3              		.fpu softvfp
   4              		.eabi_attribute 20, 1
   5              		.eabi_attribute 21, 1
   6              		.eabi_attribute 23, 3
   7              		.eabi_attribute 24, 1
   8              		.eabi_attribute 25, 1
   9              		.eabi_attribute 26, 1
  10              		.eabi_attribute 30, 2
  11              		.eabi_attribute 18, 4
  12              		.thumb
  13              		.file	"testmbox.c"
  14              		.text
  15              	.Ltext0:
  16              		.cfi_sections	.debug_frame
  17              		.section	.text.mbox1_setup,"ax",%progbits
  18              		.align	2
  19              		.p2align 4,,15
  20              		.thumb
  21              		.thumb_func
  22              		.type	mbox1_setup, %function
  23              	mbox1_setup:
  24              	.LFB7:
  25              		.file 1 "../../test/testmbox.c"
  26              		.loc 1 75 0
  27              		.cfi_startproc
  28              		@ args = 0, pretend = 0, frame = 0
  29              		@ frame_needed = 0, uses_anonymous_args = 0
  30              		@ link register save eliminated.
  31              		.loc 1 77 0
  32 0000 40F20000 		movw	r0, #:lower16:.LANCHOR0
  33 0004 40F20001 		movw	r1, #:lower16:test
  34 0008 C0F20000 		movt	r0, #:upper16:.LANCHOR0
  35 000c C0F20001 		movt	r1, #:upper16:test
  36 0010 0522     		movs	r2, #5
  37              		.loc 1 78 0
  38              		.loc 1 77 0
  39 0012 FFF7FEBF 		b	chMBInit
  40              		.cfi_endproc
  41              	.LFE7:
  42              		.size	mbox1_setup, .-mbox1_setup
  43 0016 00BFAFF3 		.section	.text.mbox1_execute,"ax",%progbits
  43      0080AFF3 
  43      0080
  44              		.align	2
  45              		.p2align 4,,15
  46              		.thumb
  47              		.thumb_func
  48              		.type	mbox1_execute, %function
  49              	mbox1_execute:
  50              	.LFB8:
  51              		.loc 1 80 0
  52              		.cfi_startproc
  53              		@ args = 0, pretend = 0, frame = 8
  54              		@ frame_needed = 0, uses_anonymous_args = 0
  55 0000 F0B5     		push	{r4, r5, r6, r7, lr}
ARM GAS  /var/folders/5n/p_75w94d66l9ssrldxqdhh700000gn/T//ccHwdw52.s 			page 2


  56              	.LCFI0:
  57              		.cfi_def_cfa_offset 20
  58              		.cfi_offset 14, -4
  59              		.cfi_offset 7, -8
  60              		.cfi_offset 6, -12
  61              		.cfi_offset 5, -16
  62              		.cfi_offset 4, -20
  63              		.loc 1 87 0
  64 0002 B84D     		ldr	r5, .L29
  65 0004 696A     		ldr	r1, [r5, #36]
  66 0006 A1F10503 		sub	r3, r1, #5
  67 000a 0120     		movs	r0, #1
  68 000c 5942     		rsbs	r1, r3, #0
  69 000e 41EB0301 		adc	r1, r1, r3
  70              		.loc 1 80 0
  71 0012 83B0     		sub	sp, sp, #12
  72              	.LCFI1:
  73              		.cfi_def_cfa_offset 32
  74              		.loc 1 87 0
  75 0014 FFF7FEFF 		bl	_test_assert
  76 0018 00BB     		cbnz	r0, .L2
  77 001a 4226     		movs	r6, #66
  78              	.L4:
  79              		.loc 1 93 0
  80 001c B14C     		ldr	r4, .L29
  81 001e 3146     		mov	r1, r6
  82 0020 2046     		mov	r0, r4
  83 0022 4FF0FF32 		mov	r2, #-1
  84 0026 FFF7FEFF 		bl	chMBPost
  85              	.LVL0:
  86              		.loc 1 94 0
  87 002a D0F10101 		rsbs	r1, r0, #1
  88 002e 38BF     		it	cc
  89 0030 0021     		movcc	r1, #0
  90 0032 0220     		movs	r0, #2
  91              	.LVL1:
  92 0034 0136     		adds	r6, r6, #1
  93 0036 FFF7FEFF 		bl	_test_assert
  94 003a 78B9     		cbnz	r0, .L2
  95              		.loc 1 92 0
  96 003c 462E     		cmp	r6, #70
  97 003e EDD1     		bne	.L4
  98              		.loc 1 96 0
  99 0040 4121     		movs	r1, #65
 100 0042 2046     		mov	r0, r4
 101 0044 4FF0FF32 		mov	r2, #-1
 102 0048 FFF7FEFF 		bl	chMBPostAhead
 103              	.LVL2:
 104              		.loc 1 97 0
 105 004c D0F10101 		rsbs	r1, r0, #1
 106 0050 38BF     		it	cc
 107 0052 0021     		movcc	r1, #0
 108 0054 0320     		movs	r0, #3
 109              	.LVL3:
 110 0056 FFF7FEFF 		bl	_test_assert
 111 005a 08B1     		cbz	r0, .L28
 112              	.LVL4:
ARM GAS  /var/folders/5n/p_75w94d66l9ssrldxqdhh700000gn/T//ccHwdw52.s 			page 3


 113              	.L2:
 114              		.loc 1 224 0
 115 005c 03B0     		add	sp, sp, #12
 116 005e F0BD     		pop	{r4, r5, r6, r7, pc}
 117              	.LVL5:
 118              	.L28:
 119              	.LBB116:
 120              	.LBB117:
 121              		.loc 1 102 0
 122 0060 0122     		movs	r2, #1
 123 0062 5821     		movs	r1, #88
 124 0064 2046     		mov	r0, r4
 125 0066 FFF7FEFF 		bl	chMBPost
 126              	.LVL6:
 127              		.loc 1 103 0
 128 006a A0F1FF3C 		sub	ip, r0, #-1
 129 006e DCF10001 		rsbs	r1, ip, #0
 130 0072 41EB0C01 		adc	r1, r1, ip
 131 0076 0420     		movs	r0, #4
 132              	.LVL7:
 133 0078 FFF7FEFF 		bl	_test_assert
 134              	.LVL8:
 135 007c 0646     		mov	r6, r0
 136 007e 0028     		cmp	r0, #0
 137 0080 ECD1     		bne	.L2
 138              	.LBB118:
 139              		.loc 1 104 0
 140 0082 2023     		movs	r3, #32
 141              	.LVL9:
 142              	@ 104 "../../test/testmbox.c" 1
 143 0084 83F31188 		msr     BASEPRI, r3
 144              	@ 0 "" 2
 145              	.LVL10:
 146              		.thumb
 147              	.LBE118:
 148              		.loc 1 105 0
 149 0088 5821     		movs	r1, #88
 150 008a 2046     		mov	r0, r4
 151 008c FFF7FEFF 		bl	chMBPostI
 152              	.LVL11:
 153              	.LBB119:
 154              		.loc 1 106 0
 155 0090 3346     		mov	r3, r6
 156              	.LVL12:
 157              	.LBE119:
 158              		.loc 1 105 0
 159 0092 0146     		mov	r1, r0
 160              	.LVL13:
 161              	.LBB120:
 162              		.loc 1 106 0
 163              	@ 106 "../../test/testmbox.c" 1
 164 0094 83F31188 		msr     BASEPRI, r3
 165              	@ 0 "" 2
 166              	.LVL14:
 167              		.thumb
 168              	.LBE120:
 169              		.loc 1 107 0
ARM GAS  /var/folders/5n/p_75w94d66l9ssrldxqdhh700000gn/T//ccHwdw52.s 			page 4


 170 0098 A1F1FF3E 		sub	lr, r1, #-1
 171 009c 0520     		movs	r0, #5
 172              	.LVL15:
 173 009e DEF10001 		rsbs	r1, lr, #0
 174              	.LVL16:
 175 00a2 41EB0E01 		adc	r1, r1, lr
 176 00a6 FFF7FEFF 		bl	_test_assert
 177              	.LVL17:
 178 00aa 0028     		cmp	r0, #0
 179 00ac D6D1     		bne	.L2
 180              		.loc 1 108 0
 181 00ae 0122     		movs	r2, #1
 182 00b0 5821     		movs	r1, #88
 183 00b2 2046     		mov	r0, r4
 184 00b4 FFF7FEFF 		bl	chMBPostAhead
 185              	.LVL18:
 186              		.loc 1 109 0
 187 00b8 A0F1FF32 		sub	r2, r0, #-1
 188 00bc 5142     		rsbs	r1, r2, #0
 189 00be 41EB0201 		adc	r1, r1, r2
 190 00c2 0620     		movs	r0, #6
 191              	.LVL19:
 192 00c4 FFF7FEFF 		bl	_test_assert
 193              	.LVL20:
 194 00c8 0646     		mov	r6, r0
 195 00ca 0028     		cmp	r0, #0
 196 00cc C6D1     		bne	.L2
 197              	.LBB121:
 198              		.loc 1 110 0
 199 00ce 2023     		movs	r3, #32
 200              	.LVL21:
 201              	@ 110 "../../test/testmbox.c" 1
 202 00d0 83F31188 		msr     BASEPRI, r3
 203              	@ 0 "" 2
 204              	.LVL22:
 205              		.thumb
 206              	.LBE121:
 207              		.loc 1 111 0
 208 00d4 5821     		movs	r1, #88
 209 00d6 2046     		mov	r0, r4
 210 00d8 FFF7FEFF 		bl	chMBPostAheadI
 211              	.LVL23:
 212              	.LBB122:
 213              		.loc 1 112 0
 214 00dc 3346     		mov	r3, r6
 215              	.LVL24:
 216              	.LBE122:
 217              		.loc 1 111 0
 218 00de 0146     		mov	r1, r0
 219              	.LVL25:
 220              	.LBB123:
 221              		.loc 1 112 0
 222              	@ 112 "../../test/testmbox.c" 1
 223 00e0 83F31188 		msr     BASEPRI, r3
 224              	@ 0 "" 2
 225              	.LVL26:
 226              		.thumb
ARM GAS  /var/folders/5n/p_75w94d66l9ssrldxqdhh700000gn/T//ccHwdw52.s 			page 5


 227              	.LBE123:
 228              		.loc 1 113 0
 229 00e4 A1F1FF33 		sub	r3, r1, #-1
 230              	.LVL27:
 231 00e8 0720     		movs	r0, #7
 232              	.LVL28:
 233 00ea 5942     		rsbs	r1, r3, #0
 234              	.LVL29:
 235 00ec 41EB0301 		adc	r1, r1, r3
 236 00f0 FFF7FEFF 		bl	_test_assert
 237              	.LVL30:
 238 00f4 0646     		mov	r6, r0
 239 00f6 0028     		cmp	r0, #0
 240 00f8 B0D1     		bne	.L2
 241              	.LBB124:
 242              		.loc 1 118 0
 243 00fa 2023     		movs	r3, #32
 244              	.LVL31:
 245              	@ 118 "../../test/testmbox.c" 1
 246 00fc 83F31188 		msr     BASEPRI, r3
 247              	@ 0 "" 2
 248              	.LVL32:
 249              		.thumb
 250              	.LBE124:
 251 0100 616A     		ldr	r1, [r4, #36]
 252 0102 0820     		movs	r0, #8
 253 0104 D1F10101 		rsbs	r1, r1, #1
 254 0108 38BF     		it	cc
 255 010a 0021     		movcc	r1, #0
 256 010c FFF7FEFF 		bl	_test_assert
 257              	.LVL33:
 258 0110 0746     		mov	r7, r0
 259 0112 18B1     		cbz	r0, .L5
 260              	.LBB125:
 261 0114 3346     		mov	r3, r6
 262              	@ 118 "../../test/testmbox.c" 1
 263 0116 83F31188 		msr     BASEPRI, r3
 264              	@ 0 "" 2
 265              	.LVL34:
 266              		.thumb
 267 011a 9FE7     		b	.L2
 268              	.LVL35:
 269              	.L5:
 270              	.LBE125:
 271              	.LBB126:
 272 011c 0346     		mov	r3, r0
 273              	.LVL36:
 274              	@ 118 "../../test/testmbox.c" 1
 275 011e 83F31188 		msr     BASEPRI, r3
 276              	@ 0 "" 2
 277              	.LVL37:
 278              		.thumb
 279              	.LBE126:
 280              	.LBB127:
 281              		.loc 1 119 0
 282 0122 2023     		movs	r3, #32
 283              	.LVL38:
ARM GAS  /var/folders/5n/p_75w94d66l9ssrldxqdhh700000gn/T//ccHwdw52.s 			page 6


 284              	@ 119 "../../test/testmbox.c" 1
 285 0124 83F31188 		msr     BASEPRI, r3
 286              	@ 0 "" 2
 287              	.LVL39:
 288              		.thumb
 289              	.LBE127:
 290 0128 A169     		ldr	r1, [r4, #24]
 291 012a A1F1050C 		sub	ip, r1, #5
 292 012e 0920     		movs	r0, #9
 293 0130 DCF10001 		rsbs	r1, ip, #0
 294 0134 41EB0C01 		adc	r1, r1, ip
 295 0138 FFF7FEFF 		bl	_test_assert
 296              	.LVL40:
 297 013c 0346     		mov	r3, r0
 298 013e 18B1     		cbz	r0, .L6
 299              	.LBB128:
 300 0140 3B46     		mov	r3, r7
 301              	@ 119 "../../test/testmbox.c" 1
 302 0142 83F31188 		msr     BASEPRI, r3
 303              	@ 0 "" 2
 304              	.LVL41:
 305              		.thumb
 306 0146 89E7     		b	.L2
 307              	.LVL42:
 308              	.L6:
 309              	.LBE128:
 310              	.LBB129:
 311              	@ 119 "../../test/testmbox.c" 1
 312 0148 83F31188 		msr     BASEPRI, r3
 313              	@ 0 "" 2
 314              	.LVL43:
 315              		.thumb
 316              	.LBE129:
 317              	.LBB130:
 318              		.loc 1 120 0
 319 014c 2023     		movs	r3, #32
 320              	.LVL44:
 321              	@ 120 "../../test/testmbox.c" 1
 322 014e 83F31188 		msr     BASEPRI, r3
 323              	@ 0 "" 2
 324              	.LVL45:
 325              		.thumb
 326              	.LBE130:
 327 0152 E168     		ldr	r1, [r4, #12]
 328 0154 A368     		ldr	r3, [r4, #8]
 329              	.LVL46:
 330 0156 C3EB010E 		rsb	lr, r3, r1
 331 015a 0A20     		movs	r0, #10
 332 015c DEF10001 		rsbs	r1, lr, #0
 333 0160 41EB0E01 		adc	r1, r1, lr
 334 0164 FFF7FEFF 		bl	_test_assert
 335              	.LBB131:
 336 0168 0023     		movs	r3, #0
 337              	@ 120 "../../test/testmbox.c" 1
 338 016a 83F31188 		msr     BASEPRI, r3
 339              	@ 0 "" 2
 340              	.LVL47:
ARM GAS  /var/folders/5n/p_75w94d66l9ssrldxqdhh700000gn/T//ccHwdw52.s 			page 7


 341              		.thumb
 342              	.LBE131:
 343 016e 0028     		cmp	r0, #0
 344 0170 7FF474AF 		bne	.L2
 345              	.LVL48:
 346              	.LBB132:
 347 0174 0526     		movs	r6, #5
 348              	.LVL49:
 349              	.L8:
 350              	.LBE132:
 351              		.loc 1 126 0
 352 0176 5B4C     		ldr	r4, .L29
 353 0178 01A9     		add	r1, sp, #4
 354 017a 4FF0FF32 		mov	r2, #-1
 355 017e 2046     		mov	r0, r4
 356 0180 FFF7FEFF 		bl	chMBFetch
 357              	.LVL50:
 358              		.loc 1 127 0
 359 0184 D0F10101 		rsbs	r1, r0, #1
 360 0188 38BF     		it	cc
 361 018a 0021     		movcc	r1, #0
 362 018c 0B20     		movs	r0, #11
 363              	.LVL51:
 364 018e FFF7FEFF 		bl	_test_assert
 365 0192 0028     		cmp	r0, #0
 366 0194 7FF462AF 		bne	.L2
 367              		.loc 1 128 0
 368 0198 9DF80400 		ldrb	r0, [sp, #4]	@ zero_extendqisi2
 369 019c FFF7FEFF 		bl	test_emit_token
 370              		.loc 1 125 0
 371 01a0 013E     		subs	r6, r6, #1
 372 01a2 E8D1     		bne	.L8
 373              		.loc 1 130 0
 374 01a4 0C20     		movs	r0, #12
 375 01a6 5049     		ldr	r1, .L29+4
 376 01a8 FFF7FEFF 		bl	_test_assert_sequence
 377 01ac 0028     		cmp	r0, #0
 378 01ae 7FF455AF 		bne	.L2
 379              		.loc 1 135 0
 380 01b2 4721     		movs	r1, #71
 381 01b4 2046     		mov	r0, r4
 382 01b6 4FF0FF32 		mov	r2, #-1
 383 01ba FFF7FEFF 		bl	chMBPost
 384              	.LVL52:
 385              		.loc 1 136 0
 386 01be D0F10101 		rsbs	r1, r0, #1
 387 01c2 38BF     		it	cc
 388 01c4 0021     		movcc	r1, #0
 389 01c6 0D20     		movs	r0, #13
 390              	.LVL53:
 391 01c8 FFF7FEFF 		bl	_test_assert
 392 01cc 0028     		cmp	r0, #0
 393 01ce 7FF445AF 		bne	.L2
 394              		.loc 1 137 0
 395 01d2 01A9     		add	r1, sp, #4
 396 01d4 2046     		mov	r0, r4
 397 01d6 4FF0FF32 		mov	r2, #-1
ARM GAS  /var/folders/5n/p_75w94d66l9ssrldxqdhh700000gn/T//ccHwdw52.s 			page 8


 398 01da FFF7FEFF 		bl	chMBFetch
 399              	.LVL54:
 400              		.loc 1 138 0
 401 01de D0F10101 		rsbs	r1, r0, #1
 402 01e2 38BF     		it	cc
 403 01e4 0021     		movcc	r1, #0
 404 01e6 0E20     		movs	r0, #14
 405              	.LVL55:
 406 01e8 FFF7FEFF 		bl	_test_assert
 407 01ec 0028     		cmp	r0, #0
 408 01ee 7FF435AF 		bne	.L2
 409              		.loc 1 139 0
 410 01f2 2168     		ldr	r1, [r4, #0]
 411 01f4 A368     		ldr	r3, [r4, #8]
 412 01f6 CA1A     		subs	r2, r1, r3
 413 01f8 0F20     		movs	r0, #15
 414 01fa 5142     		rsbs	r1, r2, #0
 415 01fc 41EB0201 		adc	r1, r1, r2
 416 0200 FFF7FEFF 		bl	_test_assert
 417 0204 0028     		cmp	r0, #0
 418 0206 7FF429AF 		bne	.L2
 419              		.loc 1 140 0
 420 020a 2168     		ldr	r1, [r4, #0]
 421 020c E368     		ldr	r3, [r4, #12]
 422 020e CB1A     		subs	r3, r1, r3
 423 0210 1020     		movs	r0, #16
 424 0212 5942     		rsbs	r1, r3, #0
 425 0214 41EB0301 		adc	r1, r1, r3
 426 0218 FFF7FEFF 		bl	_test_assert
 427 021c 0028     		cmp	r0, #0
 428 021e 7FF41DAF 		bne	.L2
 429              		.loc 1 145 0
 430 0222 01A9     		add	r1, sp, #4
 431 0224 0122     		movs	r2, #1
 432 0226 2046     		mov	r0, r4
 433 0228 FFF7FEFF 		bl	chMBFetch
 434              	.LVL56:
 435              		.loc 1 146 0
 436 022c A0F1FF3C 		sub	ip, r0, #-1
 437 0230 DCF10001 		rsbs	r1, ip, #0
 438 0234 41EB0C01 		adc	r1, r1, ip
 439 0238 1120     		movs	r0, #17
 440              	.LVL57:
 441 023a FFF7FEFF 		bl	_test_assert
 442              	.LVL58:
 443 023e 0028     		cmp	r0, #0
 444 0240 7FF40CAF 		bne	.L2
 445              	.LBB133:
 446              		.loc 1 147 0
 447 0244 2023     		movs	r3, #32
 448              	.LVL59:
 449              	@ 147 "../../test/testmbox.c" 1
 450 0246 83F31188 		msr     BASEPRI, r3
 451              	@ 0 "" 2
 452              	.LVL60:
 453              		.thumb
 454              	.LBE133:
ARM GAS  /var/folders/5n/p_75w94d66l9ssrldxqdhh700000gn/T//ccHwdw52.s 			page 9


 455              		.loc 1 148 0
 456 024a 01A9     		add	r1, sp, #4
 457 024c 2046     		mov	r0, r4
 458 024e FFF7FEFF 		bl	chMBFetchI
 459              	.LVL61:
 460              	.LBB134:
 461              		.loc 1 149 0
 462 0252 3346     		mov	r3, r6
 463              	.LVL62:
 464              	.LBE134:
 465              		.loc 1 148 0
 466 0254 0146     		mov	r1, r0
 467              	.LVL63:
 468              	.LBB135:
 469              		.loc 1 149 0
 470              	@ 149 "../../test/testmbox.c" 1
 471 0256 83F31188 		msr     BASEPRI, r3
 472              	@ 0 "" 2
 473              	.LVL64:
 474              		.thumb
 475              	.LBE135:
 476              		.loc 1 150 0
 477 025a A1F1FF3E 		sub	lr, r1, #-1
 478 025e 1220     		movs	r0, #18
 479              	.LVL65:
 480 0260 DEF10001 		rsbs	r1, lr, #0
 481              	.LVL66:
 482 0264 41EB0E01 		adc	r1, r1, lr
 483 0268 FFF7FEFF 		bl	_test_assert
 484              	.LVL67:
 485 026c 0028     		cmp	r0, #0
 486 026e 7FF4F5AE 		bne	.L2
 487              	.LBB136:
 488              		.loc 1 155 0
 489 0272 2023     		movs	r3, #32
 490              	.LVL68:
 491              	@ 155 "../../test/testmbox.c" 1
 492 0274 83F31188 		msr     BASEPRI, r3
 493              	@ 0 "" 2
 494              	.LVL69:
 495              		.thumb
 496              	.LBE136:
 497 0278 616A     		ldr	r1, [r4, #36]
 498 027a A1F10502 		sub	r2, r1, #5
 499 027e 1320     		movs	r0, #19
 500 0280 5142     		rsbs	r1, r2, #0
 501 0282 41EB0201 		adc	r1, r1, r2
 502 0286 FFF7FEFF 		bl	_test_assert
 503              	.LVL70:
 504              	.LBB137:
 505 028a 0023     		movs	r3, #0
 506              	@ 155 "../../test/testmbox.c" 1
 507 028c 83F31188 		msr     BASEPRI, r3
 508              	@ 0 "" 2
 509              	.LVL71:
 510              		.thumb
 511              	.LBE137:
ARM GAS  /var/folders/5n/p_75w94d66l9ssrldxqdhh700000gn/T//ccHwdw52.s 			page 10


 512 0290 0028     		cmp	r0, #0
 513 0292 7FF4E3AE 		bne	.L2
 514              	.LBB138:
 515              		.loc 1 156 0
 516 0296 2023     		movs	r3, #32
 517              	.LVL72:
 518              	@ 156 "../../test/testmbox.c" 1
 519 0298 83F31188 		msr     BASEPRI, r3
 520              	@ 0 "" 2
 521              	.LVL73:
 522              		.thumb
 523              	.LBE138:
 524 029c A969     		ldr	r1, [r5, #24]
 525 029e 114C     		ldr	r4, .L29
 526 02a0 1420     		movs	r0, #20
 527 02a2 D1F10101 		rsbs	r1, r1, #1
 528 02a6 38BF     		it	cc
 529 02a8 0021     		movcc	r1, #0
 530 02aa FFF7FEFF 		bl	_test_assert
 531              	.LVL74:
 532 02ae 0546     		mov	r5, r0
 533 02b0 18B1     		cbz	r0, .L10
 534              	.L26:
 535              	.LBB139:
 536              		.loc 1 223 0
 537 02b2 0023     		movs	r3, #0
 538              	@ 223 "../../test/testmbox.c" 1
 539 02b4 83F31188 		msr     BASEPRI, r3
 540              	@ 0 "" 2
 541              	.LVL75:
 542              		.thumb
 543 02b8 D0E6     		b	.L2
 544              	.LVL76:
 545              	.L10:
 546              	.LBE139:
 547              	.LBB140:
 548              		.loc 1 156 0
 549 02ba 0346     		mov	r3, r0
 550              	.LVL77:
 551              	@ 156 "../../test/testmbox.c" 1
 552 02bc 83F31188 		msr     BASEPRI, r3
 553              	@ 0 "" 2
 554              	.LVL78:
 555              		.thumb
 556              	.LBE140:
 557              	.LBB141:
 558              		.loc 1 157 0
 559 02c0 2023     		movs	r3, #32
 560              	.LVL79:
 561              	@ 157 "../../test/testmbox.c" 1
 562 02c2 83F31188 		msr     BASEPRI, r3
 563              	@ 0 "" 2
 564              	.LVL80:
 565              		.thumb
 566              	.LBE141:
 567 02c6 E168     		ldr	r1, [r4, #12]
 568 02c8 A368     		ldr	r3, [r4, #8]
ARM GAS  /var/folders/5n/p_75w94d66l9ssrldxqdhh700000gn/T//ccHwdw52.s 			page 11


 569              	.LVL81:
 570 02ca CB1A     		subs	r3, r1, r3
 571 02cc 1520     		movs	r0, #21
 572 02ce 5942     		rsbs	r1, r3, #0
 573 02d0 41EB0301 		adc	r1, r1, r3
 574 02d4 FFF7FEFF 		bl	_test_assert
 575 02d8 0346     		mov	r3, r0
 576 02da 38B1     		cbz	r0, .L11
 577              	.LBB142:
 578 02dc 2B46     		mov	r3, r5
 579              	@ 157 "../../test/testmbox.c" 1
 580 02de 83F31188 		msr     BASEPRI, r3
 581              	@ 0 "" 2
 582              	.LVL82:
 583              		.thumb
 584 02e2 BBE6     		b	.L2
 585              	.L30:
 586              		.align	2
 587              	.L29:
 588 02e4 00000000 		.word	.LANCHOR0
 589 02e8 00000000 		.word	.LC0
 590              	.LVL83:
 591              	.L11:
 592              	.LBE142:
 593              	.LBB143:
 594              	@ 157 "../../test/testmbox.c" 1
 595 02ec 83F31188 		msr     BASEPRI, r3
 596              	@ 0 "" 2
 597              	.LVL84:
 598              		.thumb
 599              	.LBE143:
 600              	.LBB144:
 601              		.loc 1 162 0
 602 02f0 2023     		movs	r3, #32
 603              	.LVL85:
 604              	@ 162 "../../test/testmbox.c" 1
 605 02f2 83F31188 		msr     BASEPRI, r3
 606              	@ 0 "" 2
 607              	.LVL86:
 608              		.thumb
 609              	.LBE144:
 610              		.loc 1 163 0
 611 02f6 4121     		movs	r1, #65
 612 02f8 2046     		mov	r0, r4
 613 02fa FFF7FEFF 		bl	chMBPostI
 614              	.LVL87:
 615              		.loc 1 164 0
 616 02fe D0F10101 		rsbs	r1, r0, #1
 617 0302 38BF     		it	cc
 618 0304 0021     		movcc	r1, #0
 619 0306 1620     		movs	r0, #22
 620              	.LVL88:
 621 0308 FFF7FEFF 		bl	_test_assert
 622 030c 0028     		cmp	r0, #0
 623 030e 7FF4A5AE 		bne	.L2
 624              		.loc 1 165 0
 625 0312 4221     		movs	r1, #66
ARM GAS  /var/folders/5n/p_75w94d66l9ssrldxqdhh700000gn/T//ccHwdw52.s 			page 12


 626 0314 2046     		mov	r0, r4
 627 0316 FFF7FEFF 		bl	chMBPostI
 628              	.LVL89:
 629              		.loc 1 166 0
 630 031a D0F10101 		rsbs	r1, r0, #1
 631 031e 38BF     		it	cc
 632 0320 0021     		movcc	r1, #0
 633 0322 1720     		movs	r0, #23
 634              	.LVL90:
 635 0324 FFF7FEFF 		bl	_test_assert
 636 0328 0028     		cmp	r0, #0
 637 032a 7FF497AE 		bne	.L2
 638              		.loc 1 167 0
 639 032e 4321     		movs	r1, #67
 640 0330 2046     		mov	r0, r4
 641 0332 FFF7FEFF 		bl	chMBPostI
 642              	.LVL91:
 643              		.loc 1 168 0
 644 0336 D0F10101 		rsbs	r1, r0, #1
 645 033a 38BF     		it	cc
 646 033c 0021     		movcc	r1, #0
 647 033e 1820     		movs	r0, #24
 648              	.LVL92:
 649 0340 FFF7FEFF 		bl	_test_assert
 650 0344 0028     		cmp	r0, #0
 651 0346 7FF489AE 		bne	.L2
 652              		.loc 1 169 0
 653 034a 4421     		movs	r1, #68
 654 034c 2046     		mov	r0, r4
 655 034e FFF7FEFF 		bl	chMBPostI
 656              	.LVL93:
 657              		.loc 1 170 0
 658 0352 D0F10101 		rsbs	r1, r0, #1
 659 0356 38BF     		it	cc
 660 0358 0021     		movcc	r1, #0
 661 035a 1920     		movs	r0, #25
 662              	.LVL94:
 663 035c FFF7FEFF 		bl	_test_assert
 664 0360 0546     		mov	r5, r0
 665 0362 0028     		cmp	r0, #0
 666 0364 7FF47AAE 		bne	.L2
 667              		.loc 1 171 0
 668 0368 4521     		movs	r1, #69
 669 036a 2046     		mov	r0, r4
 670 036c FFF7FEFF 		bl	chMBPostI
 671              	.LBB145:
 672              		.loc 1 172 0
 673 0370 2B46     		mov	r3, r5
 674              	.LVL95:
 675              	.LBE145:
 676              		.loc 1 171 0
 677 0372 0146     		mov	r1, r0
 678              	.LVL96:
 679              	.LBB146:
 680              		.loc 1 172 0
 681              	@ 172 "../../test/testmbox.c" 1
 682 0374 83F31188 		msr     BASEPRI, r3
ARM GAS  /var/folders/5n/p_75w94d66l9ssrldxqdhh700000gn/T//ccHwdw52.s 			page 13


 683              	@ 0 "" 2
 684              	.LVL97:
 685              		.thumb
 686              	.LBE146:
 687              		.loc 1 173 0
 688 0378 1A20     		movs	r0, #26
 689              	.LVL98:
 690 037a D1F10101 		rsbs	r1, r1, #1
 691              	.LVL99:
 692 037e 38BF     		it	cc
 693 0380 0021     		movcc	r1, #0
 694 0382 FFF7FEFF 		bl	_test_assert
 695              	.LVL100:
 696 0386 0028     		cmp	r0, #0
 697 0388 7FF468AE 		bne	.L2
 698              		.loc 1 174 0
 699 038c E168     		ldr	r1, [r4, #12]
 700 038e A368     		ldr	r3, [r4, #8]
 701 0390 C3EB010C 		rsb	ip, r3, r1
 702 0394 1B20     		movs	r0, #27
 703 0396 DCF10001 		rsbs	r1, ip, #0
 704 039a 41EB0C01 		adc	r1, r1, ip
 705 039e FFF7FEFF 		bl	_test_assert
 706 03a2 0028     		cmp	r0, #0
 707 03a4 7FF45AAE 		bne	.L2
 708 03a8 0525     		movs	r5, #5
 709              	.L12:
 710              	.LBB147:
 711              		.loc 1 176 0
 712 03aa 2023     		movs	r3, #32
 713              	.LVL101:
 714              	@ 176 "../../test/testmbox.c" 1
 715 03ac 83F31188 		msr     BASEPRI, r3
 716              	@ 0 "" 2
 717              	.LVL102:
 718              		.thumb
 719              	.LBE147:
 720              		.loc 1 177 0
 721 03b0 A44C     		ldr	r4, .L31
 722 03b2 01A9     		add	r1, sp, #4
 723 03b4 2046     		mov	r0, r4
 724 03b6 FFF7FEFF 		bl	chMBFetchI
 725              	.LVL103:
 726              	.LBB148:
 727              		.loc 1 178 0
 728 03ba 0023     		movs	r3, #0
 729              	.LVL104:
 730              	.LBE148:
 731              		.loc 1 177 0
 732 03bc 0146     		mov	r1, r0
 733              	.LVL105:
 734              	.LBB149:
 735              		.loc 1 178 0
 736              	@ 178 "../../test/testmbox.c" 1
 737 03be 83F31188 		msr     BASEPRI, r3
 738              	@ 0 "" 2
 739              	.LVL106:
ARM GAS  /var/folders/5n/p_75w94d66l9ssrldxqdhh700000gn/T//ccHwdw52.s 			page 14


 740              		.thumb
 741              	.LBE149:
 742              		.loc 1 179 0
 743 03c2 C3EB010E 		rsb	lr, r3, r1
 744              	.LVL107:
 745 03c6 1C20     		movs	r0, #28
 746              	.LVL108:
 747 03c8 DEF10001 		rsbs	r1, lr, #0
 748              	.LVL109:
 749 03cc 41EB0E01 		adc	r1, r1, lr
 750 03d0 FFF7FEFF 		bl	_test_assert
 751              	.LVL110:
 752 03d4 0028     		cmp	r0, #0
 753 03d6 7FF441AE 		bne	.L2
 754              		.loc 1 180 0
 755 03da 9DF80400 		ldrb	r0, [sp, #4]	@ zero_extendqisi2
 756 03de FFF7FEFF 		bl	test_emit_token
 757              		.loc 1 175 0
 758 03e2 013D     		subs	r5, r5, #1
 759 03e4 E1D1     		bne	.L12
 760              		.loc 1 182 0
 761 03e6 1D20     		movs	r0, #29
 762 03e8 9749     		ldr	r1, .L31+4
 763 03ea FFF7FEFF 		bl	_test_assert_sequence
 764 03ee 0028     		cmp	r0, #0
 765 03f0 7FF434AE 		bne	.L2
 766              	.LBB150:
 767              		.loc 1 183 0
 768 03f4 2023     		movs	r3, #32
 769              	.LVL111:
 770              	@ 183 "../../test/testmbox.c" 1
 771 03f6 83F31188 		msr     BASEPRI, r3
 772              	@ 0 "" 2
 773              	.LVL112:
 774              		.thumb
 775              	.LBE150:
 776 03fa 616A     		ldr	r1, [r4, #36]
 777 03fc A1F10502 		sub	r2, r1, #5
 778 0400 1E20     		movs	r0, #30
 779 0402 5142     		rsbs	r1, r2, #0
 780 0404 41EB0201 		adc	r1, r1, r2
 781 0408 FFF7FEFF 		bl	_test_assert
 782              	.LVL113:
 783              	.LBB151:
 784 040c 2B46     		mov	r3, r5
 785              	@ 183 "../../test/testmbox.c" 1
 786 040e 83F31188 		msr     BASEPRI, r3
 787              	@ 0 "" 2
 788              	.LVL114:
 789              		.thumb
 790              	.LBE151:
 791 0412 0028     		cmp	r0, #0
 792 0414 7FF422AE 		bne	.L2
 793              	.LBB152:
 794              		.loc 1 184 0
 795 0418 2023     		movs	r3, #32
 796              	.LVL115:
ARM GAS  /var/folders/5n/p_75w94d66l9ssrldxqdhh700000gn/T//ccHwdw52.s 			page 15


 797              	@ 184 "../../test/testmbox.c" 1
 798 041a 83F31188 		msr     BASEPRI, r3
 799              	@ 0 "" 2
 800              	.LVL116:
 801              		.thumb
 802              	.LBE152:
 803 041e A169     		ldr	r1, [r4, #24]
 804 0420 1F20     		movs	r0, #31
 805 0422 D1F10101 		rsbs	r1, r1, #1
 806 0426 38BF     		it	cc
 807 0428 0021     		movcc	r1, #0
 808 042a FFF7FEFF 		bl	_test_assert
 809              	.LVL117:
 810              	.LBB153:
 811 042e 2B46     		mov	r3, r5
 812              	@ 184 "../../test/testmbox.c" 1
 813 0430 83F31188 		msr     BASEPRI, r3
 814              	@ 0 "" 2
 815              	.LVL118:
 816              		.thumb
 817              	.LBE153:
 818 0434 0028     		cmp	r0, #0
 819 0436 7FF411AE 		bne	.L2
 820              		.loc 1 185 0
 821 043a E168     		ldr	r1, [r4, #12]
 822 043c A368     		ldr	r3, [r4, #8]
 823              	.LVL119:
 824 043e CB1A     		subs	r3, r1, r3
 825 0440 2020     		movs	r0, #32
 826 0442 5942     		rsbs	r1, r3, #0
 827 0444 41EB0301 		adc	r1, r1, r3
 828 0448 FFF7FEFF 		bl	_test_assert
 829 044c 0028     		cmp	r0, #0
 830 044e 7FF405AE 		bne	.L2
 831              	.LBB154:
 832              		.loc 1 187 0
 833 0452 2023     		movs	r3, #32
 834              	.LVL120:
 835              	@ 187 "../../test/testmbox.c" 1
 836 0454 83F31188 		msr     BASEPRI, r3
 837              	@ 0 "" 2
 838              	.LVL121:
 839              		.thumb
 840              	.LBE154:
 841              		.loc 1 188 0
 842 0458 4521     		movs	r1, #69
 843 045a 2046     		mov	r0, r4
 844 045c FFF7FEFF 		bl	chMBPostAheadI
 845              	.LVL122:
 846              		.loc 1 189 0
 847 0460 D0F10101 		rsbs	r1, r0, #1
 848 0464 38BF     		it	cc
 849 0466 0021     		movcc	r1, #0
 850 0468 2120     		movs	r0, #33
 851              	.LVL123:
 852 046a FFF7FEFF 		bl	_test_assert
 853 046e 0028     		cmp	r0, #0
ARM GAS  /var/folders/5n/p_75w94d66l9ssrldxqdhh700000gn/T//ccHwdw52.s 			page 16


 854 0470 7FF4F4AD 		bne	.L2
 855              		.loc 1 190 0
 856 0474 4421     		movs	r1, #68
 857 0476 2046     		mov	r0, r4
 858 0478 FFF7FEFF 		bl	chMBPostAheadI
 859              	.LVL124:
 860              		.loc 1 191 0
 861 047c D0F10101 		rsbs	r1, r0, #1
 862 0480 38BF     		it	cc
 863 0482 0021     		movcc	r1, #0
 864 0484 2220     		movs	r0, #34
 865              	.LVL125:
 866 0486 FFF7FEFF 		bl	_test_assert
 867 048a 0028     		cmp	r0, #0
 868 048c 7FF4E6AD 		bne	.L2
 869              		.loc 1 192 0
 870 0490 4321     		movs	r1, #67
 871 0492 2046     		mov	r0, r4
 872 0494 FFF7FEFF 		bl	chMBPostAheadI
 873              	.LVL126:
 874              		.loc 1 193 0
 875 0498 D0F10101 		rsbs	r1, r0, #1
 876 049c 38BF     		it	cc
 877 049e 0021     		movcc	r1, #0
 878 04a0 2320     		movs	r0, #35
 879              	.LVL127:
 880 04a2 FFF7FEFF 		bl	_test_assert
 881 04a6 0028     		cmp	r0, #0
 882 04a8 7FF4D8AD 		bne	.L2
 883              		.loc 1 194 0
 884 04ac 4221     		movs	r1, #66
 885 04ae 2046     		mov	r0, r4
 886 04b0 FFF7FEFF 		bl	chMBPostAheadI
 887              	.LVL128:
 888              		.loc 1 195 0
 889 04b4 D0F10101 		rsbs	r1, r0, #1
 890 04b8 38BF     		it	cc
 891 04ba 0021     		movcc	r1, #0
 892 04bc 2420     		movs	r0, #36
 893              	.LVL129:
 894 04be FFF7FEFF 		bl	_test_assert
 895 04c2 0028     		cmp	r0, #0
 896 04c4 7FF4CAAD 		bne	.L2
 897              		.loc 1 196 0
 898 04c8 5E4C     		ldr	r4, .L31
 899 04ca 4121     		movs	r1, #65
 900 04cc 2046     		mov	r0, r4
 901 04ce FFF7FEFF 		bl	chMBPostAheadI
 902              	.LBB155:
 903              		.loc 1 197 0
 904 04d2 0023     		movs	r3, #0
 905              	.LVL130:
 906              	.LBE155:
 907              		.loc 1 196 0
 908 04d4 0146     		mov	r1, r0
 909              	.LVL131:
 910              	.LBB156:
ARM GAS  /var/folders/5n/p_75w94d66l9ssrldxqdhh700000gn/T//ccHwdw52.s 			page 17


 911              		.loc 1 197 0
 912              	@ 197 "../../test/testmbox.c" 1
 913 04d6 83F31188 		msr     BASEPRI, r3
 914              	@ 0 "" 2
 915              	.LVL132:
 916              		.thumb
 917              	.LBE156:
 918              		.loc 1 198 0
 919 04da C3EB010C 		rsb	ip, r3, r1
 920              	.LVL133:
 921 04de 2520     		movs	r0, #37
 922              	.LVL134:
 923 04e0 DCF10001 		rsbs	r1, ip, #0
 924              	.LVL135:
 925 04e4 41EB0C01 		adc	r1, r1, ip
 926 04e8 FFF7FEFF 		bl	_test_assert
 927              	.LVL136:
 928 04ec 0028     		cmp	r0, #0
 929 04ee 7FF4B5AD 		bne	.L2
 930              		.loc 1 199 0
 931 04f2 E168     		ldr	r1, [r4, #12]
 932 04f4 A368     		ldr	r3, [r4, #8]
 933 04f6 C3EB010E 		rsb	lr, r3, r1
 934 04fa 2620     		movs	r0, #38
 935 04fc DEF10001 		rsbs	r1, lr, #0
 936 0500 41EB0E01 		adc	r1, r1, lr
 937 0504 FFF7FEFF 		bl	_test_assert
 938 0508 0028     		cmp	r0, #0
 939 050a 7FF4A7AD 		bne	.L2
 940 050e 0524     		movs	r4, #5
 941              	.L15:
 942              	.LBB157:
 943              		.loc 1 201 0
 944 0510 2023     		movs	r3, #32
 945              	.LVL137:
 946              	@ 201 "../../test/testmbox.c" 1
 947 0512 83F31188 		msr     BASEPRI, r3
 948              	@ 0 "" 2
 949              	.LVL138:
 950              		.thumb
 951              	.LBE157:
 952              		.loc 1 202 0
 953 0516 4B4D     		ldr	r5, .L31
 954 0518 01A9     		add	r1, sp, #4
 955 051a 2846     		mov	r0, r5
 956 051c FFF7FEFF 		bl	chMBFetchI
 957              	.LVL139:
 958              	.LBB158:
 959              		.loc 1 203 0
 960 0520 0023     		movs	r3, #0
 961              	.LVL140:
 962              	.LBE158:
 963              		.loc 1 202 0
 964 0522 0146     		mov	r1, r0
 965              	.LVL141:
 966              	.LBB159:
 967              		.loc 1 203 0
ARM GAS  /var/folders/5n/p_75w94d66l9ssrldxqdhh700000gn/T//ccHwdw52.s 			page 18


 968              	@ 203 "../../test/testmbox.c" 1
 969 0524 83F31188 		msr     BASEPRI, r3
 970              	@ 0 "" 2
 971              	.LVL142:
 972              		.thumb
 973              	.LBE159:
 974              		.loc 1 204 0
 975 0528 CA1A     		subs	r2, r1, r3
 976              	.LVL143:
 977 052a 2720     		movs	r0, #39
 978              	.LVL144:
 979 052c 5142     		rsbs	r1, r2, #0
 980              	.LVL145:
 981 052e 41EB0201 		adc	r1, r1, r2
 982 0532 FFF7FEFF 		bl	_test_assert
 983              	.LVL146:
 984 0536 0028     		cmp	r0, #0
 985 0538 7FF490AD 		bne	.L2
 986              		.loc 1 205 0
 987 053c 9DF80400 		ldrb	r0, [sp, #4]	@ zero_extendqisi2
 988 0540 FFF7FEFF 		bl	test_emit_token
 989              		.loc 1 200 0
 990 0544 013C     		subs	r4, r4, #1
 991 0546 E3D1     		bne	.L15
 992              		.loc 1 207 0
 993 0548 2820     		movs	r0, #40
 994 054a 3F49     		ldr	r1, .L31+4
 995 054c FFF7FEFF 		bl	_test_assert_sequence
 996 0550 0028     		cmp	r0, #0
 997 0552 7FF483AD 		bne	.L2
 998              	.LBB160:
 999              		.loc 1 208 0
 1000 0556 2023     		movs	r3, #32
 1001              	.LVL147:
 1002              	@ 208 "../../test/testmbox.c" 1
 1003 0558 83F31188 		msr     BASEPRI, r3
 1004              	@ 0 "" 2
 1005              	.LVL148:
 1006              		.thumb
 1007              	.LBE160:
 1008 055c 696A     		ldr	r1, [r5, #36]
 1009 055e A1F10503 		sub	r3, r1, #5
 1010              	.LVL149:
 1011 0562 2920     		movs	r0, #41
 1012 0564 5942     		rsbs	r1, r3, #0
 1013 0566 41EB0301 		adc	r1, r1, r3
 1014 056a FFF7FEFF 		bl	_test_assert
 1015              	.LBB161:
 1016 056e 2346     		mov	r3, r4
 1017              	@ 208 "../../test/testmbox.c" 1
 1018 0570 83F31188 		msr     BASEPRI, r3
 1019              	@ 0 "" 2
 1020              	.LVL150:
 1021              		.thumb
 1022              	.LBE161:
 1023 0574 0028     		cmp	r0, #0
 1024 0576 7FF471AD 		bne	.L2
ARM GAS  /var/folders/5n/p_75w94d66l9ssrldxqdhh700000gn/T//ccHwdw52.s 			page 19


 1025              	.LBB162:
 1026              		.loc 1 209 0
 1027 057a 2023     		movs	r3, #32
 1028              	.LVL151:
 1029              	@ 209 "../../test/testmbox.c" 1
 1030 057c 83F31188 		msr     BASEPRI, r3
 1031              	@ 0 "" 2
 1032              	.LVL152:
 1033              		.thumb
 1034              	.LBE162:
 1035 0580 A969     		ldr	r1, [r5, #24]
 1036 0582 2A20     		movs	r0, #42
 1037 0584 D1F10101 		rsbs	r1, r1, #1
 1038 0588 38BF     		it	cc
 1039 058a 0021     		movcc	r1, #0
 1040 058c FFF7FEFF 		bl	_test_assert
 1041              	.LVL153:
 1042              	.LBB163:
 1043 0590 2346     		mov	r3, r4
 1044              	@ 209 "../../test/testmbox.c" 1
 1045 0592 83F31188 		msr     BASEPRI, r3
 1046              	@ 0 "" 2
 1047              	.LVL154:
 1048              		.thumb
 1049              	.LBE163:
 1050 0596 0028     		cmp	r0, #0
 1051 0598 7FF460AD 		bne	.L2
 1052              		.loc 1 210 0
 1053 059c E968     		ldr	r1, [r5, #12]
 1054 059e AB68     		ldr	r3, [r5, #8]
 1055              	.LVL155:
 1056 05a0 C3EB010C 		rsb	ip, r3, r1
 1057 05a4 2B20     		movs	r0, #43
 1058 05a6 DCF10001 		rsbs	r1, ip, #0
 1059 05aa 41EB0C01 		adc	r1, r1, ip
 1060 05ae FFF7FEFF 		bl	_test_assert
 1061 05b2 0028     		cmp	r0, #0
 1062 05b4 7FF452AD 		bne	.L2
 1063              		.loc 1 215 0
 1064 05b8 2846     		mov	r0, r5
 1065 05ba FFF7FEFF 		bl	chMBReset
 1066              	.LBB164:
 1067              		.loc 1 220 0
 1068 05be 2023     		movs	r3, #32
 1069              	.LVL156:
 1070              	@ 220 "../../test/testmbox.c" 1
 1071 05c0 83F31188 		msr     BASEPRI, r3
 1072              	@ 0 "" 2
 1073              	.LVL157:
 1074              		.thumb
 1075              	.LBE164:
 1076 05c4 696A     		ldr	r1, [r5, #36]
 1077 05c6 A1F1050E 		sub	lr, r1, #5
 1078 05ca 2C20     		movs	r0, #44
 1079 05cc DEF10001 		rsbs	r1, lr, #0
 1080 05d0 41EB0E01 		adc	r1, r1, lr
 1081 05d4 FFF7FEFF 		bl	_test_assert
ARM GAS  /var/folders/5n/p_75w94d66l9ssrldxqdhh700000gn/T//ccHwdw52.s 			page 20


 1082              	.LVL158:
 1083              	.LBB165:
 1084 05d8 2346     		mov	r3, r4
 1085              	@ 220 "../../test/testmbox.c" 1
 1086 05da 83F31188 		msr     BASEPRI, r3
 1087              	@ 0 "" 2
 1088              	.LVL159:
 1089              		.thumb
 1090              	.LBE165:
 1091 05de 0028     		cmp	r0, #0
 1092 05e0 7FF43CAD 		bne	.L2
 1093              	.LBB166:
 1094              		.loc 1 221 0
 1095 05e4 2023     		movs	r3, #32
 1096              	.LVL160:
 1097              	@ 221 "../../test/testmbox.c" 1
 1098 05e6 83F31188 		msr     BASEPRI, r3
 1099              	@ 0 "" 2
 1100              	.LVL161:
 1101              		.thumb
 1102              	.LBE166:
 1103 05ea A969     		ldr	r1, [r5, #24]
 1104 05ec 2D20     		movs	r0, #45
 1105 05ee D1F10101 		rsbs	r1, r1, #1
 1106 05f2 38BF     		it	cc
 1107 05f4 0021     		movcc	r1, #0
 1108 05f6 FFF7FEFF 		bl	_test_assert
 1109              	.LVL162:
 1110              	.LBB167:
 1111 05fa 2346     		mov	r3, r4
 1112              	@ 221 "../../test/testmbox.c" 1
 1113 05fc 83F31188 		msr     BASEPRI, r3
 1114              	@ 0 "" 2
 1115              	.LVL163:
 1116              		.thumb
 1117              	.LBE167:
 1118 0600 0028     		cmp	r0, #0
 1119 0602 7FF42BAD 		bne	.L2
 1120              	.LBB168:
 1121              		.loc 1 222 0
 1122 0606 2023     		movs	r3, #32
 1123              	.LVL164:
 1124              	@ 222 "../../test/testmbox.c" 1
 1125 0608 83F31188 		msr     BASEPRI, r3
 1126              	@ 0 "" 2
 1127              	.LVL165:
 1128              		.thumb
 1129              	.LBE168:
 1130 060c 2968     		ldr	r1, [r5, #0]
 1131 060e AB68     		ldr	r3, [r5, #8]
 1132              	.LVL166:
 1133 0610 CA1A     		subs	r2, r1, r3
 1134 0612 2E20     		movs	r0, #46
 1135 0614 5142     		rsbs	r1, r2, #0
 1136 0616 41EB0201 		adc	r1, r1, r2
 1137 061a FFF7FEFF 		bl	_test_assert
 1138              	.LBB169:
ARM GAS  /var/folders/5n/p_75w94d66l9ssrldxqdhh700000gn/T//ccHwdw52.s 			page 21


 1139 061e 2346     		mov	r3, r4
 1140              	@ 222 "../../test/testmbox.c" 1
 1141 0620 83F31188 		msr     BASEPRI, r3
 1142              	@ 0 "" 2
 1143              	.LVL167:
 1144              		.thumb
 1145              	.LBE169:
 1146 0624 0028     		cmp	r0, #0
 1147 0626 7FF419AD 		bne	.L2
 1148              	.LBB170:
 1149              		.loc 1 223 0
 1150 062a 2023     		movs	r3, #32
 1151              	.LVL168:
 1152              	@ 223 "../../test/testmbox.c" 1
 1153 062c 83F31188 		msr     BASEPRI, r3
 1154              	@ 0 "" 2
 1155              	.LVL169:
 1156              		.thumb
 1157              	.LBE170:
 1158 0630 2968     		ldr	r1, [r5, #0]
 1159 0632 EB68     		ldr	r3, [r5, #12]
 1160              	.LVL170:
 1161 0634 CB1A     		subs	r3, r1, r3
 1162 0636 2F20     		movs	r0, #47
 1163 0638 5942     		rsbs	r1, r3, #0
 1164 063a 41EB0301 		adc	r1, r1, r3
 1165 063e FFF7FEFF 		bl	_test_assert
 1166 0642 36E6     		b	.L26
 1167              	.L32:
 1168              		.align	2
 1169              	.L31:
 1170 0644 00000000 		.word	.LANCHOR0
 1171 0648 00000000 		.word	.LC0
 1172              	.LBE117:
 1173              	.LBE116:
 1174              		.cfi_endproc
 1175              	.LFE8:
 1176              		.size	mbox1_execute, .-mbox1_execute
 1177              		.global	patternmbox
 1178              		.global	testmbox1
 1179 064c AFF30080 		.section	.data.mb1,"aw",%progbits
 1180              		.align	2
 1181              		.set	.LANCHOR0,. + 0
 1182              		.type	mb1, %object
 1183              		.size	mb1, 40
 1184              	mb1:
 1185 0000 00000000 		.word	test
 1186 0004 14000000 		.word	test+20
 1187 0008 00000000 		.word	test
 1188 000c 00000000 		.word	test
 1189 0010 10000000 		.word	mb1+16
 1190 0014 10000000 		.word	mb1+16
 1191 0018 00000000 		.word	0
 1192 001c 1C000000 		.word	mb1+28
 1193 0020 1C000000 		.word	mb1+28
 1194 0024 05000000 		.word	5
 1195              		.section	.rodata.patternmbox,"a",%progbits
ARM GAS  /var/folders/5n/p_75w94d66l9ssrldxqdhh700000gn/T//ccHwdw52.s 			page 22


 1196              		.align	2
 1197              		.type	patternmbox, %object
 1198              		.size	patternmbox, 8
 1199              	patternmbox:
 1200 0000 00000000 		.word	testmbox1
 1201 0004 00000000 		.word	0
 1202              		.section	.rodata.str1.4,"aMS",%progbits,1
 1203              		.align	2
 1204              	.LC0:
 1205 0000 41424344 		.ascii	"ABCDE\000"
 1205      4500
 1206 0006 0000     		.space	2
 1207              	.LC1:
 1208 0008 4D61696C 		.ascii	"Mailboxes, queuing and timeouts\000"
 1208      626F7865 
 1208      732C2071 
 1208      75657569 
 1208      6E672061 
 1209              		.section	.rodata.testmbox1,"a",%progbits
 1210              		.align	2
 1211              		.type	testmbox1, %object
 1212              		.size	testmbox1, 16
 1213              	testmbox1:
 1214 0000 08000000 		.word	.LC1
 1215 0004 00000000 		.word	mbox1_setup
 1216 0008 00000000 		.word	0
 1217 000c 00000000 		.word	mbox1_execute
 1218              		.text
 1219              	.Letext0:
 1220              		.file 2 "/usr/local/summon/lib/gcc/arm-none-eabi/4.6.2/../../../../arm-none-eabi/include/stdint.h"
 1221              		.file 3 "../../os/ports/GCC/ARMCMx/chtypes.h"
 1222              		.file 4 "../../os/kernel/include/chlists.h"
 1223              		.file 5 "../../os/kernel/include/chthreads.h"
 1224              		.file 6 "../../os/ports/GCC/ARMCMx/chcore_v7m.h"
 1225              		.file 7 "../../os/kernel/include/chsem.h"
 1226              		.file 8 "../../os/kernel/include/chmtx.h"
 1227              		.file 9 "../../os/kernel/include/chmboxes.h"
 1228              		.file 10 "../../test/test.h"
 1229              		.section	.debug_info,"",%progbits
 1230              	.Ldebug_info0:
 1231 0000 320E0000 		.4byte	0xe32
 1232 0004 0200     		.2byte	0x2
 1233 0006 00000000 		.4byte	.Ldebug_abbrev0
 1234 000a 04       		.byte	0x4
 1235 000b 01       		.uleb128 0x1
 1236 000c 92020000 		.4byte	.LASF78
 1237 0010 01       		.byte	0x1
 1238 0011 09020000 		.4byte	.LASF79
 1239 0015 05030000 		.4byte	.LASF80
 1240 0019 00000000 		.4byte	0
 1241 001d 00000000 		.4byte	0
 1242 0021 A8000000 		.4byte	.Ldebug_ranges0+0xa8
 1243 0025 00000000 		.4byte	.Ldebug_line0
 1244 0029 02       		.uleb128 0x2
 1245 002a 04       		.byte	0x4
 1246 002b 05       		.byte	0x5
 1247 002c 696E7400 		.ascii	"int\000"
ARM GAS  /var/folders/5n/p_75w94d66l9ssrldxqdhh700000gn/T//ccHwdw52.s 			page 23


 1248 0030 03       		.uleb128 0x3
 1249 0031 04       		.byte	0x4
 1250 0032 07       		.byte	0x7
 1251 0033 C4000000 		.4byte	.LASF0
 1252 0037 03       		.uleb128 0x3
 1253 0038 01       		.byte	0x1
 1254 0039 06       		.byte	0x6
 1255 003a 6D000000 		.4byte	.LASF1
 1256 003e 04       		.uleb128 0x4
 1257 003f EF020000 		.4byte	.LASF5
 1258 0043 02       		.byte	0x2
 1259 0044 2A       		.byte	0x2a
 1260 0045 49000000 		.4byte	0x49
 1261 0049 03       		.uleb128 0x3
 1262 004a 01       		.byte	0x1
 1263 004b 08       		.byte	0x8
 1264 004c D8010000 		.4byte	.LASF2
 1265 0050 03       		.uleb128 0x3
 1266 0051 02       		.byte	0x2
 1267 0052 05       		.byte	0x5
 1268 0053 FF010000 		.4byte	.LASF3
 1269 0057 03       		.uleb128 0x3
 1270 0058 02       		.byte	0x2
 1271 0059 07       		.byte	0x7
 1272 005a 15010000 		.4byte	.LASF4
 1273 005e 04       		.uleb128 0x4
 1274 005f D0010000 		.4byte	.LASF6
 1275 0063 02       		.byte	0x2
 1276 0064 4F       		.byte	0x4f
 1277 0065 69000000 		.4byte	0x69
 1278 0069 03       		.uleb128 0x3
 1279 006a 04       		.byte	0x4
 1280 006b 05       		.byte	0x5
 1281 006c 93000000 		.4byte	.LASF7
 1282 0070 04       		.uleb128 0x4
 1283 0071 5A020000 		.4byte	.LASF8
 1284 0075 02       		.byte	0x2
 1285 0076 50       		.byte	0x50
 1286 0077 7B000000 		.4byte	0x7b
 1287 007b 03       		.uleb128 0x3
 1288 007c 04       		.byte	0x4
 1289 007d 07       		.byte	0x7
 1290 007e DB000000 		.4byte	.LASF9
 1291 0082 03       		.uleb128 0x3
 1292 0083 08       		.byte	0x8
 1293 0084 05       		.byte	0x5
 1294 0085 5F000000 		.4byte	.LASF10
 1295 0089 04       		.uleb128 0x4
 1296 008a 0D000000 		.4byte	.LASF11
 1297 008e 02       		.byte	0x2
 1298 008f 78       		.byte	0x78
 1299 0090 94000000 		.4byte	0x94
 1300 0094 03       		.uleb128 0x3
 1301 0095 08       		.byte	0x8
 1302 0096 07       		.byte	0x7
 1303 0097 1E000000 		.4byte	.LASF12
 1304 009b 04       		.uleb128 0x4
ARM GAS  /var/folders/5n/p_75w94d66l9ssrldxqdhh700000gn/T//ccHwdw52.s 			page 24


 1305 009c 2E010000 		.4byte	.LASF13
 1306 00a0 03       		.byte	0x3
 1307 00a1 28       		.byte	0x28
 1308 00a2 3E000000 		.4byte	0x3e
 1309 00a6 04       		.uleb128 0x4
 1310 00a7 9C000000 		.4byte	.LASF14
 1311 00ab 03       		.byte	0x3
 1312 00ac 29       		.byte	0x29
 1313 00ad 3E000000 		.4byte	0x3e
 1314 00b1 04       		.uleb128 0x4
 1315 00b2 B1010000 		.4byte	.LASF15
 1316 00b6 03       		.byte	0x3
 1317 00b7 2A       		.byte	0x2a
 1318 00b8 3E000000 		.4byte	0x3e
 1319 00bc 04       		.uleb128 0x4
 1320 00bd 89000000 		.4byte	.LASF16
 1321 00c1 03       		.byte	0x3
 1322 00c2 2B       		.byte	0x2b
 1323 00c3 3E000000 		.4byte	0x3e
 1324 00c7 04       		.uleb128 0x4
 1325 00c8 C8010000 		.4byte	.LASF17
 1326 00cc 03       		.byte	0x3
 1327 00cd 2C       		.byte	0x2c
 1328 00ce 70000000 		.4byte	0x70
 1329 00d2 04       		.uleb128 0x4
 1330 00d3 28010000 		.4byte	.LASF18
 1331 00d7 03       		.byte	0x3
 1332 00d8 2D       		.byte	0x2d
 1333 00d9 5E000000 		.4byte	0x5e
 1334 00dd 04       		.uleb128 0x4
 1335 00de 4E010000 		.4byte	.LASF19
 1336 00e2 03       		.byte	0x3
 1337 00e3 2F       		.byte	0x2f
 1338 00e4 70000000 		.4byte	0x70
 1339 00e8 04       		.uleb128 0x4
 1340 00e9 6F020000 		.4byte	.LASF20
 1341 00ed 03       		.byte	0x3
 1342 00ee 31       		.byte	0x31
 1343 00ef 70000000 		.4byte	0x70
 1344 00f3 04       		.uleb128 0x4
 1345 00f4 BE000000 		.4byte	.LASF21
 1346 00f8 03       		.byte	0x3
 1347 00f9 32       		.byte	0x32
 1348 00fa 5E000000 		.4byte	0x5e
 1349 00fe 04       		.uleb128 0x4
 1350 00ff 3F020000 		.4byte	.LASF22
 1351 0103 04       		.byte	0x4
 1352 0104 23       		.byte	0x23
 1353 0105 09010000 		.4byte	0x109
 1354 0109 05       		.uleb128 0x5
 1355 010a 3F020000 		.4byte	.LASF22
 1356 010e 48       		.byte	0x48
 1357 010f 05       		.byte	0x5
 1358 0110 57       		.byte	0x57
 1359 0111 2E020000 		.4byte	0x22e
 1360 0115 06       		.uleb128 0x6
 1361 0116 30020000 		.4byte	.LASF23
ARM GAS  /var/folders/5n/p_75w94d66l9ssrldxqdhh700000gn/T//ccHwdw52.s 			page 25


 1362 011a 05       		.byte	0x5
 1363 011b 58       		.byte	0x58
 1364 011c 53020000 		.4byte	0x253
 1365 0120 02       		.byte	0x2
 1366 0121 23       		.byte	0x23
 1367 0122 00       		.uleb128 0
 1368 0123 06       		.uleb128 0x6
 1369 0124 B9010000 		.4byte	.LASF24
 1370 0128 05       		.byte	0x5
 1371 0129 5A       		.byte	0x5a
 1372 012a 53020000 		.4byte	0x253
 1373 012e 02       		.byte	0x2
 1374 012f 23       		.byte	0x23
 1375 0130 04       		.uleb128 0x4
 1376 0131 06       		.uleb128 0x6
 1377 0132 58000000 		.4byte	.LASF25
 1378 0136 05       		.byte	0x5
 1379 0137 5C       		.byte	0x5c
 1380 0138 C7000000 		.4byte	0xc7
 1381 013c 02       		.byte	0x2
 1382 013d 23       		.byte	0x23
 1383 013e 08       		.uleb128 0x8
 1384 013f 06       		.uleb128 0x6
 1385 0140 63030000 		.4byte	.LASF26
 1386 0144 05       		.byte	0x5
 1387 0145 5D       		.byte	0x5d
 1388 0146 2C030000 		.4byte	0x32c
 1389 014a 02       		.byte	0x2
 1390 014b 23       		.byte	0x23
 1391 014c 0C       		.uleb128 0xc
 1392 014d 06       		.uleb128 0x6
 1393 014e A5000000 		.4byte	.LASF27
 1394 0152 05       		.byte	0x5
 1395 0153 5F       		.byte	0x5f
 1396 0154 53020000 		.4byte	0x253
 1397 0158 02       		.byte	0x2
 1398 0159 23       		.byte	0x23
 1399 015a 10       		.uleb128 0x10
 1400 015b 06       		.uleb128 0x6
 1401 015c 7E010000 		.4byte	.LASF28
 1402 0160 05       		.byte	0x5
 1403 0161 60       		.byte	0x60
 1404 0162 53020000 		.4byte	0x253
 1405 0166 02       		.byte	0x2
 1406 0167 23       		.byte	0x23
 1407 0168 14       		.uleb128 0x14
 1408 0169 06       		.uleb128 0x6
 1409 016a FE020000 		.4byte	.LASF29
 1410 016e 05       		.byte	0x5
 1411 016f 67       		.byte	0x67
 1412 0170 73040000 		.4byte	0x473
 1413 0174 02       		.byte	0x2
 1414 0175 23       		.byte	0x23
 1415 0176 18       		.uleb128 0x18
 1416 0177 06       		.uleb128 0x6
 1417 0178 81000000 		.4byte	.LASF30
 1418 017c 05       		.byte	0x5
ARM GAS  /var/folders/5n/p_75w94d66l9ssrldxqdhh700000gn/T//ccHwdw52.s 			page 26


 1419 017d 72       		.byte	0x72
 1420 017e A6000000 		.4byte	0xa6
 1421 0182 02       		.byte	0x2
 1422 0183 23       		.byte	0x23
 1423 0184 1C       		.uleb128 0x1c
 1424 0185 06       		.uleb128 0x6
 1425 0186 37020000 		.4byte	.LASF31
 1426 018a 05       		.byte	0x5
 1427 018b 76       		.byte	0x76
 1428 018c 9B000000 		.4byte	0x9b
 1429 0190 02       		.byte	0x2
 1430 0191 23       		.byte	0x23
 1431 0192 1D       		.uleb128 0x1d
 1432 0193 06       		.uleb128 0x6
 1433 0194 E8020000 		.4byte	.LASF32
 1434 0198 05       		.byte	0x5
 1435 0199 7B       		.byte	0x7b
 1436 019a B1000000 		.4byte	0xb1
 1437 019e 02       		.byte	0x2
 1438 019f 23       		.byte	0x23
 1439 01a0 1E       		.uleb128 0x1e
 1440 01a1 06       		.uleb128 0x6
 1441 01a2 1F020000 		.4byte	.LASF33
 1442 01a6 05       		.byte	0x5
 1443 01a7 81       		.byte	0x81
 1444 01a8 BC000000 		.4byte	0xbc
 1445 01ac 02       		.byte	0x2
 1446 01ad 23       		.byte	0x23
 1447 01ae 1F       		.uleb128 0x1f
 1448 01af 06       		.uleb128 0x6
 1449 01b0 8B020000 		.4byte	.LASF34
 1450 01b4 05       		.byte	0x5
 1451 01b5 88       		.byte	0x88
 1452 01b6 4F030000 		.4byte	0x34f
 1453 01ba 02       		.byte	0x2
 1454 01bb 23       		.byte	0x23
 1455 01bc 20       		.uleb128 0x20
 1456 01bd 07       		.uleb128 0x7
 1457 01be 705F7500 		.ascii	"p_u\000"
 1458 01c2 05       		.byte	0x5
 1459 01c3 AD       		.byte	0xad
 1460 01c4 3E040000 		.4byte	0x43e
 1461 01c8 02       		.byte	0x2
 1462 01c9 23       		.byte	0x23
 1463 01ca 24       		.uleb128 0x24
 1464 01cb 06       		.uleb128 0x6
 1465 01cc 69030000 		.4byte	.LASF35
 1466 01d0 05       		.byte	0x5
 1467 01d1 B2       		.byte	0xb2
 1468 01d2 7B020000 		.4byte	0x27b
 1469 01d6 02       		.byte	0x2
 1470 01d7 23       		.byte	0x23
 1471 01d8 28       		.uleb128 0x28
 1472 01d9 06       		.uleb128 0x6
 1473 01da BB020000 		.4byte	.LASF36
 1474 01de 05       		.byte	0x5
 1475 01df B8       		.byte	0xb8
ARM GAS  /var/folders/5n/p_75w94d66l9ssrldxqdhh700000gn/T//ccHwdw52.s 			page 27


 1476 01e0 59020000 		.4byte	0x259
 1477 01e4 02       		.byte	0x2
 1478 01e5 23       		.byte	0x23
 1479 01e6 2C       		.uleb128 0x2c
 1480 01e7 06       		.uleb128 0x6
 1481 01e8 00000000 		.4byte	.LASF37
 1482 01ec 05       		.byte	0x5
 1483 01ed BC       		.byte	0xbc
 1484 01ee D2000000 		.4byte	0xd2
 1485 01f2 02       		.byte	0x2
 1486 01f3 23       		.byte	0x23
 1487 01f4 34       		.uleb128 0x34
 1488 01f5 06       		.uleb128 0x6
 1489 01f6 4F020000 		.4byte	.LASF38
 1490 01fa 05       		.byte	0x5
 1491 01fb C2       		.byte	0xc2
 1492 01fc DD000000 		.4byte	0xdd
 1493 0200 02       		.byte	0x2
 1494 0201 23       		.byte	0x23
 1495 0202 38       		.uleb128 0x38
 1496 0203 06       		.uleb128 0x6
 1497 0204 F5010000 		.4byte	.LASF39
 1498 0208 05       		.byte	0x5
 1499 0209 C9       		.byte	0xc9
 1500 020a 85040000 		.4byte	0x485
 1501 020e 02       		.byte	0x2
 1502 020f 23       		.byte	0x23
 1503 0210 3C       		.uleb128 0x3c
 1504 0211 06       		.uleb128 0x6
 1505 0212 79020000 		.4byte	.LASF40
 1506 0216 05       		.byte	0x5
 1507 0217 CD       		.byte	0xcd
 1508 0218 C7000000 		.4byte	0xc7
 1509 021c 02       		.byte	0x2
 1510 021d 23       		.byte	0x23
 1511 021e 40       		.uleb128 0x40
 1512 021f 06       		.uleb128 0x6
 1513 0220 79000000 		.4byte	.LASF41
 1514 0224 05       		.byte	0x5
 1515 0225 D3       		.byte	0xd3
 1516 0226 91020000 		.4byte	0x291
 1517 022a 02       		.byte	0x2
 1518 022b 23       		.byte	0x23
 1519 022c 44       		.uleb128 0x44
 1520 022d 00       		.byte	0
 1521 022e 08       		.uleb128 0x8
 1522 022f 08       		.byte	0x8
 1523 0230 04       		.byte	0x4
 1524 0231 5A       		.byte	0x5a
 1525 0232 53020000 		.4byte	0x253
 1526 0236 06       		.uleb128 0x6
 1527 0237 30020000 		.4byte	.LASF23
 1528 023b 04       		.byte	0x4
 1529 023c 5B       		.byte	0x5b
 1530 023d 53020000 		.4byte	0x253
 1531 0241 02       		.byte	0x2
 1532 0242 23       		.byte	0x23
ARM GAS  /var/folders/5n/p_75w94d66l9ssrldxqdhh700000gn/T//ccHwdw52.s 			page 28


 1533 0243 00       		.uleb128 0
 1534 0244 06       		.uleb128 0x6
 1535 0245 B9010000 		.4byte	.LASF24
 1536 0249 04       		.byte	0x4
 1537 024a 5D       		.byte	0x5d
 1538 024b 53020000 		.4byte	0x253
 1539 024f 02       		.byte	0x2
 1540 0250 23       		.byte	0x23
 1541 0251 04       		.uleb128 0x4
 1542 0252 00       		.byte	0
 1543 0253 09       		.uleb128 0x9
 1544 0254 04       		.byte	0x4
 1545 0255 FE000000 		.4byte	0xfe
 1546 0259 04       		.uleb128 0x4
 1547 025a 86010000 		.4byte	.LASF42
 1548 025e 04       		.byte	0x4
 1549 025f 5F       		.byte	0x5f
 1550 0260 2E020000 		.4byte	0x22e
 1551 0264 08       		.uleb128 0x8
 1552 0265 04       		.byte	0x4
 1553 0266 04       		.byte	0x4
 1554 0267 64       		.byte	0x64
 1555 0268 7B020000 		.4byte	0x27b
 1556 026c 06       		.uleb128 0x6
 1557 026d 30020000 		.4byte	.LASF23
 1558 0271 04       		.byte	0x4
 1559 0272 66       		.byte	0x66
 1560 0273 53020000 		.4byte	0x253
 1561 0277 02       		.byte	0x2
 1562 0278 23       		.byte	0x23
 1563 0279 00       		.uleb128 0
 1564 027a 00       		.byte	0
 1565 027b 04       		.uleb128 0x4
 1566 027c 42010000 		.4byte	.LASF43
 1567 0280 04       		.byte	0x4
 1568 0281 69       		.byte	0x69
 1569 0282 64020000 		.4byte	0x264
 1570 0286 04       		.uleb128 0x4
 1571 0287 B5000000 		.4byte	.LASF44
 1572 028b 06       		.byte	0x6
 1573 028c DE       		.byte	0xde
 1574 028d 91020000 		.4byte	0x291
 1575 0291 0A       		.uleb128 0xa
 1576 0292 04       		.byte	0x4
 1577 0293 04       		.uleb128 0x4
 1578 0294 6A010000 		.4byte	.LASF45
 1579 0298 06       		.byte	0x6
 1580 0299 E4       		.byte	0xe4
 1581 029a 89000000 		.4byte	0x89
 1582 029e 0B       		.uleb128 0xb
 1583 029f B4020000 		.4byte	.LASF46
 1584 02a3 24       		.byte	0x24
 1585 02a4 06       		.byte	0x6
 1586 02a5 0501     		.2byte	0x105
 1587 02a7 2C030000 		.4byte	0x32c
 1588 02ab 0C       		.uleb128 0xc
 1589 02ac 723400   		.ascii	"r4\000"
ARM GAS  /var/folders/5n/p_75w94d66l9ssrldxqdhh700000gn/T//ccHwdw52.s 			page 29


 1590 02af 06       		.byte	0x6
 1591 02b0 1801     		.2byte	0x118
 1592 02b2 86020000 		.4byte	0x286
 1593 02b6 02       		.byte	0x2
 1594 02b7 23       		.byte	0x23
 1595 02b8 00       		.uleb128 0
 1596 02b9 0C       		.uleb128 0xc
 1597 02ba 723500   		.ascii	"r5\000"
 1598 02bd 06       		.byte	0x6
 1599 02be 1901     		.2byte	0x119
 1600 02c0 86020000 		.4byte	0x286
 1601 02c4 02       		.byte	0x2
 1602 02c5 23       		.byte	0x23
 1603 02c6 04       		.uleb128 0x4
 1604 02c7 0C       		.uleb128 0xc
 1605 02c8 723600   		.ascii	"r6\000"
 1606 02cb 06       		.byte	0x6
 1607 02cc 1A01     		.2byte	0x11a
 1608 02ce 86020000 		.4byte	0x286
 1609 02d2 02       		.byte	0x2
 1610 02d3 23       		.byte	0x23
 1611 02d4 08       		.uleb128 0x8
 1612 02d5 0C       		.uleb128 0xc
 1613 02d6 723700   		.ascii	"r7\000"
 1614 02d9 06       		.byte	0x6
 1615 02da 1B01     		.2byte	0x11b
 1616 02dc 86020000 		.4byte	0x286
 1617 02e0 02       		.byte	0x2
 1618 02e1 23       		.byte	0x23
 1619 02e2 0C       		.uleb128 0xc
 1620 02e3 0C       		.uleb128 0xc
 1621 02e4 723800   		.ascii	"r8\000"
 1622 02e7 06       		.byte	0x6
 1623 02e8 1C01     		.2byte	0x11c
 1624 02ea 86020000 		.4byte	0x286
 1625 02ee 02       		.byte	0x2
 1626 02ef 23       		.byte	0x23
 1627 02f0 10       		.uleb128 0x10
 1628 02f1 0C       		.uleb128 0xc
 1629 02f2 723900   		.ascii	"r9\000"
 1630 02f5 06       		.byte	0x6
 1631 02f6 1D01     		.2byte	0x11d
 1632 02f8 86020000 		.4byte	0x286
 1633 02fc 02       		.byte	0x2
 1634 02fd 23       		.byte	0x23
 1635 02fe 14       		.uleb128 0x14
 1636 02ff 0C       		.uleb128 0xc
 1637 0300 72313000 		.ascii	"r10\000"
 1638 0304 06       		.byte	0x6
 1639 0305 1E01     		.2byte	0x11e
 1640 0307 86020000 		.4byte	0x286
 1641 030b 02       		.byte	0x2
 1642 030c 23       		.byte	0x23
 1643 030d 18       		.uleb128 0x18
 1644 030e 0C       		.uleb128 0xc
 1645 030f 72313100 		.ascii	"r11\000"
 1646 0313 06       		.byte	0x6
ARM GAS  /var/folders/5n/p_75w94d66l9ssrldxqdhh700000gn/T//ccHwdw52.s 			page 30


 1647 0314 1F01     		.2byte	0x11f
 1648 0316 86020000 		.4byte	0x286
 1649 031a 02       		.byte	0x2
 1650 031b 23       		.byte	0x23
 1651 031c 1C       		.uleb128 0x1c
 1652 031d 0C       		.uleb128 0xc
 1653 031e 6C7200   		.ascii	"lr\000"
 1654 0321 06       		.byte	0x6
 1655 0322 2001     		.2byte	0x120
 1656 0324 86020000 		.4byte	0x286
 1657 0328 02       		.byte	0x2
 1658 0329 23       		.byte	0x23
 1659 032a 20       		.uleb128 0x20
 1660 032b 00       		.byte	0
 1661 032c 0B       		.uleb128 0xb
 1662 032d 0D010000 		.4byte	.LASF47
 1663 0331 04       		.byte	0x4
 1664 0332 06       		.byte	0x6
 1665 0333 2A01     		.2byte	0x12a
 1666 0335 49030000 		.4byte	0x349
 1667 0339 0C       		.uleb128 0xc
 1668 033a 72313300 		.ascii	"r13\000"
 1669 033e 06       		.byte	0x6
 1670 033f 2B01     		.2byte	0x12b
 1671 0341 49030000 		.4byte	0x349
 1672 0345 02       		.byte	0x2
 1673 0346 23       		.byte	0x23
 1674 0347 00       		.uleb128 0
 1675 0348 00       		.byte	0
 1676 0349 09       		.uleb128 0x9
 1677 034a 04       		.byte	0x4
 1678 034b 9E020000 		.4byte	0x29e
 1679 034f 0D       		.uleb128 0xd
 1680 0350 E8000000 		.4byte	0xe8
 1681 0354 05       		.uleb128 0x5
 1682 0355 C6020000 		.4byte	.LASF48
 1683 0359 0C       		.byte	0xc
 1684 035a 07       		.byte	0x7
 1685 035b 25       		.byte	0x25
 1686 035c 7D030000 		.4byte	0x37d
 1687 0360 06       		.uleb128 0x6
 1688 0361 AD000000 		.4byte	.LASF49
 1689 0365 07       		.byte	0x7
 1690 0366 26       		.byte	0x26
 1691 0367 59020000 		.4byte	0x259
 1692 036b 02       		.byte	0x2
 1693 036c 23       		.byte	0x23
 1694 036d 00       		.uleb128 0
 1695 036e 06       		.uleb128 0x6
 1696 036f 07010000 		.4byte	.LASF50
 1697 0373 07       		.byte	0x7
 1698 0374 28       		.byte	0x28
 1699 0375 F3000000 		.4byte	0xf3
 1700 0379 02       		.byte	0x2
 1701 037a 23       		.byte	0x23
 1702 037b 08       		.uleb128 0x8
 1703 037c 00       		.byte	0
ARM GAS  /var/folders/5n/p_75w94d66l9ssrldxqdhh700000gn/T//ccHwdw52.s 			page 31


 1704 037d 04       		.uleb128 0x4
 1705 037e C6020000 		.4byte	.LASF48
 1706 0382 07       		.byte	0x7
 1707 0383 29       		.byte	0x29
 1708 0384 54030000 		.4byte	0x354
 1709 0388 05       		.uleb128 0x5
 1710 0389 5A010000 		.4byte	.LASF51
 1711 038d 10       		.byte	0x10
 1712 038e 08       		.byte	0x8
 1713 038f 25       		.byte	0x25
 1714 0390 BF030000 		.4byte	0x3bf
 1715 0394 06       		.uleb128 0x6
 1716 0395 E6010000 		.4byte	.LASF52
 1717 0399 08       		.byte	0x8
 1718 039a 26       		.byte	0x26
 1719 039b 59020000 		.4byte	0x259
 1720 039f 02       		.byte	0x2
 1721 03a0 23       		.byte	0x23
 1722 03a1 00       		.uleb128 0
 1723 03a2 06       		.uleb128 0x6
 1724 03a3 5B030000 		.4byte	.LASF53
 1725 03a7 08       		.byte	0x8
 1726 03a8 28       		.byte	0x28
 1727 03a9 53020000 		.4byte	0x253
 1728 03ad 02       		.byte	0x2
 1729 03ae 23       		.byte	0x23
 1730 03af 08       		.uleb128 0x8
 1731 03b0 06       		.uleb128 0x6
 1732 03b1 68020000 		.4byte	.LASF54
 1733 03b5 08       		.byte	0x8
 1734 03b6 2A       		.byte	0x2a
 1735 03b7 BF030000 		.4byte	0x3bf
 1736 03bb 02       		.byte	0x2
 1737 03bc 23       		.byte	0x23
 1738 03bd 0C       		.uleb128 0xc
 1739 03be 00       		.byte	0
 1740 03bf 09       		.uleb128 0x9
 1741 03c0 04       		.byte	0x4
 1742 03c1 88030000 		.4byte	0x388
 1743 03c5 04       		.uleb128 0x4
 1744 03c6 5A010000 		.4byte	.LASF51
 1745 03ca 08       		.byte	0x8
 1746 03cb 2C       		.byte	0x2c
 1747 03cc 88030000 		.4byte	0x388
 1748 03d0 08       		.uleb128 0x8
 1749 03d1 28       		.byte	0x28
 1750 03d2 09       		.byte	0x9
 1751 03d3 2C       		.byte	0x2c
 1752 03d4 2D040000 		.4byte	0x42d
 1753 03d8 06       		.uleb128 0x6
 1754 03d9 99010000 		.4byte	.LASF55
 1755 03dd 09       		.byte	0x9
 1756 03de 2D       		.byte	0x2d
 1757 03df 2D040000 		.4byte	0x42d
 1758 03e3 02       		.byte	0x2
 1759 03e4 23       		.byte	0x23
 1760 03e5 00       		.uleb128 0
ARM GAS  /var/folders/5n/p_75w94d66l9ssrldxqdhh700000gn/T//ccHwdw52.s 			page 32


 1761 03e6 06       		.uleb128 0x6
 1762 03e7 EE010000 		.4byte	.LASF56
 1763 03eb 09       		.byte	0x9
 1764 03ec 2F       		.byte	0x2f
 1765 03ed 2D040000 		.4byte	0x42d
 1766 03f1 02       		.byte	0x2
 1767 03f2 23       		.byte	0x23
 1768 03f3 04       		.uleb128 0x4
 1769 03f4 06       		.uleb128 0x6
 1770 03f5 4F000000 		.4byte	.LASF57
 1771 03f9 09       		.byte	0x9
 1772 03fa 31       		.byte	0x31
 1773 03fb 2D040000 		.4byte	0x42d
 1774 03ff 02       		.byte	0x2
 1775 0400 23       		.byte	0x23
 1776 0401 08       		.uleb128 0x8
 1777 0402 06       		.uleb128 0x6
 1778 0403 75010000 		.4byte	.LASF58
 1779 0407 09       		.byte	0x9
 1780 0408 32       		.byte	0x32
 1781 0409 2D040000 		.4byte	0x42d
 1782 040d 02       		.byte	0x2
 1783 040e 23       		.byte	0x23
 1784 040f 0C       		.uleb128 0xc
 1785 0410 06       		.uleb128 0x6
 1786 0411 D0020000 		.4byte	.LASF59
 1787 0415 09       		.byte	0x9
 1788 0416 33       		.byte	0x33
 1789 0417 7D030000 		.4byte	0x37d
 1790 041b 02       		.byte	0x2
 1791 041c 23       		.byte	0x23
 1792 041d 10       		.uleb128 0x10
 1793 041e 06       		.uleb128 0x6
 1794 041f F6000000 		.4byte	.LASF60
 1795 0423 09       		.byte	0x9
 1796 0424 35       		.byte	0x35
 1797 0425 7D030000 		.4byte	0x37d
 1798 0429 02       		.byte	0x2
 1799 042a 23       		.byte	0x23
 1800 042b 1C       		.uleb128 0x1c
 1801 042c 00       		.byte	0
 1802 042d 09       		.uleb128 0x9
 1803 042e 04       		.byte	0x4
 1804 042f D2000000 		.4byte	0xd2
 1805 0433 04       		.uleb128 0x4
 1806 0434 16000000 		.4byte	.LASF61
 1807 0438 09       		.byte	0x9
 1808 0439 37       		.byte	0x37
 1809 043a D0030000 		.4byte	0x3d0
 1810 043e 0E       		.uleb128 0xe
 1811 043f 04       		.byte	0x4
 1812 0440 05       		.byte	0x5
 1813 0441 8F       		.byte	0x8f
 1814 0442 73040000 		.4byte	0x473
 1815 0446 0F       		.uleb128 0xf
 1816 0447 06000000 		.4byte	.LASF62
 1817 044b 05       		.byte	0x5
ARM GAS  /var/folders/5n/p_75w94d66l9ssrldxqdhh700000gn/T//ccHwdw52.s 			page 33


 1818 044c 96       		.byte	0x96
 1819 044d D2000000 		.4byte	0xd2
 1820 0451 0F       		.uleb128 0xf
 1821 0452 41000000 		.4byte	.LASF63
 1822 0456 05       		.byte	0x5
 1823 0457 9D       		.byte	0x9d
 1824 0458 D2000000 		.4byte	0xd2
 1825 045c 0F       		.uleb128 0xf
 1826 045d F7020000 		.4byte	.LASF64
 1827 0461 05       		.byte	0x5
 1828 0462 A4       		.byte	0xa4
 1829 0463 91020000 		.4byte	0x291
 1830 0467 0F       		.uleb128 0xf
 1831 0468 29020000 		.4byte	.LASF65
 1832 046c 05       		.byte	0x5
 1833 046d AB       		.byte	0xab
 1834 046e DD000000 		.4byte	0xdd
 1835 0472 00       		.byte	0
 1836 0473 09       		.uleb128 0x9
 1837 0474 04       		.byte	0x4
 1838 0475 79040000 		.4byte	0x479
 1839 0479 10       		.uleb128 0x10
 1840 047a 7E040000 		.4byte	0x47e
 1841 047e 03       		.uleb128 0x3
 1842 047f 01       		.byte	0x1
 1843 0480 08       		.byte	0x8
 1844 0481 63020000 		.4byte	.LASF66
 1845 0485 09       		.uleb128 0x9
 1846 0486 04       		.byte	0x4
 1847 0487 C5030000 		.4byte	0x3c5
 1848 048b 05       		.uleb128 0x5
 1849 048c 46020000 		.4byte	.LASF67
 1850 0490 10       		.byte	0x10
 1851 0491 0A       		.byte	0xa
 1852 0492 3F       		.byte	0x3f
 1853 0493 D0040000 		.4byte	0x4d0
 1854 0497 06       		.uleb128 0x6
 1855 0498 02010000 		.4byte	.LASF68
 1856 049c 0A       		.byte	0xa
 1857 049d 40       		.byte	0x40
 1858 049e 73040000 		.4byte	0x473
 1859 04a2 02       		.byte	0x2
 1860 04a3 23       		.byte	0x23
 1861 04a4 00       		.uleb128 0
 1862 04a5 06       		.uleb128 0x6
 1863 04a6 93010000 		.4byte	.LASF69
 1864 04aa 0A       		.byte	0xa
 1865 04ab 41       		.byte	0x41
 1866 04ac D2040000 		.4byte	0x4d2
 1867 04b0 02       		.byte	0x2
 1868 04b1 23       		.byte	0x23
 1869 04b2 04       		.uleb128 0x4
 1870 04b3 06       		.uleb128 0x6
 1871 04b4 ED000000 		.4byte	.LASF70
 1872 04b8 0A       		.byte	0xa
 1873 04b9 42       		.byte	0x42
 1874 04ba D2040000 		.4byte	0x4d2
ARM GAS  /var/folders/5n/p_75w94d66l9ssrldxqdhh700000gn/T//ccHwdw52.s 			page 34


 1875 04be 02       		.byte	0x2
 1876 04bf 23       		.byte	0x23
 1877 04c0 08       		.uleb128 0x8
 1878 04c1 06       		.uleb128 0x6
 1879 04c2 C0010000 		.4byte	.LASF71
 1880 04c6 0A       		.byte	0xa
 1881 04c7 43       		.byte	0x43
 1882 04c8 D2040000 		.4byte	0x4d2
 1883 04cc 02       		.byte	0x2
 1884 04cd 23       		.byte	0x23
 1885 04ce 0C       		.uleb128 0xc
 1886 04cf 00       		.byte	0
 1887 04d0 11       		.uleb128 0x11
 1888 04d1 01       		.byte	0x1
 1889 04d2 09       		.uleb128 0x9
 1890 04d3 04       		.byte	0x4
 1891 04d4 D0040000 		.4byte	0x4d0
 1892 04d8 12       		.uleb128 0x12
 1893 04d9 F005     		.2byte	0x5f0
 1894 04db 0A       		.byte	0xa
 1895 04dc 48       		.byte	0x48
 1896 04dd 27050000 		.4byte	0x527
 1897 04e1 07       		.uleb128 0x7
 1898 04e2 543000   		.ascii	"T0\000"
 1899 04e5 0A       		.byte	0xa
 1900 04e6 49       		.byte	0x49
 1901 04e7 27050000 		.4byte	0x527
 1902 04eb 02       		.byte	0x2
 1903 04ec 23       		.byte	0x23
 1904 04ed 00       		.uleb128 0
 1905 04ee 07       		.uleb128 0x7
 1906 04ef 543100   		.ascii	"T1\000"
 1907 04f2 0A       		.byte	0xa
 1908 04f3 4A       		.byte	0x4a
 1909 04f4 27050000 		.4byte	0x527
 1910 04f8 03       		.byte	0x3
 1911 04f9 23       		.byte	0x23
 1912 04fa B002     		.uleb128 0x130
 1913 04fc 07       		.uleb128 0x7
 1914 04fd 543200   		.ascii	"T2\000"
 1915 0500 0A       		.byte	0xa
 1916 0501 4B       		.byte	0x4b
 1917 0502 27050000 		.4byte	0x527
 1918 0506 03       		.byte	0x3
 1919 0507 23       		.byte	0x23
 1920 0508 E004     		.uleb128 0x260
 1921 050a 07       		.uleb128 0x7
 1922 050b 543300   		.ascii	"T3\000"
 1923 050e 0A       		.byte	0xa
 1924 050f 4C       		.byte	0x4c
 1925 0510 27050000 		.4byte	0x527
 1926 0514 03       		.byte	0x3
 1927 0515 23       		.byte	0x23
 1928 0516 9007     		.uleb128 0x390
 1929 0518 07       		.uleb128 0x7
 1930 0519 543400   		.ascii	"T4\000"
 1931 051c 0A       		.byte	0xa
ARM GAS  /var/folders/5n/p_75w94d66l9ssrldxqdhh700000gn/T//ccHwdw52.s 			page 35


 1932 051d 4D       		.byte	0x4d
 1933 051e 27050000 		.4byte	0x527
 1934 0522 03       		.byte	0x3
 1935 0523 23       		.byte	0x23
 1936 0524 C009     		.uleb128 0x4c0
 1937 0526 00       		.byte	0
 1938 0527 13       		.uleb128 0x13
 1939 0528 93020000 		.4byte	0x293
 1940 052c 37050000 		.4byte	0x537
 1941 0530 14       		.uleb128 0x14
 1942 0531 30000000 		.4byte	0x30
 1943 0535 25       		.byte	0x25
 1944 0536 00       		.byte	0
 1945 0537 15       		.uleb128 0x15
 1946 0538 DB020000 		.4byte	.LASF81
 1947 053c F005     		.2byte	0x5f0
 1948 053e 0A       		.byte	0xa
 1949 053f 47       		.byte	0x47
 1950 0540 5A050000 		.4byte	0x55a
 1951 0544 16       		.uleb128 0x16
 1952 0545 776100   		.ascii	"wa\000"
 1953 0548 0A       		.byte	0xa
 1954 0549 4E       		.byte	0x4e
 1955 054a D8040000 		.4byte	0x4d8
 1956 054e 0F       		.uleb128 0xf
 1957 054f 84020000 		.4byte	.LASF72
 1958 0553 0A       		.byte	0xa
 1959 0554 4F       		.byte	0x4f
 1960 0555 5A050000 		.4byte	0x55a
 1961 0559 00       		.byte	0
 1962 055a 13       		.uleb128 0x13
 1963 055b 3E000000 		.4byte	0x3e
 1964 055f 6B050000 		.4byte	0x56b
 1965 0563 17       		.uleb128 0x17
 1966 0564 30000000 		.4byte	0x30
 1967 0568 EF05     		.2byte	0x5ef
 1968 056a 00       		.byte	0
 1969 056b 18       		.uleb128 0x18
 1970 056c A3010000 		.4byte	.LASF82
 1971 0570 01       		.byte	0x1
 1972 0571 50       		.byte	0x50
 1973 0572 01       		.byte	0x1
 1974 0573 01       		.byte	0x1
 1975 0574 4C090000 		.4byte	0x94c
 1976 0578 19       		.uleb128 0x19
 1977 0579 D1000000 		.4byte	.LASF73
 1978 057d 01       		.byte	0x1
 1979 057e 51       		.byte	0x51
 1980 057f D2000000 		.4byte	0xd2
 1981 0583 19       		.uleb128 0x19
 1982 0584 D6000000 		.4byte	.LASF74
 1983 0588 01       		.byte	0x1
 1984 0589 51       		.byte	0x51
 1985 058a D2000000 		.4byte	0xd2
 1986 058e 1A       		.uleb128 0x1a
 1987 058f 6900     		.ascii	"i\000"
 1988 0591 01       		.byte	0x1
ARM GAS  /var/folders/5n/p_75w94d66l9ssrldxqdhh700000gn/T//ccHwdw52.s 			page 36


 1989 0592 52       		.byte	0x52
 1990 0593 30000000 		.4byte	0x30
 1991 0597 1B       		.uleb128 0x1b
 1992 0598 A8050000 		.4byte	0x5a8
 1993 059c 1A       		.uleb128 0x1a
 1994 059d 746D7000 		.ascii	"tmp\000"
 1995 05a1 01       		.byte	0x1
 1996 05a2 68       		.byte	0x68
 1997 05a3 70000000 		.4byte	0x70
 1998 05a7 00       		.byte	0
 1999 05a8 1B       		.uleb128 0x1b
 2000 05a9 B9050000 		.4byte	0x5b9
 2001 05ad 1A       		.uleb128 0x1a
 2002 05ae 746D7000 		.ascii	"tmp\000"
 2003 05b2 01       		.byte	0x1
 2004 05b3 6A       		.byte	0x6a
 2005 05b4 70000000 		.4byte	0x70
 2006 05b8 00       		.byte	0
 2007 05b9 1B       		.uleb128 0x1b
 2008 05ba CA050000 		.4byte	0x5ca
 2009 05be 1A       		.uleb128 0x1a
 2010 05bf 746D7000 		.ascii	"tmp\000"
 2011 05c3 01       		.byte	0x1
 2012 05c4 6E       		.byte	0x6e
 2013 05c5 70000000 		.4byte	0x70
 2014 05c9 00       		.byte	0
 2015 05ca 1B       		.uleb128 0x1b
 2016 05cb DB050000 		.4byte	0x5db
 2017 05cf 1A       		.uleb128 0x1a
 2018 05d0 746D7000 		.ascii	"tmp\000"
 2019 05d4 01       		.byte	0x1
 2020 05d5 70       		.byte	0x70
 2021 05d6 70000000 		.4byte	0x70
 2022 05da 00       		.byte	0
 2023 05db 1B       		.uleb128 0x1b
 2024 05dc EC050000 		.4byte	0x5ec
 2025 05e0 1A       		.uleb128 0x1a
 2026 05e1 746D7000 		.ascii	"tmp\000"
 2027 05e5 01       		.byte	0x1
 2028 05e6 76       		.byte	0x76
 2029 05e7 70000000 		.4byte	0x70
 2030 05eb 00       		.byte	0
 2031 05ec 1B       		.uleb128 0x1b
 2032 05ed FD050000 		.4byte	0x5fd
 2033 05f1 1A       		.uleb128 0x1a
 2034 05f2 746D7000 		.ascii	"tmp\000"
 2035 05f6 01       		.byte	0x1
 2036 05f7 76       		.byte	0x76
 2037 05f8 70000000 		.4byte	0x70
 2038 05fc 00       		.byte	0
 2039 05fd 1B       		.uleb128 0x1b
 2040 05fe 0E060000 		.4byte	0x60e
 2041 0602 1A       		.uleb128 0x1a
 2042 0603 746D7000 		.ascii	"tmp\000"
 2043 0607 01       		.byte	0x1
 2044 0608 76       		.byte	0x76
 2045 0609 70000000 		.4byte	0x70
ARM GAS  /var/folders/5n/p_75w94d66l9ssrldxqdhh700000gn/T//ccHwdw52.s 			page 37


 2046 060d 00       		.byte	0
 2047 060e 1B       		.uleb128 0x1b
 2048 060f 1F060000 		.4byte	0x61f
 2049 0613 1A       		.uleb128 0x1a
 2050 0614 746D7000 		.ascii	"tmp\000"
 2051 0618 01       		.byte	0x1
 2052 0619 77       		.byte	0x77
 2053 061a 70000000 		.4byte	0x70
 2054 061e 00       		.byte	0
 2055 061f 1B       		.uleb128 0x1b
 2056 0620 30060000 		.4byte	0x630
 2057 0624 1A       		.uleb128 0x1a
 2058 0625 746D7000 		.ascii	"tmp\000"
 2059 0629 01       		.byte	0x1
 2060 062a 77       		.byte	0x77
 2061 062b 70000000 		.4byte	0x70
 2062 062f 00       		.byte	0
 2063 0630 1B       		.uleb128 0x1b
 2064 0631 41060000 		.4byte	0x641
 2065 0635 1A       		.uleb128 0x1a
 2066 0636 746D7000 		.ascii	"tmp\000"
 2067 063a 01       		.byte	0x1
 2068 063b 77       		.byte	0x77
 2069 063c 70000000 		.4byte	0x70
 2070 0640 00       		.byte	0
 2071 0641 1B       		.uleb128 0x1b
 2072 0642 52060000 		.4byte	0x652
 2073 0646 1A       		.uleb128 0x1a
 2074 0647 746D7000 		.ascii	"tmp\000"
 2075 064b 01       		.byte	0x1
 2076 064c 78       		.byte	0x78
 2077 064d 70000000 		.4byte	0x70
 2078 0651 00       		.byte	0
 2079 0652 1B       		.uleb128 0x1b
 2080 0653 63060000 		.4byte	0x663
 2081 0657 1A       		.uleb128 0x1a
 2082 0658 746D7000 		.ascii	"tmp\000"
 2083 065c 01       		.byte	0x1
 2084 065d 78       		.byte	0x78
 2085 065e 70000000 		.4byte	0x70
 2086 0662 00       		.byte	0
 2087 0663 1B       		.uleb128 0x1b
 2088 0664 74060000 		.4byte	0x674
 2089 0668 1A       		.uleb128 0x1a
 2090 0669 746D7000 		.ascii	"tmp\000"
 2091 066d 01       		.byte	0x1
 2092 066e 78       		.byte	0x78
 2093 066f 70000000 		.4byte	0x70
 2094 0673 00       		.byte	0
 2095 0674 1B       		.uleb128 0x1b
 2096 0675 85060000 		.4byte	0x685
 2097 0679 1A       		.uleb128 0x1a
 2098 067a 746D7000 		.ascii	"tmp\000"
 2099 067e 01       		.byte	0x1
 2100 067f 93       		.byte	0x93
 2101 0680 70000000 		.4byte	0x70
 2102 0684 00       		.byte	0
ARM GAS  /var/folders/5n/p_75w94d66l9ssrldxqdhh700000gn/T//ccHwdw52.s 			page 38


 2103 0685 1B       		.uleb128 0x1b
 2104 0686 96060000 		.4byte	0x696
 2105 068a 1A       		.uleb128 0x1a
 2106 068b 746D7000 		.ascii	"tmp\000"
 2107 068f 01       		.byte	0x1
 2108 0690 95       		.byte	0x95
 2109 0691 70000000 		.4byte	0x70
 2110 0695 00       		.byte	0
 2111 0696 1B       		.uleb128 0x1b
 2112 0697 A7060000 		.4byte	0x6a7
 2113 069b 1A       		.uleb128 0x1a
 2114 069c 746D7000 		.ascii	"tmp\000"
 2115 06a0 01       		.byte	0x1
 2116 06a1 9B       		.byte	0x9b
 2117 06a2 70000000 		.4byte	0x70
 2118 06a6 00       		.byte	0
 2119 06a7 1B       		.uleb128 0x1b
 2120 06a8 B8060000 		.4byte	0x6b8
 2121 06ac 1A       		.uleb128 0x1a
 2122 06ad 746D7000 		.ascii	"tmp\000"
 2123 06b1 01       		.byte	0x1
 2124 06b2 9B       		.byte	0x9b
 2125 06b3 70000000 		.4byte	0x70
 2126 06b7 00       		.byte	0
 2127 06b8 1B       		.uleb128 0x1b
 2128 06b9 C9060000 		.4byte	0x6c9
 2129 06bd 1A       		.uleb128 0x1a
 2130 06be 746D7000 		.ascii	"tmp\000"
 2131 06c2 01       		.byte	0x1
 2132 06c3 9B       		.byte	0x9b
 2133 06c4 70000000 		.4byte	0x70
 2134 06c8 00       		.byte	0
 2135 06c9 1B       		.uleb128 0x1b
 2136 06ca DA060000 		.4byte	0x6da
 2137 06ce 1A       		.uleb128 0x1a
 2138 06cf 746D7000 		.ascii	"tmp\000"
 2139 06d3 01       		.byte	0x1
 2140 06d4 9C       		.byte	0x9c
 2141 06d5 70000000 		.4byte	0x70
 2142 06d9 00       		.byte	0
 2143 06da 1B       		.uleb128 0x1b
 2144 06db EB060000 		.4byte	0x6eb
 2145 06df 1A       		.uleb128 0x1a
 2146 06e0 746D7000 		.ascii	"tmp\000"
 2147 06e4 01       		.byte	0x1
 2148 06e5 9C       		.byte	0x9c
 2149 06e6 70000000 		.4byte	0x70
 2150 06ea 00       		.byte	0
 2151 06eb 1B       		.uleb128 0x1b
 2152 06ec FC060000 		.4byte	0x6fc
 2153 06f0 1A       		.uleb128 0x1a
 2154 06f1 746D7000 		.ascii	"tmp\000"
 2155 06f5 01       		.byte	0x1
 2156 06f6 9C       		.byte	0x9c
 2157 06f7 70000000 		.4byte	0x70
 2158 06fb 00       		.byte	0
 2159 06fc 1B       		.uleb128 0x1b
ARM GAS  /var/folders/5n/p_75w94d66l9ssrldxqdhh700000gn/T//ccHwdw52.s 			page 39


 2160 06fd 0D070000 		.4byte	0x70d
 2161 0701 1A       		.uleb128 0x1a
 2162 0702 746D7000 		.ascii	"tmp\000"
 2163 0706 01       		.byte	0x1
 2164 0707 9D       		.byte	0x9d
 2165 0708 70000000 		.4byte	0x70
 2166 070c 00       		.byte	0
 2167 070d 1B       		.uleb128 0x1b
 2168 070e 1E070000 		.4byte	0x71e
 2169 0712 1A       		.uleb128 0x1a
 2170 0713 746D7000 		.ascii	"tmp\000"
 2171 0717 01       		.byte	0x1
 2172 0718 9D       		.byte	0x9d
 2173 0719 70000000 		.4byte	0x70
 2174 071d 00       		.byte	0
 2175 071e 1B       		.uleb128 0x1b
 2176 071f 2F070000 		.4byte	0x72f
 2177 0723 1A       		.uleb128 0x1a
 2178 0724 746D7000 		.ascii	"tmp\000"
 2179 0728 01       		.byte	0x1
 2180 0729 9D       		.byte	0x9d
 2181 072a 70000000 		.4byte	0x70
 2182 072e 00       		.byte	0
 2183 072f 1B       		.uleb128 0x1b
 2184 0730 40070000 		.4byte	0x740
 2185 0734 1A       		.uleb128 0x1a
 2186 0735 746D7000 		.ascii	"tmp\000"
 2187 0739 01       		.byte	0x1
 2188 073a A2       		.byte	0xa2
 2189 073b 70000000 		.4byte	0x70
 2190 073f 00       		.byte	0
 2191 0740 1B       		.uleb128 0x1b
 2192 0741 51070000 		.4byte	0x751
 2193 0745 1A       		.uleb128 0x1a
 2194 0746 746D7000 		.ascii	"tmp\000"
 2195 074a 01       		.byte	0x1
 2196 074b AC       		.byte	0xac
 2197 074c 70000000 		.4byte	0x70
 2198 0750 00       		.byte	0
 2199 0751 1B       		.uleb128 0x1b
 2200 0752 62070000 		.4byte	0x762
 2201 0756 1A       		.uleb128 0x1a
 2202 0757 746D7000 		.ascii	"tmp\000"
 2203 075b 01       		.byte	0x1
 2204 075c B0       		.byte	0xb0
 2205 075d 70000000 		.4byte	0x70
 2206 0761 00       		.byte	0
 2207 0762 1B       		.uleb128 0x1b
 2208 0763 73070000 		.4byte	0x773
 2209 0767 1A       		.uleb128 0x1a
 2210 0768 746D7000 		.ascii	"tmp\000"
 2211 076c 01       		.byte	0x1
 2212 076d B2       		.byte	0xb2
 2213 076e 70000000 		.4byte	0x70
 2214 0772 00       		.byte	0
 2215 0773 1B       		.uleb128 0x1b
 2216 0774 84070000 		.4byte	0x784
ARM GAS  /var/folders/5n/p_75w94d66l9ssrldxqdhh700000gn/T//ccHwdw52.s 			page 40


 2217 0778 1A       		.uleb128 0x1a
 2218 0779 746D7000 		.ascii	"tmp\000"
 2219 077d 01       		.byte	0x1
 2220 077e B7       		.byte	0xb7
 2221 077f 70000000 		.4byte	0x70
 2222 0783 00       		.byte	0
 2223 0784 1B       		.uleb128 0x1b
 2224 0785 95070000 		.4byte	0x795
 2225 0789 1A       		.uleb128 0x1a
 2226 078a 746D7000 		.ascii	"tmp\000"
 2227 078e 01       		.byte	0x1
 2228 078f B7       		.byte	0xb7
 2229 0790 70000000 		.4byte	0x70
 2230 0794 00       		.byte	0
 2231 0795 1B       		.uleb128 0x1b
 2232 0796 A6070000 		.4byte	0x7a6
 2233 079a 1A       		.uleb128 0x1a
 2234 079b 746D7000 		.ascii	"tmp\000"
 2235 079f 01       		.byte	0x1
 2236 07a0 B7       		.byte	0xb7
 2237 07a1 70000000 		.4byte	0x70
 2238 07a5 00       		.byte	0
 2239 07a6 1B       		.uleb128 0x1b
 2240 07a7 B7070000 		.4byte	0x7b7
 2241 07ab 1A       		.uleb128 0x1a
 2242 07ac 746D7000 		.ascii	"tmp\000"
 2243 07b0 01       		.byte	0x1
 2244 07b1 B8       		.byte	0xb8
 2245 07b2 70000000 		.4byte	0x70
 2246 07b6 00       		.byte	0
 2247 07b7 1B       		.uleb128 0x1b
 2248 07b8 C8070000 		.4byte	0x7c8
 2249 07bc 1A       		.uleb128 0x1a
 2250 07bd 746D7000 		.ascii	"tmp\000"
 2251 07c1 01       		.byte	0x1
 2252 07c2 B8       		.byte	0xb8
 2253 07c3 70000000 		.4byte	0x70
 2254 07c7 00       		.byte	0
 2255 07c8 1B       		.uleb128 0x1b
 2256 07c9 D9070000 		.4byte	0x7d9
 2257 07cd 1A       		.uleb128 0x1a
 2258 07ce 746D7000 		.ascii	"tmp\000"
 2259 07d2 01       		.byte	0x1
 2260 07d3 B8       		.byte	0xb8
 2261 07d4 70000000 		.4byte	0x70
 2262 07d8 00       		.byte	0
 2263 07d9 1B       		.uleb128 0x1b
 2264 07da EA070000 		.4byte	0x7ea
 2265 07de 1A       		.uleb128 0x1a
 2266 07df 746D7000 		.ascii	"tmp\000"
 2267 07e3 01       		.byte	0x1
 2268 07e4 BB       		.byte	0xbb
 2269 07e5 70000000 		.4byte	0x70
 2270 07e9 00       		.byte	0
 2271 07ea 1B       		.uleb128 0x1b
 2272 07eb FB070000 		.4byte	0x7fb
 2273 07ef 1A       		.uleb128 0x1a
ARM GAS  /var/folders/5n/p_75w94d66l9ssrldxqdhh700000gn/T//ccHwdw52.s 			page 41


 2274 07f0 746D7000 		.ascii	"tmp\000"
 2275 07f4 01       		.byte	0x1
 2276 07f5 C5       		.byte	0xc5
 2277 07f6 70000000 		.4byte	0x70
 2278 07fa 00       		.byte	0
 2279 07fb 1B       		.uleb128 0x1b
 2280 07fc 0C080000 		.4byte	0x80c
 2281 0800 1A       		.uleb128 0x1a
 2282 0801 746D7000 		.ascii	"tmp\000"
 2283 0805 01       		.byte	0x1
 2284 0806 C9       		.byte	0xc9
 2285 0807 70000000 		.4byte	0x70
 2286 080b 00       		.byte	0
 2287 080c 1B       		.uleb128 0x1b
 2288 080d 1D080000 		.4byte	0x81d
 2289 0811 1A       		.uleb128 0x1a
 2290 0812 746D7000 		.ascii	"tmp\000"
 2291 0816 01       		.byte	0x1
 2292 0817 CB       		.byte	0xcb
 2293 0818 70000000 		.4byte	0x70
 2294 081c 00       		.byte	0
 2295 081d 1B       		.uleb128 0x1b
 2296 081e 2E080000 		.4byte	0x82e
 2297 0822 1A       		.uleb128 0x1a
 2298 0823 746D7000 		.ascii	"tmp\000"
 2299 0827 01       		.byte	0x1
 2300 0828 D0       		.byte	0xd0
 2301 0829 70000000 		.4byte	0x70
 2302 082d 00       		.byte	0
 2303 082e 1B       		.uleb128 0x1b
 2304 082f 3F080000 		.4byte	0x83f
 2305 0833 1A       		.uleb128 0x1a
 2306 0834 746D7000 		.ascii	"tmp\000"
 2307 0838 01       		.byte	0x1
 2308 0839 D0       		.byte	0xd0
 2309 083a 70000000 		.4byte	0x70
 2310 083e 00       		.byte	0
 2311 083f 1B       		.uleb128 0x1b
 2312 0840 50080000 		.4byte	0x850
 2313 0844 1A       		.uleb128 0x1a
 2314 0845 746D7000 		.ascii	"tmp\000"
 2315 0849 01       		.byte	0x1
 2316 084a D0       		.byte	0xd0
 2317 084b 70000000 		.4byte	0x70
 2318 084f 00       		.byte	0
 2319 0850 1B       		.uleb128 0x1b
 2320 0851 61080000 		.4byte	0x861
 2321 0855 1A       		.uleb128 0x1a
 2322 0856 746D7000 		.ascii	"tmp\000"
 2323 085a 01       		.byte	0x1
 2324 085b D1       		.byte	0xd1
 2325 085c 70000000 		.4byte	0x70
 2326 0860 00       		.byte	0
 2327 0861 1B       		.uleb128 0x1b
 2328 0862 72080000 		.4byte	0x872
 2329 0866 1A       		.uleb128 0x1a
 2330 0867 746D7000 		.ascii	"tmp\000"
ARM GAS  /var/folders/5n/p_75w94d66l9ssrldxqdhh700000gn/T//ccHwdw52.s 			page 42


 2331 086b 01       		.byte	0x1
 2332 086c D1       		.byte	0xd1
 2333 086d 70000000 		.4byte	0x70
 2334 0871 00       		.byte	0
 2335 0872 1B       		.uleb128 0x1b
 2336 0873 83080000 		.4byte	0x883
 2337 0877 1A       		.uleb128 0x1a
 2338 0878 746D7000 		.ascii	"tmp\000"
 2339 087c 01       		.byte	0x1
 2340 087d D1       		.byte	0xd1
 2341 087e 70000000 		.4byte	0x70
 2342 0882 00       		.byte	0
 2343 0883 1B       		.uleb128 0x1b
 2344 0884 94080000 		.4byte	0x894
 2345 0888 1A       		.uleb128 0x1a
 2346 0889 746D7000 		.ascii	"tmp\000"
 2347 088d 01       		.byte	0x1
 2348 088e DC       		.byte	0xdc
 2349 088f 70000000 		.4byte	0x70
 2350 0893 00       		.byte	0
 2351 0894 1B       		.uleb128 0x1b
 2352 0895 A5080000 		.4byte	0x8a5
 2353 0899 1A       		.uleb128 0x1a
 2354 089a 746D7000 		.ascii	"tmp\000"
 2355 089e 01       		.byte	0x1
 2356 089f DC       		.byte	0xdc
 2357 08a0 70000000 		.4byte	0x70
 2358 08a4 00       		.byte	0
 2359 08a5 1B       		.uleb128 0x1b
 2360 08a6 B6080000 		.4byte	0x8b6
 2361 08aa 1A       		.uleb128 0x1a
 2362 08ab 746D7000 		.ascii	"tmp\000"
 2363 08af 01       		.byte	0x1
 2364 08b0 DC       		.byte	0xdc
 2365 08b1 70000000 		.4byte	0x70
 2366 08b5 00       		.byte	0
 2367 08b6 1B       		.uleb128 0x1b
 2368 08b7 C7080000 		.4byte	0x8c7
 2369 08bb 1A       		.uleb128 0x1a
 2370 08bc 746D7000 		.ascii	"tmp\000"
 2371 08c0 01       		.byte	0x1
 2372 08c1 DD       		.byte	0xdd
 2373 08c2 70000000 		.4byte	0x70
 2374 08c6 00       		.byte	0
 2375 08c7 1B       		.uleb128 0x1b
 2376 08c8 D8080000 		.4byte	0x8d8
 2377 08cc 1A       		.uleb128 0x1a
 2378 08cd 746D7000 		.ascii	"tmp\000"
 2379 08d1 01       		.byte	0x1
 2380 08d2 DD       		.byte	0xdd
 2381 08d3 70000000 		.4byte	0x70
 2382 08d7 00       		.byte	0
 2383 08d8 1B       		.uleb128 0x1b
 2384 08d9 E9080000 		.4byte	0x8e9
 2385 08dd 1A       		.uleb128 0x1a
 2386 08de 746D7000 		.ascii	"tmp\000"
 2387 08e2 01       		.byte	0x1
ARM GAS  /var/folders/5n/p_75w94d66l9ssrldxqdhh700000gn/T//ccHwdw52.s 			page 43


 2388 08e3 DD       		.byte	0xdd
 2389 08e4 70000000 		.4byte	0x70
 2390 08e8 00       		.byte	0
 2391 08e9 1B       		.uleb128 0x1b
 2392 08ea FA080000 		.4byte	0x8fa
 2393 08ee 1A       		.uleb128 0x1a
 2394 08ef 746D7000 		.ascii	"tmp\000"
 2395 08f3 01       		.byte	0x1
 2396 08f4 DE       		.byte	0xde
 2397 08f5 70000000 		.4byte	0x70
 2398 08f9 00       		.byte	0
 2399 08fa 1B       		.uleb128 0x1b
 2400 08fb 0B090000 		.4byte	0x90b
 2401 08ff 1A       		.uleb128 0x1a
 2402 0900 746D7000 		.ascii	"tmp\000"
 2403 0904 01       		.byte	0x1
 2404 0905 DE       		.byte	0xde
 2405 0906 70000000 		.4byte	0x70
 2406 090a 00       		.byte	0
 2407 090b 1B       		.uleb128 0x1b
 2408 090c 1C090000 		.4byte	0x91c
 2409 0910 1A       		.uleb128 0x1a
 2410 0911 746D7000 		.ascii	"tmp\000"
 2411 0915 01       		.byte	0x1
 2412 0916 DE       		.byte	0xde
 2413 0917 70000000 		.4byte	0x70
 2414 091b 00       		.byte	0
 2415 091c 1B       		.uleb128 0x1b
 2416 091d 2D090000 		.4byte	0x92d
 2417 0921 1A       		.uleb128 0x1a
 2418 0922 746D7000 		.ascii	"tmp\000"
 2419 0926 01       		.byte	0x1
 2420 0927 DF       		.byte	0xdf
 2421 0928 70000000 		.4byte	0x70
 2422 092c 00       		.byte	0
 2423 092d 1B       		.uleb128 0x1b
 2424 092e 3E090000 		.4byte	0x93e
 2425 0932 1A       		.uleb128 0x1a
 2426 0933 746D7000 		.ascii	"tmp\000"
 2427 0937 01       		.byte	0x1
 2428 0938 DF       		.byte	0xdf
 2429 0939 70000000 		.4byte	0x70
 2430 093d 00       		.byte	0
 2431 093e 1C       		.uleb128 0x1c
 2432 093f 1A       		.uleb128 0x1a
 2433 0940 746D7000 		.ascii	"tmp\000"
 2434 0944 01       		.byte	0x1
 2435 0945 DF       		.byte	0xdf
 2436 0946 70000000 		.4byte	0x70
 2437 094a 00       		.byte	0
 2438 094b 00       		.byte	0
 2439 094c 1D       		.uleb128 0x1d
 2440 094d 36010000 		.4byte	.LASF83
 2441 0951 01       		.byte	0x1
 2442 0952 4B       		.byte	0x4b
 2443 0953 01       		.byte	0x1
 2444 0954 00000000 		.4byte	.LFB7
ARM GAS  /var/folders/5n/p_75w94d66l9ssrldxqdhh700000gn/T//ccHwdw52.s 			page 44


 2445 0958 16000000 		.4byte	.LFE7
 2446 095c 02       		.byte	0x2
 2447 095d 7D       		.byte	0x7d
 2448 095e 00       		.sleb128 0
 2449 095f 1E       		.uleb128 0x1e
 2450 0960 6B050000 		.4byte	0x56b
 2451 0964 00000000 		.4byte	.LFB8
 2452 0968 4C060000 		.4byte	.LFE8
 2453 096c 00000000 		.4byte	.LLST0
 2454 0970 B90D0000 		.4byte	0xdb9
 2455 0974 1F       		.uleb128 0x1f
 2456 0975 78050000 		.4byte	0x578
 2457 0979 2C000000 		.4byte	.LLST1
 2458 097d 20       		.uleb128 0x20
 2459 097e 83050000 		.4byte	0x583
 2460 0982 20       		.uleb128 0x20
 2461 0983 8E050000 		.4byte	0x58e
 2462 0987 21       		.uleb128 0x21
 2463 0988 6B050000 		.4byte	0x56b
 2464 098c 60000000 		.4byte	.LBB116
 2465 0990 4C060000 		.4byte	.LBE116
 2466 0994 01       		.byte	0x1
 2467 0995 50       		.byte	0x50
 2468 0996 22       		.uleb128 0x22
 2469 0997 60000000 		.4byte	.LBB117
 2470 099b 4C060000 		.4byte	.LBE117
 2471 099f 1F       		.uleb128 0x1f
 2472 09a0 78050000 		.4byte	0x578
 2473 09a4 4A000000 		.4byte	.LLST2
 2474 09a8 20       		.uleb128 0x20
 2475 09a9 83050000 		.4byte	0x583
 2476 09ad 1F       		.uleb128 0x1f
 2477 09ae 8E050000 		.4byte	0x58e
 2478 09b2 F5010000 		.4byte	.LLST3
 2479 09b6 23       		.uleb128 0x23
 2480 09b7 82000000 		.4byte	.LBB118
 2481 09bb 88000000 		.4byte	.LBE118
 2482 09bf CD090000 		.4byte	0x9cd
 2483 09c3 1F       		.uleb128 0x1f
 2484 09c4 9C050000 		.4byte	0x59c
 2485 09c8 09020000 		.4byte	.LLST4
 2486 09cc 00       		.byte	0
 2487 09cd 24       		.uleb128 0x24
 2488 09ce 00000000 		.4byte	.Ldebug_ranges0+0
 2489 09d2 E0090000 		.4byte	0x9e0
 2490 09d6 1F       		.uleb128 0x1f
 2491 09d7 AD050000 		.4byte	0x5ad
 2492 09db 1C020000 		.4byte	.LLST5
 2493 09df 00       		.byte	0
 2494 09e0 23       		.uleb128 0x23
 2495 09e1 CE000000 		.4byte	.LBB121
 2496 09e5 D4000000 		.4byte	.LBE121
 2497 09e9 F7090000 		.4byte	0x9f7
 2498 09ed 1F       		.uleb128 0x1f
 2499 09ee BE050000 		.4byte	0x5be
 2500 09f2 2F020000 		.4byte	.LLST6
 2501 09f6 00       		.byte	0
ARM GAS  /var/folders/5n/p_75w94d66l9ssrldxqdhh700000gn/T//ccHwdw52.s 			page 45


 2502 09f7 24       		.uleb128 0x24
 2503 09f8 18000000 		.4byte	.Ldebug_ranges0+0x18
 2504 09fc 0A0A0000 		.4byte	0xa0a
 2505 0a00 1F       		.uleb128 0x1f
 2506 0a01 CF050000 		.4byte	0x5cf
 2507 0a05 42020000 		.4byte	.LLST7
 2508 0a09 00       		.byte	0
 2509 0a0a 23       		.uleb128 0x23
 2510 0a0b FA000000 		.4byte	.LBB124
 2511 0a0f 00010000 		.4byte	.LBE124
 2512 0a13 210A0000 		.4byte	0xa21
 2513 0a17 1F       		.uleb128 0x1f
 2514 0a18 E0050000 		.4byte	0x5e0
 2515 0a1c 55020000 		.4byte	.LLST8
 2516 0a20 00       		.byte	0
 2517 0a21 23       		.uleb128 0x23
 2518 0a22 14010000 		.4byte	.LBB125
 2519 0a26 1C010000 		.4byte	.LBE125
 2520 0a2a 380A0000 		.4byte	0xa38
 2521 0a2e 1F       		.uleb128 0x1f
 2522 0a2f F1050000 		.4byte	0x5f1
 2523 0a33 68020000 		.4byte	.LLST9
 2524 0a37 00       		.byte	0
 2525 0a38 23       		.uleb128 0x23
 2526 0a39 1C010000 		.4byte	.LBB126
 2527 0a3d 22010000 		.4byte	.LBE126
 2528 0a41 4F0A0000 		.4byte	0xa4f
 2529 0a45 1F       		.uleb128 0x1f
 2530 0a46 02060000 		.4byte	0x602
 2531 0a4a 86020000 		.4byte	.LLST10
 2532 0a4e 00       		.byte	0
 2533 0a4f 23       		.uleb128 0x23
 2534 0a50 22010000 		.4byte	.LBB127
 2535 0a54 28010000 		.4byte	.LBE127
 2536 0a58 660A0000 		.4byte	0xa66
 2537 0a5c 1F       		.uleb128 0x1f
 2538 0a5d 13060000 		.4byte	0x613
 2539 0a61 99020000 		.4byte	.LLST11
 2540 0a65 00       		.byte	0
 2541 0a66 23       		.uleb128 0x23
 2542 0a67 40010000 		.4byte	.LBB128
 2543 0a6b 48010000 		.4byte	.LBE128
 2544 0a6f 7D0A0000 		.4byte	0xa7d
 2545 0a73 1F       		.uleb128 0x1f
 2546 0a74 24060000 		.4byte	0x624
 2547 0a78 AC020000 		.4byte	.LLST12
 2548 0a7c 00       		.byte	0
 2549 0a7d 23       		.uleb128 0x23
 2550 0a7e 48010000 		.4byte	.LBB129
 2551 0a82 4C010000 		.4byte	.LBE129
 2552 0a86 940A0000 		.4byte	0xa94
 2553 0a8a 1F       		.uleb128 0x1f
 2554 0a8b 35060000 		.4byte	0x635
 2555 0a8f CA020000 		.4byte	.LLST13
 2556 0a93 00       		.byte	0
 2557 0a94 23       		.uleb128 0x23
 2558 0a95 4C010000 		.4byte	.LBB130
ARM GAS  /var/folders/5n/p_75w94d66l9ssrldxqdhh700000gn/T//ccHwdw52.s 			page 46


 2559 0a99 52010000 		.4byte	.LBE130
 2560 0a9d AB0A0000 		.4byte	0xaab
 2561 0aa1 1F       		.uleb128 0x1f
 2562 0aa2 46060000 		.4byte	0x646
 2563 0aa6 DD020000 		.4byte	.LLST14
 2564 0aaa 00       		.byte	0
 2565 0aab 23       		.uleb128 0x23
 2566 0aac 68010000 		.4byte	.LBB131
 2567 0ab0 6E010000 		.4byte	.LBE131
 2568 0ab4 C20A0000 		.4byte	0xac2
 2569 0ab8 1F       		.uleb128 0x1f
 2570 0ab9 57060000 		.4byte	0x657
 2571 0abd F0020000 		.4byte	.LLST15
 2572 0ac1 00       		.byte	0
 2573 0ac2 23       		.uleb128 0x23
 2574 0ac3 74010000 		.4byte	.LBB132
 2575 0ac7 76010000 		.4byte	.LBE132
 2576 0acb D70A0000 		.4byte	0xad7
 2577 0acf 25       		.uleb128 0x25
 2578 0ad0 68060000 		.4byte	0x668
 2579 0ad4 01       		.byte	0x1
 2580 0ad5 53       		.byte	0x53
 2581 0ad6 00       		.byte	0
 2582 0ad7 23       		.uleb128 0x23
 2583 0ad8 44020000 		.4byte	.LBB133
 2584 0adc 4A020000 		.4byte	.LBE133
 2585 0ae0 EE0A0000 		.4byte	0xaee
 2586 0ae4 1F       		.uleb128 0x1f
 2587 0ae5 79060000 		.4byte	0x679
 2588 0ae9 0E030000 		.4byte	.LLST16
 2589 0aed 00       		.byte	0
 2590 0aee 24       		.uleb128 0x24
 2591 0aef 30000000 		.4byte	.Ldebug_ranges0+0x30
 2592 0af3 010B0000 		.4byte	0xb01
 2593 0af7 1F       		.uleb128 0x1f
 2594 0af8 8A060000 		.4byte	0x68a
 2595 0afc 21030000 		.4byte	.LLST17
 2596 0b00 00       		.byte	0
 2597 0b01 23       		.uleb128 0x23
 2598 0b02 72020000 		.4byte	.LBB136
 2599 0b06 78020000 		.4byte	.LBE136
 2600 0b0a 180B0000 		.4byte	0xb18
 2601 0b0e 1F       		.uleb128 0x1f
 2602 0b0f 9B060000 		.4byte	0x69b
 2603 0b13 34030000 		.4byte	.LLST18
 2604 0b17 00       		.byte	0
 2605 0b18 23       		.uleb128 0x23
 2606 0b19 8A020000 		.4byte	.LBB137
 2607 0b1d 90020000 		.4byte	.LBE137
 2608 0b21 2F0B0000 		.4byte	0xb2f
 2609 0b25 1F       		.uleb128 0x1f
 2610 0b26 AC060000 		.4byte	0x6ac
 2611 0b2a 47030000 		.4byte	.LLST19
 2612 0b2e 00       		.byte	0
 2613 0b2f 23       		.uleb128 0x23
 2614 0b30 96020000 		.4byte	.LBB138
 2615 0b34 9C020000 		.4byte	.LBE138
ARM GAS  /var/folders/5n/p_75w94d66l9ssrldxqdhh700000gn/T//ccHwdw52.s 			page 47


 2616 0b38 460B0000 		.4byte	0xb46
 2617 0b3c 1F       		.uleb128 0x1f
 2618 0b3d CE060000 		.4byte	0x6ce
 2619 0b41 65030000 		.4byte	.LLST20
 2620 0b45 00       		.byte	0
 2621 0b46 23       		.uleb128 0x23
 2622 0b47 B2020000 		.4byte	.LBB139
 2623 0b4b BA020000 		.4byte	.LBE139
 2624 0b4f 5D0B0000 		.4byte	0xb5d
 2625 0b53 1F       		.uleb128 0x1f
 2626 0b54 32090000 		.4byte	0x932
 2627 0b58 78030000 		.4byte	.LLST21
 2628 0b5c 00       		.byte	0
 2629 0b5d 23       		.uleb128 0x23
 2630 0b5e BA020000 		.4byte	.LBB140
 2631 0b62 C0020000 		.4byte	.LBE140
 2632 0b66 740B0000 		.4byte	0xb74
 2633 0b6a 1F       		.uleb128 0x1f
 2634 0b6b F0060000 		.4byte	0x6f0
 2635 0b6f 96030000 		.4byte	.LLST22
 2636 0b73 00       		.byte	0
 2637 0b74 23       		.uleb128 0x23
 2638 0b75 C0020000 		.4byte	.LBB141
 2639 0b79 C6020000 		.4byte	.LBE141
 2640 0b7d 8B0B0000 		.4byte	0xb8b
 2641 0b81 1F       		.uleb128 0x1f
 2642 0b82 01070000 		.4byte	0x701
 2643 0b86 A9030000 		.4byte	.LLST23
 2644 0b8a 00       		.byte	0
 2645 0b8b 23       		.uleb128 0x23
 2646 0b8c DC020000 		.4byte	.LBB142
 2647 0b90 EC020000 		.4byte	.LBE142
 2648 0b94 A20B0000 		.4byte	0xba2
 2649 0b98 1F       		.uleb128 0x1f
 2650 0b99 12070000 		.4byte	0x712
 2651 0b9d BC030000 		.4byte	.LLST24
 2652 0ba1 00       		.byte	0
 2653 0ba2 23       		.uleb128 0x23
 2654 0ba3 EC020000 		.4byte	.LBB143
 2655 0ba7 F0020000 		.4byte	.LBE143
 2656 0bab B90B0000 		.4byte	0xbb9
 2657 0baf 1F       		.uleb128 0x1f
 2658 0bb0 23070000 		.4byte	0x723
 2659 0bb4 DA030000 		.4byte	.LLST25
 2660 0bb8 00       		.byte	0
 2661 0bb9 23       		.uleb128 0x23
 2662 0bba F0020000 		.4byte	.LBB144
 2663 0bbe F6020000 		.4byte	.LBE144
 2664 0bc2 D00B0000 		.4byte	0xbd0
 2665 0bc6 1F       		.uleb128 0x1f
 2666 0bc7 34070000 		.4byte	0x734
 2667 0bcb ED030000 		.4byte	.LLST26
 2668 0bcf 00       		.byte	0
 2669 0bd0 24       		.uleb128 0x24
 2670 0bd1 48000000 		.4byte	.Ldebug_ranges0+0x48
 2671 0bd5 E30B0000 		.4byte	0xbe3
 2672 0bd9 1F       		.uleb128 0x1f
ARM GAS  /var/folders/5n/p_75w94d66l9ssrldxqdhh700000gn/T//ccHwdw52.s 			page 48


 2673 0bda 45070000 		.4byte	0x745
 2674 0bde 00040000 		.4byte	.LLST27
 2675 0be2 00       		.byte	0
 2676 0be3 23       		.uleb128 0x23
 2677 0be4 AA030000 		.4byte	.LBB147
 2678 0be8 B0030000 		.4byte	.LBE147
 2679 0bec FA0B0000 		.4byte	0xbfa
 2680 0bf0 1F       		.uleb128 0x1f
 2681 0bf1 56070000 		.4byte	0x756
 2682 0bf5 13040000 		.4byte	.LLST28
 2683 0bf9 00       		.byte	0
 2684 0bfa 24       		.uleb128 0x24
 2685 0bfb 60000000 		.4byte	.Ldebug_ranges0+0x60
 2686 0bff 0D0C0000 		.4byte	0xc0d
 2687 0c03 1F       		.uleb128 0x1f
 2688 0c04 67070000 		.4byte	0x767
 2689 0c08 26040000 		.4byte	.LLST29
 2690 0c0c 00       		.byte	0
 2691 0c0d 23       		.uleb128 0x23
 2692 0c0e F4030000 		.4byte	.LBB150
 2693 0c12 FA030000 		.4byte	.LBE150
 2694 0c16 240C0000 		.4byte	0xc24
 2695 0c1a 1F       		.uleb128 0x1f
 2696 0c1b 78070000 		.4byte	0x778
 2697 0c1f 39040000 		.4byte	.LLST30
 2698 0c23 00       		.byte	0
 2699 0c24 23       		.uleb128 0x23
 2700 0c25 0C040000 		.4byte	.LBB151
 2701 0c29 12040000 		.4byte	.LBE151
 2702 0c2d 3B0C0000 		.4byte	0xc3b
 2703 0c31 1F       		.uleb128 0x1f
 2704 0c32 89070000 		.4byte	0x789
 2705 0c36 4C040000 		.4byte	.LLST31
 2706 0c3a 00       		.byte	0
 2707 0c3b 23       		.uleb128 0x23
 2708 0c3c 18040000 		.4byte	.LBB152
 2709 0c40 1E040000 		.4byte	.LBE152
 2710 0c44 520C0000 		.4byte	0xc52
 2711 0c48 1F       		.uleb128 0x1f
 2712 0c49 AB070000 		.4byte	0x7ab
 2713 0c4d 6A040000 		.4byte	.LLST32
 2714 0c51 00       		.byte	0
 2715 0c52 23       		.uleb128 0x23
 2716 0c53 2E040000 		.4byte	.LBB153
 2717 0c57 34040000 		.4byte	.LBE153
 2718 0c5b 690C0000 		.4byte	0xc69
 2719 0c5f 1F       		.uleb128 0x1f
 2720 0c60 BC070000 		.4byte	0x7bc
 2721 0c64 7D040000 		.4byte	.LLST33
 2722 0c68 00       		.byte	0
 2723 0c69 23       		.uleb128 0x23
 2724 0c6a 52040000 		.4byte	.LBB154
 2725 0c6e 58040000 		.4byte	.LBE154
 2726 0c72 800C0000 		.4byte	0xc80
 2727 0c76 1F       		.uleb128 0x1f
 2728 0c77 DE070000 		.4byte	0x7de
 2729 0c7b 9B040000 		.4byte	.LLST34
ARM GAS  /var/folders/5n/p_75w94d66l9ssrldxqdhh700000gn/T//ccHwdw52.s 			page 49


 2730 0c7f 00       		.byte	0
 2731 0c80 24       		.uleb128 0x24
 2732 0c81 78000000 		.4byte	.Ldebug_ranges0+0x78
 2733 0c85 930C0000 		.4byte	0xc93
 2734 0c89 1F       		.uleb128 0x1f
 2735 0c8a EF070000 		.4byte	0x7ef
 2736 0c8e AE040000 		.4byte	.LLST35
 2737 0c92 00       		.byte	0
 2738 0c93 23       		.uleb128 0x23
 2739 0c94 10050000 		.4byte	.LBB157
 2740 0c98 16050000 		.4byte	.LBE157
 2741 0c9c AA0C0000 		.4byte	0xcaa
 2742 0ca0 1F       		.uleb128 0x1f
 2743 0ca1 00080000 		.4byte	0x800
 2744 0ca5 C1040000 		.4byte	.LLST36
 2745 0ca9 00       		.byte	0
 2746 0caa 24       		.uleb128 0x24
 2747 0cab 90000000 		.4byte	.Ldebug_ranges0+0x90
 2748 0caf BD0C0000 		.4byte	0xcbd
 2749 0cb3 1F       		.uleb128 0x1f
 2750 0cb4 11080000 		.4byte	0x811
 2751 0cb8 D4040000 		.4byte	.LLST37
 2752 0cbc 00       		.byte	0
 2753 0cbd 23       		.uleb128 0x23
 2754 0cbe 56050000 		.4byte	.LBB160
 2755 0cc2 5C050000 		.4byte	.LBE160
 2756 0cc6 D40C0000 		.4byte	0xcd4
 2757 0cca 1F       		.uleb128 0x1f
 2758 0ccb 22080000 		.4byte	0x822
 2759 0ccf E7040000 		.4byte	.LLST38
 2760 0cd3 00       		.byte	0
 2761 0cd4 23       		.uleb128 0x23
 2762 0cd5 6E050000 		.4byte	.LBB161
 2763 0cd9 74050000 		.4byte	.LBE161
 2764 0cdd EB0C0000 		.4byte	0xceb
 2765 0ce1 1F       		.uleb128 0x1f
 2766 0ce2 33080000 		.4byte	0x833
 2767 0ce6 FA040000 		.4byte	.LLST39
 2768 0cea 00       		.byte	0
 2769 0ceb 23       		.uleb128 0x23
 2770 0cec 7A050000 		.4byte	.LBB162
 2771 0cf0 80050000 		.4byte	.LBE162
 2772 0cf4 020D0000 		.4byte	0xd02
 2773 0cf8 1F       		.uleb128 0x1f
 2774 0cf9 55080000 		.4byte	0x855
 2775 0cfd 18050000 		.4byte	.LLST40
 2776 0d01 00       		.byte	0
 2777 0d02 23       		.uleb128 0x23
 2778 0d03 90050000 		.4byte	.LBB163
 2779 0d07 96050000 		.4byte	.LBE163
 2780 0d0b 190D0000 		.4byte	0xd19
 2781 0d0f 1F       		.uleb128 0x1f
 2782 0d10 66080000 		.4byte	0x866
 2783 0d14 2B050000 		.4byte	.LLST41
 2784 0d18 00       		.byte	0
 2785 0d19 23       		.uleb128 0x23
 2786 0d1a BE050000 		.4byte	.LBB164
ARM GAS  /var/folders/5n/p_75w94d66l9ssrldxqdhh700000gn/T//ccHwdw52.s 			page 50


 2787 0d1e C4050000 		.4byte	.LBE164
 2788 0d22 300D0000 		.4byte	0xd30
 2789 0d26 1F       		.uleb128 0x1f
 2790 0d27 88080000 		.4byte	0x888
 2791 0d2b 49050000 		.4byte	.LLST42
 2792 0d2f 00       		.byte	0
 2793 0d30 23       		.uleb128 0x23
 2794 0d31 D8050000 		.4byte	.LBB165
 2795 0d35 DE050000 		.4byte	.LBE165
 2796 0d39 470D0000 		.4byte	0xd47
 2797 0d3d 1F       		.uleb128 0x1f
 2798 0d3e 99080000 		.4byte	0x899
 2799 0d42 5C050000 		.4byte	.LLST43
 2800 0d46 00       		.byte	0
 2801 0d47 23       		.uleb128 0x23
 2802 0d48 E4050000 		.4byte	.LBB166
 2803 0d4c EA050000 		.4byte	.LBE166
 2804 0d50 5E0D0000 		.4byte	0xd5e
 2805 0d54 1F       		.uleb128 0x1f
 2806 0d55 BB080000 		.4byte	0x8bb
 2807 0d59 7A050000 		.4byte	.LLST44
 2808 0d5d 00       		.byte	0
 2809 0d5e 23       		.uleb128 0x23
 2810 0d5f FA050000 		.4byte	.LBB167
 2811 0d63 00060000 		.4byte	.LBE167
 2812 0d67 750D0000 		.4byte	0xd75
 2813 0d6b 1F       		.uleb128 0x1f
 2814 0d6c CC080000 		.4byte	0x8cc
 2815 0d70 8D050000 		.4byte	.LLST45
 2816 0d74 00       		.byte	0
 2817 0d75 23       		.uleb128 0x23
 2818 0d76 06060000 		.4byte	.LBB168
 2819 0d7a 0C060000 		.4byte	.LBE168
 2820 0d7e 8C0D0000 		.4byte	0xd8c
 2821 0d82 1F       		.uleb128 0x1f
 2822 0d83 EE080000 		.4byte	0x8ee
 2823 0d87 AB050000 		.4byte	.LLST46
 2824 0d8b 00       		.byte	0
 2825 0d8c 23       		.uleb128 0x23
 2826 0d8d 1E060000 		.4byte	.LBB169
 2827 0d91 24060000 		.4byte	.LBE169
 2828 0d95 A30D0000 		.4byte	0xda3
 2829 0d99 1F       		.uleb128 0x1f
 2830 0d9a FF080000 		.4byte	0x8ff
 2831 0d9e BE050000 		.4byte	.LLST47
 2832 0da2 00       		.byte	0
 2833 0da3 22       		.uleb128 0x22
 2834 0da4 2A060000 		.4byte	.LBB170
 2835 0da8 30060000 		.4byte	.LBE170
 2836 0dac 1F       		.uleb128 0x1f
 2837 0dad 21090000 		.4byte	0x921
 2838 0db1 DC050000 		.4byte	.LLST48
 2839 0db5 00       		.byte	0
 2840 0db6 00       		.byte	0
 2841 0db7 00       		.byte	0
 2842 0db8 00       		.byte	0
 2843 0db9 26       		.uleb128 0x26
ARM GAS  /var/folders/5n/p_75w94d66l9ssrldxqdhh700000gn/T//ccHwdw52.s 			page 51


 2844 0dba 4A000000 		.4byte	.LASF75
 2845 0dbe 0A       		.byte	0xa
 2846 0dbf AA       		.byte	0xaa
 2847 0dc0 37050000 		.4byte	0x537
 2848 0dc4 01       		.byte	0x1
 2849 0dc5 01       		.byte	0x1
 2850 0dc6 27       		.uleb128 0x27
 2851 0dc7 6D623100 		.ascii	"mb1\000"
 2852 0dcb 01       		.byte	0x1
 2853 0dcc 40       		.byte	0x40
 2854 0dcd 33040000 		.4byte	0x433
 2855 0dd1 05       		.byte	0x5
 2856 0dd2 03       		.byte	0x3
 2857 0dd3 00000000 		.4byte	mb1
 2858 0dd7 26       		.uleb128 0x26
 2859 0dd8 60010000 		.4byte	.LASF76
 2860 0ddc 01       		.byte	0x1
 2861 0ddd E2       		.byte	0xe2
 2862 0dde E40D0000 		.4byte	0xde4
 2863 0de2 01       		.byte	0x1
 2864 0de3 01       		.byte	0x1
 2865 0de4 10       		.uleb128 0x10
 2866 0de5 8B040000 		.4byte	0x48b
 2867 0de9 26       		.uleb128 0x26
 2868 0dea 4A000000 		.4byte	.LASF75
 2869 0dee 0A       		.byte	0xa
 2870 0def AA       		.byte	0xaa
 2871 0df0 37050000 		.4byte	0x537
 2872 0df4 01       		.byte	0x1
 2873 0df5 01       		.byte	0x1
 2874 0df6 28       		.uleb128 0x28
 2875 0df7 60010000 		.4byte	.LASF76
 2876 0dfb 01       		.byte	0x1
 2877 0dfc E2       		.byte	0xe2
 2878 0dfd E40D0000 		.4byte	0xde4
 2879 0e01 01       		.byte	0x1
 2880 0e02 05       		.byte	0x5
 2881 0e03 03       		.byte	0x3
 2882 0e04 00000000 		.4byte	testmbox1
 2883 0e08 13       		.uleb128 0x13
 2884 0e09 180E0000 		.4byte	0xe18
 2885 0e0d 180E0000 		.4byte	0xe18
 2886 0e11 14       		.uleb128 0x14
 2887 0e12 30000000 		.4byte	0x30
 2888 0e16 01       		.byte	0x1
 2889 0e17 00       		.byte	0
 2890 0e18 09       		.uleb128 0x9
 2891 0e19 04       		.byte	0x4
 2892 0e1a E40D0000 		.4byte	0xde4
 2893 0e1e 28       		.uleb128 0x28
 2894 0e1f 35000000 		.4byte	.LASF77
 2895 0e23 01       		.byte	0x1
 2896 0e24 EE       		.byte	0xee
 2897 0e25 300E0000 		.4byte	0xe30
 2898 0e29 01       		.byte	0x1
 2899 0e2a 05       		.byte	0x5
 2900 0e2b 03       		.byte	0x3
ARM GAS  /var/folders/5n/p_75w94d66l9ssrldxqdhh700000gn/T//ccHwdw52.s 			page 52


 2901 0e2c 00000000 		.4byte	patternmbox
 2902 0e30 10       		.uleb128 0x10
 2903 0e31 080E0000 		.4byte	0xe08
 2904 0e35 00       		.byte	0
 2905              		.section	.debug_abbrev,"",%progbits
 2906              	.Ldebug_abbrev0:
 2907 0000 01       		.uleb128 0x1
 2908 0001 11       		.uleb128 0x11
 2909 0002 01       		.byte	0x1
 2910 0003 25       		.uleb128 0x25
 2911 0004 0E       		.uleb128 0xe
 2912 0005 13       		.uleb128 0x13
 2913 0006 0B       		.uleb128 0xb
 2914 0007 03       		.uleb128 0x3
 2915 0008 0E       		.uleb128 0xe
 2916 0009 1B       		.uleb128 0x1b
 2917 000a 0E       		.uleb128 0xe
 2918 000b 11       		.uleb128 0x11
 2919 000c 01       		.uleb128 0x1
 2920 000d 52       		.uleb128 0x52
 2921 000e 01       		.uleb128 0x1
 2922 000f 55       		.uleb128 0x55
 2923 0010 06       		.uleb128 0x6
 2924 0011 10       		.uleb128 0x10
 2925 0012 06       		.uleb128 0x6
 2926 0013 00       		.byte	0
 2927 0014 00       		.byte	0
 2928 0015 02       		.uleb128 0x2
 2929 0016 24       		.uleb128 0x24
 2930 0017 00       		.byte	0
 2931 0018 0B       		.uleb128 0xb
 2932 0019 0B       		.uleb128 0xb
 2933 001a 3E       		.uleb128 0x3e
 2934 001b 0B       		.uleb128 0xb
 2935 001c 03       		.uleb128 0x3
 2936 001d 08       		.uleb128 0x8
 2937 001e 00       		.byte	0
 2938 001f 00       		.byte	0
 2939 0020 03       		.uleb128 0x3
 2940 0021 24       		.uleb128 0x24
 2941 0022 00       		.byte	0
 2942 0023 0B       		.uleb128 0xb
 2943 0024 0B       		.uleb128 0xb
 2944 0025 3E       		.uleb128 0x3e
 2945 0026 0B       		.uleb128 0xb
 2946 0027 03       		.uleb128 0x3
 2947 0028 0E       		.uleb128 0xe
 2948 0029 00       		.byte	0
 2949 002a 00       		.byte	0
 2950 002b 04       		.uleb128 0x4
 2951 002c 16       		.uleb128 0x16
 2952 002d 00       		.byte	0
 2953 002e 03       		.uleb128 0x3
 2954 002f 0E       		.uleb128 0xe
 2955 0030 3A       		.uleb128 0x3a
 2956 0031 0B       		.uleb128 0xb
 2957 0032 3B       		.uleb128 0x3b
ARM GAS  /var/folders/5n/p_75w94d66l9ssrldxqdhh700000gn/T//ccHwdw52.s 			page 53


 2958 0033 0B       		.uleb128 0xb
 2959 0034 49       		.uleb128 0x49
 2960 0035 13       		.uleb128 0x13
 2961 0036 00       		.byte	0
 2962 0037 00       		.byte	0
 2963 0038 05       		.uleb128 0x5
 2964 0039 13       		.uleb128 0x13
 2965 003a 01       		.byte	0x1
 2966 003b 03       		.uleb128 0x3
 2967 003c 0E       		.uleb128 0xe
 2968 003d 0B       		.uleb128 0xb
 2969 003e 0B       		.uleb128 0xb
 2970 003f 3A       		.uleb128 0x3a
 2971 0040 0B       		.uleb128 0xb
 2972 0041 3B       		.uleb128 0x3b
 2973 0042 0B       		.uleb128 0xb
 2974 0043 01       		.uleb128 0x1
 2975 0044 13       		.uleb128 0x13
 2976 0045 00       		.byte	0
 2977 0046 00       		.byte	0
 2978 0047 06       		.uleb128 0x6
 2979 0048 0D       		.uleb128 0xd
 2980 0049 00       		.byte	0
 2981 004a 03       		.uleb128 0x3
 2982 004b 0E       		.uleb128 0xe
 2983 004c 3A       		.uleb128 0x3a
 2984 004d 0B       		.uleb128 0xb
 2985 004e 3B       		.uleb128 0x3b
 2986 004f 0B       		.uleb128 0xb
 2987 0050 49       		.uleb128 0x49
 2988 0051 13       		.uleb128 0x13
 2989 0052 38       		.uleb128 0x38
 2990 0053 0A       		.uleb128 0xa
 2991 0054 00       		.byte	0
 2992 0055 00       		.byte	0
 2993 0056 07       		.uleb128 0x7
 2994 0057 0D       		.uleb128 0xd
 2995 0058 00       		.byte	0
 2996 0059 03       		.uleb128 0x3
 2997 005a 08       		.uleb128 0x8
 2998 005b 3A       		.uleb128 0x3a
 2999 005c 0B       		.uleb128 0xb
 3000 005d 3B       		.uleb128 0x3b
 3001 005e 0B       		.uleb128 0xb
 3002 005f 49       		.uleb128 0x49
 3003 0060 13       		.uleb128 0x13
 3004 0061 38       		.uleb128 0x38
 3005 0062 0A       		.uleb128 0xa
 3006 0063 00       		.byte	0
 3007 0064 00       		.byte	0
 3008 0065 08       		.uleb128 0x8
 3009 0066 13       		.uleb128 0x13
 3010 0067 01       		.byte	0x1
 3011 0068 0B       		.uleb128 0xb
 3012 0069 0B       		.uleb128 0xb
 3013 006a 3A       		.uleb128 0x3a
 3014 006b 0B       		.uleb128 0xb
ARM GAS  /var/folders/5n/p_75w94d66l9ssrldxqdhh700000gn/T//ccHwdw52.s 			page 54


 3015 006c 3B       		.uleb128 0x3b
 3016 006d 0B       		.uleb128 0xb
 3017 006e 01       		.uleb128 0x1
 3018 006f 13       		.uleb128 0x13
 3019 0070 00       		.byte	0
 3020 0071 00       		.byte	0
 3021 0072 09       		.uleb128 0x9
 3022 0073 0F       		.uleb128 0xf
 3023 0074 00       		.byte	0
 3024 0075 0B       		.uleb128 0xb
 3025 0076 0B       		.uleb128 0xb
 3026 0077 49       		.uleb128 0x49
 3027 0078 13       		.uleb128 0x13
 3028 0079 00       		.byte	0
 3029 007a 00       		.byte	0
 3030 007b 0A       		.uleb128 0xa
 3031 007c 0F       		.uleb128 0xf
 3032 007d 00       		.byte	0
 3033 007e 0B       		.uleb128 0xb
 3034 007f 0B       		.uleb128 0xb
 3035 0080 00       		.byte	0
 3036 0081 00       		.byte	0
 3037 0082 0B       		.uleb128 0xb
 3038 0083 13       		.uleb128 0x13
 3039 0084 01       		.byte	0x1
 3040 0085 03       		.uleb128 0x3
 3041 0086 0E       		.uleb128 0xe
 3042 0087 0B       		.uleb128 0xb
 3043 0088 0B       		.uleb128 0xb
 3044 0089 3A       		.uleb128 0x3a
 3045 008a 0B       		.uleb128 0xb
 3046 008b 3B       		.uleb128 0x3b
 3047 008c 05       		.uleb128 0x5
 3048 008d 01       		.uleb128 0x1
 3049 008e 13       		.uleb128 0x13
 3050 008f 00       		.byte	0
 3051 0090 00       		.byte	0
 3052 0091 0C       		.uleb128 0xc
 3053 0092 0D       		.uleb128 0xd
 3054 0093 00       		.byte	0
 3055 0094 03       		.uleb128 0x3
 3056 0095 08       		.uleb128 0x8
 3057 0096 3A       		.uleb128 0x3a
 3058 0097 0B       		.uleb128 0xb
 3059 0098 3B       		.uleb128 0x3b
 3060 0099 05       		.uleb128 0x5
 3061 009a 49       		.uleb128 0x49
 3062 009b 13       		.uleb128 0x13
 3063 009c 38       		.uleb128 0x38
 3064 009d 0A       		.uleb128 0xa
 3065 009e 00       		.byte	0
 3066 009f 00       		.byte	0
 3067 00a0 0D       		.uleb128 0xd
 3068 00a1 35       		.uleb128 0x35
 3069 00a2 00       		.byte	0
 3070 00a3 49       		.uleb128 0x49
 3071 00a4 13       		.uleb128 0x13
ARM GAS  /var/folders/5n/p_75w94d66l9ssrldxqdhh700000gn/T//ccHwdw52.s 			page 55


 3072 00a5 00       		.byte	0
 3073 00a6 00       		.byte	0
 3074 00a7 0E       		.uleb128 0xe
 3075 00a8 17       		.uleb128 0x17
 3076 00a9 01       		.byte	0x1
 3077 00aa 0B       		.uleb128 0xb
 3078 00ab 0B       		.uleb128 0xb
 3079 00ac 3A       		.uleb128 0x3a
 3080 00ad 0B       		.uleb128 0xb
 3081 00ae 3B       		.uleb128 0x3b
 3082 00af 0B       		.uleb128 0xb
 3083 00b0 01       		.uleb128 0x1
 3084 00b1 13       		.uleb128 0x13
 3085 00b2 00       		.byte	0
 3086 00b3 00       		.byte	0
 3087 00b4 0F       		.uleb128 0xf
 3088 00b5 0D       		.uleb128 0xd
 3089 00b6 00       		.byte	0
 3090 00b7 03       		.uleb128 0x3
 3091 00b8 0E       		.uleb128 0xe
 3092 00b9 3A       		.uleb128 0x3a
 3093 00ba 0B       		.uleb128 0xb
 3094 00bb 3B       		.uleb128 0x3b
 3095 00bc 0B       		.uleb128 0xb
 3096 00bd 49       		.uleb128 0x49
 3097 00be 13       		.uleb128 0x13
 3098 00bf 00       		.byte	0
 3099 00c0 00       		.byte	0
 3100 00c1 10       		.uleb128 0x10
 3101 00c2 26       		.uleb128 0x26
 3102 00c3 00       		.byte	0
 3103 00c4 49       		.uleb128 0x49
 3104 00c5 13       		.uleb128 0x13
 3105 00c6 00       		.byte	0
 3106 00c7 00       		.byte	0
 3107 00c8 11       		.uleb128 0x11
 3108 00c9 15       		.uleb128 0x15
 3109 00ca 00       		.byte	0
 3110 00cb 27       		.uleb128 0x27
 3111 00cc 0C       		.uleb128 0xc
 3112 00cd 00       		.byte	0
 3113 00ce 00       		.byte	0
 3114 00cf 12       		.uleb128 0x12
 3115 00d0 13       		.uleb128 0x13
 3116 00d1 01       		.byte	0x1
 3117 00d2 0B       		.uleb128 0xb
 3118 00d3 05       		.uleb128 0x5
 3119 00d4 3A       		.uleb128 0x3a
 3120 00d5 0B       		.uleb128 0xb
 3121 00d6 3B       		.uleb128 0x3b
 3122 00d7 0B       		.uleb128 0xb
 3123 00d8 01       		.uleb128 0x1
 3124 00d9 13       		.uleb128 0x13
 3125 00da 00       		.byte	0
 3126 00db 00       		.byte	0
 3127 00dc 13       		.uleb128 0x13
 3128 00dd 01       		.uleb128 0x1
ARM GAS  /var/folders/5n/p_75w94d66l9ssrldxqdhh700000gn/T//ccHwdw52.s 			page 56


 3129 00de 01       		.byte	0x1
 3130 00df 49       		.uleb128 0x49
 3131 00e0 13       		.uleb128 0x13
 3132 00e1 01       		.uleb128 0x1
 3133 00e2 13       		.uleb128 0x13
 3134 00e3 00       		.byte	0
 3135 00e4 00       		.byte	0
 3136 00e5 14       		.uleb128 0x14
 3137 00e6 21       		.uleb128 0x21
 3138 00e7 00       		.byte	0
 3139 00e8 49       		.uleb128 0x49
 3140 00e9 13       		.uleb128 0x13
 3141 00ea 2F       		.uleb128 0x2f
 3142 00eb 0B       		.uleb128 0xb
 3143 00ec 00       		.byte	0
 3144 00ed 00       		.byte	0
 3145 00ee 15       		.uleb128 0x15
 3146 00ef 17       		.uleb128 0x17
 3147 00f0 01       		.byte	0x1
 3148 00f1 03       		.uleb128 0x3
 3149 00f2 0E       		.uleb128 0xe
 3150 00f3 0B       		.uleb128 0xb
 3151 00f4 05       		.uleb128 0x5
 3152 00f5 3A       		.uleb128 0x3a
 3153 00f6 0B       		.uleb128 0xb
 3154 00f7 3B       		.uleb128 0x3b
 3155 00f8 0B       		.uleb128 0xb
 3156 00f9 01       		.uleb128 0x1
 3157 00fa 13       		.uleb128 0x13
 3158 00fb 00       		.byte	0
 3159 00fc 00       		.byte	0
 3160 00fd 16       		.uleb128 0x16
 3161 00fe 0D       		.uleb128 0xd
 3162 00ff 00       		.byte	0
 3163 0100 03       		.uleb128 0x3
 3164 0101 08       		.uleb128 0x8
 3165 0102 3A       		.uleb128 0x3a
 3166 0103 0B       		.uleb128 0xb
 3167 0104 3B       		.uleb128 0x3b
 3168 0105 0B       		.uleb128 0xb
 3169 0106 49       		.uleb128 0x49
 3170 0107 13       		.uleb128 0x13
 3171 0108 00       		.byte	0
 3172 0109 00       		.byte	0
 3173 010a 17       		.uleb128 0x17
 3174 010b 21       		.uleb128 0x21
 3175 010c 00       		.byte	0
 3176 010d 49       		.uleb128 0x49
 3177 010e 13       		.uleb128 0x13
 3178 010f 2F       		.uleb128 0x2f
 3179 0110 05       		.uleb128 0x5
 3180 0111 00       		.byte	0
 3181 0112 00       		.byte	0
 3182 0113 18       		.uleb128 0x18
 3183 0114 2E       		.uleb128 0x2e
 3184 0115 01       		.byte	0x1
 3185 0116 03       		.uleb128 0x3
ARM GAS  /var/folders/5n/p_75w94d66l9ssrldxqdhh700000gn/T//ccHwdw52.s 			page 57


 3186 0117 0E       		.uleb128 0xe
 3187 0118 3A       		.uleb128 0x3a
 3188 0119 0B       		.uleb128 0xb
 3189 011a 3B       		.uleb128 0x3b
 3190 011b 0B       		.uleb128 0xb
 3191 011c 27       		.uleb128 0x27
 3192 011d 0C       		.uleb128 0xc
 3193 011e 20       		.uleb128 0x20
 3194 011f 0B       		.uleb128 0xb
 3195 0120 01       		.uleb128 0x1
 3196 0121 13       		.uleb128 0x13
 3197 0122 00       		.byte	0
 3198 0123 00       		.byte	0
 3199 0124 19       		.uleb128 0x19
 3200 0125 34       		.uleb128 0x34
 3201 0126 00       		.byte	0
 3202 0127 03       		.uleb128 0x3
 3203 0128 0E       		.uleb128 0xe
 3204 0129 3A       		.uleb128 0x3a
 3205 012a 0B       		.uleb128 0xb
 3206 012b 3B       		.uleb128 0x3b
 3207 012c 0B       		.uleb128 0xb
 3208 012d 49       		.uleb128 0x49
 3209 012e 13       		.uleb128 0x13
 3210 012f 00       		.byte	0
 3211 0130 00       		.byte	0
 3212 0131 1A       		.uleb128 0x1a
 3213 0132 34       		.uleb128 0x34
 3214 0133 00       		.byte	0
 3215 0134 03       		.uleb128 0x3
 3216 0135 08       		.uleb128 0x8
 3217 0136 3A       		.uleb128 0x3a
 3218 0137 0B       		.uleb128 0xb
 3219 0138 3B       		.uleb128 0x3b
 3220 0139 0B       		.uleb128 0xb
 3221 013a 49       		.uleb128 0x49
 3222 013b 13       		.uleb128 0x13
 3223 013c 00       		.byte	0
 3224 013d 00       		.byte	0
 3225 013e 1B       		.uleb128 0x1b
 3226 013f 0B       		.uleb128 0xb
 3227 0140 01       		.byte	0x1
 3228 0141 01       		.uleb128 0x1
 3229 0142 13       		.uleb128 0x13
 3230 0143 00       		.byte	0
 3231 0144 00       		.byte	0
 3232 0145 1C       		.uleb128 0x1c
 3233 0146 0B       		.uleb128 0xb
 3234 0147 01       		.byte	0x1
 3235 0148 00       		.byte	0
 3236 0149 00       		.byte	0
 3237 014a 1D       		.uleb128 0x1d
 3238 014b 2E       		.uleb128 0x2e
 3239 014c 00       		.byte	0
 3240 014d 03       		.uleb128 0x3
 3241 014e 0E       		.uleb128 0xe
 3242 014f 3A       		.uleb128 0x3a
ARM GAS  /var/folders/5n/p_75w94d66l9ssrldxqdhh700000gn/T//ccHwdw52.s 			page 58


 3243 0150 0B       		.uleb128 0xb
 3244 0151 3B       		.uleb128 0x3b
 3245 0152 0B       		.uleb128 0xb
 3246 0153 27       		.uleb128 0x27
 3247 0154 0C       		.uleb128 0xc
 3248 0155 11       		.uleb128 0x11
 3249 0156 01       		.uleb128 0x1
 3250 0157 12       		.uleb128 0x12
 3251 0158 01       		.uleb128 0x1
 3252 0159 40       		.uleb128 0x40
 3253 015a 0A       		.uleb128 0xa
 3254 015b 00       		.byte	0
 3255 015c 00       		.byte	0
 3256 015d 1E       		.uleb128 0x1e
 3257 015e 2E       		.uleb128 0x2e
 3258 015f 01       		.byte	0x1
 3259 0160 31       		.uleb128 0x31
 3260 0161 13       		.uleb128 0x13
 3261 0162 11       		.uleb128 0x11
 3262 0163 01       		.uleb128 0x1
 3263 0164 12       		.uleb128 0x12
 3264 0165 01       		.uleb128 0x1
 3265 0166 40       		.uleb128 0x40
 3266 0167 06       		.uleb128 0x6
 3267 0168 01       		.uleb128 0x1
 3268 0169 13       		.uleb128 0x13
 3269 016a 00       		.byte	0
 3270 016b 00       		.byte	0
 3271 016c 1F       		.uleb128 0x1f
 3272 016d 34       		.uleb128 0x34
 3273 016e 00       		.byte	0
 3274 016f 31       		.uleb128 0x31
 3275 0170 13       		.uleb128 0x13
 3276 0171 02       		.uleb128 0x2
 3277 0172 06       		.uleb128 0x6
 3278 0173 00       		.byte	0
 3279 0174 00       		.byte	0
 3280 0175 20       		.uleb128 0x20
 3281 0176 34       		.uleb128 0x34
 3282 0177 00       		.byte	0
 3283 0178 31       		.uleb128 0x31
 3284 0179 13       		.uleb128 0x13
 3285 017a 00       		.byte	0
 3286 017b 00       		.byte	0
 3287 017c 21       		.uleb128 0x21
 3288 017d 1D       		.uleb128 0x1d
 3289 017e 01       		.byte	0x1
 3290 017f 31       		.uleb128 0x31
 3291 0180 13       		.uleb128 0x13
 3292 0181 11       		.uleb128 0x11
 3293 0182 01       		.uleb128 0x1
 3294 0183 12       		.uleb128 0x12
 3295 0184 01       		.uleb128 0x1
 3296 0185 58       		.uleb128 0x58
 3297 0186 0B       		.uleb128 0xb
 3298 0187 59       		.uleb128 0x59
 3299 0188 0B       		.uleb128 0xb
ARM GAS  /var/folders/5n/p_75w94d66l9ssrldxqdhh700000gn/T//ccHwdw52.s 			page 59


 3300 0189 00       		.byte	0
 3301 018a 00       		.byte	0
 3302 018b 22       		.uleb128 0x22
 3303 018c 0B       		.uleb128 0xb
 3304 018d 01       		.byte	0x1
 3305 018e 11       		.uleb128 0x11
 3306 018f 01       		.uleb128 0x1
 3307 0190 12       		.uleb128 0x12
 3308 0191 01       		.uleb128 0x1
 3309 0192 00       		.byte	0
 3310 0193 00       		.byte	0
 3311 0194 23       		.uleb128 0x23
 3312 0195 0B       		.uleb128 0xb
 3313 0196 01       		.byte	0x1
 3314 0197 11       		.uleb128 0x11
 3315 0198 01       		.uleb128 0x1
 3316 0199 12       		.uleb128 0x12
 3317 019a 01       		.uleb128 0x1
 3318 019b 01       		.uleb128 0x1
 3319 019c 13       		.uleb128 0x13
 3320 019d 00       		.byte	0
 3321 019e 00       		.byte	0
 3322 019f 24       		.uleb128 0x24
 3323 01a0 0B       		.uleb128 0xb
 3324 01a1 01       		.byte	0x1
 3325 01a2 55       		.uleb128 0x55
 3326 01a3 06       		.uleb128 0x6
 3327 01a4 01       		.uleb128 0x1
 3328 01a5 13       		.uleb128 0x13
 3329 01a6 00       		.byte	0
 3330 01a7 00       		.byte	0
 3331 01a8 25       		.uleb128 0x25
 3332 01a9 34       		.uleb128 0x34
 3333 01aa 00       		.byte	0
 3334 01ab 31       		.uleb128 0x31
 3335 01ac 13       		.uleb128 0x13
 3336 01ad 02       		.uleb128 0x2
 3337 01ae 0A       		.uleb128 0xa
 3338 01af 00       		.byte	0
 3339 01b0 00       		.byte	0
 3340 01b1 26       		.uleb128 0x26
 3341 01b2 34       		.uleb128 0x34
 3342 01b3 00       		.byte	0
 3343 01b4 03       		.uleb128 0x3
 3344 01b5 0E       		.uleb128 0xe
 3345 01b6 3A       		.uleb128 0x3a
 3346 01b7 0B       		.uleb128 0xb
 3347 01b8 3B       		.uleb128 0x3b
 3348 01b9 0B       		.uleb128 0xb
 3349 01ba 49       		.uleb128 0x49
 3350 01bb 13       		.uleb128 0x13
 3351 01bc 3F       		.uleb128 0x3f
 3352 01bd 0C       		.uleb128 0xc
 3353 01be 3C       		.uleb128 0x3c
 3354 01bf 0C       		.uleb128 0xc
 3355 01c0 00       		.byte	0
 3356 01c1 00       		.byte	0
ARM GAS  /var/folders/5n/p_75w94d66l9ssrldxqdhh700000gn/T//ccHwdw52.s 			page 60


 3357 01c2 27       		.uleb128 0x27
 3358 01c3 34       		.uleb128 0x34
 3359 01c4 00       		.byte	0
 3360 01c5 03       		.uleb128 0x3
 3361 01c6 08       		.uleb128 0x8
 3362 01c7 3A       		.uleb128 0x3a
 3363 01c8 0B       		.uleb128 0xb
 3364 01c9 3B       		.uleb128 0x3b
 3365 01ca 0B       		.uleb128 0xb
 3366 01cb 49       		.uleb128 0x49
 3367 01cc 13       		.uleb128 0x13
 3368 01cd 02       		.uleb128 0x2
 3369 01ce 0A       		.uleb128 0xa
 3370 01cf 00       		.byte	0
 3371 01d0 00       		.byte	0
 3372 01d1 28       		.uleb128 0x28
 3373 01d2 34       		.uleb128 0x34
 3374 01d3 00       		.byte	0
 3375 01d4 03       		.uleb128 0x3
 3376 01d5 0E       		.uleb128 0xe
 3377 01d6 3A       		.uleb128 0x3a
 3378 01d7 0B       		.uleb128 0xb
 3379 01d8 3B       		.uleb128 0x3b
 3380 01d9 0B       		.uleb128 0xb
 3381 01da 49       		.uleb128 0x49
 3382 01db 13       		.uleb128 0x13
 3383 01dc 3F       		.uleb128 0x3f
 3384 01dd 0C       		.uleb128 0xc
 3385 01de 02       		.uleb128 0x2
 3386 01df 0A       		.uleb128 0xa
 3387 01e0 00       		.byte	0
 3388 01e1 00       		.byte	0
 3389 01e2 00       		.byte	0
 3390              		.section	.debug_loc,"",%progbits
 3391              	.Ldebug_loc0:
 3392              	.LLST0:
 3393 0000 00000000 		.4byte	.LFB8
 3394 0004 02000000 		.4byte	.LCFI0
 3395 0008 0200     		.2byte	0x2
 3396 000a 7D       		.byte	0x7d
 3397 000b 00       		.sleb128 0
 3398 000c 02000000 		.4byte	.LCFI0
 3399 0010 14000000 		.4byte	.LCFI1
 3400 0014 0200     		.2byte	0x2
 3401 0016 7D       		.byte	0x7d
 3402 0017 14       		.sleb128 20
 3403 0018 14000000 		.4byte	.LCFI1
 3404 001c 4C060000 		.4byte	.LFE8
 3405 0020 0200     		.2byte	0x2
 3406 0022 7D       		.byte	0x7d
 3407 0023 20       		.sleb128 32
 3408 0024 00000000 		.4byte	0
 3409 0028 00000000 		.4byte	0
 3410              	.LLST1:
 3411 002c 2A000000 		.4byte	.LVL0
 3412 0030 34000000 		.4byte	.LVL1
 3413 0034 0100     		.2byte	0x1
ARM GAS  /var/folders/5n/p_75w94d66l9ssrldxqdhh700000gn/T//ccHwdw52.s 			page 61


 3414 0036 50       		.byte	0x50
 3415 0037 4C000000 		.4byte	.LVL2
 3416 003b 56000000 		.4byte	.LVL3
 3417 003f 0100     		.2byte	0x1
 3418 0041 50       		.byte	0x50
 3419 0042 00000000 		.4byte	0
 3420 0046 00000000 		.4byte	0
 3421              	.LLST2:
 3422 004a 6A000000 		.4byte	.LVL6
 3423 004e 78000000 		.4byte	.LVL7
 3424 0052 0100     		.2byte	0x1
 3425 0054 50       		.byte	0x50
 3426 0055 78000000 		.4byte	.LVL7
 3427 0059 7B000000 		.4byte	.LVL8-1
 3428 005d 0300     		.2byte	0x3
 3429 005f 7C       		.byte	0x7c
 3430 0060 7F       		.sleb128 -1
 3431 0061 9F       		.byte	0x9f
 3432 0062 94000000 		.4byte	.LVL13
 3433 0066 9E000000 		.4byte	.LVL15
 3434 006a 0100     		.2byte	0x1
 3435 006c 50       		.byte	0x50
 3436 006d 9E000000 		.4byte	.LVL15
 3437 0071 A2000000 		.4byte	.LVL16
 3438 0075 0100     		.2byte	0x1
 3439 0077 51       		.byte	0x51
 3440 0078 A2000000 		.4byte	.LVL16
 3441 007c A9000000 		.4byte	.LVL17-1
 3442 0080 0300     		.2byte	0x3
 3443 0082 7E       		.byte	0x7e
 3444 0083 7F       		.sleb128 -1
 3445 0084 9F       		.byte	0x9f
 3446 0085 B8000000 		.4byte	.LVL18
 3447 0089 C4000000 		.4byte	.LVL19
 3448 008d 0100     		.2byte	0x1
 3449 008f 50       		.byte	0x50
 3450 0090 C4000000 		.4byte	.LVL19
 3451 0094 C7000000 		.4byte	.LVL20-1
 3452 0098 0300     		.2byte	0x3
 3453 009a 72       		.byte	0x72
 3454 009b 7F       		.sleb128 -1
 3455 009c 9F       		.byte	0x9f
 3456 009d E0000000 		.4byte	.LVL25
 3457 00a1 EA000000 		.4byte	.LVL28
 3458 00a5 0100     		.2byte	0x1
 3459 00a7 50       		.byte	0x50
 3460 00a8 EA000000 		.4byte	.LVL28
 3461 00ac EC000000 		.4byte	.LVL29
 3462 00b0 0100     		.2byte	0x1
 3463 00b2 51       		.byte	0x51
 3464 00b3 EC000000 		.4byte	.LVL29
 3465 00b7 F3000000 		.4byte	.LVL30-1
 3466 00bb 0300     		.2byte	0x3
 3467 00bd 73       		.byte	0x73
 3468 00be 7F       		.sleb128 -1
 3469 00bf 9F       		.byte	0x9f
 3470 00c0 84010000 		.4byte	.LVL50
ARM GAS  /var/folders/5n/p_75w94d66l9ssrldxqdhh700000gn/T//ccHwdw52.s 			page 62


 3471 00c4 8E010000 		.4byte	.LVL51
 3472 00c8 0100     		.2byte	0x1
 3473 00ca 50       		.byte	0x50
 3474 00cb BE010000 		.4byte	.LVL52
 3475 00cf C8010000 		.4byte	.LVL53
 3476 00d3 0100     		.2byte	0x1
 3477 00d5 50       		.byte	0x50
 3478 00d6 DE010000 		.4byte	.LVL54
 3479 00da E8010000 		.4byte	.LVL55
 3480 00de 0100     		.2byte	0x1
 3481 00e0 50       		.byte	0x50
 3482 00e1 2C020000 		.4byte	.LVL56
 3483 00e5 3A020000 		.4byte	.LVL57
 3484 00e9 0100     		.2byte	0x1
 3485 00eb 50       		.byte	0x50
 3486 00ec 3A020000 		.4byte	.LVL57
 3487 00f0 3D020000 		.4byte	.LVL58-1
 3488 00f4 0300     		.2byte	0x3
 3489 00f6 7C       		.byte	0x7c
 3490 00f7 7F       		.sleb128 -1
 3491 00f8 9F       		.byte	0x9f
 3492 00f9 56020000 		.4byte	.LVL63
 3493 00fd 60020000 		.4byte	.LVL65
 3494 0101 0100     		.2byte	0x1
 3495 0103 50       		.byte	0x50
 3496 0104 60020000 		.4byte	.LVL65
 3497 0108 64020000 		.4byte	.LVL66
 3498 010c 0100     		.2byte	0x1
 3499 010e 51       		.byte	0x51
 3500 010f 64020000 		.4byte	.LVL66
 3501 0113 6B020000 		.4byte	.LVL67-1
 3502 0117 0300     		.2byte	0x3
 3503 0119 7E       		.byte	0x7e
 3504 011a 7F       		.sleb128 -1
 3505 011b 9F       		.byte	0x9f
 3506 011c FE020000 		.4byte	.LVL87
 3507 0120 08030000 		.4byte	.LVL88
 3508 0124 0100     		.2byte	0x1
 3509 0126 50       		.byte	0x50
 3510 0127 1A030000 		.4byte	.LVL89
 3511 012b 24030000 		.4byte	.LVL90
 3512 012f 0100     		.2byte	0x1
 3513 0131 50       		.byte	0x50
 3514 0132 36030000 		.4byte	.LVL91
 3515 0136 40030000 		.4byte	.LVL92
 3516 013a 0100     		.2byte	0x1
 3517 013c 50       		.byte	0x50
 3518 013d 52030000 		.4byte	.LVL93
 3519 0141 5C030000 		.4byte	.LVL94
 3520 0145 0100     		.2byte	0x1
 3521 0147 50       		.byte	0x50
 3522 0148 74030000 		.4byte	.LVL96
 3523 014c 7A030000 		.4byte	.LVL98
 3524 0150 0100     		.2byte	0x1
 3525 0152 50       		.byte	0x50
 3526 0153 7A030000 		.4byte	.LVL98
 3527 0157 7E030000 		.4byte	.LVL99
ARM GAS  /var/folders/5n/p_75w94d66l9ssrldxqdhh700000gn/T//ccHwdw52.s 			page 63


 3528 015b 0100     		.2byte	0x1
 3529 015d 51       		.byte	0x51
 3530 015e BE030000 		.4byte	.LVL105
 3531 0162 C8030000 		.4byte	.LVL108
 3532 0166 0100     		.2byte	0x1
 3533 0168 50       		.byte	0x50
 3534 0169 C8030000 		.4byte	.LVL108
 3535 016d CC030000 		.4byte	.LVL109
 3536 0171 0100     		.2byte	0x1
 3537 0173 51       		.byte	0x51
 3538 0174 CC030000 		.4byte	.LVL109
 3539 0178 D3030000 		.4byte	.LVL110-1
 3540 017c 0100     		.2byte	0x1
 3541 017e 5E       		.byte	0x5e
 3542 017f 60040000 		.4byte	.LVL122
 3543 0183 6A040000 		.4byte	.LVL123
 3544 0187 0100     		.2byte	0x1
 3545 0189 50       		.byte	0x50
 3546 018a 7C040000 		.4byte	.LVL124
 3547 018e 86040000 		.4byte	.LVL125
 3548 0192 0100     		.2byte	0x1
 3549 0194 50       		.byte	0x50
 3550 0195 98040000 		.4byte	.LVL126
 3551 0199 A2040000 		.4byte	.LVL127
 3552 019d 0100     		.2byte	0x1
 3553 019f 50       		.byte	0x50
 3554 01a0 B4040000 		.4byte	.LVL128
 3555 01a4 BE040000 		.4byte	.LVL129
 3556 01a8 0100     		.2byte	0x1
 3557 01aa 50       		.byte	0x50
 3558 01ab D6040000 		.4byte	.LVL131
 3559 01af E0040000 		.4byte	.LVL134
 3560 01b3 0100     		.2byte	0x1
 3561 01b5 50       		.byte	0x50
 3562 01b6 E0040000 		.4byte	.LVL134
 3563 01ba E4040000 		.4byte	.LVL135
 3564 01be 0100     		.2byte	0x1
 3565 01c0 51       		.byte	0x51
 3566 01c1 E4040000 		.4byte	.LVL135
 3567 01c5 EB040000 		.4byte	.LVL136-1
 3568 01c9 0100     		.2byte	0x1
 3569 01cb 5C       		.byte	0x5c
 3570 01cc 24050000 		.4byte	.LVL141
 3571 01d0 2C050000 		.4byte	.LVL144
 3572 01d4 0100     		.2byte	0x1
 3573 01d6 50       		.byte	0x50
 3574 01d7 2C050000 		.4byte	.LVL144
 3575 01db 2E050000 		.4byte	.LVL145
 3576 01df 0100     		.2byte	0x1
 3577 01e1 51       		.byte	0x51
 3578 01e2 2E050000 		.4byte	.LVL145
 3579 01e6 35050000 		.4byte	.LVL146-1
 3580 01ea 0100     		.2byte	0x1
 3581 01ec 52       		.byte	0x52
 3582 01ed 00000000 		.4byte	0
 3583 01f1 00000000 		.4byte	0
 3584              	.LLST3:
ARM GAS  /var/folders/5n/p_75w94d66l9ssrldxqdhh700000gn/T//ccHwdw52.s 			page 64


 3585 01f5 74010000 		.4byte	.LVL48
 3586 01f9 76010000 		.4byte	.LVL49
 3587 01fd 0200     		.2byte	0x2
 3588 01ff 30       		.byte	0x30
 3589 0200 9F       		.byte	0x9f
 3590 0201 00000000 		.4byte	0
 3591 0205 00000000 		.4byte	0
 3592              	.LLST4:
 3593 0209 88000000 		.4byte	.LVL10
 3594 020d 8F000000 		.4byte	.LVL11-1
 3595 0211 0100     		.2byte	0x1
 3596 0213 53       		.byte	0x53
 3597 0214 00000000 		.4byte	0
 3598 0218 00000000 		.4byte	0
 3599              	.LLST5:
 3600 021c 98000000 		.4byte	.LVL14
 3601 0220 A9000000 		.4byte	.LVL17-1
 3602 0224 0100     		.2byte	0x1
 3603 0226 53       		.byte	0x53
 3604 0227 00000000 		.4byte	0
 3605 022b 00000000 		.4byte	0
 3606              	.LLST6:
 3607 022f D4000000 		.4byte	.LVL22
 3608 0233 DB000000 		.4byte	.LVL23-1
 3609 0237 0100     		.2byte	0x1
 3610 0239 53       		.byte	0x53
 3611 023a 00000000 		.4byte	0
 3612 023e 00000000 		.4byte	0
 3613              	.LLST7:
 3614 0242 E4000000 		.4byte	.LVL26
 3615 0246 E8000000 		.4byte	.LVL27
 3616 024a 0100     		.2byte	0x1
 3617 024c 53       		.byte	0x53
 3618 024d 00000000 		.4byte	0
 3619 0251 00000000 		.4byte	0
 3620              	.LLST8:
 3621 0255 00010000 		.4byte	.LVL32
 3622 0259 0F010000 		.4byte	.LVL33-1
 3623 025d 0100     		.2byte	0x1
 3624 025f 53       		.byte	0x53
 3625 0260 00000000 		.4byte	0
 3626 0264 00000000 		.4byte	0
 3627              	.LLST9:
 3628 0268 5C000000 		.4byte	.LVL4
 3629 026c 60000000 		.4byte	.LVL5
 3630 0270 0100     		.2byte	0x1
 3631 0272 53       		.byte	0x53
 3632 0273 1A010000 		.4byte	.LVL34
 3633 0277 1C010000 		.4byte	.LVL35
 3634 027b 0100     		.2byte	0x1
 3635 027d 53       		.byte	0x53
 3636 027e 00000000 		.4byte	0
 3637 0282 00000000 		.4byte	0
 3638              	.LLST10:
 3639 0286 22010000 		.4byte	.LVL37
 3640 028a 24010000 		.4byte	.LVL38
 3641 028e 0100     		.2byte	0x1
ARM GAS  /var/folders/5n/p_75w94d66l9ssrldxqdhh700000gn/T//ccHwdw52.s 			page 65


 3642 0290 53       		.byte	0x53
 3643 0291 00000000 		.4byte	0
 3644 0295 00000000 		.4byte	0
 3645              	.LLST11:
 3646 0299 28010000 		.4byte	.LVL39
 3647 029d 3B010000 		.4byte	.LVL40-1
 3648 02a1 0100     		.2byte	0x1
 3649 02a3 53       		.byte	0x53
 3650 02a4 00000000 		.4byte	0
 3651 02a8 00000000 		.4byte	0
 3652              	.LLST12:
 3653 02ac 5C000000 		.4byte	.LVL4
 3654 02b0 60000000 		.4byte	.LVL5
 3655 02b4 0100     		.2byte	0x1
 3656 02b6 53       		.byte	0x53
 3657 02b7 46010000 		.4byte	.LVL41
 3658 02bb 48010000 		.4byte	.LVL42
 3659 02bf 0100     		.2byte	0x1
 3660 02c1 53       		.byte	0x53
 3661 02c2 00000000 		.4byte	0
 3662 02c6 00000000 		.4byte	0
 3663              	.LLST13:
 3664 02ca 4C010000 		.4byte	.LVL43
 3665 02ce 4E010000 		.4byte	.LVL44
 3666 02d2 0100     		.2byte	0x1
 3667 02d4 53       		.byte	0x53
 3668 02d5 00000000 		.4byte	0
 3669 02d9 00000000 		.4byte	0
 3670              	.LLST14:
 3671 02dd 52010000 		.4byte	.LVL45
 3672 02e1 56010000 		.4byte	.LVL46
 3673 02e5 0100     		.2byte	0x1
 3674 02e7 53       		.byte	0x53
 3675 02e8 00000000 		.4byte	0
 3676 02ec 00000000 		.4byte	0
 3677              	.LLST15:
 3678 02f0 5C000000 		.4byte	.LVL4
 3679 02f4 60000000 		.4byte	.LVL5
 3680 02f8 0100     		.2byte	0x1
 3681 02fa 53       		.byte	0x53
 3682 02fb 6E010000 		.4byte	.LVL47
 3683 02ff 83010000 		.4byte	.LVL50-1
 3684 0303 0100     		.2byte	0x1
 3685 0305 53       		.byte	0x53
 3686 0306 00000000 		.4byte	0
 3687 030a 00000000 		.4byte	0
 3688              	.LLST16:
 3689 030e 4A020000 		.4byte	.LVL60
 3690 0312 51020000 		.4byte	.LVL61-1
 3691 0316 0100     		.2byte	0x1
 3692 0318 53       		.byte	0x53
 3693 0319 00000000 		.4byte	0
 3694 031d 00000000 		.4byte	0
 3695              	.LLST17:
 3696 0321 5A020000 		.4byte	.LVL64
 3697 0325 6B020000 		.4byte	.LVL67-1
 3698 0329 0100     		.2byte	0x1
ARM GAS  /var/folders/5n/p_75w94d66l9ssrldxqdhh700000gn/T//ccHwdw52.s 			page 66


 3699 032b 53       		.byte	0x53
 3700 032c 00000000 		.4byte	0
 3701 0330 00000000 		.4byte	0
 3702              	.LLST18:
 3703 0334 78020000 		.4byte	.LVL69
 3704 0338 89020000 		.4byte	.LVL70-1
 3705 033c 0100     		.2byte	0x1
 3706 033e 53       		.byte	0x53
 3707 033f 00000000 		.4byte	0
 3708 0343 00000000 		.4byte	0
 3709              	.LLST19:
 3710 0347 5C000000 		.4byte	.LVL4
 3711 034b 60000000 		.4byte	.LVL5
 3712 034f 0100     		.2byte	0x1
 3713 0351 53       		.byte	0x53
 3714 0352 90020000 		.4byte	.LVL71
 3715 0356 98020000 		.4byte	.LVL72
 3716 035a 0100     		.2byte	0x1
 3717 035c 53       		.byte	0x53
 3718 035d 00000000 		.4byte	0
 3719 0361 00000000 		.4byte	0
 3720              	.LLST20:
 3721 0365 9C020000 		.4byte	.LVL73
 3722 0369 AD020000 		.4byte	.LVL74-1
 3723 036d 0100     		.2byte	0x1
 3724 036f 53       		.byte	0x53
 3725 0370 00000000 		.4byte	0
 3726 0374 00000000 		.4byte	0
 3727              	.LLST21:
 3728 0378 5C000000 		.4byte	.LVL4
 3729 037c 60000000 		.4byte	.LVL5
 3730 0380 0100     		.2byte	0x1
 3731 0382 53       		.byte	0x53
 3732 0383 B8020000 		.4byte	.LVL75
 3733 0387 BA020000 		.4byte	.LVL76
 3734 038b 0100     		.2byte	0x1
 3735 038d 53       		.byte	0x53
 3736 038e 00000000 		.4byte	0
 3737 0392 00000000 		.4byte	0
 3738              	.LLST22:
 3739 0396 C0020000 		.4byte	.LVL78
 3740 039a C2020000 		.4byte	.LVL79
 3741 039e 0100     		.2byte	0x1
 3742 03a0 53       		.byte	0x53
 3743 03a1 00000000 		.4byte	0
 3744 03a5 00000000 		.4byte	0
 3745              	.LLST23:
 3746 03a9 C6020000 		.4byte	.LVL80
 3747 03ad CA020000 		.4byte	.LVL81
 3748 03b1 0100     		.2byte	0x1
 3749 03b3 53       		.byte	0x53
 3750 03b4 00000000 		.4byte	0
 3751 03b8 00000000 		.4byte	0
 3752              	.LLST24:
 3753 03bc 5C000000 		.4byte	.LVL4
 3754 03c0 60000000 		.4byte	.LVL5
 3755 03c4 0100     		.2byte	0x1
ARM GAS  /var/folders/5n/p_75w94d66l9ssrldxqdhh700000gn/T//ccHwdw52.s 			page 67


 3756 03c6 53       		.byte	0x53
 3757 03c7 E2020000 		.4byte	.LVL82
 3758 03cb EC020000 		.4byte	.LVL83
 3759 03cf 0100     		.2byte	0x1
 3760 03d1 53       		.byte	0x53
 3761 03d2 00000000 		.4byte	0
 3762 03d6 00000000 		.4byte	0
 3763              	.LLST25:
 3764 03da F0020000 		.4byte	.LVL84
 3765 03de F2020000 		.4byte	.LVL85
 3766 03e2 0100     		.2byte	0x1
 3767 03e4 53       		.byte	0x53
 3768 03e5 00000000 		.4byte	0
 3769 03e9 00000000 		.4byte	0
 3770              	.LLST26:
 3771 03ed F6020000 		.4byte	.LVL86
 3772 03f1 FD020000 		.4byte	.LVL87-1
 3773 03f5 0100     		.2byte	0x1
 3774 03f7 53       		.byte	0x53
 3775 03f8 00000000 		.4byte	0
 3776 03fc 00000000 		.4byte	0
 3777              	.LLST27:
 3778 0400 78030000 		.4byte	.LVL97
 3779 0404 85030000 		.4byte	.LVL100-1
 3780 0408 0100     		.2byte	0x1
 3781 040a 53       		.byte	0x53
 3782 040b 00000000 		.4byte	0
 3783 040f 00000000 		.4byte	0
 3784              	.LLST28:
 3785 0413 B0030000 		.4byte	.LVL102
 3786 0417 B9030000 		.4byte	.LVL103-1
 3787 041b 0100     		.2byte	0x1
 3788 041d 53       		.byte	0x53
 3789 041e 00000000 		.4byte	0
 3790 0422 00000000 		.4byte	0
 3791              	.LLST29:
 3792 0426 C2030000 		.4byte	.LVL106
 3793 042a C6030000 		.4byte	.LVL107
 3794 042e 0100     		.2byte	0x1
 3795 0430 53       		.byte	0x53
 3796 0431 00000000 		.4byte	0
 3797 0435 00000000 		.4byte	0
 3798              	.LLST30:
 3799 0439 FA030000 		.4byte	.LVL112
 3800 043d 0B040000 		.4byte	.LVL113-1
 3801 0441 0100     		.2byte	0x1
 3802 0443 53       		.byte	0x53
 3803 0444 00000000 		.4byte	0
 3804 0448 00000000 		.4byte	0
 3805              	.LLST31:
 3806 044c 5C000000 		.4byte	.LVL4
 3807 0450 60000000 		.4byte	.LVL5
 3808 0454 0100     		.2byte	0x1
 3809 0456 53       		.byte	0x53
 3810 0457 12040000 		.4byte	.LVL114
 3811 045b 1A040000 		.4byte	.LVL115
 3812 045f 0100     		.2byte	0x1
ARM GAS  /var/folders/5n/p_75w94d66l9ssrldxqdhh700000gn/T//ccHwdw52.s 			page 68


 3813 0461 53       		.byte	0x53
 3814 0462 00000000 		.4byte	0
 3815 0466 00000000 		.4byte	0
 3816              	.LLST32:
 3817 046a 1E040000 		.4byte	.LVL116
 3818 046e 2D040000 		.4byte	.LVL117-1
 3819 0472 0100     		.2byte	0x1
 3820 0474 53       		.byte	0x53
 3821 0475 00000000 		.4byte	0
 3822 0479 00000000 		.4byte	0
 3823              	.LLST33:
 3824 047d 5C000000 		.4byte	.LVL4
 3825 0481 60000000 		.4byte	.LVL5
 3826 0485 0100     		.2byte	0x1
 3827 0487 53       		.byte	0x53
 3828 0488 34040000 		.4byte	.LVL118
 3829 048c 3E040000 		.4byte	.LVL119
 3830 0490 0100     		.2byte	0x1
 3831 0492 53       		.byte	0x53
 3832 0493 00000000 		.4byte	0
 3833 0497 00000000 		.4byte	0
 3834              	.LLST34:
 3835 049b 58040000 		.4byte	.LVL121
 3836 049f 5F040000 		.4byte	.LVL122-1
 3837 04a3 0100     		.2byte	0x1
 3838 04a5 53       		.byte	0x53
 3839 04a6 00000000 		.4byte	0
 3840 04aa 00000000 		.4byte	0
 3841              	.LLST35:
 3842 04ae DA040000 		.4byte	.LVL132
 3843 04b2 DE040000 		.4byte	.LVL133
 3844 04b6 0100     		.2byte	0x1
 3845 04b8 53       		.byte	0x53
 3846 04b9 00000000 		.4byte	0
 3847 04bd 00000000 		.4byte	0
 3848              	.LLST36:
 3849 04c1 16050000 		.4byte	.LVL138
 3850 04c5 1F050000 		.4byte	.LVL139-1
 3851 04c9 0100     		.2byte	0x1
 3852 04cb 53       		.byte	0x53
 3853 04cc 00000000 		.4byte	0
 3854 04d0 00000000 		.4byte	0
 3855              	.LLST37:
 3856 04d4 28050000 		.4byte	.LVL142
 3857 04d8 2A050000 		.4byte	.LVL143
 3858 04dc 0100     		.2byte	0x1
 3859 04de 53       		.byte	0x53
 3860 04df 00000000 		.4byte	0
 3861 04e3 00000000 		.4byte	0
 3862              	.LLST38:
 3863 04e7 5C050000 		.4byte	.LVL148
 3864 04eb 62050000 		.4byte	.LVL149
 3865 04ef 0100     		.2byte	0x1
 3866 04f1 53       		.byte	0x53
 3867 04f2 00000000 		.4byte	0
 3868 04f6 00000000 		.4byte	0
 3869              	.LLST39:
ARM GAS  /var/folders/5n/p_75w94d66l9ssrldxqdhh700000gn/T//ccHwdw52.s 			page 69


 3870 04fa 5C000000 		.4byte	.LVL4
 3871 04fe 60000000 		.4byte	.LVL5
 3872 0502 0100     		.2byte	0x1
 3873 0504 53       		.byte	0x53
 3874 0505 74050000 		.4byte	.LVL150
 3875 0509 7C050000 		.4byte	.LVL151
 3876 050d 0100     		.2byte	0x1
 3877 050f 53       		.byte	0x53
 3878 0510 00000000 		.4byte	0
 3879 0514 00000000 		.4byte	0
 3880              	.LLST40:
 3881 0518 80050000 		.4byte	.LVL152
 3882 051c 8F050000 		.4byte	.LVL153-1
 3883 0520 0100     		.2byte	0x1
 3884 0522 53       		.byte	0x53
 3885 0523 00000000 		.4byte	0
 3886 0527 00000000 		.4byte	0
 3887              	.LLST41:
 3888 052b 5C000000 		.4byte	.LVL4
 3889 052f 60000000 		.4byte	.LVL5
 3890 0533 0100     		.2byte	0x1
 3891 0535 53       		.byte	0x53
 3892 0536 96050000 		.4byte	.LVL154
 3893 053a A0050000 		.4byte	.LVL155
 3894 053e 0100     		.2byte	0x1
 3895 0540 53       		.byte	0x53
 3896 0541 00000000 		.4byte	0
 3897 0545 00000000 		.4byte	0
 3898              	.LLST42:
 3899 0549 C4050000 		.4byte	.LVL157
 3900 054d D7050000 		.4byte	.LVL158-1
 3901 0551 0100     		.2byte	0x1
 3902 0553 53       		.byte	0x53
 3903 0554 00000000 		.4byte	0
 3904 0558 00000000 		.4byte	0
 3905              	.LLST43:
 3906 055c 5C000000 		.4byte	.LVL4
 3907 0560 60000000 		.4byte	.LVL5
 3908 0564 0100     		.2byte	0x1
 3909 0566 53       		.byte	0x53
 3910 0567 DE050000 		.4byte	.LVL159
 3911 056b E6050000 		.4byte	.LVL160
 3912 056f 0100     		.2byte	0x1
 3913 0571 53       		.byte	0x53
 3914 0572 00000000 		.4byte	0
 3915 0576 00000000 		.4byte	0
 3916              	.LLST44:
 3917 057a EA050000 		.4byte	.LVL161
 3918 057e F9050000 		.4byte	.LVL162-1
 3919 0582 0100     		.2byte	0x1
 3920 0584 53       		.byte	0x53
 3921 0585 00000000 		.4byte	0
 3922 0589 00000000 		.4byte	0
 3923              	.LLST45:
 3924 058d 5C000000 		.4byte	.LVL4
 3925 0591 60000000 		.4byte	.LVL5
 3926 0595 0100     		.2byte	0x1
ARM GAS  /var/folders/5n/p_75w94d66l9ssrldxqdhh700000gn/T//ccHwdw52.s 			page 70


 3927 0597 53       		.byte	0x53
 3928 0598 00060000 		.4byte	.LVL163
 3929 059c 08060000 		.4byte	.LVL164
 3930 05a0 0100     		.2byte	0x1
 3931 05a2 53       		.byte	0x53
 3932 05a3 00000000 		.4byte	0
 3933 05a7 00000000 		.4byte	0
 3934              	.LLST46:
 3935 05ab 0C060000 		.4byte	.LVL165
 3936 05af 10060000 		.4byte	.LVL166
 3937 05b3 0100     		.2byte	0x1
 3938 05b5 53       		.byte	0x53
 3939 05b6 00000000 		.4byte	0
 3940 05ba 00000000 		.4byte	0
 3941              	.LLST47:
 3942 05be 5C000000 		.4byte	.LVL4
 3943 05c2 60000000 		.4byte	.LVL5
 3944 05c6 0100     		.2byte	0x1
 3945 05c8 53       		.byte	0x53
 3946 05c9 24060000 		.4byte	.LVL167
 3947 05cd 2C060000 		.4byte	.LVL168
 3948 05d1 0100     		.2byte	0x1
 3949 05d3 53       		.byte	0x53
 3950 05d4 00000000 		.4byte	0
 3951 05d8 00000000 		.4byte	0
 3952              	.LLST48:
 3953 05dc 30060000 		.4byte	.LVL169
 3954 05e0 34060000 		.4byte	.LVL170
 3955 05e4 0100     		.2byte	0x1
 3956 05e6 53       		.byte	0x53
 3957 05e7 00000000 		.4byte	0
 3958 05eb 00000000 		.4byte	0
 3959              		.section	.debug_aranges,"",%progbits
 3960 0000 24000000 		.4byte	0x24
 3961 0004 0200     		.2byte	0x2
 3962 0006 00000000 		.4byte	.Ldebug_info0
 3963 000a 04       		.byte	0x4
 3964 000b 00       		.byte	0
 3965 000c 0000     		.2byte	0
 3966 000e 0000     		.2byte	0
 3967 0010 00000000 		.4byte	.LFB7
 3968 0014 16000000 		.4byte	.LFE7-.LFB7
 3969 0018 00000000 		.4byte	.LFB8
 3970 001c 4C060000 		.4byte	.LFE8-.LFB8
 3971 0020 00000000 		.4byte	0
 3972 0024 00000000 		.4byte	0
 3973              		.section	.debug_ranges,"",%progbits
 3974              	.Ldebug_ranges0:
 3975 0000 90000000 		.4byte	.LBB119
 3976 0004 92000000 		.4byte	.LBE119
 3977 0008 94000000 		.4byte	.LBB120
 3978 000c 98000000 		.4byte	.LBE120
 3979 0010 00000000 		.4byte	0
 3980 0014 00000000 		.4byte	0
 3981 0018 DC000000 		.4byte	.LBB122
 3982 001c DE000000 		.4byte	.LBE122
 3983 0020 E0000000 		.4byte	.LBB123
ARM GAS  /var/folders/5n/p_75w94d66l9ssrldxqdhh700000gn/T//ccHwdw52.s 			page 71


 3984 0024 E4000000 		.4byte	.LBE123
 3985 0028 00000000 		.4byte	0
 3986 002c 00000000 		.4byte	0
 3987 0030 52020000 		.4byte	.LBB134
 3988 0034 54020000 		.4byte	.LBE134
 3989 0038 56020000 		.4byte	.LBB135
 3990 003c 5A020000 		.4byte	.LBE135
 3991 0040 00000000 		.4byte	0
 3992 0044 00000000 		.4byte	0
 3993 0048 70030000 		.4byte	.LBB145
 3994 004c 72030000 		.4byte	.LBE145
 3995 0050 74030000 		.4byte	.LBB146
 3996 0054 78030000 		.4byte	.LBE146
 3997 0058 00000000 		.4byte	0
 3998 005c 00000000 		.4byte	0
 3999 0060 BA030000 		.4byte	.LBB148
 4000 0064 BC030000 		.4byte	.LBE148
 4001 0068 BE030000 		.4byte	.LBB149
 4002 006c C2030000 		.4byte	.LBE149
 4003 0070 00000000 		.4byte	0
 4004 0074 00000000 		.4byte	0
 4005 0078 D2040000 		.4byte	.LBB155
 4006 007c D4040000 		.4byte	.LBE155
 4007 0080 D6040000 		.4byte	.LBB156
 4008 0084 DA040000 		.4byte	.LBE156
 4009 0088 00000000 		.4byte	0
 4010 008c 00000000 		.4byte	0
 4011 0090 20050000 		.4byte	.LBB158
 4012 0094 22050000 		.4byte	.LBE158
 4013 0098 24050000 		.4byte	.LBB159
 4014 009c 28050000 		.4byte	.LBE159
 4015 00a0 00000000 		.4byte	0
 4016 00a4 00000000 		.4byte	0
 4017 00a8 00000000 		.4byte	.LFB7
 4018 00ac 16000000 		.4byte	.LFE7
 4019 00b0 00000000 		.4byte	.LFB8
 4020 00b4 4C060000 		.4byte	.LFE8
 4021 00b8 00000000 		.4byte	0
 4022 00bc 00000000 		.4byte	0
 4023              		.section	.debug_line,"",%progbits
 4024              	.Ldebug_line0:
 4025 0000 D2010000 		.section	.debug_str,"MS",%progbits,1
 4025      02002101 
 4025      00000201 
 4025      FB0E0D00 
 4025      01010101 
 4026              	.LASF37:
 4027 0000 705F6D73 		.ascii	"p_msg\000"
 4027      6700
 4028              	.LASF62:
 4029 0006 7264796D 		.ascii	"rdymsg\000"
 4029      736700
 4030              	.LASF11:
 4031 000d 75696E74 		.ascii	"uint64_t\000"
 4031      36345F74 
 4031      00
 4032              	.LASF61:
ARM GAS  /var/folders/5n/p_75w94d66l9ssrldxqdhh700000gn/T//ccHwdw52.s 			page 72


 4033 0016 4D61696C 		.ascii	"Mailbox\000"
 4033      626F7800 
 4034              	.LASF12:
 4035 001e 6C6F6E67 		.ascii	"long long unsigned int\000"
 4035      206C6F6E 
 4035      6720756E 
 4035      7369676E 
 4035      65642069 
 4036              	.LASF77:
 4037 0035 70617474 		.ascii	"patternmbox\000"
 4037      65726E6D 
 4037      626F7800 
 4038              	.LASF63:
 4039 0041 65786974 		.ascii	"exitcode\000"
 4039      636F6465 
 4039      00
 4040              	.LASF75:
 4041 004a 74657374 		.ascii	"test\000"
 4041      00
 4042              	.LASF57:
 4043 004f 6D625F77 		.ascii	"mb_wrptr\000"
 4043      72707472 
 4043      00
 4044              	.LASF25:
 4045 0058 705F7072 		.ascii	"p_prio\000"
 4045      696F00
 4046              	.LASF10:
 4047 005f 6C6F6E67 		.ascii	"long long int\000"
 4047      206C6F6E 
 4047      6720696E 
 4047      7400
 4048              	.LASF1:
 4049 006d 7369676E 		.ascii	"signed char\000"
 4049      65642063 
 4049      68617200 
 4050              	.LASF41:
 4051 0079 705F6D70 		.ascii	"p_mpool\000"
 4051      6F6F6C00 
 4052              	.LASF30:
 4053 0081 705F7374 		.ascii	"p_state\000"
 4053      61746500 
 4054              	.LASF16:
 4055 0089 74736C69 		.ascii	"tslices_t\000"
 4055      6365735F 
 4055      7400
 4056              	.LASF7:
 4057 0093 6C6F6E67 		.ascii	"long int\000"
 4057      20696E74 
 4057      00
 4058              	.LASF14:
 4059 009c 74737461 		.ascii	"tstate_t\000"
 4059      74655F74 
 4059      00
 4060              	.LASF27:
 4061 00a5 705F6E65 		.ascii	"p_newer\000"
 4061      77657200 
 4062              	.LASF49:
ARM GAS  /var/folders/5n/p_75w94d66l9ssrldxqdhh700000gn/T//ccHwdw52.s 			page 73


 4063 00ad 735F7175 		.ascii	"s_queue\000"
 4063      65756500 
 4064              	.LASF44:
 4065 00b5 72656761 		.ascii	"regarm_t\000"
 4065      726D5F74 
 4065      00
 4066              	.LASF21:
 4067 00be 636E745F 		.ascii	"cnt_t\000"
 4067      7400
 4068              	.LASF0:
 4069 00c4 756E7369 		.ascii	"unsigned int\000"
 4069      676E6564 
 4069      20696E74 
 4069      00
 4070              	.LASF73:
 4071 00d1 6D736731 		.ascii	"msg1\000"
 4071      00
 4072              	.LASF74:
 4073 00d6 6D736732 		.ascii	"msg2\000"
 4073      00
 4074              	.LASF9:
 4075 00db 6C6F6E67 		.ascii	"long unsigned int\000"
 4075      20756E73 
 4075      69676E65 
 4075      6420696E 
 4075      7400
 4076              	.LASF70:
 4077 00ed 74656172 		.ascii	"teardown\000"
 4077      646F776E 
 4077      00
 4078              	.LASF60:
 4079 00f6 6D625F65 		.ascii	"mb_emptysem\000"
 4079      6D707479 
 4079      73656D00 
 4080              	.LASF68:
 4081 0102 6E616D65 		.ascii	"name\000"
 4081      00
 4082              	.LASF50:
 4083 0107 735F636E 		.ascii	"s_cnt\000"
 4083      7400
 4084              	.LASF47:
 4085 010d 636F6E74 		.ascii	"context\000"
 4085      65787400 
 4086              	.LASF4:
 4087 0115 73686F72 		.ascii	"short unsigned int\000"
 4087      7420756E 
 4087      7369676E 
 4087      65642069 
 4087      6E7400
 4088              	.LASF18:
 4089 0128 6D73675F 		.ascii	"msg_t\000"
 4089      7400
 4090              	.LASF13:
 4091 012e 746D6F64 		.ascii	"tmode_t\000"
 4091      655F7400 
 4092              	.LASF83:
 4093 0136 6D626F78 		.ascii	"mbox1_setup\000"
ARM GAS  /var/folders/5n/p_75w94d66l9ssrldxqdhh700000gn/T//ccHwdw52.s 			page 74


 4093      315F7365 
 4093      74757000 
 4094              	.LASF43:
 4095 0142 54687265 		.ascii	"ThreadsList\000"
 4095      6164734C 
 4095      69737400 
 4096              	.LASF19:
 4097 014e 6576656E 		.ascii	"eventmask_t\000"
 4097      746D6173 
 4097      6B5F7400 
 4098              	.LASF51:
 4099 015a 4D757465 		.ascii	"Mutex\000"
 4099      7800
 4100              	.LASF76:
 4101 0160 74657374 		.ascii	"testmbox1\000"
 4101      6D626F78 
 4101      3100
 4102              	.LASF45:
 4103 016a 73746B61 		.ascii	"stkalign_t\000"
 4103      6C69676E 
 4103      5F7400
 4104              	.LASF58:
 4105 0175 6D625F72 		.ascii	"mb_rdptr\000"
 4105      64707472 
 4105      00
 4106              	.LASF28:
 4107 017e 705F6F6C 		.ascii	"p_older\000"
 4107      64657200 
 4108              	.LASF42:
 4109 0186 54687265 		.ascii	"ThreadsQueue\000"
 4109      61647351 
 4109      75657565 
 4109      00
 4110              	.LASF69:
 4111 0193 73657475 		.ascii	"setup\000"
 4111      7000
 4112              	.LASF55:
 4113 0199 6D625F62 		.ascii	"mb_buffer\000"
 4113      75666665 
 4113      7200
 4114              	.LASF82:
 4115 01a3 6D626F78 		.ascii	"mbox1_execute\000"
 4115      315F6578 
 4115      65637574 
 4115      6500
 4116              	.LASF15:
 4117 01b1 74726566 		.ascii	"trefs_t\000"
 4117      735F7400 
 4118              	.LASF24:
 4119 01b9 705F7072 		.ascii	"p_prev\000"
 4119      657600
 4120              	.LASF71:
 4121 01c0 65786563 		.ascii	"execute\000"
 4121      75746500 
 4122              	.LASF17:
 4123 01c8 74707269 		.ascii	"tprio_t\000"
 4123      6F5F7400 
ARM GAS  /var/folders/5n/p_75w94d66l9ssrldxqdhh700000gn/T//ccHwdw52.s 			page 75


 4124              	.LASF6:
 4125 01d0 696E7433 		.ascii	"int32_t\000"
 4125      325F7400 
 4126              	.LASF2:
 4127 01d8 756E7369 		.ascii	"unsigned char\000"
 4127      676E6564 
 4127      20636861 
 4127      7200
 4128              	.LASF52:
 4129 01e6 6D5F7175 		.ascii	"m_queue\000"
 4129      65756500 
 4130              	.LASF56:
 4131 01ee 6D625F74 		.ascii	"mb_top\000"
 4131      6F7000
 4132              	.LASF39:
 4133 01f5 705F6D74 		.ascii	"p_mtxlist\000"
 4133      786C6973 
 4133      7400
 4134              	.LASF3:
 4135 01ff 73686F72 		.ascii	"short int\000"
 4135      7420696E 
 4135      7400
 4136              	.LASF79:
 4137 0209 2E2E2F2E 		.ascii	"../../test/testmbox.c\000"
 4137      2E2F7465 
 4137      73742F74 
 4137      6573746D 
 4137      626F782E 
 4138              	.LASF33:
 4139 021f 705F7072 		.ascii	"p_preempt\000"
 4139      65656D70 
 4139      7400
 4140              	.LASF65:
 4141 0229 65776D61 		.ascii	"ewmask\000"
 4141      736B00
 4142              	.LASF23:
 4143 0230 705F6E65 		.ascii	"p_next\000"
 4143      787400
 4144              	.LASF31:
 4145 0237 705F666C 		.ascii	"p_flags\000"
 4145      61677300 
 4146              	.LASF22:
 4147 023f 54687265 		.ascii	"Thread\000"
 4147      616400
 4148              	.LASF67:
 4149 0246 74657374 		.ascii	"testcase\000"
 4149      63617365 
 4149      00
 4150              	.LASF38:
 4151 024f 705F6570 		.ascii	"p_epending\000"
 4151      656E6469 
 4151      6E6700
 4152              	.LASF8:
 4153 025a 75696E74 		.ascii	"uint32_t\000"
 4153      33325F74 
 4153      00
 4154              	.LASF66:
ARM GAS  /var/folders/5n/p_75w94d66l9ssrldxqdhh700000gn/T//ccHwdw52.s 			page 76


 4155 0263 63686172 		.ascii	"char\000"
 4155      00
 4156              	.LASF54:
 4157 0268 6D5F6E65 		.ascii	"m_next\000"
 4157      787400
 4158              	.LASF20:
 4159 026f 73797374 		.ascii	"systime_t\000"
 4159      696D655F 
 4159      7400
 4160              	.LASF40:
 4161 0279 705F7265 		.ascii	"p_realprio\000"
 4161      616C7072 
 4161      696F00
 4162              	.LASF72:
 4163 0284 62756666 		.ascii	"buffer\000"
 4163      657200
 4164              	.LASF34:
 4165 028b 705F7469 		.ascii	"p_time\000"
 4165      6D6500
 4166              	.LASF78:
 4167 0292 474E5520 		.ascii	"GNU C 4.6.2 20111004 (prerelease)\000"
 4167      4320342E 
 4167      362E3220 
 4167      32303131 
 4167      31303034 
 4168              	.LASF46:
 4169 02b4 696E7463 		.ascii	"intctx\000"
 4169      747800
 4170              	.LASF36:
 4171 02bb 705F6D73 		.ascii	"p_msgqueue\000"
 4171      67717565 
 4171      756500
 4172              	.LASF48:
 4173 02c6 53656D61 		.ascii	"Semaphore\000"
 4173      70686F72 
 4173      6500
 4174              	.LASF59:
 4175 02d0 6D625F66 		.ascii	"mb_fullsem\000"
 4175      756C6C73 
 4175      656D00
 4176              	.LASF81:
 4177 02db 74657374 		.ascii	"test_buffers\000"
 4177      5F627566 
 4177      66657273 
 4177      00
 4178              	.LASF32:
 4179 02e8 705F7265 		.ascii	"p_refs\000"
 4179      667300
 4180              	.LASF5:
 4181 02ef 75696E74 		.ascii	"uint8_t\000"
 4181      385F7400 
 4182              	.LASF64:
 4183 02f7 77746F62 		.ascii	"wtobjp\000"
 4183      6A7000
 4184              	.LASF29:
 4185 02fe 705F6E61 		.ascii	"p_name\000"
 4185      6D6500
ARM GAS  /var/folders/5n/p_75w94d66l9ssrldxqdhh700000gn/T//ccHwdw52.s 			page 77


 4186              	.LASF80:
 4187 0305 2F557365 		.ascii	"/Users/sin/Documents/Eclipse/Workspace/mabl-ChibiOS"
 4187      72732F73 
 4187      696E2F44 
 4187      6F63756D 
 4187      656E7473 
 4188 0338 2D322E35 		.ascii	"-2.5.1/demos/ARMCM4-STM32F407-LWIP\000"
 4188      2E312F64 
 4188      656D6F73 
 4188      2F41524D 
 4188      434D342D 
 4189              	.LASF53:
 4190 035b 6D5F6F77 		.ascii	"m_owner\000"
 4190      6E657200 
 4191              	.LASF26:
 4192 0363 705F6374 		.ascii	"p_ctx\000"
 4192      7800
 4193              	.LASF35:
 4194 0369 705F7761 		.ascii	"p_waiting\000"
 4194      6974696E 
 4194      6700
 4195              		.ident	"GCC: (Linaro GCC 4.6-2011.10) 4.6.2 20111004 (prerelease)"
ARM GAS  /var/folders/5n/p_75w94d66l9ssrldxqdhh700000gn/T//ccHwdw52.s 			page 78


DEFINED SYMBOLS
                            *ABS*:0000000000000000 testmbox.c
/var/folders/5n/p_75w94d66l9ssrldxqdhh700000gn/T//ccHwdw52.s:18     .text.mbox1_setup:0000000000000000 $t
/var/folders/5n/p_75w94d66l9ssrldxqdhh700000gn/T//ccHwdw52.s:23     .text.mbox1_setup:0000000000000000 mbox1_setup
/var/folders/5n/p_75w94d66l9ssrldxqdhh700000gn/T//ccHwdw52.s:1181   .data.mb1:0000000000000000 .LANCHOR0
/var/folders/5n/p_75w94d66l9ssrldxqdhh700000gn/T//ccHwdw52.s:44     .text.mbox1_execute:0000000000000000 $t
/var/folders/5n/p_75w94d66l9ssrldxqdhh700000gn/T//ccHwdw52.s:49     .text.mbox1_execute:0000000000000000 mbox1_execute
/var/folders/5n/p_75w94d66l9ssrldxqdhh700000gn/T//ccHwdw52.s:588    .text.mbox1_execute:00000000000002e4 $d
/var/folders/5n/p_75w94d66l9ssrldxqdhh700000gn/T//ccHwdw52.s:595    .text.mbox1_execute:00000000000002ec $t
/var/folders/5n/p_75w94d66l9ssrldxqdhh700000gn/T//ccHwdw52.s:1170   .text.mbox1_execute:0000000000000644 $d
/var/folders/5n/p_75w94d66l9ssrldxqdhh700000gn/T//ccHwdw52.s:1199   .rodata.patternmbox:0000000000000000 patternmbox
/var/folders/5n/p_75w94d66l9ssrldxqdhh700000gn/T//ccHwdw52.s:1213   .rodata.testmbox1:0000000000000000 testmbox1
/var/folders/5n/p_75w94d66l9ssrldxqdhh700000gn/T//ccHwdw52.s:1180   .data.mb1:0000000000000000 $d
/var/folders/5n/p_75w94d66l9ssrldxqdhh700000gn/T//ccHwdw52.s:1184   .data.mb1:0000000000000000 mb1
/var/folders/5n/p_75w94d66l9ssrldxqdhh700000gn/T//ccHwdw52.s:1196   .rodata.patternmbox:0000000000000000 $d
/var/folders/5n/p_75w94d66l9ssrldxqdhh700000gn/T//ccHwdw52.s:1203   .rodata.str1.4:0000000000000000 $d
/var/folders/5n/p_75w94d66l9ssrldxqdhh700000gn/T//ccHwdw52.s:1210   .rodata.testmbox1:0000000000000000 $d
                     .debug_frame:0000000000000010 $d
/var/folders/5n/p_75w94d66l9ssrldxqdhh700000gn/T//ccHwdw52.s:1179   .text.mbox1_execute:000000000000064c $t

UNDEFINED SYMBOLS
test
chMBInit
_test_assert
chMBPost
chMBPostAhead
chMBPostI
chMBPostAheadI
chMBFetch
test_emit_token
_test_assert_sequence
chMBFetchI
chMBReset
