ARM GAS  /var/folders/5n/p_75w94d66l9ssrldxqdhh700000gn/T//ccUYwYT6.s 			page 1


   1              		.syntax unified
   2              		.cpu cortex-m4
   3              		.fpu softvfp
   4              		.eabi_attribute 20, 1
   5              		.eabi_attribute 21, 1
   6              		.eabi_attribute 23, 3
   7              		.eabi_attribute 24, 1
   8              		.eabi_attribute 25, 1
   9              		.eabi_attribute 26, 1
  10              		.eabi_attribute 30, 2
  11              		.eabi_attribute 18, 4
  12              		.thumb
  13              		.file	"tm.c"
  14              		.text
  15              	.Ltext0:
  16              		.cfi_sections	.debug_frame
  17              		.section	.text.tm_start,"ax",%progbits
  18              		.align	2
  19              		.p2align 4,,15
  20              		.thumb
  21              		.thumb_func
  22              		.type	tm_start, %function
  23              	tm_start:
  24              	.LFB118:
  25              		.file 1 "../../os/hal/src/tm.c"
  26              		.loc 1 62 0
  27              		.cfi_startproc
  28              		@ args = 0, pretend = 0, frame = 0
  29              		@ frame_needed = 0, uses_anonymous_args = 0
  30              		@ link register save eliminated.
  31              	.LVL0:
  32              		.loc 1 64 0
  33 0000 4FF48053 		mov	r3, #4096
  34 0004 CEF20003 		movt	r3, 57344
  35 0008 5B68     		ldr	r3, [r3, #4]
  36 000a 8360     		str	r3, [r0, #8]
  37              		.loc 1 65 0
  38 000c 7047     		bx	lr
  39              		.cfi_endproc
  40              	.LFE118:
  41              		.size	tm_start, .-tm_start
  42              		.section	.text.tm_stop,"ax",%progbits
  43              		.align	2
  44              		.p2align 4,,15
  45              		.thumb
  46              		.thumb_func
  47              		.type	tm_stop, %function
  48              	tm_stop:
  49              	.LFB119:
  50              		.loc 1 74 0
  51              		.cfi_startproc
  52              		@ args = 0, pretend = 0, frame = 0
  53              		@ frame_needed = 0, uses_anonymous_args = 0
  54              		@ link register save eliminated.
  55              	.LVL1:
  56              		.loc 1 76 0
  57 0000 4FF48053 		mov	r3, #4096
ARM GAS  /var/folders/5n/p_75w94d66l9ssrldxqdhh700000gn/T//ccUYwYT6.s 			page 2


  58 0004 CEF20003 		movt	r3, 57344
  59              		.loc 1 77 0
  60 0008 094A     		ldr	r2, .L6
  61              		.loc 1 74 0
  62 000a 10B4     		push	{r4}
  63              	.LCFI0:
  64              		.cfi_def_cfa_offset 4
  65              		.cfi_offset 4, -4
  66              		.loc 1 76 0
  67 000c 5C68     		ldr	r4, [r3, #4]
  68              	.LVL2:
  69              		.loc 1 77 0
  70 000e 8368     		ldr	r3, [r0, #8]
  71 0010 1168     		ldr	r1, [r2, #0]
  72              		.loc 1 78 0
  73 0012 C268     		ldr	r2, [r0, #12]
  74              		.loc 1 77 0
  75 0014 E31A     		subs	r3, r4, r3
  76 0016 5B1A     		subs	r3, r3, r1
  77              		.loc 1 78 0
  78 0018 9342     		cmp	r3, r2
  79              		.loc 1 77 0
  80 001a 8360     		str	r3, [r0, #8]
  81              		.loc 1 79 0
  82 001c 88BF     		it	hi
  83 001e C360     		strhi	r3, [r0, #12]
  84              		.loc 1 78 0
  85 0020 03D8     		bhi	.L2
  86              	.LVL3:
  87              	.LBB6:
  88              	.LBB7:
  89              		.loc 1 80 0
  90 0022 0269     		ldr	r2, [r0, #16]
  91 0024 9342     		cmp	r3, r2
  92              		.loc 1 81 0
  93 0026 38BF     		it	cc
  94 0028 0361     		strcc	r3, [r0, #16]
  95              	.LVL4:
  96              	.L2:
  97              	.LBE7:
  98              	.LBE6:
  99              		.loc 1 82 0
 100 002a 10BC     		pop	{r4}
 101 002c 7047     		bx	lr
 102              	.L7:
 103 002e 00BF     		.align	2
 104              	.L6:
 105 0030 00000000 		.word	.LANCHOR0
 106              		.cfi_endproc
 107              	.LFE119:
 108              		.size	tm_stop, .-tm_stop
 109 0034 AFF30080 		.section	.text.tmInit,"ax",%progbits
 109      AFF30080 
 109      AFF30080 
 110              		.align	2
 111              		.p2align 4,,15
 112              		.global	tmInit
ARM GAS  /var/folders/5n/p_75w94d66l9ssrldxqdhh700000gn/T//ccUYwYT6.s 			page 3


 113              		.thumb
 114              		.thumb_func
 115              		.type	tmInit, %function
 116              	tmInit:
 117              	.LFB120:
 118              		.loc 1 97 0
 119              		.cfi_startproc
 120              		@ args = 0, pretend = 0, frame = 24
 121              		@ frame_needed = 0, uses_anonymous_args = 0
 122 0000 10B5     		push	{r4, lr}
 123              	.LCFI1:
 124              		.cfi_def_cfa_offset 8
 125              		.cfi_offset 14, -4
 126              		.cfi_offset 4, -8
 127              	.LBB8:
 128              	.LBB9:
 129              		.loc 1 119 0
 130 0002 40F20002 		movw	r2, #:lower16:tm_start
 131              	.LBE9:
 132              	.LBE8:
 133              		.loc 1 97 0
 134 0006 86B0     		sub	sp, sp, #24
 135              	.LCFI2:
 136              		.cfi_def_cfa_offset 32
 137              		.loc 1 103 0
 138 0008 40F20004 		movw	r4, #:lower16:.LANCHOR0
 139 000c C0F20004 		movt	r4, #:upper16:.LANCHOR0
 140              	.LBB13:
 141              	.LBB10:
 142              		.loc 1 119 0
 143 0010 C0F20002 		movt	r2, #:upper16:tm_start
 144              	.LBE10:
 145              	.LBE13:
 146              		.loc 1 103 0
 147 0014 0023     		movs	r3, #0
 148              	.LBB14:
 149              	.LBB11:
 150              		.loc 1 119 0
 151 0016 0192     		str	r2, [sp, #4]
 152              		.loc 1 120 0
 153 0018 40F20002 		movw	r2, #:lower16:tm_stop
 154 001c C0F20002 		movt	r2, #:upper16:tm_stop
 155              	.LBE11:
 156              	.LBE14:
 157              		.loc 1 105 0
 158 0020 01A8     		add	r0, sp, #4
 159              		.loc 1 103 0
 160 0022 2360     		str	r3, [r4, #0]
 161              	.LVL5:
 162              	.LBB15:
 163              	.LBB12:
 164              		.loc 1 121 0
 165 0024 0393     		str	r3, [sp, #12]
 166              		.loc 1 122 0
 167 0026 0493     		str	r3, [sp, #16]
 168              		.loc 1 123 0
 169 0028 4FF0FF33 		mov	r3, #-1
ARM GAS  /var/folders/5n/p_75w94d66l9ssrldxqdhh700000gn/T//ccUYwYT6.s 			page 4


 170              		.loc 1 120 0
 171 002c 0292     		str	r2, [sp, #8]
 172              		.loc 1 123 0
 173 002e 0593     		str	r3, [sp, #20]
 174              	.LBE12:
 175              	.LBE15:
 176              		.loc 1 105 0
 177 0030 FFF7FEFF 		bl	tm_start
 178              	.LVL6:
 179              		.loc 1 106 0
 180 0034 029B     		ldr	r3, [sp, #8]
 181 0036 01A8     		add	r0, sp, #4
 182              	.LVL7:
 183 0038 9847     		blx	r3
 184              	.LVL8:
 185              		.loc 1 107 0
 186 003a 039B     		ldr	r3, [sp, #12]
 187 003c 2360     		str	r3, [r4, #0]
 188              		.loc 1 108 0
 189 003e 06B0     		add	sp, sp, #24
 190 0040 10BD     		pop	{r4, pc}
 191              		.cfi_endproc
 192              	.LFE120:
 193              		.size	tmInit, .-tmInit
 194 0042 00BFAFF3 		.section	.text.tmObjectInit,"ax",%progbits
 194      0080AFF3 
 194      0080AFF3 
 194      0080
 195              		.align	2
 196              		.p2align 4,,15
 197              		.global	tmObjectInit
 198              		.thumb
 199              		.thumb_func
 200              		.type	tmObjectInit, %function
 201              	tmObjectInit:
 202              	.LFB121:
 203              		.loc 1 117 0
 204              		.cfi_startproc
 205              		@ args = 0, pretend = 0, frame = 0
 206              		@ frame_needed = 0, uses_anonymous_args = 0
 207              		@ link register save eliminated.
 208              	.LVL9:
 209              		.loc 1 119 0
 210 0000 40F20002 		movw	r2, #:lower16:tm_start
 211 0004 C0F20002 		movt	r2, #:upper16:tm_start
 212              		.loc 1 121 0
 213 0008 0023     		movs	r3, #0
 214              		.loc 1 119 0
 215 000a 0260     		str	r2, [r0, #0]
 216              		.loc 1 120 0
 217 000c 40F20002 		movw	r2, #:lower16:tm_stop
 218 0010 C0F20002 		movt	r2, #:upper16:tm_stop
 219              		.loc 1 121 0
 220 0014 8360     		str	r3, [r0, #8]
 221              		.loc 1 122 0
 222 0016 C360     		str	r3, [r0, #12]
 223              		.loc 1 123 0
ARM GAS  /var/folders/5n/p_75w94d66l9ssrldxqdhh700000gn/T//ccUYwYT6.s 			page 5


 224 0018 4FF0FF33 		mov	r3, #-1
 225              		.loc 1 120 0
 226 001c 4260     		str	r2, [r0, #4]
 227              		.loc 1 123 0
 228 001e 0361     		str	r3, [r0, #16]
 229              		.loc 1 124 0
 230 0020 7047     		bx	lr
 231              		.cfi_endproc
 232              	.LFE121:
 233              		.size	tmObjectInit, .-tmObjectInit
 234 0022 00BFAFF3 		.section	.bss.measurement_offset,"aw",%nobits
 234      0080AFF3 
 234      0080AFF3 
 234      0080
 235              		.align	2
 236              		.set	.LANCHOR0,. + 0
 237              		.type	measurement_offset, %object
 238              		.size	measurement_offset, 4
 239              	measurement_offset:
 240 0000 00000000 		.space	4
 241              		.text
 242              	.Letext0:
 243              		.file 2 "/usr/local/summon/lib/gcc/arm-none-eabi/4.6.2/../../../../arm-none-eabi/include/stdint.h"
 244              		.file 3 "../../os/ports/common/ARMCMx/nvic.h"
 245              		.file 4 "../../os/hal/platforms/STM32F4xx/hal_lld.h"
 246              		.file 5 "../../os/hal/include/tm.h"
 247              		.file 6 "../../os/ports/common/ARMCMx/CMSIS/include/core_cm4.h"
 248              		.section	.debug_info,"",%progbits
 249              	.Ldebug_info0:
 250 0000 DA020000 		.4byte	0x2da
 251 0004 0200     		.2byte	0x2
 252 0006 00000000 		.4byte	.Ldebug_abbrev0
 253 000a 04       		.byte	0x4
 254 000b 01       		.uleb128 0x1
 255 000c 00000000 		.4byte	.LASF30
 256 0010 01       		.byte	0x1
 257 0011 8C010000 		.4byte	.LASF31
 258 0015 D1000000 		.4byte	.LASF32
 259 0019 00000000 		.4byte	0
 260 001d 00000000 		.4byte	0
 261 0021 28000000 		.4byte	.Ldebug_ranges0+0x28
 262 0025 00000000 		.4byte	.Ldebug_line0
 263 0029 02       		.uleb128 0x2
 264 002a 04       		.byte	0x4
 265 002b 05       		.byte	0x5
 266 002c 696E7400 		.ascii	"int\000"
 267 0030 03       		.uleb128 0x3
 268 0031 04       		.byte	0x4
 269 0032 07       		.byte	0x7
 270 0033 27010000 		.4byte	.LASF0
 271 0037 03       		.uleb128 0x3
 272 0038 01       		.byte	0x1
 273 0039 06       		.byte	0x6
 274 003a C1010000 		.4byte	.LASF1
 275 003e 03       		.uleb128 0x3
 276 003f 01       		.byte	0x1
 277 0040 08       		.byte	0x8
ARM GAS  /var/folders/5n/p_75w94d66l9ssrldxqdhh700000gn/T//ccUYwYT6.s 			page 6


 278 0041 5A000000 		.4byte	.LASF2
 279 0045 03       		.uleb128 0x3
 280 0046 02       		.byte	0x2
 281 0047 05       		.byte	0x5
 282 0048 82010000 		.4byte	.LASF3
 283 004c 03       		.uleb128 0x3
 284 004d 02       		.byte	0x2
 285 004e 07       		.byte	0x7
 286 004f 95000000 		.4byte	.LASF4
 287 0053 04       		.uleb128 0x4
 288 0054 59010000 		.4byte	.LASF6
 289 0058 02       		.byte	0x2
 290 0059 4F       		.byte	0x4f
 291 005a 5E000000 		.4byte	0x5e
 292 005e 03       		.uleb128 0x3
 293 005f 04       		.byte	0x4
 294 0060 05       		.byte	0x5
 295 0061 B8010000 		.4byte	.LASF5
 296 0065 04       		.uleb128 0x4
 297 0066 AF010000 		.4byte	.LASF7
 298 006a 02       		.byte	0x2
 299 006b 50       		.byte	0x50
 300 006c 70000000 		.4byte	0x70
 301 0070 03       		.uleb128 0x3
 302 0071 04       		.byte	0x4
 303 0072 07       		.byte	0x7
 304 0073 76000000 		.4byte	.LASF8
 305 0077 03       		.uleb128 0x3
 306 0078 08       		.byte	0x8
 307 0079 05       		.byte	0x5
 308 007a 61010000 		.4byte	.LASF9
 309 007e 03       		.uleb128 0x3
 310 007f 08       		.byte	0x8
 311 0080 07       		.byte	0x7
 312 0081 43000000 		.4byte	.LASF10
 313 0085 05       		.uleb128 0x5
 314 0086 70000000 		.4byte	0x70
 315 008a 06       		.uleb128 0x6
 316 008b 20       		.byte	0x20
 317 008c 03       		.byte	0x3
 318 008d FF       		.byte	0xff
 319 008e 0B010000 		.4byte	0x10b
 320 0092 07       		.uleb128 0x7
 321 0093 4D010000 		.4byte	.LASF11
 322 0097 03       		.byte	0x3
 323 0098 0001     		.2byte	0x100
 324 009a 85000000 		.4byte	0x85
 325 009e 02       		.byte	0x2
 326 009f 23       		.byte	0x23
 327 00a0 00       		.uleb128 0
 328 00a1 07       		.uleb128 0x7
 329 00a2 68000000 		.4byte	.LASF12
 330 00a6 03       		.byte	0x3
 331 00a7 0101     		.2byte	0x101
 332 00a9 85000000 		.4byte	0x85
 333 00ad 02       		.byte	0x2
 334 00ae 23       		.byte	0x23
ARM GAS  /var/folders/5n/p_75w94d66l9ssrldxqdhh700000gn/T//ccUYwYT6.s 			page 7


 335 00af 04       		.uleb128 0x4
 336 00b0 07       		.uleb128 0x7
 337 00b1 A8000000 		.4byte	.LASF13
 338 00b5 03       		.byte	0x3
 339 00b6 0201     		.2byte	0x102
 340 00b8 85000000 		.4byte	0x85
 341 00bc 02       		.byte	0x2
 342 00bd 23       		.byte	0x23
 343 00be 08       		.uleb128 0x8
 344 00bf 07       		.uleb128 0x7
 345 00c0 52010000 		.4byte	.LASF14
 346 00c4 03       		.byte	0x3
 347 00c5 0301     		.2byte	0x103
 348 00c7 85000000 		.4byte	0x85
 349 00cb 02       		.byte	0x2
 350 00cc 23       		.byte	0x23
 351 00cd 0C       		.uleb128 0xc
 352 00ce 07       		.uleb128 0x7
 353 00cf 35000000 		.4byte	.LASF15
 354 00d3 03       		.byte	0x3
 355 00d4 0401     		.2byte	0x104
 356 00d6 85000000 		.4byte	0x85
 357 00da 02       		.byte	0x2
 358 00db 23       		.byte	0x23
 359 00dc 10       		.uleb128 0x10
 360 00dd 07       		.uleb128 0x7
 361 00de CA000000 		.4byte	.LASF16
 362 00e2 03       		.byte	0x3
 363 00e3 0501     		.2byte	0x105
 364 00e5 85000000 		.4byte	0x85
 365 00e9 02       		.byte	0x2
 366 00ea 23       		.byte	0x23
 367 00eb 14       		.uleb128 0x14
 368 00ec 07       		.uleb128 0x7
 369 00ed BC000000 		.4byte	.LASF17
 370 00f1 03       		.byte	0x3
 371 00f2 0601     		.2byte	0x106
 372 00f4 85000000 		.4byte	0x85
 373 00f8 02       		.byte	0x2
 374 00f9 23       		.byte	0x23
 375 00fa 18       		.uleb128 0x18
 376 00fb 07       		.uleb128 0x7
 377 00fc 22000000 		.4byte	.LASF18
 378 0100 03       		.byte	0x3
 379 0101 0701     		.2byte	0x107
 380 0103 85000000 		.4byte	0x85
 381 0107 02       		.byte	0x2
 382 0108 23       		.byte	0x23
 383 0109 1C       		.uleb128 0x1c
 384 010a 00       		.byte	0
 385 010b 08       		.uleb128 0x8
 386 010c A2010000 		.4byte	.LASF19
 387 0110 03       		.byte	0x3
 388 0111 0801     		.2byte	0x108
 389 0113 8A000000 		.4byte	0x8a
 390 0117 03       		.uleb128 0x3
 391 0118 01       		.byte	0x1
ARM GAS  /var/folders/5n/p_75w94d66l9ssrldxqdhh700000gn/T//ccUYwYT6.s 			page 8


 392 0119 08       		.byte	0x8
 393 011a 3F010000 		.4byte	.LASF20
 394 011e 05       		.uleb128 0x5
 395 011f 53000000 		.4byte	0x53
 396 0123 08       		.uleb128 0x8
 397 0124 34010000 		.4byte	.LASF21
 398 0128 04       		.byte	0x4
 399 0129 EB05     		.2byte	0x5eb
 400 012b 65000000 		.4byte	0x65
 401 012f 04       		.uleb128 0x4
 402 0130 CD010000 		.4byte	.LASF22
 403 0134 05       		.byte	0x5
 404 0135 3E       		.byte	0x3e
 405 0136 3A010000 		.4byte	0x13a
 406 013a 09       		.uleb128 0x9
 407 013b CD010000 		.4byte	.LASF22
 408 013f 14       		.byte	0x14
 409 0140 05       		.byte	0x5
 410 0141 43       		.byte	0x43
 411 0142 8D010000 		.4byte	0x18d
 412 0146 0A       		.uleb128 0xa
 413 0147 2F000000 		.4byte	.LASF23
 414 014b 05       		.byte	0x5
 415 014c 44       		.byte	0x44
 416 014d 9F010000 		.4byte	0x19f
 417 0151 02       		.byte	0x2
 418 0152 23       		.byte	0x23
 419 0153 00       		.uleb128 0
 420 0154 0A       		.uleb128 0xa
 421 0155 3E000000 		.4byte	.LASF24
 422 0159 05       		.byte	0x5
 423 015a 45       		.byte	0x45
 424 015b 9F010000 		.4byte	0x19f
 425 015f 02       		.byte	0x2
 426 0160 23       		.byte	0x23
 427 0161 04       		.uleb128 0x4
 428 0162 0A       		.uleb128 0xa
 429 0163 DD010000 		.4byte	.LASF25
 430 0167 05       		.byte	0x5
 431 0168 46       		.byte	0x46
 432 0169 23010000 		.4byte	0x123
 433 016d 02       		.byte	0x2
 434 016e 23       		.byte	0x23
 435 016f 08       		.uleb128 0x8
 436 0170 0A       		.uleb128 0xa
 437 0171 C4000000 		.4byte	.LASF26
 438 0175 05       		.byte	0x5
 439 0176 47       		.byte	0x47
 440 0177 23010000 		.4byte	0x123
 441 017b 02       		.byte	0x2
 442 017c 23       		.byte	0x23
 443 017d 0C       		.uleb128 0xc
 444 017e 0A       		.uleb128 0xa
 445 017f AA010000 		.4byte	.LASF27
 446 0183 05       		.byte	0x5
 447 0184 48       		.byte	0x48
 448 0185 23010000 		.4byte	0x123
ARM GAS  /var/folders/5n/p_75w94d66l9ssrldxqdhh700000gn/T//ccUYwYT6.s 			page 9


 449 0189 02       		.byte	0x2
 450 018a 23       		.byte	0x23
 451 018b 10       		.uleb128 0x10
 452 018c 00       		.byte	0
 453 018d 0B       		.uleb128 0xb
 454 018e 01       		.byte	0x1
 455 018f 99010000 		.4byte	0x199
 456 0193 0C       		.uleb128 0xc
 457 0194 99010000 		.4byte	0x199
 458 0198 00       		.byte	0
 459 0199 0D       		.uleb128 0xd
 460 019a 04       		.byte	0x4
 461 019b 2F010000 		.4byte	0x12f
 462 019f 0D       		.uleb128 0xd
 463 01a0 04       		.byte	0x4
 464 01a1 8D010000 		.4byte	0x18d
 465 01a5 0E       		.uleb128 0xe
 466 01a6 27000000 		.4byte	.LASF33
 467 01aa 01       		.byte	0x1
 468 01ab 4A       		.byte	0x4a
 469 01ac 01       		.byte	0x1
 470 01ad 01       		.byte	0x1
 471 01ae C9010000 		.4byte	0x1c9
 472 01b2 0F       		.uleb128 0xf
 473 01b3 746D7000 		.ascii	"tmp\000"
 474 01b7 01       		.byte	0x1
 475 01b8 4A       		.byte	0x4a
 476 01b9 99010000 		.4byte	0x199
 477 01bd 10       		.uleb128 0x10
 478 01be 6E6F7700 		.ascii	"now\000"
 479 01c2 01       		.byte	0x1
 480 01c3 4C       		.byte	0x4c
 481 01c4 23010000 		.4byte	0x123
 482 01c8 00       		.byte	0
 483 01c9 11       		.uleb128 0x11
 484 01ca 01       		.byte	0x1
 485 01cb 88000000 		.4byte	.LASF34
 486 01cf 01       		.byte	0x1
 487 01d0 75       		.byte	0x75
 488 01d1 01       		.byte	0x1
 489 01d2 01       		.byte	0x1
 490 01d3 E3010000 		.4byte	0x1e3
 491 01d7 0F       		.uleb128 0xf
 492 01d8 746D7000 		.ascii	"tmp\000"
 493 01dc 01       		.byte	0x1
 494 01dd 75       		.byte	0x75
 495 01de 99010000 		.4byte	0x199
 496 01e2 00       		.byte	0
 497 01e3 12       		.uleb128 0x12
 498 01e4 44010000 		.4byte	.LASF35
 499 01e8 01       		.byte	0x1
 500 01e9 3E       		.byte	0x3e
 501 01ea 01       		.byte	0x1
 502 01eb 00000000 		.4byte	.LFB118
 503 01ef 0E000000 		.4byte	.LFE118
 504 01f3 02       		.byte	0x2
 505 01f4 7D       		.byte	0x7d
ARM GAS  /var/folders/5n/p_75w94d66l9ssrldxqdhh700000gn/T//ccUYwYT6.s 			page 10


 506 01f5 00       		.sleb128 0
 507 01f6 08020000 		.4byte	0x208
 508 01fa 13       		.uleb128 0x13
 509 01fb 746D7000 		.ascii	"tmp\000"
 510 01ff 01       		.byte	0x1
 511 0200 3E       		.byte	0x3e
 512 0201 99010000 		.4byte	0x199
 513 0205 01       		.byte	0x1
 514 0206 50       		.byte	0x50
 515 0207 00       		.byte	0
 516 0208 14       		.uleb128 0x14
 517 0209 A5010000 		.4byte	0x1a5
 518 020d 00000000 		.4byte	.LFB119
 519 0211 34000000 		.4byte	.LFE119
 520 0215 00000000 		.4byte	.LLST0
 521 0219 54020000 		.4byte	0x254
 522 021d 15       		.uleb128 0x15
 523 021e B2010000 		.4byte	0x1b2
 524 0222 01       		.byte	0x1
 525 0223 50       		.byte	0x50
 526 0224 16       		.uleb128 0x16
 527 0225 BD010000 		.4byte	0x1bd
 528 0229 01       		.byte	0x1
 529 022a 54       		.byte	0x54
 530 022b 17       		.uleb128 0x17
 531 022c A5010000 		.4byte	0x1a5
 532 0230 22000000 		.4byte	.LBB6
 533 0234 2A000000 		.4byte	.LBE6
 534 0238 01       		.byte	0x1
 535 0239 4A       		.byte	0x4a
 536 023a 18       		.uleb128 0x18
 537 023b B2010000 		.4byte	0x1b2
 538 023f 20000000 		.4byte	.LLST1
 539 0243 19       		.uleb128 0x19
 540 0244 22000000 		.4byte	.LBB7
 541 0248 2A000000 		.4byte	.LBE7
 542 024c 1A       		.uleb128 0x1a
 543 024d BD010000 		.4byte	0x1bd
 544 0251 00       		.byte	0
 545 0252 00       		.byte	0
 546 0253 00       		.byte	0
 547 0254 1B       		.uleb128 0x1b
 548 0255 01       		.byte	0x1
 549 0256 6F000000 		.4byte	.LASF36
 550 025a 01       		.byte	0x1
 551 025b 61       		.byte	0x61
 552 025c 01       		.byte	0x1
 553 025d 00000000 		.4byte	.LFB120
 554 0261 42000000 		.4byte	.LFE120
 555 0265 33000000 		.4byte	.LLST2
 556 0269 94020000 		.4byte	0x294
 557 026d 1C       		.uleb128 0x1c
 558 026e 746D00   		.ascii	"tm\000"
 559 0271 01       		.byte	0x1
 560 0272 62       		.byte	0x62
 561 0273 2F010000 		.4byte	0x12f
 562 0277 02       		.byte	0x2
ARM GAS  /var/folders/5n/p_75w94d66l9ssrldxqdhh700000gn/T//ccUYwYT6.s 			page 11


 563 0278 91       		.byte	0x91
 564 0279 64       		.sleb128 -28
 565 027a 1D       		.uleb128 0x1d
 566 027b C9010000 		.4byte	0x1c9
 567 027f 02000000 		.4byte	.LBB8
 568 0283 00000000 		.4byte	.Ldebug_ranges0+0
 569 0287 01       		.byte	0x1
 570 0288 68       		.byte	0x68
 571 0289 18       		.uleb128 0x18
 572 028a D7010000 		.4byte	0x1d7
 573 028e 5F000000 		.4byte	.LLST3
 574 0292 00       		.byte	0
 575 0293 00       		.byte	0
 576 0294 1E       		.uleb128 0x1e
 577 0295 C9010000 		.4byte	0x1c9
 578 0299 00000000 		.4byte	.LFB121
 579 029d 22000000 		.4byte	.LFE121
 580 02a1 02       		.byte	0x2
 581 02a2 7D       		.byte	0x7d
 582 02a3 00       		.sleb128 0
 583 02a4 B0020000 		.4byte	0x2b0
 584 02a8 15       		.uleb128 0x15
 585 02a9 D7010000 		.4byte	0x1d7
 586 02ad 01       		.byte	0x1
 587 02ae 50       		.byte	0x50
 588 02af 00       		.byte	0
 589 02b0 1F       		.uleb128 0x1f
 590 02b1 AF000000 		.4byte	.LASF29
 591 02b5 06       		.byte	0x6
 592 02b6 9806     		.2byte	0x698
 593 02b8 1E010000 		.4byte	0x11e
 594 02bc 01       		.byte	0x1
 595 02bd 01       		.byte	0x1
 596 02be 20       		.uleb128 0x20
 597 02bf 6F010000 		.4byte	.LASF28
 598 02c3 01       		.byte	0x1
 599 02c4 31       		.byte	0x31
 600 02c5 23010000 		.4byte	0x123
 601 02c9 05       		.byte	0x5
 602 02ca 03       		.byte	0x3
 603 02cb 00000000 		.4byte	measurement_offset
 604 02cf 1F       		.uleb128 0x1f
 605 02d0 AF000000 		.4byte	.LASF29
 606 02d4 06       		.byte	0x6
 607 02d5 9806     		.2byte	0x698
 608 02d7 1E010000 		.4byte	0x11e
 609 02db 01       		.byte	0x1
 610 02dc 01       		.byte	0x1
 611 02dd 00       		.byte	0
 612              		.section	.debug_abbrev,"",%progbits
 613              	.Ldebug_abbrev0:
 614 0000 01       		.uleb128 0x1
 615 0001 11       		.uleb128 0x11
 616 0002 01       		.byte	0x1
 617 0003 25       		.uleb128 0x25
 618 0004 0E       		.uleb128 0xe
 619 0005 13       		.uleb128 0x13
ARM GAS  /var/folders/5n/p_75w94d66l9ssrldxqdhh700000gn/T//ccUYwYT6.s 			page 12


 620 0006 0B       		.uleb128 0xb
 621 0007 03       		.uleb128 0x3
 622 0008 0E       		.uleb128 0xe
 623 0009 1B       		.uleb128 0x1b
 624 000a 0E       		.uleb128 0xe
 625 000b 11       		.uleb128 0x11
 626 000c 01       		.uleb128 0x1
 627 000d 52       		.uleb128 0x52
 628 000e 01       		.uleb128 0x1
 629 000f 55       		.uleb128 0x55
 630 0010 06       		.uleb128 0x6
 631 0011 10       		.uleb128 0x10
 632 0012 06       		.uleb128 0x6
 633 0013 00       		.byte	0
 634 0014 00       		.byte	0
 635 0015 02       		.uleb128 0x2
 636 0016 24       		.uleb128 0x24
 637 0017 00       		.byte	0
 638 0018 0B       		.uleb128 0xb
 639 0019 0B       		.uleb128 0xb
 640 001a 3E       		.uleb128 0x3e
 641 001b 0B       		.uleb128 0xb
 642 001c 03       		.uleb128 0x3
 643 001d 08       		.uleb128 0x8
 644 001e 00       		.byte	0
 645 001f 00       		.byte	0
 646 0020 03       		.uleb128 0x3
 647 0021 24       		.uleb128 0x24
 648 0022 00       		.byte	0
 649 0023 0B       		.uleb128 0xb
 650 0024 0B       		.uleb128 0xb
 651 0025 3E       		.uleb128 0x3e
 652 0026 0B       		.uleb128 0xb
 653 0027 03       		.uleb128 0x3
 654 0028 0E       		.uleb128 0xe
 655 0029 00       		.byte	0
 656 002a 00       		.byte	0
 657 002b 04       		.uleb128 0x4
 658 002c 16       		.uleb128 0x16
 659 002d 00       		.byte	0
 660 002e 03       		.uleb128 0x3
 661 002f 0E       		.uleb128 0xe
 662 0030 3A       		.uleb128 0x3a
 663 0031 0B       		.uleb128 0xb
 664 0032 3B       		.uleb128 0x3b
 665 0033 0B       		.uleb128 0xb
 666 0034 49       		.uleb128 0x49
 667 0035 13       		.uleb128 0x13
 668 0036 00       		.byte	0
 669 0037 00       		.byte	0
 670 0038 05       		.uleb128 0x5
 671 0039 35       		.uleb128 0x35
 672 003a 00       		.byte	0
 673 003b 49       		.uleb128 0x49
 674 003c 13       		.uleb128 0x13
 675 003d 00       		.byte	0
 676 003e 00       		.byte	0
ARM GAS  /var/folders/5n/p_75w94d66l9ssrldxqdhh700000gn/T//ccUYwYT6.s 			page 13


 677 003f 06       		.uleb128 0x6
 678 0040 13       		.uleb128 0x13
 679 0041 01       		.byte	0x1
 680 0042 0B       		.uleb128 0xb
 681 0043 0B       		.uleb128 0xb
 682 0044 3A       		.uleb128 0x3a
 683 0045 0B       		.uleb128 0xb
 684 0046 3B       		.uleb128 0x3b
 685 0047 0B       		.uleb128 0xb
 686 0048 01       		.uleb128 0x1
 687 0049 13       		.uleb128 0x13
 688 004a 00       		.byte	0
 689 004b 00       		.byte	0
 690 004c 07       		.uleb128 0x7
 691 004d 0D       		.uleb128 0xd
 692 004e 00       		.byte	0
 693 004f 03       		.uleb128 0x3
 694 0050 0E       		.uleb128 0xe
 695 0051 3A       		.uleb128 0x3a
 696 0052 0B       		.uleb128 0xb
 697 0053 3B       		.uleb128 0x3b
 698 0054 05       		.uleb128 0x5
 699 0055 49       		.uleb128 0x49
 700 0056 13       		.uleb128 0x13
 701 0057 38       		.uleb128 0x38
 702 0058 0A       		.uleb128 0xa
 703 0059 00       		.byte	0
 704 005a 00       		.byte	0
 705 005b 08       		.uleb128 0x8
 706 005c 16       		.uleb128 0x16
 707 005d 00       		.byte	0
 708 005e 03       		.uleb128 0x3
 709 005f 0E       		.uleb128 0xe
 710 0060 3A       		.uleb128 0x3a
 711 0061 0B       		.uleb128 0xb
 712 0062 3B       		.uleb128 0x3b
 713 0063 05       		.uleb128 0x5
 714 0064 49       		.uleb128 0x49
 715 0065 13       		.uleb128 0x13
 716 0066 00       		.byte	0
 717 0067 00       		.byte	0
 718 0068 09       		.uleb128 0x9
 719 0069 13       		.uleb128 0x13
 720 006a 01       		.byte	0x1
 721 006b 03       		.uleb128 0x3
 722 006c 0E       		.uleb128 0xe
 723 006d 0B       		.uleb128 0xb
 724 006e 0B       		.uleb128 0xb
 725 006f 3A       		.uleb128 0x3a
 726 0070 0B       		.uleb128 0xb
 727 0071 3B       		.uleb128 0x3b
 728 0072 0B       		.uleb128 0xb
 729 0073 01       		.uleb128 0x1
 730 0074 13       		.uleb128 0x13
 731 0075 00       		.byte	0
 732 0076 00       		.byte	0
 733 0077 0A       		.uleb128 0xa
ARM GAS  /var/folders/5n/p_75w94d66l9ssrldxqdhh700000gn/T//ccUYwYT6.s 			page 14


 734 0078 0D       		.uleb128 0xd
 735 0079 00       		.byte	0
 736 007a 03       		.uleb128 0x3
 737 007b 0E       		.uleb128 0xe
 738 007c 3A       		.uleb128 0x3a
 739 007d 0B       		.uleb128 0xb
 740 007e 3B       		.uleb128 0x3b
 741 007f 0B       		.uleb128 0xb
 742 0080 49       		.uleb128 0x49
 743 0081 13       		.uleb128 0x13
 744 0082 38       		.uleb128 0x38
 745 0083 0A       		.uleb128 0xa
 746 0084 00       		.byte	0
 747 0085 00       		.byte	0
 748 0086 0B       		.uleb128 0xb
 749 0087 15       		.uleb128 0x15
 750 0088 01       		.byte	0x1
 751 0089 27       		.uleb128 0x27
 752 008a 0C       		.uleb128 0xc
 753 008b 01       		.uleb128 0x1
 754 008c 13       		.uleb128 0x13
 755 008d 00       		.byte	0
 756 008e 00       		.byte	0
 757 008f 0C       		.uleb128 0xc
 758 0090 05       		.uleb128 0x5
 759 0091 00       		.byte	0
 760 0092 49       		.uleb128 0x49
 761 0093 13       		.uleb128 0x13
 762 0094 00       		.byte	0
 763 0095 00       		.byte	0
 764 0096 0D       		.uleb128 0xd
 765 0097 0F       		.uleb128 0xf
 766 0098 00       		.byte	0
 767 0099 0B       		.uleb128 0xb
 768 009a 0B       		.uleb128 0xb
 769 009b 49       		.uleb128 0x49
 770 009c 13       		.uleb128 0x13
 771 009d 00       		.byte	0
 772 009e 00       		.byte	0
 773 009f 0E       		.uleb128 0xe
 774 00a0 2E       		.uleb128 0x2e
 775 00a1 01       		.byte	0x1
 776 00a2 03       		.uleb128 0x3
 777 00a3 0E       		.uleb128 0xe
 778 00a4 3A       		.uleb128 0x3a
 779 00a5 0B       		.uleb128 0xb
 780 00a6 3B       		.uleb128 0x3b
 781 00a7 0B       		.uleb128 0xb
 782 00a8 27       		.uleb128 0x27
 783 00a9 0C       		.uleb128 0xc
 784 00aa 20       		.uleb128 0x20
 785 00ab 0B       		.uleb128 0xb
 786 00ac 01       		.uleb128 0x1
 787 00ad 13       		.uleb128 0x13
 788 00ae 00       		.byte	0
 789 00af 00       		.byte	0
 790 00b0 0F       		.uleb128 0xf
ARM GAS  /var/folders/5n/p_75w94d66l9ssrldxqdhh700000gn/T//ccUYwYT6.s 			page 15


 791 00b1 05       		.uleb128 0x5
 792 00b2 00       		.byte	0
 793 00b3 03       		.uleb128 0x3
 794 00b4 08       		.uleb128 0x8
 795 00b5 3A       		.uleb128 0x3a
 796 00b6 0B       		.uleb128 0xb
 797 00b7 3B       		.uleb128 0x3b
 798 00b8 0B       		.uleb128 0xb
 799 00b9 49       		.uleb128 0x49
 800 00ba 13       		.uleb128 0x13
 801 00bb 00       		.byte	0
 802 00bc 00       		.byte	0
 803 00bd 10       		.uleb128 0x10
 804 00be 34       		.uleb128 0x34
 805 00bf 00       		.byte	0
 806 00c0 03       		.uleb128 0x3
 807 00c1 08       		.uleb128 0x8
 808 00c2 3A       		.uleb128 0x3a
 809 00c3 0B       		.uleb128 0xb
 810 00c4 3B       		.uleb128 0x3b
 811 00c5 0B       		.uleb128 0xb
 812 00c6 49       		.uleb128 0x49
 813 00c7 13       		.uleb128 0x13
 814 00c8 00       		.byte	0
 815 00c9 00       		.byte	0
 816 00ca 11       		.uleb128 0x11
 817 00cb 2E       		.uleb128 0x2e
 818 00cc 01       		.byte	0x1
 819 00cd 3F       		.uleb128 0x3f
 820 00ce 0C       		.uleb128 0xc
 821 00cf 03       		.uleb128 0x3
 822 00d0 0E       		.uleb128 0xe
 823 00d1 3A       		.uleb128 0x3a
 824 00d2 0B       		.uleb128 0xb
 825 00d3 3B       		.uleb128 0x3b
 826 00d4 0B       		.uleb128 0xb
 827 00d5 27       		.uleb128 0x27
 828 00d6 0C       		.uleb128 0xc
 829 00d7 20       		.uleb128 0x20
 830 00d8 0B       		.uleb128 0xb
 831 00d9 01       		.uleb128 0x1
 832 00da 13       		.uleb128 0x13
 833 00db 00       		.byte	0
 834 00dc 00       		.byte	0
 835 00dd 12       		.uleb128 0x12
 836 00de 2E       		.uleb128 0x2e
 837 00df 01       		.byte	0x1
 838 00e0 03       		.uleb128 0x3
 839 00e1 0E       		.uleb128 0xe
 840 00e2 3A       		.uleb128 0x3a
 841 00e3 0B       		.uleb128 0xb
 842 00e4 3B       		.uleb128 0x3b
 843 00e5 0B       		.uleb128 0xb
 844 00e6 27       		.uleb128 0x27
 845 00e7 0C       		.uleb128 0xc
 846 00e8 11       		.uleb128 0x11
 847 00e9 01       		.uleb128 0x1
ARM GAS  /var/folders/5n/p_75w94d66l9ssrldxqdhh700000gn/T//ccUYwYT6.s 			page 16


 848 00ea 12       		.uleb128 0x12
 849 00eb 01       		.uleb128 0x1
 850 00ec 40       		.uleb128 0x40
 851 00ed 0A       		.uleb128 0xa
 852 00ee 01       		.uleb128 0x1
 853 00ef 13       		.uleb128 0x13
 854 00f0 00       		.byte	0
 855 00f1 00       		.byte	0
 856 00f2 13       		.uleb128 0x13
 857 00f3 05       		.uleb128 0x5
 858 00f4 00       		.byte	0
 859 00f5 03       		.uleb128 0x3
 860 00f6 08       		.uleb128 0x8
 861 00f7 3A       		.uleb128 0x3a
 862 00f8 0B       		.uleb128 0xb
 863 00f9 3B       		.uleb128 0x3b
 864 00fa 0B       		.uleb128 0xb
 865 00fb 49       		.uleb128 0x49
 866 00fc 13       		.uleb128 0x13
 867 00fd 02       		.uleb128 0x2
 868 00fe 0A       		.uleb128 0xa
 869 00ff 00       		.byte	0
 870 0100 00       		.byte	0
 871 0101 14       		.uleb128 0x14
 872 0102 2E       		.uleb128 0x2e
 873 0103 01       		.byte	0x1
 874 0104 31       		.uleb128 0x31
 875 0105 13       		.uleb128 0x13
 876 0106 11       		.uleb128 0x11
 877 0107 01       		.uleb128 0x1
 878 0108 12       		.uleb128 0x12
 879 0109 01       		.uleb128 0x1
 880 010a 40       		.uleb128 0x40
 881 010b 06       		.uleb128 0x6
 882 010c 01       		.uleb128 0x1
 883 010d 13       		.uleb128 0x13
 884 010e 00       		.byte	0
 885 010f 00       		.byte	0
 886 0110 15       		.uleb128 0x15
 887 0111 05       		.uleb128 0x5
 888 0112 00       		.byte	0
 889 0113 31       		.uleb128 0x31
 890 0114 13       		.uleb128 0x13
 891 0115 02       		.uleb128 0x2
 892 0116 0A       		.uleb128 0xa
 893 0117 00       		.byte	0
 894 0118 00       		.byte	0
 895 0119 16       		.uleb128 0x16
 896 011a 34       		.uleb128 0x34
 897 011b 00       		.byte	0
 898 011c 31       		.uleb128 0x31
 899 011d 13       		.uleb128 0x13
 900 011e 02       		.uleb128 0x2
 901 011f 0A       		.uleb128 0xa
 902 0120 00       		.byte	0
 903 0121 00       		.byte	0
 904 0122 17       		.uleb128 0x17
ARM GAS  /var/folders/5n/p_75w94d66l9ssrldxqdhh700000gn/T//ccUYwYT6.s 			page 17


 905 0123 1D       		.uleb128 0x1d
 906 0124 01       		.byte	0x1
 907 0125 31       		.uleb128 0x31
 908 0126 13       		.uleb128 0x13
 909 0127 11       		.uleb128 0x11
 910 0128 01       		.uleb128 0x1
 911 0129 12       		.uleb128 0x12
 912 012a 01       		.uleb128 0x1
 913 012b 58       		.uleb128 0x58
 914 012c 0B       		.uleb128 0xb
 915 012d 59       		.uleb128 0x59
 916 012e 0B       		.uleb128 0xb
 917 012f 00       		.byte	0
 918 0130 00       		.byte	0
 919 0131 18       		.uleb128 0x18
 920 0132 05       		.uleb128 0x5
 921 0133 00       		.byte	0
 922 0134 31       		.uleb128 0x31
 923 0135 13       		.uleb128 0x13
 924 0136 02       		.uleb128 0x2
 925 0137 06       		.uleb128 0x6
 926 0138 00       		.byte	0
 927 0139 00       		.byte	0
 928 013a 19       		.uleb128 0x19
 929 013b 0B       		.uleb128 0xb
 930 013c 01       		.byte	0x1
 931 013d 11       		.uleb128 0x11
 932 013e 01       		.uleb128 0x1
 933 013f 12       		.uleb128 0x12
 934 0140 01       		.uleb128 0x1
 935 0141 00       		.byte	0
 936 0142 00       		.byte	0
 937 0143 1A       		.uleb128 0x1a
 938 0144 34       		.uleb128 0x34
 939 0145 00       		.byte	0
 940 0146 31       		.uleb128 0x31
 941 0147 13       		.uleb128 0x13
 942 0148 00       		.byte	0
 943 0149 00       		.byte	0
 944 014a 1B       		.uleb128 0x1b
 945 014b 2E       		.uleb128 0x2e
 946 014c 01       		.byte	0x1
 947 014d 3F       		.uleb128 0x3f
 948 014e 0C       		.uleb128 0xc
 949 014f 03       		.uleb128 0x3
 950 0150 0E       		.uleb128 0xe
 951 0151 3A       		.uleb128 0x3a
 952 0152 0B       		.uleb128 0xb
 953 0153 3B       		.uleb128 0x3b
 954 0154 0B       		.uleb128 0xb
 955 0155 27       		.uleb128 0x27
 956 0156 0C       		.uleb128 0xc
 957 0157 11       		.uleb128 0x11
 958 0158 01       		.uleb128 0x1
 959 0159 12       		.uleb128 0x12
 960 015a 01       		.uleb128 0x1
 961 015b 40       		.uleb128 0x40
ARM GAS  /var/folders/5n/p_75w94d66l9ssrldxqdhh700000gn/T//ccUYwYT6.s 			page 18


 962 015c 06       		.uleb128 0x6
 963 015d 01       		.uleb128 0x1
 964 015e 13       		.uleb128 0x13
 965 015f 00       		.byte	0
 966 0160 00       		.byte	0
 967 0161 1C       		.uleb128 0x1c
 968 0162 34       		.uleb128 0x34
 969 0163 00       		.byte	0
 970 0164 03       		.uleb128 0x3
 971 0165 08       		.uleb128 0x8
 972 0166 3A       		.uleb128 0x3a
 973 0167 0B       		.uleb128 0xb
 974 0168 3B       		.uleb128 0x3b
 975 0169 0B       		.uleb128 0xb
 976 016a 49       		.uleb128 0x49
 977 016b 13       		.uleb128 0x13
 978 016c 02       		.uleb128 0x2
 979 016d 0A       		.uleb128 0xa
 980 016e 00       		.byte	0
 981 016f 00       		.byte	0
 982 0170 1D       		.uleb128 0x1d
 983 0171 1D       		.uleb128 0x1d
 984 0172 01       		.byte	0x1
 985 0173 31       		.uleb128 0x31
 986 0174 13       		.uleb128 0x13
 987 0175 52       		.uleb128 0x52
 988 0176 01       		.uleb128 0x1
 989 0177 55       		.uleb128 0x55
 990 0178 06       		.uleb128 0x6
 991 0179 58       		.uleb128 0x58
 992 017a 0B       		.uleb128 0xb
 993 017b 59       		.uleb128 0x59
 994 017c 0B       		.uleb128 0xb
 995 017d 00       		.byte	0
 996 017e 00       		.byte	0
 997 017f 1E       		.uleb128 0x1e
 998 0180 2E       		.uleb128 0x2e
 999 0181 01       		.byte	0x1
 1000 0182 31       		.uleb128 0x31
 1001 0183 13       		.uleb128 0x13
 1002 0184 11       		.uleb128 0x11
 1003 0185 01       		.uleb128 0x1
 1004 0186 12       		.uleb128 0x12
 1005 0187 01       		.uleb128 0x1
 1006 0188 40       		.uleb128 0x40
 1007 0189 0A       		.uleb128 0xa
 1008 018a 01       		.uleb128 0x1
 1009 018b 13       		.uleb128 0x13
 1010 018c 00       		.byte	0
 1011 018d 00       		.byte	0
 1012 018e 1F       		.uleb128 0x1f
 1013 018f 34       		.uleb128 0x34
 1014 0190 00       		.byte	0
 1015 0191 03       		.uleb128 0x3
 1016 0192 0E       		.uleb128 0xe
 1017 0193 3A       		.uleb128 0x3a
 1018 0194 0B       		.uleb128 0xb
ARM GAS  /var/folders/5n/p_75w94d66l9ssrldxqdhh700000gn/T//ccUYwYT6.s 			page 19


 1019 0195 3B       		.uleb128 0x3b
 1020 0196 05       		.uleb128 0x5
 1021 0197 49       		.uleb128 0x49
 1022 0198 13       		.uleb128 0x13
 1023 0199 3F       		.uleb128 0x3f
 1024 019a 0C       		.uleb128 0xc
 1025 019b 3C       		.uleb128 0x3c
 1026 019c 0C       		.uleb128 0xc
 1027 019d 00       		.byte	0
 1028 019e 00       		.byte	0
 1029 019f 20       		.uleb128 0x20
 1030 01a0 34       		.uleb128 0x34
 1031 01a1 00       		.byte	0
 1032 01a2 03       		.uleb128 0x3
 1033 01a3 0E       		.uleb128 0xe
 1034 01a4 3A       		.uleb128 0x3a
 1035 01a5 0B       		.uleb128 0xb
 1036 01a6 3B       		.uleb128 0x3b
 1037 01a7 0B       		.uleb128 0xb
 1038 01a8 49       		.uleb128 0x49
 1039 01a9 13       		.uleb128 0x13
 1040 01aa 02       		.uleb128 0x2
 1041 01ab 0A       		.uleb128 0xa
 1042 01ac 00       		.byte	0
 1043 01ad 00       		.byte	0
 1044 01ae 00       		.byte	0
 1045              		.section	.debug_loc,"",%progbits
 1046              	.Ldebug_loc0:
 1047              	.LLST0:
 1048 0000 00000000 		.4byte	.LFB119
 1049 0004 0C000000 		.4byte	.LCFI0
 1050 0008 0200     		.2byte	0x2
 1051 000a 7D       		.byte	0x7d
 1052 000b 00       		.sleb128 0
 1053 000c 0C000000 		.4byte	.LCFI0
 1054 0010 34000000 		.4byte	.LFE119
 1055 0014 0200     		.2byte	0x2
 1056 0016 7D       		.byte	0x7d
 1057 0017 04       		.sleb128 4
 1058 0018 00000000 		.4byte	0
 1059 001c 00000000 		.4byte	0
 1060              	.LLST1:
 1061 0020 22000000 		.4byte	.LVL3
 1062 0024 2A000000 		.4byte	.LVL4
 1063 0028 0100     		.2byte	0x1
 1064 002a 50       		.byte	0x50
 1065 002b 00000000 		.4byte	0
 1066 002f 00000000 		.4byte	0
 1067              	.LLST2:
 1068 0033 00000000 		.4byte	.LFB120
 1069 0037 02000000 		.4byte	.LCFI1
 1070 003b 0200     		.2byte	0x2
 1071 003d 7D       		.byte	0x7d
 1072 003e 00       		.sleb128 0
 1073 003f 02000000 		.4byte	.LCFI1
 1074 0043 08000000 		.4byte	.LCFI2
 1075 0047 0200     		.2byte	0x2
ARM GAS  /var/folders/5n/p_75w94d66l9ssrldxqdhh700000gn/T//ccUYwYT6.s 			page 20


 1076 0049 7D       		.byte	0x7d
 1077 004a 08       		.sleb128 8
 1078 004b 08000000 		.4byte	.LCFI2
 1079 004f 42000000 		.4byte	.LFE120
 1080 0053 0200     		.2byte	0x2
 1081 0055 7D       		.byte	0x7d
 1082 0056 20       		.sleb128 32
 1083 0057 00000000 		.4byte	0
 1084 005b 00000000 		.4byte	0
 1085              	.LLST3:
 1086 005f 24000000 		.4byte	.LVL5
 1087 0063 33000000 		.4byte	.LVL6-1
 1088 0067 0100     		.2byte	0x1
 1089 0069 50       		.byte	0x50
 1090 006a 33000000 		.4byte	.LVL6-1
 1091 006e 38000000 		.4byte	.LVL7
 1092 0072 0300     		.2byte	0x3
 1093 0074 91       		.byte	0x91
 1094 0075 64       		.sleb128 -28
 1095 0076 9F       		.byte	0x9f
 1096 0077 38000000 		.4byte	.LVL7
 1097 007b 39000000 		.4byte	.LVL8-1
 1098 007f 0100     		.2byte	0x1
 1099 0081 50       		.byte	0x50
 1100 0082 39000000 		.4byte	.LVL8-1
 1101 0086 42000000 		.4byte	.LFE120
 1102 008a 0300     		.2byte	0x3
 1103 008c 91       		.byte	0x91
 1104 008d 64       		.sleb128 -28
 1105 008e 9F       		.byte	0x9f
 1106 008f 00000000 		.4byte	0
 1107 0093 00000000 		.4byte	0
 1108              		.section	.debug_aranges,"",%progbits
 1109 0000 34000000 		.4byte	0x34
 1110 0004 0200     		.2byte	0x2
 1111 0006 00000000 		.4byte	.Ldebug_info0
 1112 000a 04       		.byte	0x4
 1113 000b 00       		.byte	0
 1114 000c 0000     		.2byte	0
 1115 000e 0000     		.2byte	0
 1116 0010 00000000 		.4byte	.LFB118
 1117 0014 0E000000 		.4byte	.LFE118-.LFB118
 1118 0018 00000000 		.4byte	.LFB119
 1119 001c 34000000 		.4byte	.LFE119-.LFB119
 1120 0020 00000000 		.4byte	.LFB120
 1121 0024 42000000 		.4byte	.LFE120-.LFB120
 1122 0028 00000000 		.4byte	.LFB121
 1123 002c 22000000 		.4byte	.LFE121-.LFB121
 1124 0030 00000000 		.4byte	0
 1125 0034 00000000 		.4byte	0
 1126              		.section	.debug_ranges,"",%progbits
 1127              	.Ldebug_ranges0:
 1128 0000 02000000 		.4byte	.LBB8
 1129 0004 06000000 		.4byte	.LBE8
 1130 0008 10000000 		.4byte	.LBB13
 1131 000c 14000000 		.4byte	.LBE13
 1132 0010 16000000 		.4byte	.LBB14
ARM GAS  /var/folders/5n/p_75w94d66l9ssrldxqdhh700000gn/T//ccUYwYT6.s 			page 21


 1133 0014 20000000 		.4byte	.LBE14
 1134 0018 24000000 		.4byte	.LBB15
 1135 001c 30000000 		.4byte	.LBE15
 1136 0020 00000000 		.4byte	0
 1137 0024 00000000 		.4byte	0
 1138 0028 00000000 		.4byte	.LFB118
 1139 002c 0E000000 		.4byte	.LFE118
 1140 0030 00000000 		.4byte	.LFB119
 1141 0034 34000000 		.4byte	.LFE119
 1142 0038 00000000 		.4byte	.LFB120
 1143 003c 42000000 		.4byte	.LFE120
 1144 0040 00000000 		.4byte	.LFB121
 1145 0044 22000000 		.4byte	.LFE121
 1146 0048 00000000 		.4byte	0
 1147 004c 00000000 		.4byte	0
 1148              		.section	.debug_line,"",%progbits
 1149              	.Ldebug_line0:
 1150 0000 B4010000 		.section	.debug_str,"MS",%progbits,1
 1150      02003301 
 1150      00000201 
 1150      FB0E0D00 
 1150      01010101 
 1151              	.LASF30:
 1152 0000 474E5520 		.ascii	"GNU C 4.6.2 20111004 (prerelease)\000"
 1152      4320342E 
 1152      362E3220 
 1152      32303131 
 1152      31303034 
 1153              	.LASF18:
 1154 0022 50435352 		.ascii	"PCSR\000"
 1154      00
 1155              	.LASF33:
 1156 0027 746D5F73 		.ascii	"tm_stop\000"
 1156      746F7000 
 1157              	.LASF23:
 1158 002f 73746172 		.ascii	"start\000"
 1158      7400
 1159              	.LASF15:
 1160 0035 534C4545 		.ascii	"SLEEPCNT\000"
 1160      50434E54 
 1160      00
 1161              	.LASF24:
 1162 003e 73746F70 		.ascii	"stop\000"
 1162      00
 1163              	.LASF10:
 1164 0043 6C6F6E67 		.ascii	"long long unsigned int\000"
 1164      206C6F6E 
 1164      6720756E 
 1164      7369676E 
 1164      65642069 
 1165              	.LASF2:
 1166 005a 756E7369 		.ascii	"unsigned char\000"
 1166      676E6564 
 1166      20636861 
 1166      7200
 1167              	.LASF12:
 1168 0068 43594343 		.ascii	"CYCCNT\000"
ARM GAS  /var/folders/5n/p_75w94d66l9ssrldxqdhh700000gn/T//ccUYwYT6.s 			page 22


 1168      4E5400
 1169              	.LASF36:
 1170 006f 746D496E 		.ascii	"tmInit\000"
 1170      697400
 1171              	.LASF8:
 1172 0076 6C6F6E67 		.ascii	"long unsigned int\000"
 1172      20756E73 
 1172      69676E65 
 1172      6420696E 
 1172      7400
 1173              	.LASF34:
 1174 0088 746D4F62 		.ascii	"tmObjectInit\000"
 1174      6A656374 
 1174      496E6974 
 1174      00
 1175              	.LASF4:
 1176 0095 73686F72 		.ascii	"short unsigned int\000"
 1176      7420756E 
 1176      7369676E 
 1176      65642069 
 1176      6E7400
 1177              	.LASF13:
 1178 00a8 43504943 		.ascii	"CPICNT\000"
 1178      4E5400
 1179              	.LASF29:
 1180 00af 49544D5F 		.ascii	"ITM_RxBuffer\000"
 1180      52784275 
 1180      66666572 
 1180      00
 1181              	.LASF17:
 1182 00bc 464F4C44 		.ascii	"FOLDCNT\000"
 1182      434E5400 
 1183              	.LASF26:
 1184 00c4 776F7273 		.ascii	"worst\000"
 1184      7400
 1185              	.LASF16:
 1186 00ca 4C535543 		.ascii	"LSUCNT\000"
 1186      4E5400
 1187              	.LASF32:
 1188 00d1 2F557365 		.ascii	"/Users/sin/Documents/Eclipse/Workspace/mabl-ChibiOS"
 1188      72732F73 
 1188      696E2F44 
 1188      6F63756D 
 1188      656E7473 
 1189 0104 2D322E35 		.ascii	"-2.5.1/demos/ARMCM4-STM32F407-LWIP\000"
 1189      2E312F64 
 1189      656D6F73 
 1189      2F41524D 
 1189      434D342D 
 1190              	.LASF0:
 1191 0127 756E7369 		.ascii	"unsigned int\000"
 1191      676E6564 
 1191      20696E74 
 1191      00
 1192              	.LASF21:
 1193 0134 68616C72 		.ascii	"halrtcnt_t\000"
 1193      74636E74 
ARM GAS  /var/folders/5n/p_75w94d66l9ssrldxqdhh700000gn/T//ccUYwYT6.s 			page 23


 1193      5F7400
 1194              	.LASF20:
 1195 013f 63686172 		.ascii	"char\000"
 1195      00
 1196              	.LASF35:
 1197 0144 746D5F73 		.ascii	"tm_start\000"
 1197      74617274 
 1197      00
 1198              	.LASF11:
 1199 014d 4354524C 		.ascii	"CTRL\000"
 1199      00
 1200              	.LASF14:
 1201 0152 45584343 		.ascii	"EXCCNT\000"
 1201      4E5400
 1202              	.LASF6:
 1203 0159 696E7433 		.ascii	"int32_t\000"
 1203      325F7400 
 1204              	.LASF9:
 1205 0161 6C6F6E67 		.ascii	"long long int\000"
 1205      206C6F6E 
 1205      6720696E 
 1205      7400
 1206              	.LASF28:
 1207 016f 6D656173 		.ascii	"measurement_offset\000"
 1207      7572656D 
 1207      656E745F 
 1207      6F666673 
 1207      657400
 1208              	.LASF3:
 1209 0182 73686F72 		.ascii	"short int\000"
 1209      7420696E 
 1209      7400
 1210              	.LASF31:
 1211 018c 2E2E2F2E 		.ascii	"../../os/hal/src/tm.c\000"
 1211      2E2F6F73 
 1211      2F68616C 
 1211      2F737263 
 1211      2F746D2E 
 1212              	.LASF19:
 1213 01a2 434D785F 		.ascii	"CMx_DWT\000"
 1213      44575400 
 1214              	.LASF27:
 1215 01aa 62657374 		.ascii	"best\000"
 1215      00
 1216              	.LASF7:
 1217 01af 75696E74 		.ascii	"uint32_t\000"
 1217      33325F74 
 1217      00
 1218              	.LASF5:
 1219 01b8 6C6F6E67 		.ascii	"long int\000"
 1219      20696E74 
 1219      00
 1220              	.LASF1:
 1221 01c1 7369676E 		.ascii	"signed char\000"
 1221      65642063 
 1221      68617200 
 1222              	.LASF22:
ARM GAS  /var/folders/5n/p_75w94d66l9ssrldxqdhh700000gn/T//ccUYwYT6.s 			page 24


 1223 01cd 54696D65 		.ascii	"TimeMeasurement\000"
 1223      4D656173 
 1223      7572656D 
 1223      656E7400 
 1224              	.LASF25:
 1225 01dd 6C617374 		.ascii	"last\000"
 1225      00
 1226              		.ident	"GCC: (Linaro GCC 4.6-2011.10) 4.6.2 20111004 (prerelease)"
ARM GAS  /var/folders/5n/p_75w94d66l9ssrldxqdhh700000gn/T//ccUYwYT6.s 			page 25


DEFINED SYMBOLS
                            *ABS*:0000000000000000 tm.c
/var/folders/5n/p_75w94d66l9ssrldxqdhh700000gn/T//ccUYwYT6.s:18     .text.tm_start:0000000000000000 $t
/var/folders/5n/p_75w94d66l9ssrldxqdhh700000gn/T//ccUYwYT6.s:23     .text.tm_start:0000000000000000 tm_start
/var/folders/5n/p_75w94d66l9ssrldxqdhh700000gn/T//ccUYwYT6.s:43     .text.tm_stop:0000000000000000 $t
/var/folders/5n/p_75w94d66l9ssrldxqdhh700000gn/T//ccUYwYT6.s:48     .text.tm_stop:0000000000000000 tm_stop
/var/folders/5n/p_75w94d66l9ssrldxqdhh700000gn/T//ccUYwYT6.s:105    .text.tm_stop:0000000000000030 $d
/var/folders/5n/p_75w94d66l9ssrldxqdhh700000gn/T//ccUYwYT6.s:110    .text.tmInit:0000000000000000 $t
/var/folders/5n/p_75w94d66l9ssrldxqdhh700000gn/T//ccUYwYT6.s:116    .text.tmInit:0000000000000000 tmInit
/var/folders/5n/p_75w94d66l9ssrldxqdhh700000gn/T//ccUYwYT6.s:236    .bss.measurement_offset:0000000000000000 .LANCHOR0
/var/folders/5n/p_75w94d66l9ssrldxqdhh700000gn/T//ccUYwYT6.s:195    .text.tmObjectInit:0000000000000000 $t
/var/folders/5n/p_75w94d66l9ssrldxqdhh700000gn/T//ccUYwYT6.s:201    .text.tmObjectInit:0000000000000000 tmObjectInit
/var/folders/5n/p_75w94d66l9ssrldxqdhh700000gn/T//ccUYwYT6.s:235    .bss.measurement_offset:0000000000000000 $d
/var/folders/5n/p_75w94d66l9ssrldxqdhh700000gn/T//ccUYwYT6.s:239    .bss.measurement_offset:0000000000000000 measurement_offset
                     .debug_frame:0000000000000010 $d
/var/folders/5n/p_75w94d66l9ssrldxqdhh700000gn/T//ccUYwYT6.s:109    .text.tm_stop:0000000000000034 $t

NO UNDEFINED SYMBOLS
