ARM GAS  /var/folders/5n/p_75w94d66l9ssrldxqdhh700000gn/T//ccUYwYT6.s 			page 1


   1              		.syntax unified
   2              		.cpu cortex-m4
   3              		.fpu softvfp
   4              		.eabi_attribute 20, 1
   5              		.eabi_attribute 21, 1
   6              		.eabi_attribute 23, 3
   7              		.eabi_attribute 24, 1
   8              		.eabi_attribute 25, 1
   9              		.eabi_attribute 26, 1
  10              		.eabi_attribute 30, 2
  11              		.eabi_attribute 18, 4
  12              		.thumb
  13              		.file	"tm.c"
  14              		.text
  15              	.Ltext0:
  16              		.cfi_sections	.debug_frame
  17              		.section	.text.tm_start,"ax",%progbits
  18              		.align	2
  19              		.p2align 4,,15
  20              		.thumb
  21              		.thumb_func
  22              		.type	tm_start, %function
  23              	tm_start:
  24              	.LFB118:
  25              		.file 1 "../../os/hal/src/tm.c"
  26              		.loc 1 62 0
  27              		.cfi_startproc
  28              		@ args = 0, pretend = 0, frame = 0
  29              		@ frame_needed = 0, uses_anonymous_args = 0
  30              		@ link register save eliminated.
  31              	.LVL0:
  32              		.loc 1 64 0
  33 0000 4FF48053 		mov	r3, #4096
  34 0004 CEF20003 		movt	r3, 57344
  35 0008 5B68     		ldr	r3, [r3, #4]
  36 000a 8360     		str	r3, [r0, #8]
  37              		.loc 1 65 0
  38 000c 7047     		bx	lr
  39              		.cfi_endproc
  40              	.LFE118:
  41              		.size	tm_start, .-tm_start
  42              		.section	.text.tm_stop,"ax",%progbits
  43              		.align	2
  44              		.p2align 4,,15
  45              		.thumb
  46              		.thumb_func
  47              		.type	tm_stop, %function
  48              	tm_stop:
  49              	.LFB119:
  50              		.loc 1 74 0
  51              		.cfi_startproc
  52              		@ args = 0, pretend = 0, frame = 0
  53              		@ frame_needed = 0, uses_anonymous_args = 0
  54              		@ link register save eliminated.
  55              	.LVL1:
  56              		.loc 1 76 0
  57 0000 4FF48053 		mov	r3, #4096
ARM GAS  /var/folders/5n/p_75w94d66l9ssrldxqdhh700000gn/T//ccUYwYT6.s 			page 2


  58 0004 CEF20003 		movt	r3, 57344
  59              		.loc 1 77 0
  60 0008 094A     		ldr	r2, .L6
  61              		.loc 1 74 0
  62 000a 10B4     		push	{r4}
  63              	.LCFI0:
  64              		.cfi_def_cfa_offset 4
  65              		.cfi_offset 4, -4
  66              		.loc 1 76 0
  67 000c 5C68     		ldr	r4, [r3, #4]
  68              	.LVL2:
  69              		.loc 1 77 0
  70 000e 8368     		ldr	r3, [r0, #8]
  71 0010 1168     		ldr	r1, [r2, #0]
  72              		.loc 1 78 0
  73 0012 C268     		ldr	r2, [r0, #12]
  74              		.loc 1 77 0
  75 0014 E31A     		subs	r3, r4, r3
  76 0016 5B1A     		subs	r3, r3, r1
  77              		.loc 1 78 0
  78 0018 9342     		cmp	r3, r2
  79              		.loc 1 77 0
  80 001a 8360     		str	r3, [r0, #8]
  81              		.loc 1 79 0
  82 001c 88BF     		it	hi
  83 001e C360     		strhi	r3, [r0, #12]
  84              		.loc 1 78 0
  85 0020 03D8     		bhi	.L2
  86              	.LVL3:
  87              	.LBB6:
  88              	.LBB7:
  89              		.loc 1 80 0
  90 0022 0269     		ldr	r2, [r0, #16]
  91 0024 9342     		cmp	r3, r2
  92              		.loc 1 81 0
  93 0026 38BF     		it	cc
  94 0028 0361     		strcc	r3, [r0, #16]
  95              	.LVL4:
  96              	.L2:
  97              	.LBE7:
  98              	.LBE6:
  99              		.loc 1 82 0
 100 002a 10BC     		pop	{r4}
 101 002c 7047     		bx	lr
 102              	.L7:
 103 002e 00BF     		.align	2
 104              	.L6:
 105 0030 00000000 		.word	.LANCHOR0
 106              		.cfi_endproc
 107              	.LFE119:
 108              		.size	tm_stop, .-tm_stop
 109 0034 AFF30080 		.section	.text.tmInit,"ax",%progbits
 109      AFF30080 
 109      AFF30080 
 110              		.align	2
 111              		.p2align 4,,15
 112              		.global	tmInit
ARM GAS  /var/folders/5n/p_75w94d66l9ssrldxqdhh700000gn/T//ccUYwYT6.s 			page 3


 113              		.thumb
 114              		.thumb_func
 115              		.type	tmInit, %function
 116              	tmInit:
 117              	.LFB120:
 118              		.loc 1 97 0
 119              		.cfi_startproc
 120              		@ args = 0, pretend = 0, frame = 24
 121              		@ frame_needed = 0, uses_anonymous_args = 0
 122 0000 10B5     		push	{r4, lr}
 123              	.LCFI1:
 124              		.cfi_def_cfa_offset 8
 125              		.cfi_offset 14, -4
 126              		.cfi_offset 4, -8
 127              	.LBB8:
 128              	.LBB9:
 129              		.loc 1 119 0
 130 0002 40F20002 		movw	r2, #:lower16:tm_start
 131              	.LBE9:
 132              	.LBE8:
 133              		.loc 1 97 0
 134 0006 86B0     		sub	sp, sp, #24
 135              	.LCFI2:
 136              		.cfi_def_cfa_offset 32
 137              		.loc 1 103 0
 138 0008 40F20004 		movw	r4, #:lower16:.LANCHOR0
 139 000c C0F20004 		movt	r4, #:upper16:.LANCHOR0
 140              	.LBB13:
 141              	.LBB10:
 142              		.loc 1 119 0
 143 0010 C0F20002 		movt	r2, #:upper16:tm_start
 144              	.LBE10:
 145              	.LBE13:
 146              		.loc 1 103 0
 147 0014 0023     		movs	r3, #0
 148              	.LBB14:
 149              	.LBB11:
 150              		.loc 1 119 0
 151 0016 0192     		str	r2, [sp, #4]
 152              		.loc 1 120 0
 153 0018 40F20002 		movw	r2, #:lower16:tm_stop
 154 001c C0F20002 		movt	r2, #:upper16:tm_stop
 155              	.LBE11:
 156              	.LBE14:
 157              		.loc 1 105 0
 158 0020 01A8     		add	r0, sp, #4
 159              		.loc 1 103 0
 160 0022 2360     		str	r3, [r4, #0]
 161              	.LVL5:
 162              	.LBB15:
 163              	.LBB12:
 164              		.loc 1 121 0
 165 0024 0393     		str	r3, [sp, #12]
 166              		.loc 1 122 0
 167 0026 0493     		str	r3, [sp, #16]
 168              		.loc 1 123 0
 169 0028 4FF0FF33 		mov	r3, #-1
ARM GAS  /var/folders/5n/p_75w94d66l9ssrldxqdhh700000gn/T//ccUYwYT6.s 			page 4


 170              		.loc 1 120 0
 171 002c 0292     		str	r2, [sp, #8]
 172              		.loc 1 123 0
 173 002e 0593     		str	r3, [sp, #20]
 174              	.LBE12:
 175              	.LBE15:
 176              		.loc 1 105 0
 177 0030 FFF7FEFF 		bl	tm_start
 178              	.LVL6:
 179              		.loc 1 106 0
 180 0034 029B     		ldr	r3, [sp, #8]
 181 0036 01A8     		add	r0, sp, #4
 182              	.LVL7:
 183 0038 9847     		blx	r3
 184              	.LVL8:
 185              		.loc 1 107 0
 186 003a 039B     		ldr	r3, [sp, #12]
 187 003c 2360     		str	r3, [r4, #0]
 188              		.loc 1 108 0
 189 003e 06B0     		add	sp, sp, #24
 190 0040 10BD     		pop	{r4, pc}
 191              		.cfi_endproc
 192              	.LFE120:
 193              		.size	tmInit, .-tmInit
 194 0042 00BFAFF3 		.section	.text.tmObjectInit,"ax",%progbits
 194      0080AFF3 
 194      0080AFF3 
 194      0080
 195              		.align	2
 196              		.p2align 4,,15
 197              		.global	tmObjectInit
 198              		.thumb
 199              		.thumb_func
 200              		.type	tmObjectInit, %function
 201              	tmObjectInit:
 202              	.LFB121:
 203              		.loc 1 117 0
 204              		.cfi_startproc
 205              		@ args = 0, pretend = 0, frame = 0
 206              		@ frame_needed = 0, uses_anonymous_args = 0
 207              		@ link register save eliminated.
 208              	.LVL9:
 209              		.loc 1 119 0
 210 0000 40F20002 		movw	r2, #:lower16:tm_start
 211 0004 C0F20002 		movt	r2, #:upper16:tm_start
 212              		.loc 1 121 0
 213 0008 0023     		movs	r3, #0
 214              		.loc 1 119 0
 215 000a 0260     		str	r2, [r0, #0]
 216              		.loc 1 120 0
 217 000c 40F20002 		movw	r2, #:lower16:tm_stop
 218 0010 C0F20002 		movt	r2, #:upper16:tm_stop
 219              		.loc 1 121 0
 220 0014 8360     		str	r3, [r0, #8]
 221              		.loc 1 122 0
 222 0016 C360     		str	r3, [r0, #12]
 223              		.loc 1 123 0
ARM GAS  /var/folders/5n/p_75w94d66l9ssrldxqdhh700000gn/T//ccUYwYT6.s 			page 5


 224 0018 4FF0FF33 		mov	r3, #-1
 225              		.loc 1 120 0
 226 001c 4260     		str	r2, [r0, #4]
 227              		.loc 1 123 0
 228 001e 0361     		str	r3, [r0, #16]
 229              		.loc 1 124 0
 230 0020 7047     		bx	lr
 231              		.cfi_endproc
 232              	.LFE121:
 233              		.size	tmObjectInit, .-tmObjectInit
 234 0022 00BFAFF3 		.section	.bss.measurement_offset,"aw",%nobits
 234      0080AFF3 
 234      0080AFF3 
 234      0080
 235              		.align	2
 236              		.set	.LANCHOR0,. + 0
 237              		.type	measurement_offset, %object
 238              		.size	measurement_offset, 4
 239              	measurement_offset:
 240 0000 00000000 		.space	4
 241              		.text
 242              	.Letext0:
 243              		.file 2 "/usr/local/summon/lib/gcc/arm-none-eabi/4.6.2/../../../../arm-none-eabi/include/stdint.h"
 244              		.file 3 "../../os/ports/common/ARMCMx/nvic.h"
 245              		.file 4 "../../os/hal/platforms/STM32F4xx/hal_lld.h"
 246              		.file 5 "../../os/hal/include/tm.h"
 247              		.file 6 "../../os/ports/common/ARMCMx/CMSIS/include/core_cm4.h"