ARM GAS  /var/folders/5n/p_75w94d66l9ssrldxqdhh700000gn/T//cc5xVnwI.s 			page 1


   1              		.syntax unified
   2              		.cpu cortex-m4
   3              		.fpu softvfp
   4              		.eabi_attribute 20, 1
   5              		.eabi_attribute 21, 1
   6              		.eabi_attribute 23, 3
   7              		.eabi_attribute 24, 1
   8              		.eabi_attribute 25, 1
   9              		.eabi_attribute 26, 1
  10              		.eabi_attribute 30, 2
  11              		.eabi_attribute 18, 4
  12              		.thumb
  13              		.file	"web.c"
  14              		.text
  15              	.Ltext0:
  16              		.cfi_sections	.debug_frame
  17              		.section	.text.http_server,"ax",%progbits
  18              		.align	2
  19              		.p2align 4,,15
  20              		.global	http_server
  21              		.thumb
  22              		.thumb_func
  23              		.type	http_server, %function
  24              	http_server:
  25              	.LFB8:
  26              		.file 1 "web/web.c"
  27              		.loc 1 94 0
  28              		.cfi_startproc
  29              		@ args = 0, pretend = 0, frame = 16
  30              		@ frame_needed = 0, uses_anonymous_args = 0
  31              	.LVL0:
  32 0000 70B5     		push	{r4, r5, r6, lr}
  33              	.LCFI0:
  34              		.cfi_def_cfa_offset 16
  35              		.cfi_offset 14, -4
  36              		.cfi_offset 6, -8
  37              		.cfi_offset 5, -12
  38              		.cfi_offset 4, -16
  39              		.loc 1 101 0
  40 0002 0021     		movs	r1, #0
  41              		.loc 1 94 0
  42 0004 84B0     		sub	sp, sp, #16
  43              	.LCFI1:
  44              		.cfi_def_cfa_offset 32
  45              		.loc 1 101 0
  46 0006 1020     		movs	r0, #16
  47              	.LVL1:
  48 0008 0A46     		mov	r2, r1
  49 000a FFF7FEFF 		bl	netconn_new_with_proto_and_callback
  50              	.LVL2:
  51              		.loc 1 102 0
  52 000e 0546     		mov	r5, r0
  53 0010 0028     		cmp	r0, #0
  54 0012 48D0     		beq	.L10
  55              		.loc 1 105 0
  56 0014 5022     		movs	r2, #80
  57 0016 0021     		movs	r1, #0
ARM GAS  /var/folders/5n/p_75w94d66l9ssrldxqdhh700000gn/T//cc5xVnwI.s 			page 2


  58 0018 FFF7FEFF 		bl	netconn_bind
  59              	.LVL3:
  60              		.loc 1 108 0
  61 001c 2846     		mov	r0, r5
  62 001e FF21     		movs	r1, #255
  63 0020 FFF7FEFF 		bl	netconn_listen_with_backlog
  64              		.loc 1 111 0
  65 0024 0420     		movs	r0, #4
  66 0026 FFF7FEFF 		bl	chThdSetPriority
  67              	.LVL4:
  68              	.L8:
  69              		.loc 1 114 0
  70 002a 6946     		mov	r1, sp
  71 002c 2846     		mov	r0, r5
  72 002e FFF7FEFF 		bl	netconn_accept
  73              	.LVL5:
  74              	.LBB4:
  75              	.LBB5:
  76              		.loc 1 54 0
  77 0032 01A9     		add	r1, sp, #4
  78              	.LBE5:
  79              	.LBE4:
  80              		.loc 1 115 0
  81 0034 0028     		cmp	r0, #0
  82 0036 F8D1     		bne	.L8
  83              		.loc 1 117 0
  84 0038 009C     		ldr	r4, [sp, #0]
  85              	.LVL6:
  86              	.LBB8:
  87              	.LBB6:
  88              		.loc 1 54 0
  89 003a 2046     		mov	r0, r4
  90              	.LVL7:
  91 003c FFF7FEFF 		bl	netconn_recv
  92              	.LVL8:
  93              		.loc 1 56 0
  94 0040 0646     		mov	r6, r0
  95 0042 48B1     		cbz	r0, .L11
  96              	.LVL9:
  97              	.L4:
  98              		.loc 1 79 0
  99 0044 2046     		mov	r0, r4
 100 0046 FFF7FEFF 		bl	netconn_close
 101              	.LVL10:
 102              		.loc 1 83 0
 103 004a 0198     		ldr	r0, [sp, #4]
 104 004c FFF7FEFF 		bl	netbuf_delete
 105              	.LBE6:
 106              	.LBE8:
 107              		.loc 1 118 0
 108 0050 0098     		ldr	r0, [sp, #0]
 109 0052 FFF7FEFF 		bl	netconn_delete
 110 0056 E8E7     		b	.L8
 111              	.LVL11:
 112              	.L11:
 113              	.LBB9:
 114              	.LBB7:
ARM GAS  /var/folders/5n/p_75w94d66l9ssrldxqdhh700000gn/T//cc5xVnwI.s 			page 3


 115              		.loc 1 57 0
 116 0058 02A9     		add	r1, sp, #8
 117 005a 0DF10E02 		add	r2, sp, #14
 118 005e 0198     		ldr	r0, [sp, #4]
 119              	.LVL12:
 120 0060 FFF7FEFF 		bl	netbuf_data
 121              	.LVL13:
 122              		.loc 1 61 0
 123 0064 BDF80E30 		ldrh	r3, [sp, #14]
 124              	.LVL14:
 125 0068 042B     		cmp	r3, #4
 126              	.LVL15:
 127 006a EBD9     		bls	.L4
 128              		.loc 1 62 0
 129 006c 029B     		ldr	r3, [sp, #8]
 130              	.LVL16:
 131              		.loc 1 61 0
 132 006e 1A78     		ldrb	r2, [r3, #0]	@ zero_extendqisi2
 133 0070 472A     		cmp	r2, #71
 134 0072 E7D1     		bne	.L4
 135              		.loc 1 62 0
 136 0074 5A78     		ldrb	r2, [r3, #1]	@ zero_extendqisi2
 137 0076 452A     		cmp	r2, #69
 138 0078 E4D1     		bne	.L4
 139              		.loc 1 63 0
 140 007a 9A78     		ldrb	r2, [r3, #2]	@ zero_extendqisi2
 141 007c 542A     		cmp	r2, #84
 142 007e E1D1     		bne	.L4
 143              		.loc 1 64 0
 144 0080 DA78     		ldrb	r2, [r3, #3]	@ zero_extendqisi2
 145 0082 202A     		cmp	r2, #32
 146 0084 DED1     		bne	.L4
 147              		.loc 1 65 0
 148 0086 1B79     		ldrb	r3, [r3, #4]	@ zero_extendqisi2
 149 0088 2F2B     		cmp	r3, #47
 150 008a DBD1     		bne	.L4
 151              		.loc 1 72 0
 152 008c 3346     		mov	r3, r6
 153 008e 2C22     		movs	r2, #44
 154 0090 2046     		mov	r0, r4
 155 0092 0849     		ldr	r1, .L12
 156 0094 FFF7FEFF 		bl	netconn_write
 157              		.loc 1 75 0
 158 0098 2046     		mov	r0, r4
 159 009a 0749     		ldr	r1, .L12+4
 160 009c 8522     		movs	r2, #133
 161 009e 3346     		mov	r3, r6
 162 00a0 FFF7FEFF 		bl	netconn_write
 163 00a4 CEE7     		b	.L4
 164              	.LVL17:
 165              	.L10:
 166              	.LBE7:
 167              	.LBE9:
 168              		.loc 1 102 0 discriminator 1
 169 00a6 FFF7FEFF 		bl	port_halt
 170              		.loc 1 121 0 discriminator 1
 171 00aa 6FF00100 		mvn	r0, #1
ARM GAS  /var/folders/5n/p_75w94d66l9ssrldxqdhh700000gn/T//cc5xVnwI.s 			page 4


 172 00ae 04B0     		add	sp, sp, #16
 173 00b0 70BD     		pop	{r4, r5, r6, pc}
 174              	.L13:
 175 00b2 00BF     		.align	2
 176              	.L12:
 177 00b4 00000000 		.word	.LANCHOR0
 178 00b8 00000000 		.word	.LANCHOR1
 179              		.cfi_endproc
 180              	.LFE8:
 181              		.size	http_server, .-http_server
 182              		.global	wa_http_server
 183 00bc AFF30080 		.section	.rodata.http_index_html,"a",%progbits
 184              		.align	2
 185              		.set	.LANCHOR1,. + 0
 186              		.type	http_index_html, %object
 187              		.size	http_index_html, 134
 188              	http_index_html:
 189 0000 3C68746D 		.ascii	"<html><head><title>Congrats!</title></head><body><h"
 189      6C3E3C68 
 189      6561643E 
 189      3C746974 
 189      6C653E43 
 190 0033 313E5765 		.ascii	"1>Welcome to our lwIP HTTP server!</h1><p>This is a"
 190      6C636F6D 
 190      6520746F 
 190      206F7572 
 190      206C7749 
 191 0066 20736D61 		.ascii	" small test page.</body></html>\000"
 191      6C6C2074 
 191      65737420 
 191      70616765 
 191      2E3C2F62 
 192 0086 0000     		.section	.bss.wa_http_server,"aw",%nobits
 193              		.align	3
 194              		.type	wa_http_server, %object
 195              		.size	wa_http_server, 1200
 196              	wa_http_server:
 197 0000 00000000 		.space	1200
 197      00000000 
 197      00000000 
 197      00000000 
 197      00000000 
 198              		.section	.rodata.http_html_hdr,"a",%progbits
 199              		.align	2
 200              		.set	.LANCHOR0,. + 0
 201              		.type	http_html_hdr, %object
 202              		.size	http_html_hdr, 45
 203              	http_html_hdr:
 204 0000 48545450 		.ascii	"HTTP/1.1 200 OK\015\012Content-type: text/html\015\012"
 204      2F312E31 
 204      20323030 
 204      204F4B0D 
 204      0A436F6E 
 205 002a 0D0A00   		.ascii	"\015\012\000"
 206 002d 000000   		.text
 207              	.Letext0:
 208              		.file 2 "/usr/local/summon/lib/gcc/arm-none-eabi/4.6.2/include/stddef.h"
ARM GAS  /var/folders/5n/p_75w94d66l9ssrldxqdhh700000gn/T//cc5xVnwI.s 			page 5


 209              		.file 3 "/usr/local/summon/lib/gcc/arm-none-eabi/4.6.2/../../../../arm-none-eabi/include/stdint.h"
 210              		.file 4 "../../os/ports/GCC/ARMCMx/chtypes.h"
 211              		.file 5 "../../os/kernel/include/chlists.h"
 212              		.file 6 "../../os/kernel/include/chthreads.h"
 213              		.file 7 "../../os/ports/GCC/ARMCMx/chcore_v7m.h"
 214              		.file 8 "../../os/kernel/include/chsem.h"
 215              		.file 9 "../../os/kernel/include/chmtx.h"
 216              		.file 10 "../../os/kernel/include/chmboxes.h"
 217              		.file 11 "../../os/various/lwip_bindings/arch/cc.h"
 218              		.file 12 "../../ext/lwip/src/include/lwip/err.h"
 219              		.file 13 "../../ext/lwip/src/include/lwip/pbuf.h"
 220              		.file 14 "../../ext/lwip/src/include/ipv4/lwip/ip_addr.h"
 221              		.file 15 "../../ext/lwip/src/include/lwip/netbuf.h"
 222              		.file 16 "../../os/various/lwip_bindings/arch/sys_arch.h"
 223              		.file 17 "../../ext/lwip/src/include/lwip/api.h"
 224              		.section	.debug_info,"",%progbits
 225              	.Ldebug_info0:
 226 0000 14090000 		.4byte	0x914
 227 0004 0200     		.2byte	0x2
 228 0006 00000000 		.4byte	.Ldebug_abbrev0
 229 000a 04       		.byte	0x4
 230 000b 01       		.uleb128 0x1
 231 000c 2B040000 		.4byte	.LASF129
 232 0010 01       		.byte	0x1
 233 0011 4A020000 		.4byte	.LASF130
 234 0015 DD040000 		.4byte	.LASF131
 235 0019 00000000 		.4byte	0
 236 001d 00000000 		.4byte	0
 237 0021 40000000 		.4byte	.Ldebug_ranges0+0x40
 238 0025 00000000 		.4byte	.Ldebug_line0
 239 0029 02       		.uleb128 0x2
 240 002a 04       		.byte	0x4
 241 002b 05       		.byte	0x5
 242 002c 696E7400 		.ascii	"int\000"
 243 0030 03       		.uleb128 0x3
 244 0031 12000000 		.4byte	.LASF1
 245 0035 02       		.byte	0x2
 246 0036 D4       		.byte	0xd4
 247 0037 3B000000 		.4byte	0x3b
 248 003b 04       		.uleb128 0x4
 249 003c 04       		.byte	0x4
 250 003d 07       		.byte	0x7
 251 003e 77010000 		.4byte	.LASF0
 252 0042 03       		.uleb128 0x3
 253 0043 4D040000 		.4byte	.LASF2
 254 0047 03       		.byte	0x3
 255 0048 29       		.byte	0x29
 256 0049 4D000000 		.4byte	0x4d
 257 004d 04       		.uleb128 0x4
 258 004e 01       		.byte	0x1
 259 004f 06       		.byte	0x6
 260 0050 B6000000 		.4byte	.LASF3
 261 0054 03       		.uleb128 0x3
 262 0055 89040000 		.4byte	.LASF4
 263 0059 03       		.byte	0x3
 264 005a 2A       		.byte	0x2a
 265 005b 5F000000 		.4byte	0x5f
ARM GAS  /var/folders/5n/p_75w94d66l9ssrldxqdhh700000gn/T//cc5xVnwI.s 			page 6


 266 005f 04       		.uleb128 0x4
 267 0060 01       		.byte	0x1
 268 0061 08       		.byte	0x8
 269 0062 F3020000 		.4byte	.LASF5
 270 0066 04       		.uleb128 0x4
 271 0067 02       		.byte	0x2
 272 0068 05       		.byte	0x5
 273 0069 12030000 		.4byte	.LASF6
 274 006d 03       		.uleb128 0x3
 275 006e 30010000 		.4byte	.LASF7
 276 0072 03       		.byte	0x3
 277 0073 36       		.byte	0x36
 278 0074 78000000 		.4byte	0x78
 279 0078 04       		.uleb128 0x4
 280 0079 02       		.byte	0x2
 281 007a 07       		.byte	0x7
 282 007b EC010000 		.4byte	.LASF8
 283 007f 03       		.uleb128 0x3
 284 0080 EB020000 		.4byte	.LASF9
 285 0084 03       		.byte	0x3
 286 0085 4F       		.byte	0x4f
 287 0086 8A000000 		.4byte	0x8a
 288 008a 04       		.uleb128 0x4
 289 008b 04       		.byte	0x4
 290 008c 05       		.byte	0x5
 291 008d FE000000 		.4byte	.LASF10
 292 0091 03       		.uleb128 0x3
 293 0092 C0030000 		.4byte	.LASF11
 294 0096 03       		.byte	0x3
 295 0097 50       		.byte	0x50
 296 0098 9C000000 		.4byte	0x9c
 297 009c 04       		.uleb128 0x4
 298 009d 04       		.byte	0x4
 299 009e 07       		.byte	0x7
 300 009f 9A010000 		.4byte	.LASF12
 301 00a3 04       		.uleb128 0x4
 302 00a4 08       		.byte	0x8
 303 00a5 05       		.byte	0x5
 304 00a6 A8000000 		.4byte	.LASF13
 305 00aa 03       		.uleb128 0x3
 306 00ab 27000000 		.4byte	.LASF14
 307 00af 03       		.byte	0x3
 308 00b0 78       		.byte	0x78
 309 00b1 B5000000 		.4byte	0xb5
 310 00b5 04       		.uleb128 0x4
 311 00b6 08       		.byte	0x8
 312 00b7 07       		.byte	0x7
 313 00b8 57000000 		.4byte	.LASF15
 314 00bc 03       		.uleb128 0x3
 315 00bd 1C020000 		.4byte	.LASF16
 316 00c1 04       		.byte	0x4
 317 00c2 28       		.byte	0x28
 318 00c3 54000000 		.4byte	0x54
 319 00c7 03       		.uleb128 0x3
 320 00c8 18010000 		.4byte	.LASF17
 321 00cc 04       		.byte	0x4
 322 00cd 29       		.byte	0x29
ARM GAS  /var/folders/5n/p_75w94d66l9ssrldxqdhh700000gn/T//cc5xVnwI.s 			page 7


 323 00ce 54000000 		.4byte	0x54
 324 00d2 03       		.uleb128 0x3
 325 00d3 D4020000 		.4byte	.LASF18
 326 00d7 04       		.byte	0x4
 327 00d8 2A       		.byte	0x2a
 328 00d9 54000000 		.4byte	0x54
 329 00dd 03       		.uleb128 0x3
 330 00de E6000000 		.4byte	.LASF19
 331 00e2 04       		.byte	0x4
 332 00e3 2B       		.byte	0x2b
 333 00e4 54000000 		.4byte	0x54
 334 00e8 03       		.uleb128 0x3
 335 00e9 E3020000 		.4byte	.LASF20
 336 00ed 04       		.byte	0x4
 337 00ee 2C       		.byte	0x2c
 338 00ef 91000000 		.4byte	0x91
 339 00f3 03       		.uleb128 0x3
 340 00f4 FF010000 		.4byte	.LASF21
 341 00f8 04       		.byte	0x4
 342 00f9 2D       		.byte	0x2d
 343 00fa 7F000000 		.4byte	0x7f
 344 00fe 03       		.uleb128 0x3
 345 00ff 38020000 		.4byte	.LASF22
 346 0103 04       		.byte	0x4
 347 0104 2F       		.byte	0x2f
 348 0105 91000000 		.4byte	0x91
 349 0109 03       		.uleb128 0x3
 350 010a 03040000 		.4byte	.LASF23
 351 010e 04       		.byte	0x4
 352 010f 31       		.byte	0x31
 353 0110 91000000 		.4byte	0x91
 354 0114 03       		.uleb128 0x3
 355 0115 71010000 		.4byte	.LASF24
 356 0119 04       		.byte	0x4
 357 011a 32       		.byte	0x32
 358 011b 7F000000 		.4byte	0x7f
 359 011f 03       		.uleb128 0x3
 360 0120 98030000 		.4byte	.LASF25
 361 0124 05       		.byte	0x5
 362 0125 23       		.byte	0x23
 363 0126 2A010000 		.4byte	0x12a
 364 012a 05       		.uleb128 0x5
 365 012b 98030000 		.4byte	.LASF25
 366 012f 48       		.byte	0x48
 367 0130 06       		.byte	0x6
 368 0131 57       		.byte	0x57
 369 0132 4F020000 		.4byte	0x24f
 370 0136 06       		.uleb128 0x6
 371 0137 59030000 		.4byte	.LASF26
 372 013b 06       		.byte	0x6
 373 013c 58       		.byte	0x58
 374 013d 74020000 		.4byte	0x274
 375 0141 02       		.byte	0x2
 376 0142 23       		.byte	0x23
 377 0143 00       		.uleb128 0
 378 0144 06       		.uleb128 0x6
 379 0145 DC020000 		.4byte	.LASF27
ARM GAS  /var/folders/5n/p_75w94d66l9ssrldxqdhh700000gn/T//cc5xVnwI.s 			page 8


 380 0149 06       		.byte	0x6
 381 014a 5A       		.byte	0x5a
 382 014b 74020000 		.4byte	0x274
 383 014f 02       		.byte	0x2
 384 0150 23       		.byte	0x23
 385 0151 04       		.uleb128 0x4
 386 0152 06       		.uleb128 0x6
 387 0153 97000000 		.4byte	.LASF28
 388 0157 06       		.byte	0x6
 389 0158 5C       		.byte	0x5c
 390 0159 E8000000 		.4byte	0xe8
 391 015d 02       		.byte	0x2
 392 015e 23       		.byte	0x23
 393 015f 08       		.uleb128 0x8
 394 0160 06       		.uleb128 0x6
 395 0161 8F050000 		.4byte	.LASF29
 396 0165 06       		.byte	0x6
 397 0166 5D       		.byte	0x5d
 398 0167 4D030000 		.4byte	0x34d
 399 016b 02       		.byte	0x2
 400 016c 23       		.byte	0x23
 401 016d 0C       		.uleb128 0xc
 402 016e 06       		.uleb128 0x6
 403 016f 39010000 		.4byte	.LASF30
 404 0173 06       		.byte	0x6
 405 0174 5F       		.byte	0x5f
 406 0175 74020000 		.4byte	0x274
 407 0179 02       		.byte	0x2
 408 017a 23       		.byte	0x23
 409 017b 10       		.uleb128 0x10
 410 017c 06       		.uleb128 0x6
 411 017d 99020000 		.4byte	.LASF31
 412 0181 06       		.byte	0x6
 413 0182 60       		.byte	0x60
 414 0183 74020000 		.4byte	0x274
 415 0187 02       		.byte	0x2
 416 0188 23       		.byte	0x23
 417 0189 14       		.uleb128 0x14
 418 018a 06       		.uleb128 0x6
 419 018b D6040000 		.4byte	.LASF32
 420 018f 06       		.byte	0x6
 421 0190 67       		.byte	0x67
 422 0191 94040000 		.4byte	0x494
 423 0195 02       		.byte	0x2
 424 0196 23       		.byte	0x23
 425 0197 18       		.uleb128 0x18
 426 0198 06       		.uleb128 0x6
 427 0199 1C030000 		.4byte	.LASF33
 428 019d 06       		.byte	0x6
 429 019e 72       		.byte	0x72
 430 019f C7000000 		.4byte	0xc7
 431 01a3 02       		.byte	0x2
 432 01a4 23       		.byte	0x23
 433 01a5 1C       		.uleb128 0x1c
 434 01a6 06       		.uleb128 0x6
 435 01a7 75030000 		.4byte	.LASF34
 436 01ab 06       		.byte	0x6
ARM GAS  /var/folders/5n/p_75w94d66l9ssrldxqdhh700000gn/T//cc5xVnwI.s 			page 9


 437 01ac 76       		.byte	0x76
 438 01ad BC000000 		.4byte	0xbc
 439 01b1 02       		.byte	0x2
 440 01b2 23       		.byte	0x23
 441 01b3 1D       		.uleb128 0x1d
 442 01b4 06       		.uleb128 0x6
 443 01b5 74040000 		.4byte	.LASF35
 444 01b9 06       		.byte	0x6
 445 01ba 7B       		.byte	0x7b
 446 01bb D2000000 		.4byte	0xd2
 447 01bf 02       		.byte	0x2
 448 01c0 23       		.byte	0x23
 449 01c1 1E       		.uleb128 0x1e
 450 01c2 06       		.uleb128 0x6
 451 01c3 36030000 		.4byte	.LASF36
 452 01c7 06       		.byte	0x6
 453 01c8 81       		.byte	0x81
 454 01c9 DD000000 		.4byte	0xdd
 455 01cd 02       		.byte	0x2
 456 01ce 23       		.byte	0x23
 457 01cf 1F       		.uleb128 0x1f
 458 01d0 06       		.uleb128 0x6
 459 01d1 24040000 		.4byte	.LASF37
 460 01d5 06       		.byte	0x6
 461 01d6 88       		.byte	0x88
 462 01d7 70030000 		.4byte	0x370
 463 01db 02       		.byte	0x2
 464 01dc 23       		.byte	0x23
 465 01dd 20       		.uleb128 0x20
 466 01de 07       		.uleb128 0x7
 467 01df 705F7500 		.ascii	"p_u\000"
 468 01e3 06       		.byte	0x6
 469 01e4 AD       		.byte	0xad
 470 01e5 5F040000 		.4byte	0x45f
 471 01e9 02       		.byte	0x2
 472 01ea 23       		.byte	0x23
 473 01eb 24       		.uleb128 0x24
 474 01ec 06       		.uleb128 0x6
 475 01ed 95050000 		.4byte	.LASF38
 476 01f1 06       		.byte	0x6
 477 01f2 B2       		.byte	0xb2
 478 01f3 9C020000 		.4byte	0x29c
 479 01f7 02       		.byte	0x2
 480 01f8 23       		.byte	0x23
 481 01f9 28       		.uleb128 0x28
 482 01fa 06       		.uleb128 0x6
 483 01fb 54040000 		.4byte	.LASF39
 484 01ff 06       		.byte	0x6
 485 0200 B8       		.byte	0xb8
 486 0201 7A020000 		.4byte	0x27a
 487 0205 02       		.byte	0x2
 488 0206 23       		.byte	0x23
 489 0207 2C       		.uleb128 0x2c
 490 0208 06       		.uleb128 0x6
 491 0209 07000000 		.4byte	.LASF40
 492 020d 06       		.byte	0x6
 493 020e BC       		.byte	0xbc
ARM GAS  /var/folders/5n/p_75w94d66l9ssrldxqdhh700000gn/T//cc5xVnwI.s 			page 10


 494 020f F3000000 		.4byte	0xf3
 495 0213 02       		.byte	0x2
 496 0214 23       		.byte	0x23
 497 0215 34       		.uleb128 0x34
 498 0216 06       		.uleb128 0x6
 499 0217 B5030000 		.4byte	.LASF41
 500 021b 06       		.byte	0x6
 501 021c C2       		.byte	0xc2
 502 021d FE000000 		.4byte	0xfe
 503 0221 02       		.byte	0x2
 504 0222 23       		.byte	0x23
 505 0223 38       		.uleb128 0x38
 506 0224 06       		.uleb128 0x6
 507 0225 08030000 		.4byte	.LASF42
 508 0229 06       		.byte	0x6
 509 022a C9       		.byte	0xc9
 510 022b A6040000 		.4byte	0x4a6
 511 022f 02       		.byte	0x2
 512 0230 23       		.byte	0x23
 513 0231 3C       		.uleb128 0x3c
 514 0232 06       		.uleb128 0x6
 515 0233 0D040000 		.4byte	.LASF43
 516 0237 06       		.byte	0x6
 517 0238 CD       		.byte	0xcd
 518 0239 E8000000 		.4byte	0xe8
 519 023d 02       		.byte	0x2
 520 023e 23       		.byte	0x23
 521 023f 40       		.uleb128 0x40
 522 0240 06       		.uleb128 0x6
 523 0241 CE000000 		.4byte	.LASF44
 524 0245 06       		.byte	0x6
 525 0246 D3       		.byte	0xd3
 526 0247 B2020000 		.4byte	0x2b2
 527 024b 02       		.byte	0x2
 528 024c 23       		.byte	0x23
 529 024d 44       		.uleb128 0x44
 530 024e 00       		.byte	0
 531 024f 08       		.uleb128 0x8
 532 0250 08       		.byte	0x8
 533 0251 05       		.byte	0x5
 534 0252 5A       		.byte	0x5a
 535 0253 74020000 		.4byte	0x274
 536 0257 06       		.uleb128 0x6
 537 0258 59030000 		.4byte	.LASF26
 538 025c 05       		.byte	0x5
 539 025d 5B       		.byte	0x5b
 540 025e 74020000 		.4byte	0x274
 541 0262 02       		.byte	0x2
 542 0263 23       		.byte	0x23
 543 0264 00       		.uleb128 0
 544 0265 06       		.uleb128 0x6
 545 0266 DC020000 		.4byte	.LASF27
 546 026a 05       		.byte	0x5
 547 026b 5D       		.byte	0x5d
 548 026c 74020000 		.4byte	0x274
 549 0270 02       		.byte	0x2
 550 0271 23       		.byte	0x23
ARM GAS  /var/folders/5n/p_75w94d66l9ssrldxqdhh700000gn/T//cc5xVnwI.s 			page 11


 551 0272 04       		.uleb128 0x4
 552 0273 00       		.byte	0
 553 0274 09       		.uleb128 0x9
 554 0275 04       		.byte	0x4
 555 0276 1F010000 		.4byte	0x11f
 556 027a 03       		.uleb128 0x3
 557 027b A1020000 		.4byte	.LASF45
 558 027f 05       		.byte	0x5
 559 0280 5F       		.byte	0x5f
 560 0281 4F020000 		.4byte	0x24f
 561 0285 08       		.uleb128 0x8
 562 0286 04       		.byte	0x4
 563 0287 05       		.byte	0x5
 564 0288 64       		.byte	0x64
 565 0289 9C020000 		.4byte	0x29c
 566 028d 06       		.uleb128 0x6
 567 028e 59030000 		.4byte	.LASF26
 568 0292 05       		.byte	0x5
 569 0293 66       		.byte	0x66
 570 0294 74020000 		.4byte	0x274
 571 0298 02       		.byte	0x2
 572 0299 23       		.byte	0x23
 573 029a 00       		.uleb128 0
 574 029b 00       		.byte	0
 575 029c 03       		.uleb128 0x3
 576 029d 2C020000 		.4byte	.LASF46
 577 02a1 05       		.byte	0x5
 578 02a2 69       		.byte	0x69
 579 02a3 85020000 		.4byte	0x285
 580 02a7 03       		.uleb128 0x3
 581 02a8 49010000 		.4byte	.LASF47
 582 02ac 07       		.byte	0x7
 583 02ad DE       		.byte	0xde
 584 02ae B2020000 		.4byte	0x2b2
 585 02b2 0A       		.uleb128 0xa
 586 02b3 04       		.byte	0x4
 587 02b4 03       		.uleb128 0x3
 588 02b5 54020000 		.4byte	.LASF48
 589 02b9 07       		.byte	0x7
 590 02ba E4       		.byte	0xe4
 591 02bb AA000000 		.4byte	0xaa
 592 02bf 0B       		.uleb128 0xb
 593 02c0 00000000 		.4byte	.LASF49
 594 02c4 24       		.byte	0x24
 595 02c5 07       		.byte	0x7
 596 02c6 0501     		.2byte	0x105
 597 02c8 4D030000 		.4byte	0x34d
 598 02cc 0C       		.uleb128 0xc
 599 02cd 723400   		.ascii	"r4\000"
 600 02d0 07       		.byte	0x7
 601 02d1 1801     		.2byte	0x118
 602 02d3 A7020000 		.4byte	0x2a7
 603 02d7 02       		.byte	0x2
 604 02d8 23       		.byte	0x23
 605 02d9 00       		.uleb128 0
 606 02da 0C       		.uleb128 0xc
 607 02db 723500   		.ascii	"r5\000"
ARM GAS  /var/folders/5n/p_75w94d66l9ssrldxqdhh700000gn/T//cc5xVnwI.s 			page 12


 608 02de 07       		.byte	0x7
 609 02df 1901     		.2byte	0x119
 610 02e1 A7020000 		.4byte	0x2a7
 611 02e5 02       		.byte	0x2
 612 02e6 23       		.byte	0x23
 613 02e7 04       		.uleb128 0x4
 614 02e8 0C       		.uleb128 0xc
 615 02e9 723600   		.ascii	"r6\000"
 616 02ec 07       		.byte	0x7
 617 02ed 1A01     		.2byte	0x11a
 618 02ef A7020000 		.4byte	0x2a7
 619 02f3 02       		.byte	0x2
 620 02f4 23       		.byte	0x23
 621 02f5 08       		.uleb128 0x8
 622 02f6 0C       		.uleb128 0xc
 623 02f7 723700   		.ascii	"r7\000"
 624 02fa 07       		.byte	0x7
 625 02fb 1B01     		.2byte	0x11b
 626 02fd A7020000 		.4byte	0x2a7
 627 0301 02       		.byte	0x2
 628 0302 23       		.byte	0x23
 629 0303 0C       		.uleb128 0xc
 630 0304 0C       		.uleb128 0xc
 631 0305 723800   		.ascii	"r8\000"
 632 0308 07       		.byte	0x7
 633 0309 1C01     		.2byte	0x11c
 634 030b A7020000 		.4byte	0x2a7
 635 030f 02       		.byte	0x2
 636 0310 23       		.byte	0x23
 637 0311 10       		.uleb128 0x10
 638 0312 0C       		.uleb128 0xc
 639 0313 723900   		.ascii	"r9\000"
 640 0316 07       		.byte	0x7
 641 0317 1D01     		.2byte	0x11d
 642 0319 A7020000 		.4byte	0x2a7
 643 031d 02       		.byte	0x2
 644 031e 23       		.byte	0x23
 645 031f 14       		.uleb128 0x14
 646 0320 0C       		.uleb128 0xc
 647 0321 72313000 		.ascii	"r10\000"
 648 0325 07       		.byte	0x7
 649 0326 1E01     		.2byte	0x11e
 650 0328 A7020000 		.4byte	0x2a7
 651 032c 02       		.byte	0x2
 652 032d 23       		.byte	0x23
 653 032e 18       		.uleb128 0x18
 654 032f 0C       		.uleb128 0xc
 655 0330 72313100 		.ascii	"r11\000"
 656 0334 07       		.byte	0x7
 657 0335 1F01     		.2byte	0x11f
 658 0337 A7020000 		.4byte	0x2a7
 659 033b 02       		.byte	0x2
 660 033c 23       		.byte	0x23
 661 033d 1C       		.uleb128 0x1c
 662 033e 0C       		.uleb128 0xc
 663 033f 6C7200   		.ascii	"lr\000"
 664 0342 07       		.byte	0x7
ARM GAS  /var/folders/5n/p_75w94d66l9ssrldxqdhh700000gn/T//cc5xVnwI.s 			page 13


 665 0343 2001     		.2byte	0x120
 666 0345 A7020000 		.4byte	0x2a7
 667 0349 02       		.byte	0x2
 668 034a 23       		.byte	0x23
 669 034b 20       		.uleb128 0x20
 670 034c 00       		.byte	0
 671 034d 0B       		.uleb128 0xb
 672 034e D4010000 		.4byte	.LASF50
 673 0352 04       		.byte	0x4
 674 0353 07       		.byte	0x7
 675 0354 2A01     		.2byte	0x12a
 676 0356 6A030000 		.4byte	0x36a
 677 035a 0C       		.uleb128 0xc
 678 035b 72313300 		.ascii	"r13\000"
 679 035f 07       		.byte	0x7
 680 0360 2B01     		.2byte	0x12b
 681 0362 6A030000 		.4byte	0x36a
 682 0366 02       		.byte	0x2
 683 0367 23       		.byte	0x23
 684 0368 00       		.uleb128 0
 685 0369 00       		.byte	0
 686 036a 09       		.uleb128 0x9
 687 036b 04       		.byte	0x4
 688 036c BF020000 		.4byte	0x2bf
 689 0370 0D       		.uleb128 0xd
 690 0371 09010000 		.4byte	0x109
 691 0375 05       		.uleb128 0x5
 692 0376 5F040000 		.4byte	.LASF51
 693 037a 0C       		.byte	0xc
 694 037b 08       		.byte	0x8
 695 037c 25       		.byte	0x25
 696 037d 9E030000 		.4byte	0x39e
 697 0381 06       		.uleb128 0x6
 698 0382 41010000 		.4byte	.LASF52
 699 0386 08       		.byte	0x8
 700 0387 26       		.byte	0x26
 701 0388 7A020000 		.4byte	0x27a
 702 038c 02       		.byte	0x2
 703 038d 23       		.byte	0x23
 704 038e 00       		.uleb128 0
 705 038f 06       		.uleb128 0x6
 706 0390 BE010000 		.4byte	.LASF53
 707 0394 08       		.byte	0x8
 708 0395 28       		.byte	0x28
 709 0396 14010000 		.4byte	0x114
 710 039a 02       		.byte	0x2
 711 039b 23       		.byte	0x23
 712 039c 08       		.uleb128 0x8
 713 039d 00       		.byte	0
 714 039e 03       		.uleb128 0x3
 715 039f 5F040000 		.4byte	.LASF51
 716 03a3 08       		.byte	0x8
 717 03a4 29       		.byte	0x29
 718 03a5 75030000 		.4byte	0x375
 719 03a9 05       		.uleb128 0x5
 720 03aa 44020000 		.4byte	.LASF54
 721 03ae 10       		.byte	0x10
ARM GAS  /var/folders/5n/p_75w94d66l9ssrldxqdhh700000gn/T//cc5xVnwI.s 			page 14


 722 03af 09       		.byte	0x9
 723 03b0 25       		.byte	0x25
 724 03b1 E0030000 		.4byte	0x3e0
 725 03b5 06       		.uleb128 0x6
 726 03b6 D6000000 		.4byte	.LASF55
 727 03ba 09       		.byte	0x9
 728 03bb 26       		.byte	0x26
 729 03bc 7A020000 		.4byte	0x27a
 730 03c0 02       		.byte	0x2
 731 03c1 23       		.byte	0x23
 732 03c2 00       		.uleb128 0
 733 03c3 06       		.uleb128 0x6
 734 03c4 6F050000 		.4byte	.LASF56
 735 03c8 09       		.byte	0x9
 736 03c9 28       		.byte	0x28
 737 03ca 74020000 		.4byte	0x274
 738 03ce 02       		.byte	0x2
 739 03cf 23       		.byte	0x23
 740 03d0 08       		.uleb128 0x8
 741 03d1 06       		.uleb128 0x6
 742 03d2 FC030000 		.4byte	.LASF57
 743 03d6 09       		.byte	0x9
 744 03d7 2A       		.byte	0x2a
 745 03d8 E0030000 		.4byte	0x3e0
 746 03dc 02       		.byte	0x2
 747 03dd 23       		.byte	0x23
 748 03de 0C       		.uleb128 0xc
 749 03df 00       		.byte	0
 750 03e0 09       		.uleb128 0x9
 751 03e1 04       		.byte	0x4
 752 03e2 A9030000 		.4byte	0x3a9
 753 03e6 03       		.uleb128 0x3
 754 03e7 44020000 		.4byte	.LASF54
 755 03eb 09       		.byte	0x9
 756 03ec 2C       		.byte	0x2c
 757 03ed A9030000 		.4byte	0x3a9
 758 03f1 08       		.uleb128 0x8
 759 03f2 28       		.byte	0x28
 760 03f3 0A       		.byte	0xa
 761 03f4 2C       		.byte	0x2c
 762 03f5 4E040000 		.4byte	0x44e
 763 03f9 06       		.uleb128 0x6
 764 03fa AE020000 		.4byte	.LASF58
 765 03fe 0A       		.byte	0xa
 766 03ff 2D       		.byte	0x2d
 767 0400 4E040000 		.4byte	0x44e
 768 0404 02       		.byte	0x2
 769 0405 23       		.byte	0x23
 770 0406 00       		.uleb128 0
 771 0407 06       		.uleb128 0x6
 772 0408 01030000 		.4byte	.LASF59
 773 040c 0A       		.byte	0xa
 774 040d 2F       		.byte	0x2f
 775 040e 4E040000 		.4byte	0x44e
 776 0412 02       		.byte	0x2
 777 0413 23       		.byte	0x23
 778 0414 04       		.uleb128 0x4
ARM GAS  /var/folders/5n/p_75w94d66l9ssrldxqdhh700000gn/T//cc5xVnwI.s 			page 15


 779 0415 06       		.uleb128 0x6
 780 0416 89000000 		.4byte	.LASF60
 781 041a 0A       		.byte	0xa
 782 041b 31       		.byte	0x31
 783 041c 4E040000 		.4byte	0x44e
 784 0420 02       		.byte	0x2
 785 0421 23       		.byte	0x23
 786 0422 08       		.uleb128 0x8
 787 0423 06       		.uleb128 0x6
 788 0424 74020000 		.4byte	.LASF61
 789 0428 0A       		.byte	0xa
 790 0429 32       		.byte	0x32
 791 042a 4E040000 		.4byte	0x44e
 792 042e 02       		.byte	0x2
 793 042f 23       		.byte	0x23
 794 0430 0C       		.uleb128 0xc
 795 0431 06       		.uleb128 0x6
 796 0432 69040000 		.4byte	.LASF62
 797 0436 0A       		.byte	0xa
 798 0437 33       		.byte	0x33
 799 0438 9E030000 		.4byte	0x39e
 800 043c 02       		.byte	0x2
 801 043d 23       		.byte	0x23
 802 043e 10       		.uleb128 0x10
 803 043f 06       		.uleb128 0x6
 804 0440 B2010000 		.4byte	.LASF63
 805 0444 0A       		.byte	0xa
 806 0445 35       		.byte	0x35
 807 0446 9E030000 		.4byte	0x39e
 808 044a 02       		.byte	0x2
 809 044b 23       		.byte	0x23
 810 044c 1C       		.uleb128 0x1c
 811 044d 00       		.byte	0
 812 044e 09       		.uleb128 0x9
 813 044f 04       		.byte	0x4
 814 0450 F3000000 		.4byte	0xf3
 815 0454 03       		.uleb128 0x3
 816 0455 4F000000 		.4byte	.LASF64
 817 0459 0A       		.byte	0xa
 818 045a 37       		.byte	0x37
 819 045b F1030000 		.4byte	0x3f1
 820 045f 0E       		.uleb128 0xe
 821 0460 04       		.byte	0x4
 822 0461 06       		.byte	0x6
 823 0462 8F       		.byte	0x8f
 824 0463 94040000 		.4byte	0x494
 825 0467 0F       		.uleb128 0xf
 826 0468 19000000 		.4byte	.LASF65
 827 046c 06       		.byte	0x6
 828 046d 96       		.byte	0x96
 829 046e F3000000 		.4byte	0xf3
 830 0472 0F       		.uleb128 0xf
 831 0473 73000000 		.4byte	.LASF66
 832 0477 06       		.byte	0x6
 833 0478 9D       		.byte	0x9d
 834 0479 F3000000 		.4byte	0xf3
 835 047d 0F       		.uleb128 0xf
ARM GAS  /var/folders/5n/p_75w94d66l9ssrldxqdhh700000gn/T//cc5xVnwI.s 			page 16


 836 047e BB040000 		.4byte	.LASF67
 837 0482 06       		.byte	0x6
 838 0483 A4       		.byte	0xa4
 839 0484 B2020000 		.4byte	0x2b2
 840 0488 0F       		.uleb128 0xf
 841 0489 52030000 		.4byte	.LASF68
 842 048d 06       		.byte	0x6
 843 048e AB       		.byte	0xab
 844 048f FE000000 		.4byte	0xfe
 845 0493 00       		.byte	0
 846 0494 09       		.uleb128 0x9
 847 0495 04       		.byte	0x4
 848 0496 9A040000 		.4byte	0x49a
 849 049a 10       		.uleb128 0x10
 850 049b 9F040000 		.4byte	0x49f
 851 049f 04       		.uleb128 0x4
 852 04a0 01       		.byte	0x1
 853 04a1 08       		.byte	0x8
 854 04a2 C9030000 		.4byte	.LASF69
 855 04a6 09       		.uleb128 0x9
 856 04a7 04       		.byte	0x4
 857 04a8 E6030000 		.4byte	0x3e6
 858 04ac 03       		.uleb128 0x3
 859 04ad 6F020000 		.4byte	.LASF70
 860 04b1 0B       		.byte	0xb
 861 04b2 3C       		.byte	0x3c
 862 04b3 54000000 		.4byte	0x54
 863 04b7 03       		.uleb128 0x3
 864 04b8 B0030000 		.4byte	.LASF71
 865 04bc 0B       		.byte	0xb
 866 04bd 3D       		.byte	0x3d
 867 04be 42000000 		.4byte	0x42
 868 04c2 03       		.uleb128 0x3
 869 04c3 EF030000 		.4byte	.LASF72
 870 04c7 0B       		.byte	0xb
 871 04c8 3E       		.byte	0x3e
 872 04c9 6D000000 		.4byte	0x6d
 873 04cd 03       		.uleb128 0x3
 874 04ce AC010000 		.4byte	.LASF73
 875 04d2 0B       		.byte	0xb
 876 04d3 40       		.byte	0x40
 877 04d4 91000000 		.4byte	0x91
 878 04d8 03       		.uleb128 0x3
 879 04d9 5F020000 		.4byte	.LASF74
 880 04dd 0C       		.byte	0xc
 881 04de 2F       		.byte	0x2f
 882 04df B7040000 		.4byte	0x4b7
 883 04e3 05       		.uleb128 0x5
 884 04e4 0D000000 		.4byte	.LASF75
 885 04e8 10       		.byte	0x10
 886 04e9 0D       		.byte	0xd
 887 04ea 49       		.byte	0x49
 888 04eb 52050000 		.4byte	0x552
 889 04ef 06       		.uleb128 0x6
 890 04f0 92000000 		.4byte	.LASF76
 891 04f4 0D       		.byte	0xd
 892 04f5 4B       		.byte	0x4b
ARM GAS  /var/folders/5n/p_75w94d66l9ssrldxqdhh700000gn/T//cc5xVnwI.s 			page 17


 893 04f6 52050000 		.4byte	0x552
 894 04fa 02       		.byte	0x2
 895 04fb 23       		.byte	0x23
 896 04fc 00       		.uleb128 0
 897 04fd 06       		.uleb128 0x6
 898 04fe 85020000 		.4byte	.LASF77
 899 0502 0D       		.byte	0xd
 900 0503 4E       		.byte	0x4e
 901 0504 B2020000 		.4byte	0x2b2
 902 0508 02       		.byte	0x2
 903 0509 23       		.byte	0x23
 904 050a 04       		.uleb128 0x4
 905 050b 06       		.uleb128 0x6
 906 050c F0000000 		.4byte	.LASF78
 907 0510 0D       		.byte	0xd
 908 0511 57       		.byte	0x57
 909 0512 C2040000 		.4byte	0x4c2
 910 0516 02       		.byte	0x2
 911 0517 23       		.byte	0x23
 912 0518 08       		.uleb128 0x8
 913 0519 07       		.uleb128 0x7
 914 051a 6C656E00 		.ascii	"len\000"
 915 051e 0D       		.byte	0xd
 916 051f 5A       		.byte	0x5a
 917 0520 C2040000 		.4byte	0x4c2
 918 0524 02       		.byte	0x2
 919 0525 23       		.byte	0x23
 920 0526 0A       		.uleb128 0xa
 921 0527 06       		.uleb128 0x6
 922 0528 4A000000 		.4byte	.LASF79
 923 052c 0D       		.byte	0xd
 924 052d 5D       		.byte	0x5d
 925 052e AC040000 		.4byte	0x4ac
 926 0532 02       		.byte	0x2
 927 0533 23       		.byte	0x23
 928 0534 0C       		.uleb128 0xc
 929 0535 06       		.uleb128 0x6
 930 0536 91040000 		.4byte	.LASF80
 931 053a 0D       		.byte	0xd
 932 053b 60       		.byte	0x60
 933 053c AC040000 		.4byte	0x4ac
 934 0540 02       		.byte	0x2
 935 0541 23       		.byte	0x23
 936 0542 0D       		.uleb128 0xd
 937 0543 07       		.uleb128 0x7
 938 0544 72656600 		.ascii	"ref\000"
 939 0548 0D       		.byte	0xd
 940 0549 67       		.byte	0x67
 941 054a C2040000 		.4byte	0x4c2
 942 054e 02       		.byte	0x2
 943 054f 23       		.byte	0x23
 944 0550 0E       		.uleb128 0xe
 945 0551 00       		.byte	0
 946 0552 09       		.uleb128 0x9
 947 0553 04       		.byte	0x4
 948 0554 E3040000 		.4byte	0x4e3
 949 0558 05       		.uleb128 0x5
ARM GAS  /var/folders/5n/p_75w94d66l9ssrldxqdhh700000gn/T//cc5xVnwI.s 			page 18


 950 0559 7D020000 		.4byte	.LASF81
 951 055d 04       		.byte	0x4
 952 055e 0E       		.byte	0xe
 953 055f 2C       		.byte	0x2c
 954 0560 73050000 		.4byte	0x573
 955 0564 06       		.uleb128 0x6
 956 0565 6E000000 		.4byte	.LASF82
 957 0569 0E       		.byte	0xe
 958 056a 2D       		.byte	0x2d
 959 056b CD040000 		.4byte	0x4cd
 960 056f 02       		.byte	0x2
 961 0570 23       		.byte	0x23
 962 0571 00       		.uleb128 0
 963 0572 00       		.byte	0
 964 0573 03       		.uleb128 0x3
 965 0574 65020000 		.4byte	.LASF83
 966 0578 0E       		.byte	0xe
 967 0579 40       		.byte	0x40
 968 057a 58050000 		.4byte	0x558
 969 057e 05       		.uleb128 0x5
 970 057f 40030000 		.4byte	.LASF84
 971 0583 10       		.byte	0x10
 972 0584 0F       		.byte	0xf
 973 0585 30       		.byte	0x30
 974 0586 C1050000 		.4byte	0x5c1
 975 058a 07       		.uleb128 0x7
 976 058b 7000     		.ascii	"p\000"
 977 058d 0F       		.byte	0xf
 978 058e 31       		.byte	0x31
 979 058f 52050000 		.4byte	0x552
 980 0593 02       		.byte	0x2
 981 0594 23       		.byte	0x23
 982 0595 00       		.uleb128 0
 983 0596 07       		.uleb128 0x7
 984 0597 70747200 		.ascii	"ptr\000"
 985 059b 0F       		.byte	0xf
 986 059c 31       		.byte	0x31
 987 059d 52050000 		.4byte	0x552
 988 05a1 02       		.byte	0x2
 989 05a2 23       		.byte	0x23
 990 05a3 04       		.uleb128 0x4
 991 05a4 06       		.uleb128 0x6
 992 05a5 6E000000 		.4byte	.LASF82
 993 05a9 0F       		.byte	0xf
 994 05aa 32       		.byte	0x32
 995 05ab 73050000 		.4byte	0x573
 996 05af 02       		.byte	0x2
 997 05b0 23       		.byte	0x23
 998 05b1 08       		.uleb128 0x8
 999 05b2 06       		.uleb128 0x6
 1000 05b3 60010000 		.4byte	.LASF85
 1001 05b7 0F       		.byte	0xf
 1002 05b8 33       		.byte	0x33
 1003 05b9 C2040000 		.4byte	0x4c2
 1004 05bd 02       		.byte	0x2
 1005 05be 23       		.byte	0x23
 1006 05bf 0C       		.uleb128 0xc
ARM GAS  /var/folders/5n/p_75w94d66l9ssrldxqdhh700000gn/T//cc5xVnwI.s 			page 19


 1007 05c0 00       		.byte	0
 1008 05c1 03       		.uleb128 0x3
 1009 05c2 9E000000 		.4byte	.LASF86
 1010 05c6 10       		.byte	0x10
 1011 05c7 3C       		.byte	0x3c
 1012 05c8 CC050000 		.4byte	0x5cc
 1013 05cc 09       		.uleb128 0x9
 1014 05cd 04       		.byte	0x4
 1015 05ce 9E030000 		.4byte	0x39e
 1016 05d2 03       		.uleb128 0x3
 1017 05d3 47030000 		.4byte	.LASF87
 1018 05d7 10       		.byte	0x10
 1019 05d8 3D       		.byte	0x3d
 1020 05d9 DD050000 		.4byte	0x5dd
 1021 05dd 09       		.uleb128 0x9
 1022 05de 04       		.byte	0x4
 1023 05df 54040000 		.4byte	0x454
 1024 05e3 11       		.uleb128 0x11
 1025 05e4 C7020000 		.4byte	.LASF94
 1026 05e8 01       		.byte	0x1
 1027 05e9 11       		.byte	0x11
 1028 05ea 53       		.byte	0x53
 1029 05eb 15060000 		.4byte	0x615
 1030 05ef 12       		.uleb128 0x12
 1031 05f0 A3040000 		.4byte	.LASF88
 1032 05f4 00       		.sleb128 0
 1033 05f5 12       		.uleb128 0x12
 1034 05f6 0C010000 		.4byte	.LASF89
 1035 05fa 10       		.sleb128 16
 1036 05fb 12       		.uleb128 0x12
 1037 05fc C2000000 		.4byte	.LASF90
 1038 0600 20       		.sleb128 32
 1039 0601 12       		.uleb128 0x12
 1040 0602 77050000 		.4byte	.LASF91
 1041 0606 21       		.sleb128 33
 1042 0607 12       		.uleb128 0x12
 1043 0608 84030000 		.4byte	.LASF92
 1044 060c 22       		.sleb128 34
 1045 060d 12       		.uleb128 0x12
 1046 060e 65010000 		.4byte	.LASF93
 1047 0612 C000     		.sleb128 64
 1048 0614 00       		.byte	0
 1049 0615 11       		.uleb128 0x11
 1050 0616 7B040000 		.4byte	.LASF95
 1051 061a 01       		.byte	0x1
 1052 061b 11       		.byte	0x11
 1053 061c 61       		.byte	0x61
 1054 061d 40060000 		.4byte	0x640
 1055 0621 12       		.uleb128 0x12
 1056 0622 33050000 		.4byte	.LASF96
 1057 0626 00       		.sleb128 0
 1058 0627 12       		.uleb128 0x12
 1059 0628 0E020000 		.4byte	.LASF97
 1060 062c 01       		.sleb128 1
 1061 062d 12       		.uleb128 0x12
 1062 062e B8020000 		.4byte	.LASF98
 1063 0632 02       		.sleb128 2
ARM GAS  /var/folders/5n/p_75w94d66l9ssrldxqdhh700000gn/T//cc5xVnwI.s 			page 20


 1064 0633 12       		.uleb128 0x12
 1065 0634 DC010000 		.4byte	.LASF99
 1066 0638 03       		.sleb128 3
 1067 0639 12       		.uleb128 0x12
 1068 063a 52010000 		.4byte	.LASF100
 1069 063e 04       		.sleb128 4
 1070 063f 00       		.byte	0
 1071 0640 11       		.uleb128 0x11
 1072 0641 97040000 		.4byte	.LASF101
 1073 0645 01       		.byte	0x1
 1074 0646 11       		.byte	0x11
 1075 0647 6A       		.byte	0x6a
 1076 0648 6B060000 		.4byte	0x66b
 1077 064c 12       		.uleb128 0x12
 1078 064d C2040000 		.4byte	.LASF102
 1079 0651 00       		.sleb128 0
 1080 0652 12       		.uleb128 0x12
 1081 0653 60030000 		.4byte	.LASF103
 1082 0657 01       		.sleb128 1
 1083 0658 12       		.uleb128 0x12
 1084 0659 DA030000 		.4byte	.LASF104
 1085 065d 02       		.sleb128 2
 1086 065e 12       		.uleb128 0x12
 1087 065f 59050000 		.4byte	.LASF105
 1088 0663 03       		.sleb128 3
 1089 0664 12       		.uleb128 0x12
 1090 0665 24030000 		.4byte	.LASF106
 1091 0669 04       		.sleb128 4
 1092 066a 00       		.byte	0
 1093 066b 03       		.uleb128 0x3
 1094 066c 9F030000 		.4byte	.LASF107
 1095 0670 11       		.byte	0x11
 1096 0671 83       		.byte	0x83
 1097 0672 76060000 		.4byte	0x676
 1098 0676 09       		.uleb128 0x9
 1099 0677 04       		.byte	0x4
 1100 0678 7C060000 		.4byte	0x67c
 1101 067c 13       		.uleb128 0x13
 1102 067d 01       		.byte	0x1
 1103 067e 92060000 		.4byte	0x692
 1104 0682 14       		.uleb128 0x14
 1105 0683 92060000 		.4byte	0x692
 1106 0687 14       		.uleb128 0x14
 1107 0688 40060000 		.4byte	0x640
 1108 068c 14       		.uleb128 0x14
 1109 068d C2040000 		.4byte	0x4c2
 1110 0691 00       		.byte	0
 1111 0692 09       		.uleb128 0x9
 1112 0693 04       		.byte	0x4
 1113 0694 98060000 		.4byte	0x698
 1114 0698 05       		.uleb128 0x5
 1115 0699 DE000000 		.4byte	.LASF108
 1116 069d 2C       		.byte	0x2c
 1117 069e 11       		.byte	0x11
 1118 069f 86       		.byte	0x86
 1119 06a0 4D070000 		.4byte	0x74d
 1120 06a4 06       		.uleb128 0x6
ARM GAS  /var/folders/5n/p_75w94d66l9ssrldxqdhh700000gn/T//cc5xVnwI.s 			page 21


 1121 06a5 4A000000 		.4byte	.LASF79
 1122 06a9 11       		.byte	0x11
 1123 06aa 88       		.byte	0x88
 1124 06ab E3050000 		.4byte	0x5e3
 1125 06af 02       		.byte	0x2
 1126 06b0 23       		.byte	0x23
 1127 06b1 00       		.uleb128 0
 1128 06b2 06       		.uleb128 0x6
 1129 06b3 F8000000 		.4byte	.LASF109
 1130 06b7 11       		.byte	0x11
 1131 06b8 8A       		.byte	0x8a
 1132 06b9 15060000 		.4byte	0x615
 1133 06bd 02       		.byte	0x2
 1134 06be 23       		.byte	0x23
 1135 06bf 01       		.uleb128 0x1
 1136 06c0 07       		.uleb128 0x7
 1137 06c1 70636200 		.ascii	"pcb\000"
 1138 06c5 11       		.byte	0x11
 1139 06c6 91       		.byte	0x91
 1140 06c7 4D070000 		.4byte	0x74d
 1141 06cb 02       		.byte	0x2
 1142 06cc 23       		.byte	0x23
 1143 06cd 04       		.uleb128 0x4
 1144 06ce 06       		.uleb128 0x6
 1145 06cf 27010000 		.4byte	.LASF110
 1146 06d3 11       		.byte	0x11
 1147 06d4 93       		.byte	0x93
 1148 06d5 D8040000 		.4byte	0x4d8
 1149 06d9 02       		.byte	0x2
 1150 06da 23       		.byte	0x23
 1151 06db 08       		.uleb128 0x8
 1152 06dc 06       		.uleb128 0x6
 1153 06dd 7C000000 		.4byte	.LASF111
 1154 06e1 11       		.byte	0x11
 1155 06e2 95       		.byte	0x95
 1156 06e3 C1050000 		.4byte	0x5c1
 1157 06e7 02       		.byte	0x2
 1158 06e8 23       		.byte	0x23
 1159 06e9 0C       		.uleb128 0xc
 1160 06ea 06       		.uleb128 0x6
 1161 06eb 91010000 		.4byte	.LASF112
 1162 06ef 11       		.byte	0x11
 1163 06f0 98       		.byte	0x98
 1164 06f1 D2050000 		.4byte	0x5d2
 1165 06f5 02       		.byte	0x2
 1166 06f6 23       		.byte	0x23
 1167 06f7 10       		.uleb128 0x10
 1168 06f8 06       		.uleb128 0x6
 1169 06f9 4E050000 		.4byte	.LASF113
 1170 06fd 11       		.byte	0x11
 1171 06fe 9C       		.byte	0x9c
 1172 06ff D2050000 		.4byte	0x5d2
 1173 0703 02       		.byte	0x2
 1174 0704 23       		.byte	0x23
 1175 0705 14       		.uleb128 0x14
 1176 0706 06       		.uleb128 0x6
 1177 0707 20000000 		.4byte	.LASF114
ARM GAS  /var/folders/5n/p_75w94d66l9ssrldxqdhh700000gn/T//cc5xVnwI.s 			page 22


 1178 070b 11       		.byte	0x11
 1179 070c A0       		.byte	0xa0
 1180 070d 29000000 		.4byte	0x29
 1181 0711 02       		.byte	0x2
 1182 0712 23       		.byte	0x23
 1183 0713 18       		.uleb128 0x18
 1184 0714 06       		.uleb128 0x6
 1185 0715 91040000 		.4byte	.LASF80
 1186 0719 11       		.byte	0x11
 1187 071a B1       		.byte	0xb1
 1188 071b AC040000 		.4byte	0x4ac
 1189 071f 02       		.byte	0x2
 1190 0720 23       		.byte	0x23
 1191 0721 1C       		.uleb128 0x1c
 1192 0722 06       		.uleb128 0x6
 1193 0723 84010000 		.4byte	.LASF115
 1194 0727 11       		.byte	0x11
 1195 0728 B5       		.byte	0xb5
 1196 0729 30000000 		.4byte	0x30
 1197 072d 02       		.byte	0x2
 1198 072e 23       		.byte	0x23
 1199 072f 20       		.uleb128 0x20
 1200 0730 06       		.uleb128 0x6
 1201 0731 CE030000 		.4byte	.LASF116
 1202 0735 11       		.byte	0x11
 1203 0736 B9       		.byte	0xb9
 1204 0737 B7070000 		.4byte	0x7b7
 1205 073b 02       		.byte	0x2
 1206 073c 23       		.byte	0x23
 1207 073d 24       		.uleb128 0x24
 1208 073e 06       		.uleb128 0x6
 1209 073f 05020000 		.4byte	.LASF117
 1210 0743 11       		.byte	0x11
 1211 0744 BC       		.byte	0xbc
 1212 0745 6B060000 		.4byte	0x66b
 1213 0749 02       		.byte	0x2
 1214 074a 23       		.byte	0x23
 1215 074b 28       		.uleb128 0x28
 1216 074c 00       		.byte	0
 1217 074d 0E       		.uleb128 0xe
 1218 074e 04       		.byte	0x4
 1219 074f 11       		.byte	0x11
 1220 0750 8C       		.byte	0x8c
 1221 0751 81070000 		.4byte	0x781
 1222 0755 15       		.uleb128 0x15
 1223 0756 697000   		.ascii	"ip\000"
 1224 0759 11       		.byte	0x11
 1225 075a 8D       		.byte	0x8d
 1226 075b 87070000 		.4byte	0x787
 1227 075f 15       		.uleb128 0x15
 1228 0760 74637000 		.ascii	"tcp\000"
 1229 0764 11       		.byte	0x11
 1230 0765 8E       		.byte	0x8e
 1231 0766 93070000 		.4byte	0x793
 1232 076a 15       		.uleb128 0x15
 1233 076b 75647000 		.ascii	"udp\000"
 1234 076f 11       		.byte	0x11
ARM GAS  /var/folders/5n/p_75w94d66l9ssrldxqdhh700000gn/T//cc5xVnwI.s 			page 23


 1235 0770 8F       		.byte	0x8f
 1236 0771 9F070000 		.4byte	0x79f
 1237 0775 15       		.uleb128 0x15
 1238 0776 72617700 		.ascii	"raw\000"
 1239 077a 11       		.byte	0x11
 1240 077b 90       		.byte	0x90
 1241 077c AB070000 		.4byte	0x7ab
 1242 0780 00       		.byte	0
 1243 0781 16       		.uleb128 0x16
 1244 0782 F5030000 		.4byte	.LASF118
 1245 0786 01       		.byte	0x1
 1246 0787 09       		.uleb128 0x9
 1247 0788 04       		.byte	0x4
 1248 0789 81070000 		.4byte	0x781
 1249 078d 16       		.uleb128 0x16
 1250 078e 87050000 		.4byte	.LASF119
 1251 0792 01       		.byte	0x1
 1252 0793 09       		.uleb128 0x9
 1253 0794 04       		.byte	0x4
 1254 0795 8D070000 		.4byte	0x78d
 1255 0799 16       		.uleb128 0x16
 1256 079a B3040000 		.4byte	.LASF120
 1257 079e 01       		.byte	0x1
 1258 079f 09       		.uleb128 0x9
 1259 07a0 04       		.byte	0x4
 1260 07a1 99070000 		.4byte	0x799
 1261 07a5 16       		.uleb128 0x16
 1262 07a6 24020000 		.4byte	.LASF121
 1263 07aa 01       		.byte	0x1
 1264 07ab 09       		.uleb128 0x9
 1265 07ac 04       		.byte	0x4
 1266 07ad A5070000 		.4byte	0x7a5
 1267 07b1 16       		.uleb128 0x16
 1268 07b2 18040000 		.4byte	.LASF122
 1269 07b6 01       		.byte	0x1
 1270 07b7 09       		.uleb128 0x9
 1271 07b8 04       		.byte	0x4
 1272 07b9 B1070000 		.4byte	0x7b1
 1273 07bd 17       		.uleb128 0x17
 1274 07be 38000000 		.4byte	.LASF132
 1275 07c2 01       		.byte	0x1
 1276 07c3 2E       		.byte	0x2e
 1277 07c4 01       		.byte	0x1
 1278 07c5 01       		.byte	0x1
 1279 07c6 02080000 		.4byte	0x802
 1280 07ca 18       		.uleb128 0x18
 1281 07cb 07010000 		.4byte	.LASF125
 1282 07cf 01       		.byte	0x1
 1283 07d0 2E       		.byte	0x2e
 1284 07d1 92060000 		.4byte	0x692
 1285 07d5 19       		.uleb128 0x19
 1286 07d6 21010000 		.4byte	.LASF123
 1287 07da 01       		.byte	0x1
 1288 07db 2F       		.byte	0x2f
 1289 07dc 02080000 		.4byte	0x802
 1290 07e0 1A       		.uleb128 0x1a
 1291 07e1 62756600 		.ascii	"buf\000"
ARM GAS  /var/folders/5n/p_75w94d66l9ssrldxqdhh700000gn/T//cc5xVnwI.s 			page 24


 1292 07e5 01       		.byte	0x1
 1293 07e6 30       		.byte	0x30
 1294 07e7 08080000 		.4byte	0x808
 1295 07eb 19       		.uleb128 0x19
 1296 07ec 7D030000 		.4byte	.LASF124
 1297 07f0 01       		.byte	0x1
 1298 07f1 31       		.byte	0x31
 1299 07f2 C2040000 		.4byte	0x4c2
 1300 07f6 1A       		.uleb128 0x1a
 1301 07f7 65727200 		.ascii	"err\000"
 1302 07fb 01       		.byte	0x1
 1303 07fc 32       		.byte	0x32
 1304 07fd D8040000 		.4byte	0x4d8
 1305 0801 00       		.byte	0
 1306 0802 09       		.uleb128 0x9
 1307 0803 04       		.byte	0x4
 1308 0804 7E050000 		.4byte	0x57e
 1309 0808 09       		.uleb128 0x9
 1310 0809 04       		.byte	0x4
 1311 080a 9F040000 		.4byte	0x49f
 1312 080e 1B       		.uleb128 0x1b
 1313 080f 01       		.byte	0x1
 1314 0810 8D020000 		.4byte	.LASF133
 1315 0814 01       		.byte	0x1
 1316 0815 5E       		.byte	0x5e
 1317 0816 01       		.byte	0x1
 1318 0817 F3000000 		.4byte	0xf3
 1319 081b 00000000 		.4byte	.LFB8
 1320 081f BC000000 		.4byte	.LFE8
 1321 0823 00000000 		.4byte	.LLST0
 1322 0827 A9080000 		.4byte	0x8a9
 1323 082b 1C       		.uleb128 0x1c
 1324 082c 7000     		.ascii	"p\000"
 1325 082e 01       		.byte	0x1
 1326 082f 5E       		.byte	0x5e
 1327 0830 B2020000 		.4byte	0x2b2
 1328 0834 2C000000 		.4byte	.LLST1
 1329 0838 1D       		.uleb128 0x1d
 1330 0839 07010000 		.4byte	.LASF125
 1331 083d 01       		.byte	0x1
 1332 083e 5F       		.byte	0x5f
 1333 083f 92060000 		.4byte	0x692
 1334 0843 3F000000 		.4byte	.LLST2
 1335 0847 1D       		.uleb128 0x1d
 1336 0848 30000000 		.4byte	.LASF126
 1337 084c 01       		.byte	0x1
 1338 084d 5F       		.byte	0x5f
 1339 084e 92060000 		.4byte	0x692
 1340 0852 5D000000 		.4byte	.LLST3
 1341 0856 1E       		.uleb128 0x1e
 1342 0857 65727200 		.ascii	"err\000"
 1343 085b 01       		.byte	0x1
 1344 085c 60       		.byte	0x60
 1345 085d D8040000 		.4byte	0x4d8
 1346 0861 71000000 		.4byte	.LLST4
 1347 0865 1F       		.uleb128 0x1f
 1348 0866 BD070000 		.4byte	0x7bd
ARM GAS  /var/folders/5n/p_75w94d66l9ssrldxqdhh700000gn/T//cc5xVnwI.s 			page 25


 1349 086a 32000000 		.4byte	.LBB4
 1350 086e 00000000 		.4byte	.Ldebug_ranges0+0
 1351 0872 01       		.byte	0x1
 1352 0873 75       		.byte	0x75
 1353 0874 20       		.uleb128 0x20
 1354 0875 CA070000 		.4byte	0x7ca
 1355 0879 84000000 		.4byte	.LLST5
 1356 087d 21       		.uleb128 0x21
 1357 087e 20000000 		.4byte	.Ldebug_ranges0+0x20
 1358 0882 22       		.uleb128 0x22
 1359 0883 D5070000 		.4byte	0x7d5
 1360 0887 A3000000 		.4byte	.LLST6
 1361 088b 22       		.uleb128 0x22
 1362 088c E0070000 		.4byte	0x7e0
 1363 0890 B7000000 		.4byte	.LLST7
 1364 0894 22       		.uleb128 0x22
 1365 0895 EB070000 		.4byte	0x7eb
 1366 0899 CB000000 		.4byte	.LLST8
 1367 089d 22       		.uleb128 0x22
 1368 089e F6070000 		.4byte	0x7f6
 1369 08a2 F5000000 		.4byte	.LLST9
 1370 08a6 00       		.byte	0
 1371 08a7 00       		.byte	0
 1372 08a8 00       		.byte	0
 1373 08a9 23       		.uleb128 0x23
 1374 08aa 9F040000 		.4byte	0x49f
 1375 08ae B9080000 		.4byte	0x8b9
 1376 08b2 24       		.uleb128 0x24
 1377 08b3 3B000000 		.4byte	0x3b
 1378 08b7 2C       		.byte	0x2c
 1379 08b8 00       		.byte	0
 1380 08b9 25       		.uleb128 0x25
 1381 08ba 40050000 		.4byte	.LASF127
 1382 08be 01       		.byte	0x1
 1383 08bf 2B       		.byte	0x2b
 1384 08c0 CA080000 		.4byte	0x8ca
 1385 08c4 05       		.byte	0x5
 1386 08c5 03       		.byte	0x3
 1387 08c6 00000000 		.4byte	http_html_hdr
 1388 08ca 10       		.uleb128 0x10
 1389 08cb A9080000 		.4byte	0x8a9
 1390 08cf 23       		.uleb128 0x23
 1391 08d0 9F040000 		.4byte	0x49f
 1392 08d4 DF080000 		.4byte	0x8df
 1393 08d8 24       		.uleb128 0x24
 1394 08d9 3B000000 		.4byte	0x3b
 1395 08dd 85       		.byte	0x85
 1396 08de 00       		.byte	0
 1397 08df 25       		.uleb128 0x25
 1398 08e0 C4010000 		.4byte	.LASF128
 1399 08e4 01       		.byte	0x1
 1400 08e5 2C       		.byte	0x2c
 1401 08e6 F0080000 		.4byte	0x8f0
 1402 08ea 05       		.byte	0x5
 1403 08eb 03       		.byte	0x3
 1404 08ec 00000000 		.4byte	http_index_html
 1405 08f0 10       		.uleb128 0x10
ARM GAS  /var/folders/5n/p_75w94d66l9ssrldxqdhh700000gn/T//cc5xVnwI.s 			page 26


 1406 08f1 CF080000 		.4byte	0x8cf
 1407 08f5 23       		.uleb128 0x23
 1408 08f6 B4020000 		.4byte	0x2b4
 1409 08fa 05090000 		.4byte	0x905
 1410 08fe 24       		.uleb128 0x24
 1411 08ff 3B000000 		.4byte	0x3b
 1412 0903 95       		.byte	0x95
 1413 0904 00       		.byte	0
 1414 0905 26       		.uleb128 0x26
 1415 0906 9F050000 		.4byte	.LASF134
 1416 090a 01       		.byte	0x1
 1417 090b 59       		.byte	0x59
 1418 090c F5080000 		.4byte	0x8f5
 1419 0910 01       		.byte	0x1
 1420 0911 05       		.byte	0x5
 1421 0912 03       		.byte	0x3
 1422 0913 00000000 		.4byte	wa_http_server
 1423 0917 00       		.byte	0
 1424              		.section	.debug_abbrev,"",%progbits
 1425              	.Ldebug_abbrev0:
 1426 0000 01       		.uleb128 0x1
 1427 0001 11       		.uleb128 0x11
 1428 0002 01       		.byte	0x1
 1429 0003 25       		.uleb128 0x25
 1430 0004 0E       		.uleb128 0xe
 1431 0005 13       		.uleb128 0x13
 1432 0006 0B       		.uleb128 0xb
 1433 0007 03       		.uleb128 0x3
 1434 0008 0E       		.uleb128 0xe
 1435 0009 1B       		.uleb128 0x1b
 1436 000a 0E       		.uleb128 0xe
 1437 000b 11       		.uleb128 0x11
 1438 000c 01       		.uleb128 0x1
 1439 000d 52       		.uleb128 0x52
 1440 000e 01       		.uleb128 0x1
 1441 000f 55       		.uleb128 0x55
 1442 0010 06       		.uleb128 0x6
 1443 0011 10       		.uleb128 0x10
 1444 0012 06       		.uleb128 0x6
 1445 0013 00       		.byte	0
 1446 0014 00       		.byte	0
 1447 0015 02       		.uleb128 0x2
 1448 0016 24       		.uleb128 0x24
 1449 0017 00       		.byte	0
 1450 0018 0B       		.uleb128 0xb
 1451 0019 0B       		.uleb128 0xb
 1452 001a 3E       		.uleb128 0x3e
 1453 001b 0B       		.uleb128 0xb
 1454 001c 03       		.uleb128 0x3
 1455 001d 08       		.uleb128 0x8
 1456 001e 00       		.byte	0
 1457 001f 00       		.byte	0
 1458 0020 03       		.uleb128 0x3
 1459 0021 16       		.uleb128 0x16
 1460 0022 00       		.byte	0
 1461 0023 03       		.uleb128 0x3
 1462 0024 0E       		.uleb128 0xe
ARM GAS  /var/folders/5n/p_75w94d66l9ssrldxqdhh700000gn/T//cc5xVnwI.s 			page 27


 1463 0025 3A       		.uleb128 0x3a
 1464 0026 0B       		.uleb128 0xb
 1465 0027 3B       		.uleb128 0x3b
 1466 0028 0B       		.uleb128 0xb
 1467 0029 49       		.uleb128 0x49
 1468 002a 13       		.uleb128 0x13
 1469 002b 00       		.byte	0
 1470 002c 00       		.byte	0
 1471 002d 04       		.uleb128 0x4
 1472 002e 24       		.uleb128 0x24
 1473 002f 00       		.byte	0
 1474 0030 0B       		.uleb128 0xb
 1475 0031 0B       		.uleb128 0xb
 1476 0032 3E       		.uleb128 0x3e
 1477 0033 0B       		.uleb128 0xb
 1478 0034 03       		.uleb128 0x3
 1479 0035 0E       		.uleb128 0xe
 1480 0036 00       		.byte	0
 1481 0037 00       		.byte	0
 1482 0038 05       		.uleb128 0x5
 1483 0039 13       		.uleb128 0x13
 1484 003a 01       		.byte	0x1
 1485 003b 03       		.uleb128 0x3
 1486 003c 0E       		.uleb128 0xe
 1487 003d 0B       		.uleb128 0xb
 1488 003e 0B       		.uleb128 0xb
 1489 003f 3A       		.uleb128 0x3a
 1490 0040 0B       		.uleb128 0xb
 1491 0041 3B       		.uleb128 0x3b
 1492 0042 0B       		.uleb128 0xb
 1493 0043 01       		.uleb128 0x1
 1494 0044 13       		.uleb128 0x13
 1495 0045 00       		.byte	0
 1496 0046 00       		.byte	0
 1497 0047 06       		.uleb128 0x6
 1498 0048 0D       		.uleb128 0xd
 1499 0049 00       		.byte	0
 1500 004a 03       		.uleb128 0x3
 1501 004b 0E       		.uleb128 0xe
 1502 004c 3A       		.uleb128 0x3a
 1503 004d 0B       		.uleb128 0xb
 1504 004e 3B       		.uleb128 0x3b
 1505 004f 0B       		.uleb128 0xb
 1506 0050 49       		.uleb128 0x49
 1507 0051 13       		.uleb128 0x13
 1508 0052 38       		.uleb128 0x38
 1509 0053 0A       		.uleb128 0xa
 1510 0054 00       		.byte	0
 1511 0055 00       		.byte	0
 1512 0056 07       		.uleb128 0x7
 1513 0057 0D       		.uleb128 0xd
 1514 0058 00       		.byte	0
 1515 0059 03       		.uleb128 0x3
 1516 005a 08       		.uleb128 0x8
 1517 005b 3A       		.uleb128 0x3a
 1518 005c 0B       		.uleb128 0xb
 1519 005d 3B       		.uleb128 0x3b
ARM GAS  /var/folders/5n/p_75w94d66l9ssrldxqdhh700000gn/T//cc5xVnwI.s 			page 28


 1520 005e 0B       		.uleb128 0xb
 1521 005f 49       		.uleb128 0x49
 1522 0060 13       		.uleb128 0x13
 1523 0061 38       		.uleb128 0x38
 1524 0062 0A       		.uleb128 0xa
 1525 0063 00       		.byte	0
 1526 0064 00       		.byte	0
 1527 0065 08       		.uleb128 0x8
 1528 0066 13       		.uleb128 0x13
 1529 0067 01       		.byte	0x1
 1530 0068 0B       		.uleb128 0xb
 1531 0069 0B       		.uleb128 0xb
 1532 006a 3A       		.uleb128 0x3a
 1533 006b 0B       		.uleb128 0xb
 1534 006c 3B       		.uleb128 0x3b
 1535 006d 0B       		.uleb128 0xb
 1536 006e 01       		.uleb128 0x1
 1537 006f 13       		.uleb128 0x13
 1538 0070 00       		.byte	0
 1539 0071 00       		.byte	0
 1540 0072 09       		.uleb128 0x9
 1541 0073 0F       		.uleb128 0xf
 1542 0074 00       		.byte	0
 1543 0075 0B       		.uleb128 0xb
 1544 0076 0B       		.uleb128 0xb
 1545 0077 49       		.uleb128 0x49
 1546 0078 13       		.uleb128 0x13
 1547 0079 00       		.byte	0
 1548 007a 00       		.byte	0
 1549 007b 0A       		.uleb128 0xa
 1550 007c 0F       		.uleb128 0xf
 1551 007d 00       		.byte	0
 1552 007e 0B       		.uleb128 0xb
 1553 007f 0B       		.uleb128 0xb
 1554 0080 00       		.byte	0
 1555 0081 00       		.byte	0
 1556 0082 0B       		.uleb128 0xb
 1557 0083 13       		.uleb128 0x13
 1558 0084 01       		.byte	0x1
 1559 0085 03       		.uleb128 0x3
 1560 0086 0E       		.uleb128 0xe
 1561 0087 0B       		.uleb128 0xb
 1562 0088 0B       		.uleb128 0xb
 1563 0089 3A       		.uleb128 0x3a
 1564 008a 0B       		.uleb128 0xb
 1565 008b 3B       		.uleb128 0x3b
 1566 008c 05       		.uleb128 0x5
 1567 008d 01       		.uleb128 0x1
 1568 008e 13       		.uleb128 0x13
 1569 008f 00       		.byte	0
 1570 0090 00       		.byte	0
 1571 0091 0C       		.uleb128 0xc
 1572 0092 0D       		.uleb128 0xd
 1573 0093 00       		.byte	0
 1574 0094 03       		.uleb128 0x3
 1575 0095 08       		.uleb128 0x8
 1576 0096 3A       		.uleb128 0x3a
ARM GAS  /var/folders/5n/p_75w94d66l9ssrldxqdhh700000gn/T//cc5xVnwI.s 			page 29


 1577 0097 0B       		.uleb128 0xb
 1578 0098 3B       		.uleb128 0x3b
 1579 0099 05       		.uleb128 0x5
 1580 009a 49       		.uleb128 0x49
 1581 009b 13       		.uleb128 0x13
 1582 009c 38       		.uleb128 0x38
 1583 009d 0A       		.uleb128 0xa
 1584 009e 00       		.byte	0
 1585 009f 00       		.byte	0
 1586 00a0 0D       		.uleb128 0xd
 1587 00a1 35       		.uleb128 0x35
 1588 00a2 00       		.byte	0
 1589 00a3 49       		.uleb128 0x49
 1590 00a4 13       		.uleb128 0x13
 1591 00a5 00       		.byte	0
 1592 00a6 00       		.byte	0
 1593 00a7 0E       		.uleb128 0xe
 1594 00a8 17       		.uleb128 0x17
 1595 00a9 01       		.byte	0x1
 1596 00aa 0B       		.uleb128 0xb
 1597 00ab 0B       		.uleb128 0xb
 1598 00ac 3A       		.uleb128 0x3a
 1599 00ad 0B       		.uleb128 0xb
 1600 00ae 3B       		.uleb128 0x3b
 1601 00af 0B       		.uleb128 0xb
 1602 00b0 01       		.uleb128 0x1
 1603 00b1 13       		.uleb128 0x13
 1604 00b2 00       		.byte	0
 1605 00b3 00       		.byte	0
 1606 00b4 0F       		.uleb128 0xf
 1607 00b5 0D       		.uleb128 0xd
 1608 00b6 00       		.byte	0
 1609 00b7 03       		.uleb128 0x3
 1610 00b8 0E       		.uleb128 0xe
 1611 00b9 3A       		.uleb128 0x3a
 1612 00ba 0B       		.uleb128 0xb
 1613 00bb 3B       		.uleb128 0x3b
 1614 00bc 0B       		.uleb128 0xb
 1615 00bd 49       		.uleb128 0x49
 1616 00be 13       		.uleb128 0x13
 1617 00bf 00       		.byte	0
 1618 00c0 00       		.byte	0
 1619 00c1 10       		.uleb128 0x10
 1620 00c2 26       		.uleb128 0x26
 1621 00c3 00       		.byte	0
 1622 00c4 49       		.uleb128 0x49
 1623 00c5 13       		.uleb128 0x13
 1624 00c6 00       		.byte	0
 1625 00c7 00       		.byte	0
 1626 00c8 11       		.uleb128 0x11
 1627 00c9 04       		.uleb128 0x4
 1628 00ca 01       		.byte	0x1
 1629 00cb 03       		.uleb128 0x3
 1630 00cc 0E       		.uleb128 0xe
 1631 00cd 0B       		.uleb128 0xb
 1632 00ce 0B       		.uleb128 0xb
 1633 00cf 3A       		.uleb128 0x3a
ARM GAS  /var/folders/5n/p_75w94d66l9ssrldxqdhh700000gn/T//cc5xVnwI.s 			page 30


 1634 00d0 0B       		.uleb128 0xb
 1635 00d1 3B       		.uleb128 0x3b
 1636 00d2 0B       		.uleb128 0xb
 1637 00d3 01       		.uleb128 0x1
 1638 00d4 13       		.uleb128 0x13
 1639 00d5 00       		.byte	0
 1640 00d6 00       		.byte	0
 1641 00d7 12       		.uleb128 0x12
 1642 00d8 28       		.uleb128 0x28
 1643 00d9 00       		.byte	0
 1644 00da 03       		.uleb128 0x3
 1645 00db 0E       		.uleb128 0xe
 1646 00dc 1C       		.uleb128 0x1c
 1647 00dd 0D       		.uleb128 0xd
 1648 00de 00       		.byte	0
 1649 00df 00       		.byte	0
 1650 00e0 13       		.uleb128 0x13
 1651 00e1 15       		.uleb128 0x15
 1652 00e2 01       		.byte	0x1
 1653 00e3 27       		.uleb128 0x27
 1654 00e4 0C       		.uleb128 0xc
 1655 00e5 01       		.uleb128 0x1
 1656 00e6 13       		.uleb128 0x13
 1657 00e7 00       		.byte	0
 1658 00e8 00       		.byte	0
 1659 00e9 14       		.uleb128 0x14
 1660 00ea 05       		.uleb128 0x5
 1661 00eb 00       		.byte	0
 1662 00ec 49       		.uleb128 0x49
 1663 00ed 13       		.uleb128 0x13
 1664 00ee 00       		.byte	0
 1665 00ef 00       		.byte	0
 1666 00f0 15       		.uleb128 0x15
 1667 00f1 0D       		.uleb128 0xd
 1668 00f2 00       		.byte	0
 1669 00f3 03       		.uleb128 0x3
 1670 00f4 08       		.uleb128 0x8
 1671 00f5 3A       		.uleb128 0x3a
 1672 00f6 0B       		.uleb128 0xb
 1673 00f7 3B       		.uleb128 0x3b
 1674 00f8 0B       		.uleb128 0xb
 1675 00f9 49       		.uleb128 0x49
 1676 00fa 13       		.uleb128 0x13
 1677 00fb 00       		.byte	0
 1678 00fc 00       		.byte	0
 1679 00fd 16       		.uleb128 0x16
 1680 00fe 13       		.uleb128 0x13
 1681 00ff 00       		.byte	0
 1682 0100 03       		.uleb128 0x3
 1683 0101 0E       		.uleb128 0xe
 1684 0102 3C       		.uleb128 0x3c
 1685 0103 0C       		.uleb128 0xc
 1686 0104 00       		.byte	0
 1687 0105 00       		.byte	0
 1688 0106 17       		.uleb128 0x17
 1689 0107 2E       		.uleb128 0x2e
 1690 0108 01       		.byte	0x1
ARM GAS  /var/folders/5n/p_75w94d66l9ssrldxqdhh700000gn/T//cc5xVnwI.s 			page 31


 1691 0109 03       		.uleb128 0x3
 1692 010a 0E       		.uleb128 0xe
 1693 010b 3A       		.uleb128 0x3a
 1694 010c 0B       		.uleb128 0xb
 1695 010d 3B       		.uleb128 0x3b
 1696 010e 0B       		.uleb128 0xb
 1697 010f 27       		.uleb128 0x27
 1698 0110 0C       		.uleb128 0xc
 1699 0111 20       		.uleb128 0x20
 1700 0112 0B       		.uleb128 0xb
 1701 0113 01       		.uleb128 0x1
 1702 0114 13       		.uleb128 0x13
 1703 0115 00       		.byte	0
 1704 0116 00       		.byte	0
 1705 0117 18       		.uleb128 0x18
 1706 0118 05       		.uleb128 0x5
 1707 0119 00       		.byte	0
 1708 011a 03       		.uleb128 0x3
 1709 011b 0E       		.uleb128 0xe
 1710 011c 3A       		.uleb128 0x3a
 1711 011d 0B       		.uleb128 0xb
 1712 011e 3B       		.uleb128 0x3b
 1713 011f 0B       		.uleb128 0xb
 1714 0120 49       		.uleb128 0x49
 1715 0121 13       		.uleb128 0x13
 1716 0122 00       		.byte	0
 1717 0123 00       		.byte	0
 1718 0124 19       		.uleb128 0x19
 1719 0125 34       		.uleb128 0x34
 1720 0126 00       		.byte	0
 1721 0127 03       		.uleb128 0x3
 1722 0128 0E       		.uleb128 0xe
 1723 0129 3A       		.uleb128 0x3a
 1724 012a 0B       		.uleb128 0xb
 1725 012b 3B       		.uleb128 0x3b
 1726 012c 0B       		.uleb128 0xb
 1727 012d 49       		.uleb128 0x49
 1728 012e 13       		.uleb128 0x13
 1729 012f 00       		.byte	0
 1730 0130 00       		.byte	0
 1731 0131 1A       		.uleb128 0x1a
 1732 0132 34       		.uleb128 0x34
 1733 0133 00       		.byte	0
 1734 0134 03       		.uleb128 0x3
 1735 0135 08       		.uleb128 0x8
 1736 0136 3A       		.uleb128 0x3a
 1737 0137 0B       		.uleb128 0xb
 1738 0138 3B       		.uleb128 0x3b
 1739 0139 0B       		.uleb128 0xb
 1740 013a 49       		.uleb128 0x49
 1741 013b 13       		.uleb128 0x13
 1742 013c 00       		.byte	0
 1743 013d 00       		.byte	0
 1744 013e 1B       		.uleb128 0x1b
 1745 013f 2E       		.uleb128 0x2e
 1746 0140 01       		.byte	0x1
 1747 0141 3F       		.uleb128 0x3f
ARM GAS  /var/folders/5n/p_75w94d66l9ssrldxqdhh700000gn/T//cc5xVnwI.s 			page 32


 1748 0142 0C       		.uleb128 0xc
 1749 0143 03       		.uleb128 0x3
 1750 0144 0E       		.uleb128 0xe
 1751 0145 3A       		.uleb128 0x3a
 1752 0146 0B       		.uleb128 0xb
 1753 0147 3B       		.uleb128 0x3b
 1754 0148 0B       		.uleb128 0xb
 1755 0149 27       		.uleb128 0x27
 1756 014a 0C       		.uleb128 0xc
 1757 014b 49       		.uleb128 0x49
 1758 014c 13       		.uleb128 0x13
 1759 014d 11       		.uleb128 0x11
 1760 014e 01       		.uleb128 0x1
 1761 014f 12       		.uleb128 0x12
 1762 0150 01       		.uleb128 0x1
 1763 0151 40       		.uleb128 0x40
 1764 0152 06       		.uleb128 0x6
 1765 0153 01       		.uleb128 0x1
 1766 0154 13       		.uleb128 0x13
 1767 0155 00       		.byte	0
 1768 0156 00       		.byte	0
 1769 0157 1C       		.uleb128 0x1c
 1770 0158 05       		.uleb128 0x5
 1771 0159 00       		.byte	0
 1772 015a 03       		.uleb128 0x3
 1773 015b 08       		.uleb128 0x8
 1774 015c 3A       		.uleb128 0x3a
 1775 015d 0B       		.uleb128 0xb
 1776 015e 3B       		.uleb128 0x3b
 1777 015f 0B       		.uleb128 0xb
 1778 0160 49       		.uleb128 0x49
 1779 0161 13       		.uleb128 0x13
 1780 0162 02       		.uleb128 0x2
 1781 0163 06       		.uleb128 0x6
 1782 0164 00       		.byte	0
 1783 0165 00       		.byte	0
 1784 0166 1D       		.uleb128 0x1d
 1785 0167 34       		.uleb128 0x34
 1786 0168 00       		.byte	0
 1787 0169 03       		.uleb128 0x3
 1788 016a 0E       		.uleb128 0xe
 1789 016b 3A       		.uleb128 0x3a
 1790 016c 0B       		.uleb128 0xb
 1791 016d 3B       		.uleb128 0x3b
 1792 016e 0B       		.uleb128 0xb
 1793 016f 49       		.uleb128 0x49
 1794 0170 13       		.uleb128 0x13
 1795 0171 02       		.uleb128 0x2
 1796 0172 06       		.uleb128 0x6
 1797 0173 00       		.byte	0
 1798 0174 00       		.byte	0
 1799 0175 1E       		.uleb128 0x1e
 1800 0176 34       		.uleb128 0x34
 1801 0177 00       		.byte	0
 1802 0178 03       		.uleb128 0x3
 1803 0179 08       		.uleb128 0x8
 1804 017a 3A       		.uleb128 0x3a
ARM GAS  /var/folders/5n/p_75w94d66l9ssrldxqdhh700000gn/T//cc5xVnwI.s 			page 33


 1805 017b 0B       		.uleb128 0xb
 1806 017c 3B       		.uleb128 0x3b
 1807 017d 0B       		.uleb128 0xb
 1808 017e 49       		.uleb128 0x49
 1809 017f 13       		.uleb128 0x13
 1810 0180 02       		.uleb128 0x2
 1811 0181 06       		.uleb128 0x6
 1812 0182 00       		.byte	0
 1813 0183 00       		.byte	0
 1814 0184 1F       		.uleb128 0x1f
 1815 0185 1D       		.uleb128 0x1d
 1816 0186 01       		.byte	0x1
 1817 0187 31       		.uleb128 0x31
 1818 0188 13       		.uleb128 0x13
 1819 0189 52       		.uleb128 0x52
 1820 018a 01       		.uleb128 0x1
 1821 018b 55       		.uleb128 0x55
 1822 018c 06       		.uleb128 0x6
 1823 018d 58       		.uleb128 0x58
 1824 018e 0B       		.uleb128 0xb
 1825 018f 59       		.uleb128 0x59
 1826 0190 0B       		.uleb128 0xb
 1827 0191 00       		.byte	0
 1828 0192 00       		.byte	0
 1829 0193 20       		.uleb128 0x20
 1830 0194 05       		.uleb128 0x5
 1831 0195 00       		.byte	0
 1832 0196 31       		.uleb128 0x31
 1833 0197 13       		.uleb128 0x13
 1834 0198 02       		.uleb128 0x2
 1835 0199 06       		.uleb128 0x6
 1836 019a 00       		.byte	0
 1837 019b 00       		.byte	0
 1838 019c 21       		.uleb128 0x21
 1839 019d 0B       		.uleb128 0xb
 1840 019e 01       		.byte	0x1
 1841 019f 55       		.uleb128 0x55
 1842 01a0 06       		.uleb128 0x6
 1843 01a1 00       		.byte	0
 1844 01a2 00       		.byte	0
 1845 01a3 22       		.uleb128 0x22
 1846 01a4 34       		.uleb128 0x34
 1847 01a5 00       		.byte	0
 1848 01a6 31       		.uleb128 0x31
 1849 01a7 13       		.uleb128 0x13
 1850 01a8 02       		.uleb128 0x2
 1851 01a9 06       		.uleb128 0x6
 1852 01aa 00       		.byte	0
 1853 01ab 00       		.byte	0
 1854 01ac 23       		.uleb128 0x23
 1855 01ad 01       		.uleb128 0x1
 1856 01ae 01       		.byte	0x1
 1857 01af 49       		.uleb128 0x49
 1858 01b0 13       		.uleb128 0x13
 1859 01b1 01       		.uleb128 0x1
 1860 01b2 13       		.uleb128 0x13
 1861 01b3 00       		.byte	0
ARM GAS  /var/folders/5n/p_75w94d66l9ssrldxqdhh700000gn/T//cc5xVnwI.s 			page 34


 1862 01b4 00       		.byte	0
 1863 01b5 24       		.uleb128 0x24
 1864 01b6 21       		.uleb128 0x21
 1865 01b7 00       		.byte	0
 1866 01b8 49       		.uleb128 0x49
 1867 01b9 13       		.uleb128 0x13
 1868 01ba 2F       		.uleb128 0x2f
 1869 01bb 0B       		.uleb128 0xb
 1870 01bc 00       		.byte	0
 1871 01bd 00       		.byte	0
 1872 01be 25       		.uleb128 0x25
 1873 01bf 34       		.uleb128 0x34
 1874 01c0 00       		.byte	0
 1875 01c1 03       		.uleb128 0x3
 1876 01c2 0E       		.uleb128 0xe
 1877 01c3 3A       		.uleb128 0x3a
 1878 01c4 0B       		.uleb128 0xb
 1879 01c5 3B       		.uleb128 0x3b
 1880 01c6 0B       		.uleb128 0xb
 1881 01c7 49       		.uleb128 0x49
 1882 01c8 13       		.uleb128 0x13
 1883 01c9 02       		.uleb128 0x2
 1884 01ca 0A       		.uleb128 0xa
 1885 01cb 00       		.byte	0
 1886 01cc 00       		.byte	0
 1887 01cd 26       		.uleb128 0x26
 1888 01ce 34       		.uleb128 0x34
 1889 01cf 00       		.byte	0
 1890 01d0 03       		.uleb128 0x3
 1891 01d1 0E       		.uleb128 0xe
 1892 01d2 3A       		.uleb128 0x3a
 1893 01d3 0B       		.uleb128 0xb
 1894 01d4 3B       		.uleb128 0x3b
 1895 01d5 0B       		.uleb128 0xb
 1896 01d6 49       		.uleb128 0x49
 1897 01d7 13       		.uleb128 0x13
 1898 01d8 3F       		.uleb128 0x3f
 1899 01d9 0C       		.uleb128 0xc
 1900 01da 02       		.uleb128 0x2
 1901 01db 0A       		.uleb128 0xa
 1902 01dc 00       		.byte	0
 1903 01dd 00       		.byte	0
 1904 01de 00       		.byte	0
 1905              		.section	.debug_loc,"",%progbits
 1906              	.Ldebug_loc0:
 1907              	.LLST0:
 1908 0000 00000000 		.4byte	.LFB8
 1909 0004 02000000 		.4byte	.LCFI0
 1910 0008 0200     		.2byte	0x2
 1911 000a 7D       		.byte	0x7d
 1912 000b 00       		.sleb128 0
 1913 000c 02000000 		.4byte	.LCFI0
 1914 0010 06000000 		.4byte	.LCFI1
 1915 0014 0200     		.2byte	0x2
 1916 0016 7D       		.byte	0x7d
 1917 0017 10       		.sleb128 16
 1918 0018 06000000 		.4byte	.LCFI1
ARM GAS  /var/folders/5n/p_75w94d66l9ssrldxqdhh700000gn/T//cc5xVnwI.s 			page 35


 1919 001c BC000000 		.4byte	.LFE8
 1920 0020 0200     		.2byte	0x2
 1921 0022 7D       		.byte	0x7d
 1922 0023 20       		.sleb128 32
 1923 0024 00000000 		.4byte	0
 1924 0028 00000000 		.4byte	0
 1925              	.LLST1:
 1926 002c 00000000 		.4byte	.LVL0
 1927 0030 08000000 		.4byte	.LVL1
 1928 0034 0100     		.2byte	0x1
 1929 0036 50       		.byte	0x50
 1930 0037 00000000 		.4byte	0
 1931 003b 00000000 		.4byte	0
 1932              	.LLST2:
 1933 003f 0E000000 		.4byte	.LVL2
 1934 0043 1B000000 		.4byte	.LVL3-1
 1935 0047 0100     		.2byte	0x1
 1936 0049 50       		.byte	0x50
 1937 004a 1B000000 		.4byte	.LVL3-1
 1938 004e BC000000 		.4byte	.LFE8
 1939 0052 0100     		.2byte	0x1
 1940 0054 55       		.byte	0x55
 1941 0055 00000000 		.4byte	0
 1942 0059 00000000 		.4byte	0
 1943              	.LLST3:
 1944 005d 2A000000 		.4byte	.LVL4
 1945 0061 A6000000 		.4byte	.LVL17
 1946 0065 0200     		.2byte	0x2
 1947 0067 91       		.byte	0x91
 1948 0068 60       		.sleb128 -32
 1949 0069 00000000 		.4byte	0
 1950 006d 00000000 		.4byte	0
 1951              	.LLST4:
 1952 0071 32000000 		.4byte	.LVL5
 1953 0075 3C000000 		.4byte	.LVL7
 1954 0079 0100     		.2byte	0x1
 1955 007b 50       		.byte	0x50
 1956 007c 00000000 		.4byte	0
 1957 0080 00000000 		.4byte	0
 1958              	.LLST5:
 1959 0084 3A000000 		.4byte	.LVL6
 1960 0088 3F000000 		.4byte	.LVL8-1
 1961 008c 0200     		.2byte	0x2
 1962 008e 7D       		.byte	0x7d
 1963 008f 00       		.sleb128 0
 1964 0090 3F000000 		.4byte	.LVL8-1
 1965 0094 A6000000 		.4byte	.LVL17
 1966 0098 0100     		.2byte	0x1
 1967 009a 54       		.byte	0x54
 1968 009b 00000000 		.4byte	0
 1969 009f 00000000 		.4byte	0
 1970              	.LLST6:
 1971 00a3 2A000000 		.4byte	.LVL4
 1972 00a7 A6000000 		.4byte	.LVL17
 1973 00ab 0200     		.2byte	0x2
 1974 00ad 91       		.byte	0x91
 1975 00ae 64       		.sleb128 -28
ARM GAS  /var/folders/5n/p_75w94d66l9ssrldxqdhh700000gn/T//cc5xVnwI.s 			page 36


 1976 00af 00000000 		.4byte	0
 1977 00b3 00000000 		.4byte	0
 1978              	.LLST7:
 1979 00b7 2A000000 		.4byte	.LVL4
 1980 00bb A6000000 		.4byte	.LVL17
 1981 00bf 0200     		.2byte	0x2
 1982 00c1 91       		.byte	0x91
 1983 00c2 68       		.sleb128 -24
 1984 00c3 00000000 		.4byte	0
 1985 00c7 00000000 		.4byte	0
 1986              	.LLST8:
 1987 00cb 44000000 		.4byte	.LVL9
 1988 00cf 49000000 		.4byte	.LVL10-1
 1989 00d3 0100     		.2byte	0x1
 1990 00d5 53       		.byte	0x53
 1991 00d6 64000000 		.4byte	.LVL13
 1992 00da 68000000 		.4byte	.LVL14
 1993 00de 0200     		.2byte	0x2
 1994 00e0 91       		.byte	0x91
 1995 00e1 6E       		.sleb128 -18
 1996 00e2 6A000000 		.4byte	.LVL15
 1997 00e6 6E000000 		.4byte	.LVL16
 1998 00ea 0100     		.2byte	0x1
 1999 00ec 53       		.byte	0x53
 2000 00ed 00000000 		.4byte	0
 2001 00f1 00000000 		.4byte	0
 2002              	.LLST9:
 2003 00f5 40000000 		.4byte	.LVL8
 2004 00f9 44000000 		.4byte	.LVL9
 2005 00fd 0100     		.2byte	0x1
 2006 00ff 50       		.byte	0x50
 2007 0100 58000000 		.4byte	.LVL11
 2008 0104 60000000 		.4byte	.LVL12
 2009 0108 0100     		.2byte	0x1
 2010 010a 50       		.byte	0x50
 2011 010b 00000000 		.4byte	0
 2012 010f 00000000 		.4byte	0
 2013              		.section	.debug_aranges,"",%progbits
 2014 0000 1C000000 		.4byte	0x1c
 2015 0004 0200     		.2byte	0x2
 2016 0006 00000000 		.4byte	.Ldebug_info0
 2017 000a 04       		.byte	0x4
 2018 000b 00       		.byte	0
 2019 000c 0000     		.2byte	0
 2020 000e 0000     		.2byte	0
 2021 0010 00000000 		.4byte	.LFB8
 2022 0014 BC000000 		.4byte	.LFE8-.LFB8
 2023 0018 00000000 		.4byte	0
 2024 001c 00000000 		.4byte	0
 2025              		.section	.debug_ranges,"",%progbits
 2026              	.Ldebug_ranges0:
 2027 0000 32000000 		.4byte	.LBB4
 2028 0004 34000000 		.4byte	.LBE4
 2029 0008 3A000000 		.4byte	.LBB8
 2030 000c 50000000 		.4byte	.LBE8
 2031 0010 58000000 		.4byte	.LBB9
 2032 0014 A6000000 		.4byte	.LBE9
ARM GAS  /var/folders/5n/p_75w94d66l9ssrldxqdhh700000gn/T//cc5xVnwI.s 			page 37


 2033 0018 00000000 		.4byte	0
 2034 001c 00000000 		.4byte	0
 2035 0020 32000000 		.4byte	.LBB5
 2036 0024 34000000 		.4byte	.LBE5
 2037 0028 3A000000 		.4byte	.LBB6
 2038 002c 50000000 		.4byte	.LBE6
 2039 0030 58000000 		.4byte	.LBB7
 2040 0034 A6000000 		.4byte	.LBE7
 2041 0038 00000000 		.4byte	0
 2042 003c 00000000 		.4byte	0
 2043 0040 00000000 		.4byte	.LFB8
 2044 0044 BC000000 		.4byte	.LFE8
 2045 0048 00000000 		.4byte	0
 2046 004c 00000000 		.4byte	0
 2047              		.section	.debug_line,"",%progbits
 2048              	.Ldebug_line0:
 2049 0000 4D020000 		.section	.debug_str,"MS",%progbits,1
 2049      02000102 
 2049      00000201 
 2049      FB0E0D00 
 2049      01010101 
 2050              	.LASF49:
 2051 0000 696E7463 		.ascii	"intctx\000"
 2051      747800
 2052              	.LASF40:
 2053 0007 705F6D73 		.ascii	"p_msg\000"
 2053      6700
 2054              	.LASF75:
 2055 000d 70627566 		.ascii	"pbuf\000"
 2055      00
 2056              	.LASF1:
 2057 0012 73697A65 		.ascii	"size_t\000"
 2057      5F7400
 2058              	.LASF65:
 2059 0019 7264796D 		.ascii	"rdymsg\000"
 2059      736700
 2060              	.LASF114:
 2061 0020 736F636B 		.ascii	"socket\000"
 2061      657400
 2062              	.LASF14:
 2063 0027 75696E74 		.ascii	"uint64_t\000"
 2063      36345F74 
 2063      00
 2064              	.LASF126:
 2065 0030 6E657763 		.ascii	"newconn\000"
 2065      6F6E6E00 
 2066              	.LASF132:
 2067 0038 68747470 		.ascii	"http_server_serve\000"
 2067      5F736572 
 2067      7665725F 
 2067      73657276 
 2067      6500
 2068              	.LASF79:
 2069 004a 74797065 		.ascii	"type\000"
 2069      00
 2070              	.LASF64:
 2071 004f 4D61696C 		.ascii	"Mailbox\000"
ARM GAS  /var/folders/5n/p_75w94d66l9ssrldxqdhh700000gn/T//cc5xVnwI.s 			page 38


 2071      626F7800 
 2072              	.LASF15:
 2073 0057 6C6F6E67 		.ascii	"long long unsigned int\000"
 2073      206C6F6E 
 2073      6720756E 
 2073      7369676E 
 2073      65642069 
 2074              	.LASF82:
 2075 006e 61646472 		.ascii	"addr\000"
 2075      00
 2076              	.LASF66:
 2077 0073 65786974 		.ascii	"exitcode\000"
 2077      636F6465 
 2077      00
 2078              	.LASF111:
 2079 007c 6F705F63 		.ascii	"op_completed\000"
 2079      6F6D706C 
 2079      65746564 
 2079      00
 2080              	.LASF60:
 2081 0089 6D625F77 		.ascii	"mb_wrptr\000"
 2081      72707472 
 2081      00
 2082              	.LASF76:
 2083 0092 6E657874 		.ascii	"next\000"
 2083      00
 2084              	.LASF28:
 2085 0097 705F7072 		.ascii	"p_prio\000"
 2085      696F00
 2086              	.LASF86:
 2087 009e 7379735F 		.ascii	"sys_sem_t\000"
 2087      73656D5F 
 2087      7400
 2088              	.LASF13:
 2089 00a8 6C6F6E67 		.ascii	"long long int\000"
 2089      206C6F6E 
 2089      6720696E 
 2089      7400
 2090              	.LASF3:
 2091 00b6 7369676E 		.ascii	"signed char\000"
 2091      65642063 
 2091      68617200 
 2092              	.LASF90:
 2093 00c2 4E455443 		.ascii	"NETCONN_UDP\000"
 2093      4F4E4E5F 
 2093      55445000 
 2094              	.LASF44:
 2095 00ce 705F6D70 		.ascii	"p_mpool\000"
 2095      6F6F6C00 
 2096              	.LASF55:
 2097 00d6 6D5F7175 		.ascii	"m_queue\000"
 2097      65756500 
 2098              	.LASF108:
 2099 00de 6E657463 		.ascii	"netconn\000"
 2099      6F6E6E00 
 2100              	.LASF19:
 2101 00e6 74736C69 		.ascii	"tslices_t\000"
ARM GAS  /var/folders/5n/p_75w94d66l9ssrldxqdhh700000gn/T//cc5xVnwI.s 			page 39


 2101      6365735F 
 2101      7400
 2102              	.LASF78:
 2103 00f0 746F745F 		.ascii	"tot_len\000"
 2103      6C656E00 
 2104              	.LASF109:
 2105 00f8 73746174 		.ascii	"state\000"
 2105      6500
 2106              	.LASF10:
 2107 00fe 6C6F6E67 		.ascii	"long int\000"
 2107      20696E74 
 2107      00
 2108              	.LASF125:
 2109 0107 636F6E6E 		.ascii	"conn\000"
 2109      00
 2110              	.LASF89:
 2111 010c 4E455443 		.ascii	"NETCONN_TCP\000"
 2111      4F4E4E5F 
 2111      54435000 
 2112              	.LASF17:
 2113 0118 74737461 		.ascii	"tstate_t\000"
 2113      74655F74 
 2113      00
 2114              	.LASF123:
 2115 0121 696E6275 		.ascii	"inbuf\000"
 2115      6600
 2116              	.LASF110:
 2117 0127 6C617374 		.ascii	"last_err\000"
 2117      5F657272 
 2117      00
 2118              	.LASF7:
 2119 0130 75696E74 		.ascii	"uint16_t\000"
 2119      31365F74 
 2119      00
 2120              	.LASF30:
 2121 0139 705F6E65 		.ascii	"p_newer\000"
 2121      77657200 
 2122              	.LASF52:
 2123 0141 735F7175 		.ascii	"s_queue\000"
 2123      65756500 
 2124              	.LASF47:
 2125 0149 72656761 		.ascii	"regarm_t\000"
 2125      726D5F74 
 2125      00
 2126              	.LASF100:
 2127 0152 4E455443 		.ascii	"NETCONN_CLOSE\000"
 2127      4F4E4E5F 
 2127      434C4F53 
 2127      4500
 2128              	.LASF85:
 2129 0160 706F7274 		.ascii	"port\000"
 2129      00
 2130              	.LASF93:
 2131 0165 4E455443 		.ascii	"NETCONN_RAW\000"
 2131      4F4E4E5F 
 2131      52415700 
 2132              	.LASF24:
ARM GAS  /var/folders/5n/p_75w94d66l9ssrldxqdhh700000gn/T//cc5xVnwI.s 			page 40


 2133 0171 636E745F 		.ascii	"cnt_t\000"
 2133      7400
 2134              	.LASF0:
 2135 0177 756E7369 		.ascii	"unsigned int\000"
 2135      676E6564 
 2135      20696E74 
 2135      00
 2136              	.LASF115:
 2137 0184 77726974 		.ascii	"write_offset\000"
 2137      655F6F66 
 2137      66736574 
 2137      00
 2138              	.LASF112:
 2139 0191 72656376 		.ascii	"recvmbox\000"
 2139      6D626F78 
 2139      00
 2140              	.LASF12:
 2141 019a 6C6F6E67 		.ascii	"long unsigned int\000"
 2141      20756E73 
 2141      69676E65 
 2141      6420696E 
 2141      7400
 2142              	.LASF73:
 2143 01ac 7533325F 		.ascii	"u32_t\000"
 2143      7400
 2144              	.LASF63:
 2145 01b2 6D625F65 		.ascii	"mb_emptysem\000"
 2145      6D707479 
 2145      73656D00 
 2146              	.LASF53:
 2147 01be 735F636E 		.ascii	"s_cnt\000"
 2147      7400
 2148              	.LASF128:
 2149 01c4 68747470 		.ascii	"http_index_html\000"
 2149      5F696E64 
 2149      65785F68 
 2149      746D6C00 
 2150              	.LASF50:
 2151 01d4 636F6E74 		.ascii	"context\000"
 2151      65787400 
 2152              	.LASF99:
 2153 01dc 4E455443 		.ascii	"NETCONN_CONNECT\000"
 2153      4F4E4E5F 
 2153      434F4E4E 
 2153      45435400 
 2154              	.LASF8:
 2155 01ec 73686F72 		.ascii	"short unsigned int\000"
 2155      7420756E 
 2155      7369676E 
 2155      65642069 
 2155      6E7400
 2156              	.LASF21:
 2157 01ff 6D73675F 		.ascii	"msg_t\000"
 2157      7400
 2158              	.LASF117:
 2159 0205 63616C6C 		.ascii	"callback\000"
 2159      6261636B 
ARM GAS  /var/folders/5n/p_75w94d66l9ssrldxqdhh700000gn/T//cc5xVnwI.s 			page 41


 2159      00
 2160              	.LASF97:
 2161 020e 4E455443 		.ascii	"NETCONN_WRITE\000"
 2161      4F4E4E5F 
 2161      57524954 
 2161      4500
 2162              	.LASF16:
 2163 021c 746D6F64 		.ascii	"tmode_t\000"
 2163      655F7400 
 2164              	.LASF121:
 2165 0224 7261775F 		.ascii	"raw_pcb\000"
 2165      70636200 
 2166              	.LASF46:
 2167 022c 54687265 		.ascii	"ThreadsList\000"
 2167      6164734C 
 2167      69737400 
 2168              	.LASF22:
 2169 0238 6576656E 		.ascii	"eventmask_t\000"
 2169      746D6173 
 2169      6B5F7400 
 2170              	.LASF54:
 2171 0244 4D757465 		.ascii	"Mutex\000"
 2171      7800
 2172              	.LASF130:
 2173 024a 7765622F 		.ascii	"web/web.c\000"
 2173      7765622E 
 2173      6300
 2174              	.LASF48:
 2175 0254 73746B61 		.ascii	"stkalign_t\000"
 2175      6C69676E 
 2175      5F7400
 2176              	.LASF74:
 2177 025f 6572725F 		.ascii	"err_t\000"
 2177      7400
 2178              	.LASF83:
 2179 0265 69705F61 		.ascii	"ip_addr_t\000"
 2179      6464725F 
 2179      7400
 2180              	.LASF70:
 2181 026f 75385F74 		.ascii	"u8_t\000"
 2181      00
 2182              	.LASF61:
 2183 0274 6D625F72 		.ascii	"mb_rdptr\000"
 2183      64707472 
 2183      00
 2184              	.LASF81:
 2185 027d 69705F61 		.ascii	"ip_addr\000"
 2185      64647200 
 2186              	.LASF77:
 2187 0285 7061796C 		.ascii	"payload\000"
 2187      6F616400 
 2188              	.LASF133:
 2189 028d 68747470 		.ascii	"http_server\000"
 2189      5F736572 
 2189      76657200 
 2190              	.LASF31:
 2191 0299 705F6F6C 		.ascii	"p_older\000"
ARM GAS  /var/folders/5n/p_75w94d66l9ssrldxqdhh700000gn/T//cc5xVnwI.s 			page 42


 2191      64657200 
 2192              	.LASF45:
 2193 02a1 54687265 		.ascii	"ThreadsQueue\000"
 2193      61647351 
 2193      75657565 
 2193      00
 2194              	.LASF58:
 2195 02ae 6D625F62 		.ascii	"mb_buffer\000"
 2195      75666665 
 2195      7200
 2196              	.LASF98:
 2197 02b8 4E455443 		.ascii	"NETCONN_LISTEN\000"
 2197      4F4E4E5F 
 2197      4C495354 
 2197      454E00
 2198              	.LASF94:
 2199 02c7 6E657463 		.ascii	"netconn_type\000"
 2199      6F6E6E5F 
 2199      74797065 
 2199      00
 2200              	.LASF18:
 2201 02d4 74726566 		.ascii	"trefs_t\000"
 2201      735F7400 
 2202              	.LASF27:
 2203 02dc 705F7072 		.ascii	"p_prev\000"
 2203      657600
 2204              	.LASF20:
 2205 02e3 74707269 		.ascii	"tprio_t\000"
 2205      6F5F7400 
 2206              	.LASF9:
 2207 02eb 696E7433 		.ascii	"int32_t\000"
 2207      325F7400 
 2208              	.LASF5:
 2209 02f3 756E7369 		.ascii	"unsigned char\000"
 2209      676E6564 
 2209      20636861 
 2209      7200
 2210              	.LASF59:
 2211 0301 6D625F74 		.ascii	"mb_top\000"
 2211      6F7000
 2212              	.LASF42:
 2213 0308 705F6D74 		.ascii	"p_mtxlist\000"
 2213      786C6973 
 2213      7400
 2214              	.LASF6:
 2215 0312 73686F72 		.ascii	"short int\000"
 2215      7420696E 
 2215      7400
 2216              	.LASF33:
 2217 031c 705F7374 		.ascii	"p_state\000"
 2217      61746500 
 2218              	.LASF106:
 2219 0324 4E455443 		.ascii	"NETCONN_EVT_ERROR\000"
 2219      4F4E4E5F 
 2219      4556545F 
 2219      4552524F 
 2219      5200
ARM GAS  /var/folders/5n/p_75w94d66l9ssrldxqdhh700000gn/T//cc5xVnwI.s 			page 43


 2220              	.LASF36:
 2221 0336 705F7072 		.ascii	"p_preempt\000"
 2221      65656D70 
 2221      7400
 2222              	.LASF84:
 2223 0340 6E657462 		.ascii	"netbuf\000"
 2223      756600
 2224              	.LASF87:
 2225 0347 7379735F 		.ascii	"sys_mbox_t\000"
 2225      6D626F78 
 2225      5F7400
 2226              	.LASF68:
 2227 0352 65776D61 		.ascii	"ewmask\000"
 2227      736B00
 2228              	.LASF26:
 2229 0359 705F6E65 		.ascii	"p_next\000"
 2229      787400
 2230              	.LASF103:
 2231 0360 4E455443 		.ascii	"NETCONN_EVT_RCVMINUS\000"
 2231      4F4E4E5F 
 2231      4556545F 
 2231      5243564D 
 2231      494E5553 
 2232              	.LASF34:
 2233 0375 705F666C 		.ascii	"p_flags\000"
 2233      61677300 
 2234              	.LASF124:
 2235 037d 6275666C 		.ascii	"buflen\000"
 2235      656E00
 2236              	.LASF92:
 2237 0384 4E455443 		.ascii	"NETCONN_UDPNOCHKSUM\000"
 2237      4F4E4E5F 
 2237      5544504E 
 2237      4F43484B 
 2237      53554D00 
 2238              	.LASF25:
 2239 0398 54687265 		.ascii	"Thread\000"
 2239      616400
 2240              	.LASF107:
 2241 039f 6E657463 		.ascii	"netconn_callback\000"
 2241      6F6E6E5F 
 2241      63616C6C 
 2241      6261636B 
 2241      00
 2242              	.LASF71:
 2243 03b0 73385F74 		.ascii	"s8_t\000"
 2243      00
 2244              	.LASF41:
 2245 03b5 705F6570 		.ascii	"p_epending\000"
 2245      656E6469 
 2245      6E6700
 2246              	.LASF11:
 2247 03c0 75696E74 		.ascii	"uint32_t\000"
 2247      33325F74 
 2247      00
 2248              	.LASF69:
 2249 03c9 63686172 		.ascii	"char\000"
ARM GAS  /var/folders/5n/p_75w94d66l9ssrldxqdhh700000gn/T//cc5xVnwI.s 			page 44


 2249      00
 2250              	.LASF116:
 2251 03ce 63757272 		.ascii	"current_msg\000"
 2251      656E745F 
 2251      6D736700 
 2252              	.LASF104:
 2253 03da 4E455443 		.ascii	"NETCONN_EVT_SENDPLUS\000"
 2253      4F4E4E5F 
 2253      4556545F 
 2253      53454E44 
 2253      504C5553 
 2254              	.LASF72:
 2255 03ef 7531365F 		.ascii	"u16_t\000"
 2255      7400
 2256              	.LASF118:
 2257 03f5 69705F70 		.ascii	"ip_pcb\000"
 2257      636200
 2258              	.LASF57:
 2259 03fc 6D5F6E65 		.ascii	"m_next\000"
 2259      787400
 2260              	.LASF23:
 2261 0403 73797374 		.ascii	"systime_t\000"
 2261      696D655F 
 2261      7400
 2262              	.LASF43:
 2263 040d 705F7265 		.ascii	"p_realprio\000"
 2263      616C7072 
 2263      696F00
 2264              	.LASF122:
 2265 0418 6170695F 		.ascii	"api_msg_msg\000"
 2265      6D73675F 
 2265      6D736700 
 2266              	.LASF37:
 2267 0424 705F7469 		.ascii	"p_time\000"
 2267      6D6500
 2268              	.LASF129:
 2269 042b 474E5520 		.ascii	"GNU C 4.6.2 20111004 (prerelease)\000"
 2269      4320342E 
 2269      362E3220 
 2269      32303131 
 2269      31303034 
 2270              	.LASF2:
 2271 044d 696E7438 		.ascii	"int8_t\000"
 2271      5F7400
 2272              	.LASF39:
 2273 0454 705F6D73 		.ascii	"p_msgqueue\000"
 2273      67717565 
 2273      756500
 2274              	.LASF51:
 2275 045f 53656D61 		.ascii	"Semaphore\000"
 2275      70686F72 
 2275      6500
 2276              	.LASF62:
 2277 0469 6D625F66 		.ascii	"mb_fullsem\000"
 2277      756C6C73 
 2277      656D00
 2278              	.LASF35:
ARM GAS  /var/folders/5n/p_75w94d66l9ssrldxqdhh700000gn/T//cc5xVnwI.s 			page 45


 2279 0474 705F7265 		.ascii	"p_refs\000"
 2279      667300
 2280              	.LASF95:
 2281 047b 6E657463 		.ascii	"netconn_state\000"
 2281      6F6E6E5F 
 2281      73746174 
 2281      6500
 2282              	.LASF4:
 2283 0489 75696E74 		.ascii	"uint8_t\000"
 2283      385F7400 
 2284              	.LASF80:
 2285 0491 666C6167 		.ascii	"flags\000"
 2285      7300
 2286              	.LASF101:
 2287 0497 6E657463 		.ascii	"netconn_evt\000"
 2287      6F6E6E5F 
 2287      65767400 
 2288              	.LASF88:
 2289 04a3 4E455443 		.ascii	"NETCONN_INVALID\000"
 2289      4F4E4E5F 
 2289      494E5641 
 2289      4C494400 
 2290              	.LASF120:
 2291 04b3 7564705F 		.ascii	"udp_pcb\000"
 2291      70636200 
 2292              	.LASF67:
 2293 04bb 77746F62 		.ascii	"wtobjp\000"
 2293      6A7000
 2294              	.LASF102:
 2295 04c2 4E455443 		.ascii	"NETCONN_EVT_RCVPLUS\000"
 2295      4F4E4E5F 
 2295      4556545F 
 2295      52435650 
 2295      4C555300 
 2296              	.LASF32:
 2297 04d6 705F6E61 		.ascii	"p_name\000"
 2297      6D6500
 2298              	.LASF131:
 2299 04dd 2F557365 		.ascii	"/Users/sin/Documents/Eclipse/Workspace/mabl-ChibiOS"
 2299      72732F73 
 2299      696E2F44 
 2299      6F63756D 
 2299      656E7473 
 2300 0510 2D322E35 		.ascii	"-2.5.1/demos/ARMCM4-STM32F407-LWIP\000"
 2300      2E312F64 
 2300      656D6F73 
 2300      2F41524D 
 2300      434D342D 
 2301              	.LASF96:
 2302 0533 4E455443 		.ascii	"NETCONN_NONE\000"
 2302      4F4E4E5F 
 2302      4E4F4E45 
 2302      00
 2303              	.LASF127:
 2304 0540 68747470 		.ascii	"http_html_hdr\000"
 2304      5F68746D 
 2304      6C5F6864 
ARM GAS  /var/folders/5n/p_75w94d66l9ssrldxqdhh700000gn/T//cc5xVnwI.s 			page 46


 2304      7200
 2305              	.LASF113:
 2306 054e 61636365 		.ascii	"acceptmbox\000"
 2306      70746D62 
 2306      6F7800
 2307              	.LASF105:
 2308 0559 4E455443 		.ascii	"NETCONN_EVT_SENDMINUS\000"
 2308      4F4E4E5F 
 2308      4556545F 
 2308      53454E44 
 2308      4D494E55 
 2309              	.LASF56:
 2310 056f 6D5F6F77 		.ascii	"m_owner\000"
 2310      6E657200 
 2311              	.LASF91:
 2312 0577 4E455443 		.ascii	"NETCONN_UDPLITE\000"
 2312      4F4E4E5F 
 2312      5544504C 
 2312      49544500 
 2313              	.LASF119:
 2314 0587 7463705F 		.ascii	"tcp_pcb\000"
 2314      70636200 
 2315              	.LASF29:
 2316 058f 705F6374 		.ascii	"p_ctx\000"
 2316      7800
 2317              	.LASF38:
 2318 0595 705F7761 		.ascii	"p_waiting\000"
 2318      6974696E 
 2318      6700
 2319              	.LASF134:
 2320 059f 77615F68 		.ascii	"wa_http_server\000"
 2320      7474705F 
 2320      73657276 
 2320      657200
 2321              		.ident	"GCC: (Linaro GCC 4.6-2011.10) 4.6.2 20111004 (prerelease)"
ARM GAS  /var/folders/5n/p_75w94d66l9ssrldxqdhh700000gn/T//cc5xVnwI.s 			page 47


DEFINED SYMBOLS
                            *ABS*:0000000000000000 web.c
/var/folders/5n/p_75w94d66l9ssrldxqdhh700000gn/T//cc5xVnwI.s:18     .text.http_server:0000000000000000 $t
/var/folders/5n/p_75w94d66l9ssrldxqdhh700000gn/T//cc5xVnwI.s:24     .text.http_server:0000000000000000 http_server
/var/folders/5n/p_75w94d66l9ssrldxqdhh700000gn/T//cc5xVnwI.s:177    .text.http_server:00000000000000b4 $d
/var/folders/5n/p_75w94d66l9ssrldxqdhh700000gn/T//cc5xVnwI.s:196    .bss.wa_http_server:0000000000000000 wa_http_server
/var/folders/5n/p_75w94d66l9ssrldxqdhh700000gn/T//cc5xVnwI.s:184    .rodata.http_index_html:0000000000000000 $d
/var/folders/5n/p_75w94d66l9ssrldxqdhh700000gn/T//cc5xVnwI.s:188    .rodata.http_index_html:0000000000000000 http_index_html
/var/folders/5n/p_75w94d66l9ssrldxqdhh700000gn/T//cc5xVnwI.s:193    .bss.wa_http_server:0000000000000000 $d
/var/folders/5n/p_75w94d66l9ssrldxqdhh700000gn/T//cc5xVnwI.s:199    .rodata.http_html_hdr:0000000000000000 $d
/var/folders/5n/p_75w94d66l9ssrldxqdhh700000gn/T//cc5xVnwI.s:203    .rodata.http_html_hdr:0000000000000000 http_html_hdr
                     .debug_frame:0000000000000010 $d
/var/folders/5n/p_75w94d66l9ssrldxqdhh700000gn/T//cc5xVnwI.s:183    .text.http_server:00000000000000bc $t

UNDEFINED SYMBOLS
netconn_new_with_proto_and_callback
netconn_bind
netconn_listen_with_backlog
chThdSetPriority
netconn_accept
netconn_recv
netconn_close
netbuf_delete
netconn_delete
netbuf_data
netconn_write
port_halt
