ARM GAS  /var/folders/5n/p_75w94d66l9ssrldxqdhh700000gn/T//cc5xVnwI.s 			page 1


   1              		.syntax unified
   2              		.cpu cortex-m4
   3              		.fpu softvfp
   4              		.eabi_attribute 20, 1
   5              		.eabi_attribute 21, 1
   6              		.eabi_attribute 23, 3
   7              		.eabi_attribute 24, 1
   8              		.eabi_attribute 25, 1
   9              		.eabi_attribute 26, 1
  10              		.eabi_attribute 30, 2
  11              		.eabi_attribute 18, 4
  12              		.thumb
  13              		.file	"web.c"
  14              		.text
  15              	.Ltext0:
  16              		.cfi_sections	.debug_frame
  17              		.section	.text.http_server,"ax",%progbits
  18              		.align	2
  19              		.p2align 4,,15
  20              		.global	http_server
  21              		.thumb
  22              		.thumb_func
  23              		.type	http_server, %function
  24              	http_server:
  25              	.LFB8:
  26              		.file 1 "web/web.c"
  27              		.loc 1 94 0
  28              		.cfi_startproc
  29              		@ args = 0, pretend = 0, frame = 16
  30              		@ frame_needed = 0, uses_anonymous_args = 0
  31              	.LVL0:
  32 0000 70B5     		push	{r4, r5, r6, lr}
  33              	.LCFI0:
  34              		.cfi_def_cfa_offset 16
  35              		.cfi_offset 14, -4
  36              		.cfi_offset 6, -8
  37              		.cfi_offset 5, -12
  38              		.cfi_offset 4, -16
  39              		.loc 1 101 0
  40 0002 0021     		movs	r1, #0
  41              		.loc 1 94 0
  42 0004 84B0     		sub	sp, sp, #16
  43              	.LCFI1:
  44              		.cfi_def_cfa_offset 32
  45              		.loc 1 101 0
  46 0006 1020     		movs	r0, #16
  47              	.LVL1:
  48 0008 0A46     		mov	r2, r1
  49 000a FFF7FEFF 		bl	netconn_new_with_proto_and_callback
  50              	.LVL2:
  51              		.loc 1 102 0
  52 000e 0546     		mov	r5, r0
  53 0010 0028     		cmp	r0, #0
  54 0012 48D0     		beq	.L10
  55              		.loc 1 105 0
  56 0014 5022     		movs	r2, #80
  57 0016 0021     		movs	r1, #0
ARM GAS  /var/folders/5n/p_75w94d66l9ssrldxqdhh700000gn/T//cc5xVnwI.s 			page 2


  58 0018 FFF7FEFF 		bl	netconn_bind
  59              	.LVL3:
  60              		.loc 1 108 0
  61 001c 2846     		mov	r0, r5
  62 001e FF21     		movs	r1, #255
  63 0020 FFF7FEFF 		bl	netconn_listen_with_backlog
  64              		.loc 1 111 0
  65 0024 0420     		movs	r0, #4
  66 0026 FFF7FEFF 		bl	chThdSetPriority
  67              	.LVL4:
  68              	.L8:
  69              		.loc 1 114 0
  70 002a 6946     		mov	r1, sp
  71 002c 2846     		mov	r0, r5
  72 002e FFF7FEFF 		bl	netconn_accept
  73              	.LVL5:
  74              	.LBB4:
  75              	.LBB5:
  76              		.loc 1 54 0
  77 0032 01A9     		add	r1, sp, #4
  78              	.LBE5:
  79              	.LBE4:
  80              		.loc 1 115 0
  81 0034 0028     		cmp	r0, #0
  82 0036 F8D1     		bne	.L8
  83              		.loc 1 117 0
  84 0038 009C     		ldr	r4, [sp, #0]
  85              	.LVL6:
  86              	.LBB8:
  87              	.LBB6:
  88              		.loc 1 54 0
  89 003a 2046     		mov	r0, r4
  90              	.LVL7:
  91 003c FFF7FEFF 		bl	netconn_recv
  92              	.LVL8:
  93              		.loc 1 56 0
  94 0040 0646     		mov	r6, r0
  95 0042 48B1     		cbz	r0, .L11
  96              	.LVL9:
  97              	.L4:
  98              		.loc 1 79 0
  99 0044 2046     		mov	r0, r4
 100 0046 FFF7FEFF 		bl	netconn_close
 101              	.LVL10:
 102              		.loc 1 83 0
 103 004a 0198     		ldr	r0, [sp, #4]
 104 004c FFF7FEFF 		bl	netbuf_delete
 105              	.LBE6:
 106              	.LBE8:
 107              		.loc 1 118 0
 108 0050 0098     		ldr	r0, [sp, #0]
 109 0052 FFF7FEFF 		bl	netconn_delete
 110 0056 E8E7     		b	.L8
 111              	.LVL11:
 112              	.L11:
 113              	.LBB9:
 114              	.LBB7:
ARM GAS  /var/folders/5n/p_75w94d66l9ssrldxqdhh700000gn/T//cc5xVnwI.s 			page 3


 115              		.loc 1 57 0
 116 0058 02A9     		add	r1, sp, #8
 117 005a 0DF10E02 		add	r2, sp, #14
 118 005e 0198     		ldr	r0, [sp, #4]
 119              	.LVL12:
 120 0060 FFF7FEFF 		bl	netbuf_data
 121              	.LVL13:
 122              		.loc 1 61 0
 123 0064 BDF80E30 		ldrh	r3, [sp, #14]
 124              	.LVL14:
 125 0068 042B     		cmp	r3, #4
 126              	.LVL15:
 127 006a EBD9     		bls	.L4
 128              		.loc 1 62 0
 129 006c 029B     		ldr	r3, [sp, #8]
 130              	.LVL16:
 131              		.loc 1 61 0
 132 006e 1A78     		ldrb	r2, [r3, #0]	@ zero_extendqisi2
 133 0070 472A     		cmp	r2, #71
 134 0072 E7D1     		bne	.L4
 135              		.loc 1 62 0
 136 0074 5A78     		ldrb	r2, [r3, #1]	@ zero_extendqisi2
 137 0076 452A     		cmp	r2, #69
 138 0078 E4D1     		bne	.L4
 139              		.loc 1 63 0
 140 007a 9A78     		ldrb	r2, [r3, #2]	@ zero_extendqisi2
 141 007c 542A     		cmp	r2, #84
 142 007e E1D1     		bne	.L4
 143              		.loc 1 64 0
 144 0080 DA78     		ldrb	r2, [r3, #3]	@ zero_extendqisi2
 145 0082 202A     		cmp	r2, #32
 146 0084 DED1     		bne	.L4
 147              		.loc 1 65 0
 148 0086 1B79     		ldrb	r3, [r3, #4]	@ zero_extendqisi2
 149 0088 2F2B     		cmp	r3, #47
 150 008a DBD1     		bne	.L4
 151              		.loc 1 72 0
 152 008c 3346     		mov	r3, r6
 153 008e 2C22     		movs	r2, #44
 154 0090 2046     		mov	r0, r4
 155 0092 0849     		ldr	r1, .L12
 156 0094 FFF7FEFF 		bl	netconn_write
 157              		.loc 1 75 0
 158 0098 2046     		mov	r0, r4
 159 009a 0749     		ldr	r1, .L12+4
 160 009c 8522     		movs	r2, #133
 161 009e 3346     		mov	r3, r6
 162 00a0 FFF7FEFF 		bl	netconn_write
 163 00a4 CEE7     		b	.L4
 164              	.LVL17:
 165              	.L10:
 166              	.LBE7:
 167              	.LBE9:
 168              		.loc 1 102 0 discriminator 1
 169 00a6 FFF7FEFF 		bl	port_halt
 170              		.loc 1 121 0 discriminator 1
 171 00aa 6FF00100 		mvn	r0, #1
ARM GAS  /var/folders/5n/p_75w94d66l9ssrldxqdhh700000gn/T//cc5xVnwI.s 			page 4


 172 00ae 04B0     		add	sp, sp, #16
 173 00b0 70BD     		pop	{r4, r5, r6, pc}
 174              	.L13:
 175 00b2 00BF     		.align	2
 176              	.L12:
 177 00b4 00000000 		.word	.LANCHOR0
 178 00b8 00000000 		.word	.LANCHOR1
 179              		.cfi_endproc
 180              	.LFE8:
 181              		.size	http_server, .-http_server
 182              		.global	wa_http_server
 183 00bc AFF30080 		.section	.rodata.http_index_html,"a",%progbits
 184              		.align	2
 185              		.set	.LANCHOR1,. + 0
 186              		.type	http_index_html, %object
 187              		.size	http_index_html, 134
 188              	http_index_html:
 189 0000 3C68746D 		.ascii	"<html><head><title>Congrats!</title></head><body><h"
 189      6C3E3C68 
 189      6561643E 
 189      3C746974 
 189      6C653E43 
 190 0033 313E5765 		.ascii	"1>Welcome to our lwIP HTTP server!</h1><p>This is a"
 190      6C636F6D 
 190      6520746F 
 190      206F7572 
 190      206C7749 
 191 0066 20736D61 		.ascii	" small test page.</body></html>\000"
 191      6C6C2074 
 191      65737420 
 191      70616765 
 191      2E3C2F62 
 192 0086 0000     		.section	.bss.wa_http_server,"aw",%nobits
 193              		.align	3
 194              		.type	wa_http_server, %object
 195              		.size	wa_http_server, 1200
 196              	wa_http_server:
 197 0000 00000000 		.space	1200
 197      00000000 
 197      00000000 
 197      00000000 
 197      00000000 
 198              		.section	.rodata.http_html_hdr,"a",%progbits
 199              		.align	2
 200              		.set	.LANCHOR0,. + 0
 201              		.type	http_html_hdr, %object
 202              		.size	http_html_hdr, 45
 203              	http_html_hdr:
 204 0000 48545450 		.ascii	"HTTP/1.1 200 OK\015\012Content-type: text/html\015\012"
 204      2F312E31 
 204      20323030 
 204      204F4B0D 
 204      0A436F6E 
 205 002a 0D0A00   		.ascii	"\015\012\000"
 206 002d 000000   		.text
 207              	.Letext0:
 208              		.file 2 "/usr/local/summon/lib/gcc/arm-none-eabi/4.6.2/include/stddef.h"
ARM GAS  /var/folders/5n/p_75w94d66l9ssrldxqdhh700000gn/T//cc5xVnwI.s 			page 5


 209              		.file 3 "/usr/local/summon/lib/gcc/arm-none-eabi/4.6.2/../../../../arm-none-eabi/include/stdint.h"
 210              		.file 4 "../../os/ports/GCC/ARMCMx/chtypes.h"
 211              		.file 5 "../../os/kernel/include/chlists.h"
 212              		.file 6 "../../os/kernel/include/chthreads.h"
 213              		.file 7 "../../os/ports/GCC/ARMCMx/chcore_v7m.h"
 214              		.file 8 "../../os/kernel/include/chsem.h"
 215              		.file 9 "../../os/kernel/include/chmtx.h"
 216              		.file 10 "../../os/kernel/include/chmboxes.h"
 217              		.file 11 "../../os/various/lwip_bindings/arch/cc.h"
 218              		.file 12 "../../ext/lwip/src/include/lwip/err.h"
 219              		.file 13 "../../ext/lwip/src/include/lwip/pbuf.h"
 220              		.file 14 "../../ext/lwip/src/include/ipv4/lwip/ip_addr.h"
 221              		.file 15 "../../ext/lwip/src/include/lwip/netbuf.h"
 222              		.file 16 "../../os/various/lwip_bindings/arch/sys_arch.h"
 223              		.file 17 "../../ext/lwip/src/include/lwip/api.h"