Archive member included because of file (symbol)

../../lib/libfatfs.a(mmc_rspi.o)
                              fatfs-test.o (disk_timerproc)
../../lib/libfatfs.a(ff.o)    fatfs-test.o (f_mount)
../../lib/libtkdnhal.a(hwsetup.o)
                              ../../lib/start.o (tkdn_hwsetup)
../../lib/libtkdnhal.a(tkdn_sci.o)
                              fatfs-test.o (sci_convert_crlf)
../../lib/libtkdnhal.a(tkdn_ether.o)
                              ../../common/intvect.o (Excep_ETHER_EINT)
../../lib/libtkdnhal.a(tkdn_timer.o)
                              fatfs-test.o (timer_wait_ms)
../../lib/libtkdnhal.a(tkdn_pwm.o)
                              ../../common/intvect.o (Excep_MTU1_TGIA1)
../../lib/libtkdnhal.a(tkdn_tone.o)
                              ../../common/intvect.o (Excep_MTU2_TGIA2)
../../lib/libtkdnhal.a(phy.o)
                              ../../lib/libtkdnhal.a(tkdn_ether.o) (_phy_read)
../../lib/libtkdnhal.a(eidi.o)
                              ../../lib/libtkdnhal.a(tkdn_ether.o) (enable_interrupt)
../../lib/libtkdnhal.a(usb_cdc.o)
                              ../../lib/libtkdnhal.a(tkdn_sci.o) (TKUSB_Init)
../../lib/libtkdnhal.a(usb_core.o)
                              ../../lib/libtkdnhal.a(usb_cdc.o) (USBCORE_Init)
../../lib/libtkdnhal.a(usb_hal.o)
                              ../../lib/libtkdnhal.a(tkdn_sci.o) (TKUSB_RecvByte)
../../lib/libtkdnhal.a(usbdescriptors.o)
                              ../../lib/libtkdnhal.a(usb_cdc.o) (gStringDescriptorSerialNum)
../../lib/libtkdnhal.a(tkdn_interrupt.o)
                              ../../common/intvect.o (Excep_IRQ0)
../../lib/libtkdnhal.a(tkdn_gpio.o)
                              ../../lib/libtkdnhal.a(tkdn_pwm.o) (gpio_set_pinmode)
../../lib/gcc/libc.a(lib_a-sprintf.o)
                              fatfs-test.o (sprintf)
../../lib/gcc/libc.a(lib_a-strcasecmp.o)
                              fatfs-test.o (strcasecmp)
../../lib/gcc/libc.a(lib_a-strlen.o)
                              fatfs-test.o (strlen)
../../lib/gcc/libc.a(lib_a-strtok.o)
                              fatfs-test.o (strtok)
../../lib/gcc/libc.a(lib_a-strtok_r.o)
                              ../../lib/gcc/libc.a(lib_a-strtok.o) (__strtok_r)
../../lib/gcc/libc.a(lib_a-svfprintf.o)
                              ../../lib/gcc/libc.a(lib_a-sprintf.o) (_svfprintf_r)
../../lib/gcc/libc.a(lib_a-ctype_.o)
                              ../../lib/gcc/libc.a(lib_a-strcasecmp.o) (__ctype_ptr__)
../../lib/gcc/libc.a(lib_a-dtoa.o)
                              ../../lib/gcc/libc.a(lib_a-svfprintf.o) (_dtoa_r)
../../lib/gcc/libc.a(lib_a-impure.o)
                              ../../lib/gcc/libc.a(lib_a-sprintf.o) (_impure_ptr)
../../lib/gcc/libc.a(lib_a-locale.o)
                              ../../lib/gcc/libc.a(lib_a-svfprintf.o) (_localeconv_r)
../../lib/gcc/libc.a(lib_a-mallocr.o)
                              ../../lib/gcc/libc.a(lib_a-svfprintf.o) (_malloc_r)
../../lib/gcc/libc.a(lib_a-memchr.o)
                              ../../lib/gcc/libc.a(lib_a-svfprintf.o) (memchr)
../../lib/gcc/libc.a(lib_a-memcpy.o)
                              ../../lib/gcc/libc.a(lib_a-dtoa.o) (memcpy)
../../lib/gcc/libc.a(lib_a-mlock.o)
                              ../../lib/gcc/libc.a(lib_a-mallocr.o) (__malloc_lock)
../../lib/gcc/libc.a(lib_a-mprec.o)
                              ../../lib/gcc/libc.a(lib_a-dtoa.o) (_Balloc)
../../lib/gcc/libc.a(lib_a-sbrkr.o)
                              ../../lib/gcc/libc.a(lib_a-mallocr.o) (_sbrk_r)
../../lib/gcc/libc.a(lib_a-sf_fpclassify.o)
                              ../../lib/gcc/libc.a(lib_a-svfprintf.o) (__fpclassifyf)
../../lib/gcc/libc.a(lib_a-strcmp.o)
                              ../../lib/gcc/libc.a(lib_a-locale.o) (strcmp)
../../lib/gcc/libc.a(lib_a-svfiprintf.o)
                              ../../lib/gcc/libc.a(lib_a-svfprintf.o) (__ssprint_r)
../../lib/gcc/libc.a(lib_a-callocr.o)
                              ../../lib/gcc/libc.a(lib_a-mprec.o) (_calloc_r)
../../lib/gcc/libc.a(lib_a-freer.o)
                              ../../lib/gcc/libc.a(lib_a-mallocr.o) (_free_r)
../../lib/gcc/libc.a(lib_a-memmove.o)
                              ../../lib/gcc/libc.a(lib_a-svfiprintf.o) (memmove)
../../lib/gcc/libc.a(lib_a-memset.o)
                              ../../lib/gcc/libc.a(lib_a-callocr.o) (memset)
../../lib/gcc/libc.a(lib_a-reallocr.o)
                              ../../lib/gcc/libc.a(lib_a-svfiprintf.o) (_realloc_r)
../../lib/gcc/libc.a(lib_a-reent.o)
                              ../../lib/gcc/libc.a(lib_a-sbrkr.o) (errno)
../../lib/gcc/libsim.a(sbrk.o)
                              ../../lib/gcc/libc.a(lib_a-sbrkr.o) (sbrk)
../../lib/gcc/libsim.a(heaptop.o)
                              ../../lib/gcc/libsim.a(sbrk.o) (__set_heaptop)
../../lib/gcc/libgcc.a(_udivdi3.o)
                              ../../lib/gcc/libc.a(lib_a-svfprintf.o) (__udivdi3)
../../lib/gcc/libgcc.a(_umoddi3.o)
                              ../../lib/gcc/libc.a(lib_a-svfprintf.o) (__umoddi3)
../../lib/gcc/libgcc.a(_clz.o)
                              ../../lib/gcc/libgcc.a(_udivdi3.o) (__clz_tab)

Allocating common symbols
Common symbol       size              file

sci_default         0x21c             ../../lib/libtkdnhal.a(tkdn_sci.o)
user_rx_func        0x4               ../../lib/libtkdnhal.a(tkdn_ether.o)
sci_handles         0x18              ../../lib/libtkdnhal.a(tkdn_sci.o)
ifunc               0x20              ../../lib/libtkdnhal.a(tkdn_interrupt.o)
errno               0x4               ../../lib/gcc/libc.a(lib_a-reent.o)
found_files         0x4               fatfs-test.o
psci_default        0x4               ../../lib/libtkdnhal.a(tkdn_sci.o)

Memory Configuration

Name             Origin             Length             Attributes
*default*        0x00000000         0xffffffff

Linker script and memory map

LOAD ../../lib/start.o
LOAD fatfs-test.o
LOAD ../../common/intvect.o
                0x00017f00                _usp_init = 0x17f00
                0x00018000                _isp_init = 0x18000

.fvectors       0xffffffd0       0x30
 *.o(.fvectors)
 .fvectors      0xffffffd0       0x30 ../../common/intvect.o
                0xffffffd0                Fixed_Vectors

.rvectors       0xfff80000      0x400
 *.o(.rvectors)
 .rvectors      0xfff80000      0x400 ../../common/intvect.o
                0xfff80000                Relocatable_Vectors

.text           0xfff80400     0xbd70
                0xfff80400                PROVIDE (_start, .)
 *(.text P .stub .text.* .gnu.linkonce.t.*)
 P              0xfff80400       0x8c ../../lib/start.o
                0xfff80400                start
                0xfff80400                PowerON_Reset_PC
                0xfff8048a                _rx_fini
                0xfff8048b                __cxa_atexit
 P              0xfff8048c      0x7d2 fatfs-test.o
                0xfff8048c                scan_files
                0xfff806a6                timer_interrupt_function
                0xfff806b1                main
                0xfff80c4b                get_fattime
 P              0xfff80c5e      0x444 ../../common/intvect.o
                0xfff80c5e                Excep_SuperVisorInst
                0xfff80c66                Excep_UndefinedInst
                0xfff80c6e                Excep_FloatingPoint
                0xfff80c76                NonMaskableInterrupt
                0xfff80c7e                Excep_BRK
                0xfff80c86                Excep_BUSERR
                0xfff80c8e                Excep_FCU_FCUERR
                0xfff80c96                Excep_FCU_FRDYI
                0xfff80c9e                Excep_ICU_SWINT
                0xfff80ca6                Excep_CMTU0_CMT1
                0xfff80cae                Excep_CMTU1_CMT3
                0xfff80cb6                Excep_USB0_D0FIFO0
                0xfff80cbe                Excep_USB0_D1FIFO0
                0xfff80cc6                Excep_USB0_USBI0
                0xfff80cd8                Excep_USB1_D0FIFO1
                0xfff80ce0                Excep_USB1_D1FIFO1
                0xfff80ce8                Excep_USB1_USBI1
                0xfff80cfa                Excep_RSPI0_SPEI0
                0xfff80d02                Excep_RSPI0_SPRI0
                0xfff80d0a                Excep_RSPI0_SPTI0
                0xfff80d12                Excep_RSPI0_SPII0
                0xfff80d1a                Excep_RSPI1_SPEI1
                0xfff80d22                Excep_RSPI1_SPRI1
                0xfff80d2a                Excep_RSPI1_SPTI1
                0xfff80d32                Excep_RSPI1_SPII1
                0xfff80d3a                Excep_CAN0_ERS0
                0xfff80d42                Excep_CAN0_RXF0
                0xfff80d4a                Excep_CAN0_TXF0
                0xfff80d52                Excep_CAN0_RXM0
                0xfff80d5a                Excep_CAN0_TXM0
                0xfff80d62                Excep_RTC_PRD
                0xfff80d6a                Excep_RTC_CUP
                0xfff80d72                Excep_IRQ8
                0xfff80d7a                Excep_IRQ9
                0xfff80d82                Excep_IRQ10
                0xfff80d8a                Excep_IRQ11
                0xfff80d92                Excep_IRQ12
                0xfff80d9a                Excep_IRQ13
                0xfff80da2                Excep_IRQ14
                0xfff80daa                Excep_IRQ15
                0xfff80db2                Excep_USB_USBR0
                0xfff80dba                Excep_USB_USBR1
                0xfff80dc2                Excep_RTC_ALM
                0xfff80dca                Excep_WDT_WOVI
                0xfff80dd2                Excep_AD0_ADI0
                0xfff80dda                Excep_AD1_ADI1
                0xfff80de2                Excep_S12AD_ADI12
                0xfff80dea                Excep_MTU0_TCIV0
                0xfff80df2                Excep_MTU1_TGIB1
                0xfff80dfa                Excep_MTU1_TCIV1
                0xfff80e02                Excep_MTU1_TCIU1
                0xfff80e0a                Excep_MTU2_TGIB2
                0xfff80e12                Excep_MTU2_TCIV2
                0xfff80e1a                Excep_MTU2_TCIU2
                0xfff80e22                Excep_MTU3_TGIA3
                0xfff80e2a                Excep_MTU3_TGIB3
                0xfff80e32                Excep_MTU3_TGIC3
                0xfff80e3a                Excep_MTU3_TGID3
                0xfff80e42                Excep_MTU3_TCIV3
                0xfff80e4a                Excep_MTU4_TGIA4
                0xfff80e52                Excep_MTU4_TGIB4
                0xfff80e5a                Excep_MTU4_TGIC4
                0xfff80e62                Excep_MTU4_TGID4
                0xfff80e6a                Excep_MTU4_TCIV4
                0xfff80e72                Excep_MTU5_TCIU5
                0xfff80e7a                Excep_MTU5_TCIV5
                0xfff80e82                Excep_MTU5_TCIW5
                0xfff80e8a                Excep_MTU6_TGIA6
                0xfff80e92                Excep_MTU6_TGIB6
                0xfff80e9a                Excep_MTU6_TGIC6
                0xfff80ea2                Excep_MTU6_TGID6
                0xfff80eaa                Excep_MTU6_TCIV6
                0xfff80eb2                Excep_MTU6_TGIE6
                0xfff80eba                Excep_MTU6_TGIF6
                0xfff80ec2                Excep_MTU7_TGIA7
                0xfff80eca                Excep_MTU7_TGIB7
                0xfff80ed2                Excep_MTU7_TCIV7
                0xfff80eda                Excep_MTU7_TCIU7
                0xfff80ee2                Excep_MTU8_TGIA8
                0xfff80eea                Excep_MTU8_TGIB8
                0xfff80ef2                Excep_MTU8_TCIV8
                0xfff80efa                Excep_MTU8_TCIU8
                0xfff80f02                Excep_MTU9_TGIA9
                0xfff80f0a                Excep_MTU9_TGIB9
                0xfff80f12                Excep_MTU9_TGIC9
                0xfff80f1a                Excep_MTU9_TGID9
                0xfff80f22                Excep_MTU9_TCIV9
                0xfff80f2a                Excep_MTU10_TGIA10
                0xfff80f32                Excep_MTU10_TGIB10
                0xfff80f3a                Excep_MTU10_TGIC10
                0xfff80f42                Excep_MTU10_TGID10
                0xfff80f4a                Excep_MTU10_TCIV10
                0xfff80f52                Excep_MTU11_TCIU11
                0xfff80f5a                Excep_MTU11_TCIV11
                0xfff80f62                Excep_MTU11_TCIW11
                0xfff80f6a                Excep_POE_OEI1
                0xfff80f72                Excep_POE_OEI2
                0xfff80f7a                Excep_POE_OEI3
                0xfff80f82                Excep_POE_OEI4
                0xfff80f8a                Excep_TMR0_CMI0A
                0xfff80f92                Excep_TMR0_CMI0B
                0xfff80f9a                Excep_TMR0_OV0I
                0xfff80fa2                Excep_TMR1_CMI1A
                0xfff80faa                Excep_TMR1_CMI1B
                0xfff80fb2                Excep_TMR1_OV1I
                0xfff80fba                Excep_TMR2_CMI2A
                0xfff80fc2                Excep_TMR2_CMI2B
                0xfff80fca                Excep_TMR2_OV2I
                0xfff80fd2                Excep_TMR3_CMI3A
                0xfff80fda                Excep_TMR3_CMI3B
                0xfff80fe2                Excep_TMR3_OV3I
                0xfff80fea                Excep_DMACA_DMAC0
                0xfff80ff2                Excep_DMACA_DMAC1
                0xfff80ffa                Excep_DMACA_DMAC2
                0xfff81002                Excep_DMACA_DMAC3
                0xfff8100a                Excep_EXDMAC_DMAC0
                0xfff81012                Excep_EXDMAC_DMAC1
                0xfff8101a                Excep_SCI3_ERI3
                0xfff81022                Excep_SCI3_RXI3
                0xfff8102a                Excep_SCI3_TXI3
                0xfff81032                Excep_SCI3_TEI3
                0xfff8103a                Excep_SCI5_ERI5
                0xfff81042                Excep_SCI5_RXI5
                0xfff8104a                Excep_SCI5_TXI5
                0xfff81052                Excep_SCI5_TEI5
                0xfff8105a                Excep_RIIC0_EEI0
                0xfff81062                Excep_RIIC0_RXI0
                0xfff8106a                Excep_RIIC0_TXI0
                0xfff81072                Excep_RIIC0_TEI0
                0xfff8107a                Excep_RIIC1_EEI1
                0xfff81082                Excep_RIIC1_RXI1
                0xfff8108a                Excep_RIIC1_TXI1
                0xfff81092                Excep_RIIC1_TEI1
                0xfff8109a                Dummy
 *fill*         0xfff810a2        0x6 00
 P              0xfff810a8      0xb00 ../../lib/libfatfs.a(mmc_rspi.o)
                0xfff81415                LDDW
                0xfff81419                disk_initialize
                0xfff81668                disk_status
                0xfff8167e                disk_read
                0xfff81757                disk_write
                0xfff81850                disk_ioctl
                0xfff81b55                disk_timerproc
                0xfff81b9f                disk_ins
 P              0xfff81ba8     0x21e8 ../../lib/libfatfs.a(ff.o)
                0xfff81fd9                clust2sect
                0xfff81ff1                get_fat
                0xfff8215a                put_fat
                0xfff82846                f_mount
                0xfff82866                f_open
                0xfff829a6                f_read
                0xfff82b81                f_write
                0xfff82da9                f_sync
                0xfff82e35                f_close
                0xfff82e45                f_chdrive
                0xfff82e58                f_chdir
                0xfff82ebc                f_getcwd
                0xfff83019                f_lseek
                0xfff831c7                f_opendir
                0xfff83228                f_readdir
                0xfff83283                f_stat
                0xfff832ce                f_getfree
                0xfff8339e                f_truncate
                0xfff83441                f_unlink
                0xfff8352a                f_mkdir
                0xfff836ac                f_chmod
                0xfff8370f                f_utime
                0xfff83768                f_rename
                0xfff838dd                f_mkfs
 P              0xfff83d90       0x45 ../../lib/libtkdnhal.a(hwsetup.o)
                0xfff83d90                tkdn_hwsetup
                0xfff83dd4                sdram_init
 *fill*         0xfff83dd5        0x3 00
 P              0xfff83dd8      0xe70 ../../lib/libtkdnhal.a(tkdn_sci.o)
                0xfff84149                sci_getport
                0xfff84155                sci_readdata
                0xfff84156                sci_convert_crlf
                0xfff84165                Excep_SCI0_ERI0
                0xfff8418e                Excep_SCI0_RXI0
                0xfff841b7                Excep_SCI0_TXI0
                0xfff84203                Excep_SCI0_TEI0
                0xfff8421b                Excep_SCI1_ERI1
                0xfff84245                Excep_SCI1_RXI1
                0xfff8426f                Excep_SCI1_TXI1
                0xfff842bc                Excep_SCI1_TEI1
                0xfff842d4                Excep_SCI2_ERI2
                0xfff842fe                Excep_SCI2_RXI2
                0xfff84328                Excep_SCI2_TXI2
                0xfff84375                Excep_SCI2_TEI2
                0xfff8438d                Excep_SCI6_ERI6
                0xfff843b7                Excep_SCI6_RXI6
                0xfff843e1                Excep_SCI6_TXI6
                0xfff8442e                Excep_SCI6_TEI6
                0xfff84446                sci_putc_ex
                0xfff844fc                sci_putc
                0xfff8450a                sci_puts_ex
                0xfff8453b                sci_puts
                0xfff84549                sci_getc_ex
                0xfff8459d                sci_getc
                0xfff845a9                sci_writedata_ex
                0xfff846a1                sci_writedata
                0xfff846b3                sci_readdata_ex
                0xfff846b4                sci_rxcount_ex
                0xfff846cf                sci_gets_ex
                0xfff84742                sci_gets
                0xfff84754                sci_rxcount
                0xfff84760                sci_init_ex
                0xfff84be6                sci_init
                0xfff84c08                sci_getport_ex
                0xfff84c0c                sci_convert_crlf_ex
                0xfff84c13                sci_peek_ex
                0xfff84c33                sci_flush_ex
                0xfff84c3f                sci_regist_default
 P              0xfff84c48      0x5b0 ../../lib/libtkdnhal.a(tkdn_ether.o)
                0xfff84c48                ether_close
                0xfff84c5f                ether_write
                0xfff84d1d                _eth_fifoInit
                0xfff84d8e                _eth_fifoWrite
                0xfff84dcc                _eth_fifoRead
                0xfff84e20                ether_read
                0xfff84edf                ether_regist_user_rx_procedure
                0xfff84ee8                ether_is_linkup
                0xfff84ef4                ether_autonegotiate
                0xfff84f69                ether_open
                0xfff85159                Excep_ETHER_EINT
                0xfff851d8                ether_is_100M
                0xfff851e1                ether_is_fullduplex
                0xfff851ea                ether_link_changed
 P              0xfff851f8      0x140 ../../lib/libtkdnhal.a(tkdn_timer.o)
                0xfff851f8                timer_init
                0xfff8520b                timer_wait_ms
                0xfff8521c                timer_wait_us
                0xfff85296                timer_get_ms
                0xfff8529f                timer_get_us
                0xfff852d6                timer_regist_userfunc
                0xfff852e1                timer_regist_disktimer
                0xfff852ec                Excep_CMTU0_CMT0
                0xfff85335                Excep_CMTU1_CMT2
 P              0xfff85338      0x490 ../../lib/libtkdnhal.a(tkdn_pwm.o)
                0xfff85338                pwm_init
                0xfff854ca                pwm_output
                0xfff855f9                pwm_stop
                0xfff85686                Excep_MTU1_TGIA1
                0xfff856ba                Excep_MTU0_TGIA0
                0xfff856e6                Excep_MTU0_TGIB0
                0xfff85713                Excep_MTU0_TGIC0
                0xfff85740                Excep_MTU0_TGID0
                0xfff8576d                Excep_MTU0_TGIE0
                0xfff8579a                Excep_MTU0_TGIF0
 P              0xfff857c8      0x180 ../../lib/libtkdnhal.a(tkdn_tone.o)
                0xfff857c8                tone_start
                0xfff85909                tone_stop
                0xfff85923                Excep_MTU2_TGIA2
 P              0xfff85948      0x240 ../../lib/libtkdnhal.a(phy.o)
                0xfff85948                _phy_reg_read
                0xfff85986                _phy_ta_z0
                0xfff859ac                _phy_mii_write_1
                0xfff859d2                _phy_preamble
                0xfff859ea                _phy_mii_write_0
                0xfff85a10                _phy_ta_10
                0xfff85a18                _phy_reg_write
                0xfff85a53                _phy_reg_set
                0xfff85aa1                _phy_write
                0xfff85ac7                phy_set_10half
                0xfff85acf                phy_set_100full
                0xfff85ad9                _phy_read
                0xfff85b00                phy_set_autonegotiate
                0xfff85b50                phy_init
 P              0xfff85b88       0x18 ../../lib/libtkdnhal.a(eidi.o)
                0xfff85b88                enable_interrupt
                0xfff85b94                disable_interrupt
 P              0xfff85ba0      0x118 ../../lib/libtkdnhal.a(usb_cdc.o)
                0xfff85c3c                TKUSB_Init
                0xfff85ca9                TKUSB_IsConnected
 P              0xfff85cb8      0x338 ../../lib/libtkdnhal.a(usb_core.o)
                0xfff85f76                USBCORE_Init
 P              0xfff85ff0      0xfe0 ../../lib/libtkdnhal.a(usb_hal.o)
                0xfff860c1                TKUSB_RecvByte
                0xfff86120                TKUSB_PeekByte
                0xfff86146                TKUSB_RecvDataCount
                0xfff86160                TKUSB_SendByte
                0xfff861c2                TKUSB_SendDataCount
                0xfff861dc                USBHAL_Init
                0xfff86436                USBHAL_Disable
                0xfff86446                USBHAL_Control_Status
                0xfff86472                USBHAL_Control_IN
                0xfff86497                USBHAL_Control_OUT
                0xfff864e1                USBHAL_Bulk_OUT
                0xfff86519                ClearOUTBusy
                0xfff86524                USBHAL_Bulk_IN
                0xfff86564                USBHAL_Interrupt_IN
                0xfff865a4                USBHAL_Control_Stall
                0xfff865ce                USBHAL_Bulk_IN_Stall
                0xfff865ed                USBHAL_Bulk_OUT_Stall
                0xfff8660c                USBHAL_Interrupt_IN_Stall
                0xfff8662b                USBHAL_Bulk_IN_Stall_Clear
                0xfff8666a                USBHAL_Bulk_OUT_Stall_Clear
                0xfff866c8                USBHAL_Interrupt_IN_Stall_Clear
                0xfff86702                USBHAL_Bulk_IN_Is_Stalled
                0xfff86722                USBHAL_Bulk_OUT_Is_Stalled
                0xfff86742                USBHAL_Interrupt_IN_Is_Stalled
                0xfff86762                USBHAL_Config_Get
                0xfff86769                USBHAL_Config_Set
                0xfff8677f                USBHAL_Reset
                0xfff868fa                USBHAL_Cancel
                0xfff86948                USBHAL_ResetEndpoints
                0xfff86a1a                USBHALInterruptHandler
 P              0xfff86fd0        0x0 ../../lib/libtkdnhal.a(usbdescriptors.o)
 P              0xfff86fd0      0x2c8 ../../lib/libtkdnhal.a(tkdn_interrupt.o)
                0xfff86fd2                attach_interrupt
                0xfff87139                detach_interrupt
                0xfff87151                Excep_IRQ0
                0xfff87179                Excep_IRQ1
                0xfff871a2                Excep_IRQ2
                0xfff871cb                Excep_IRQ3
                0xfff871f4                Excep_IRQ4
                0xfff8721d                Excep_IRQ5
                0xfff87246                Excep_IRQ6
                0xfff8726f                Excep_IRQ7
 P              0xfff87298      0x118 ../../lib/libtkdnhal.a(tkdn_gpio.o)
                0xfff872e1                gpio_set_pinmode
                0xfff8733f                gpio_write_port
                0xfff8737d                gpio_read_port
 P              0xfff873b0        0x0 ../../lib/gcc/libc.a(lib_a-sprintf.o)
 .text._sprintf_r
                0xfff873b0       0x36 ../../lib/gcc/libc.a(lib_a-sprintf.o)
                0xfff873b0                _sprintf_r
 .text.sprintf  0xfff873e6       0x3e ../../lib/gcc/libc.a(lib_a-sprintf.o)
                0xfff873e6                sprintf
 P              0xfff87424        0x0 ../../lib/gcc/libc.a(lib_a-strcasecmp.o)
 *fill*         0xfff87424        0x4 00
 .text.strcasecmp
                0xfff87428       0x50 ../../lib/gcc/libc.a(lib_a-strcasecmp.o)
                0xfff87428                strcasecmp
 P              0xfff87478        0x0 ../../lib/gcc/libc.a(lib_a-strlen.o)
 .text          0xfff87478       0x10 ../../lib/gcc/libc.a(lib_a-strlen.o)
                0xfff87478                strlen
 P              0xfff87488        0x0 ../../lib/gcc/libc.a(lib_a-strtok.o)
 .text.strtok   0xfff87488       0x11 ../../lib/gcc/libc.a(lib_a-strtok.o)
                0xfff87488                strtok
 P              0xfff87499        0x0 ../../lib/gcc/libc.a(lib_a-strtok_r.o)
 *fill*         0xfff87499        0x7 00
 .text.__strtok_r
                0xfff874a0       0x70 ../../lib/gcc/libc.a(lib_a-strtok_r.o)
                0xfff874a0                __strtok_r
 .text.strtok_r
                0xfff87510        0x6 ../../lib/gcc/libc.a(lib_a-strtok_r.o)
                0xfff87510                strtok_r
 P              0xfff87516        0x0 ../../lib/gcc/libc.a(lib_a-svfprintf.o)
 *fill*         0xfff87516        0x2 00
 .text._svfprintf_r
                0xfff87518     0x1440 ../../lib/gcc/libc.a(lib_a-svfprintf.o)
                0xfff87518                _svfprintf_r
 P              0xfff88958        0x0 ../../lib/gcc/libc.a(lib_a-ctype_.o)
 P              0xfff88958        0x0 ../../lib/gcc/libc.a(lib_a-dtoa.o)
 .text.quorem   0xfff88958      0x160 ../../lib/gcc/libc.a(lib_a-dtoa.o)
 .text._dtoa_r  0xfff88ab8      0xcd8 ../../lib/gcc/libc.a(lib_a-dtoa.o)
                0xfff88ab8                _dtoa_r
 P              0xfff89790        0x0 ../../lib/gcc/libc.a(lib_a-impure.o)
 P              0xfff89790        0x0 ../../lib/gcc/libc.a(lib_a-locale.o)
 .text._setlocale_r
                0xfff89790       0x50 ../../lib/gcc/libc.a(lib_a-locale.o)
                0xfff89790                _setlocale_r
 .text.__locale_charset
                0xfff897e0        0x7 ../../lib/gcc/libc.a(lib_a-locale.o)
                0xfff897e0                __locale_charset
 .text.__locale_msgcharset
                0xfff897e7        0x7 ../../lib/gcc/libc.a(lib_a-locale.o)
                0xfff897e7                __locale_msgcharset
 .text.__locale_cjk_lang
                0xfff897ee        0x3 ../../lib/gcc/libc.a(lib_a-locale.o)
                0xfff897ee                __locale_cjk_lang
 .text._localeconv_r
                0xfff897f1        0x7 ../../lib/gcc/libc.a(lib_a-locale.o)
                0xfff897f1                _localeconv_r
 .text.setlocale
                0xfff897f8       0x12 ../../lib/gcc/libc.a(lib_a-locale.o)
                0xfff897f8                setlocale
 .text.localeconv
                0xfff8980a        0x7 ../../lib/gcc/libc.a(lib_a-locale.o)
                0xfff8980a                localeconv
 P              0xfff89811        0x0 ../../lib/gcc/libc.a(lib_a-mallocr.o)
 *fill*         0xfff89811        0x7 00
 .text._malloc_r
                0xfff89818      0x550 ../../lib/gcc/libc.a(lib_a-mallocr.o)
                0xfff89818                _malloc_r
 P              0xfff89d68        0x0 ../../lib/gcc/libc.a(lib_a-memchr.o)
 .text          0xfff89d68        0xf ../../lib/gcc/libc.a(lib_a-memchr.o)
                0xfff89d68                memchr
 P              0xfff89d77        0x0 ../../lib/gcc/libc.a(lib_a-memcpy.o)
 .text          0xfff89d77        0x7 ../../lib/gcc/libc.a(lib_a-memcpy.o)
                0xfff89d77                memcpy
 P              0xfff89d7e        0x0 ../../lib/gcc/libc.a(lib_a-mlock.o)
 .text.__malloc_lock
                0xfff89d7e        0x1 ../../lib/gcc/libc.a(lib_a-mlock.o)
                0xfff89d7e                __malloc_lock
 .text.__malloc_unlock
                0xfff89d7f        0x1 ../../lib/gcc/libc.a(lib_a-mlock.o)
                0xfff89d7f                __malloc_unlock
 P              0xfff89d80        0x0 ../../lib/gcc/libc.a(lib_a-mprec.o)
 .text._Balloc  0xfff89d80       0x60 ../../lib/gcc/libc.a(lib_a-mprec.o)
                0xfff89d80                _Balloc
 .text._Bfree   0xfff89de0       0x18 ../../lib/gcc/libc.a(lib_a-mprec.o)
                0xfff89de0                _Bfree
 .text.__multadd
                0xfff89df8       0x88 ../../lib/gcc/libc.a(lib_a-mprec.o)
                0xfff89df8                __multadd
 .text.__s2b    0xfff89e80       0x90 ../../lib/gcc/libc.a(lib_a-mprec.o)
                0xfff89e80                __s2b
 .text.__hi0bits
                0xfff89f10       0x58 ../../lib/gcc/libc.a(lib_a-mprec.o)
                0xfff89f10                __hi0bits
 .text.__lo0bits
                0xfff89f68       0x70 ../../lib/gcc/libc.a(lib_a-mprec.o)
                0xfff89f68                __lo0bits
 .text.__i2b    0xfff89fd8       0x12 ../../lib/gcc/libc.a(lib_a-mprec.o)
                0xfff89fd8                __i2b
 *fill*         0xfff89fea        0x6 00
 .text.__multiply
                0xfff89ff0      0x150 ../../lib/gcc/libc.a(lib_a-mprec.o)
                0xfff89ff0                __multiply
 .text.__pow5mult
                0xfff8a140       0xa0 ../../lib/gcc/libc.a(lib_a-mprec.o)
                0xfff8a140                __pow5mult
 .text.__lshift
                0xfff8a1e0       0xb8 ../../lib/gcc/libc.a(lib_a-mprec.o)
                0xfff8a1e0                __lshift
 .text.__mcmp   0xfff8a298       0x38 ../../lib/gcc/libc.a(lib_a-mprec.o)
                0xfff8a298                __mcmp
 .text.__mdiff  0xfff8a2d0       0xf0 ../../lib/gcc/libc.a(lib_a-mprec.o)
                0xfff8a2d0                __mdiff
 .text.__ulp    0xfff8a3c0       0x28 ../../lib/gcc/libc.a(lib_a-mprec.o)
                0xfff8a3c0                __ulp
 .text.__b2d    0xfff8a3e8       0x80 ../../lib/gcc/libc.a(lib_a-mprec.o)
                0xfff8a3e8                __b2d
 .text.__d2b    0xfff8a468       0x78 ../../lib/gcc/libc.a(lib_a-mprec.o)
                0xfff8a468                __d2b
 .text.__ratio  0xfff8a4e0       0x48 ../../lib/gcc/libc.a(lib_a-mprec.o)
                0xfff8a4e0                __ratio
 .text._mprec_log10
                0xfff8a528       0x28 ../../lib/gcc/libc.a(lib_a-mprec.o)
                0xfff8a528                _mprec_log10
 .text.__copybits
                0xfff8a550       0x48 ../../lib/gcc/libc.a(lib_a-mprec.o)
                0xfff8a550                __copybits
 .text.__any_on
                0xfff8a598       0x60 ../../lib/gcc/libc.a(lib_a-mprec.o)
                0xfff8a598                __any_on
 P              0xfff8a5f8        0x0 ../../lib/gcc/libc.a(lib_a-sbrkr.o)
 .text._sbrk_r  0xfff8a5f8       0x28 ../../lib/gcc/libc.a(lib_a-sbrkr.o)
                0xfff8a5f8                _sbrk_r
 P              0xfff8a620        0x0 ../../lib/gcc/libc.a(lib_a-sf_fpclassify.o)
 .text.__fpclassifyf
                0xfff8a620       0x60 ../../lib/gcc/libc.a(lib_a-sf_fpclassify.o)
                0xfff8a620                __fpclassifyf
 P              0xfff8a680        0x0 ../../lib/gcc/libc.a(lib_a-strcmp.o)
 .text          0xfff8a680        0xf ../../lib/gcc/libc.a(lib_a-strcmp.o)
                0xfff8a680                strcmp
 P              0xfff8a68f        0x0 ../../lib/gcc/libc.a(lib_a-svfiprintf.o)
 *fill*         0xfff8a68f        0x1 00
 .text.__ssprint_r
                0xfff8a690      0x118 ../../lib/gcc/libc.a(lib_a-svfiprintf.o)
                0xfff8a690                __ssprint_r
 .text._svfiprintf_r
                0xfff8a7a8      0xa00 ../../lib/gcc/libc.a(lib_a-svfiprintf.o)
                0xfff8a7a8                _svfiprintf_r
 P              0xfff8b1a8        0x0 ../../lib/gcc/libc.a(lib_a-callocr.o)
 .text._calloc_r
                0xfff8b1a8       0x78 ../../lib/gcc/libc.a(lib_a-callocr.o)
                0xfff8b1a8                _calloc_r
 P              0xfff8b220        0x0 ../../lib/gcc/libc.a(lib_a-freer.o)
 .text._malloc_trim_r
                0xfff8b220       0xb0 ../../lib/gcc/libc.a(lib_a-freer.o)
                0xfff8b220                _malloc_trim_r
 .text._free_r  0xfff8b2d0      0x1d8 ../../lib/gcc/libc.a(lib_a-freer.o)
                0xfff8b2d0                _free_r
 P              0xfff8b4a8        0x0 ../../lib/gcc/libc.a(lib_a-memmove.o)
 .text          0xfff8b4a8       0x17 ../../lib/gcc/libc.a(lib_a-memmove.o)
                0xfff8b4a8                memmove
 P              0xfff8b4bf        0x0 ../../lib/gcc/libc.a(lib_a-memset.o)
 .text          0xfff8b4bf        0x7 ../../lib/gcc/libc.a(lib_a-memset.o)
                0xfff8b4bf                memset
 P              0xfff8b4c6        0x0 ../../lib/gcc/libc.a(lib_a-reallocr.o)
 *fill*         0xfff8b4c6        0x2 00
 .text._realloc_r
                0xfff8b4c8      0x410 ../../lib/gcc/libc.a(lib_a-reallocr.o)
                0xfff8b4c8                _realloc_r
 P              0xfff8b8d8        0x0 ../../lib/gcc/libc.a(lib_a-reent.o)
 .text.cleanup_glue
                0xfff8b8d8       0x20 ../../lib/gcc/libc.a(lib_a-reent.o)
                0xfff8b8d8                cleanup_glue
 .text._reclaim_reent
                0xfff8b8f8       0xa8 ../../lib/gcc/libc.a(lib_a-reent.o)
                0xfff8b8f8                _reclaim_reent
 .text._wrapup_reent
                0xfff8b9a0       0x50 ../../lib/gcc/libc.a(lib_a-reent.o)
                0xfff8b9a0                _wrapup_reent
 P              0xfff8b9f0       0x1a ../../lib/gcc/libsim.a(sbrk.o)
                0xfff8b9f0                sbrk
                0xfff8b9f0                _sbrk
 P              0xfff8ba0a        0x6 ../../lib/gcc/libsim.a(heaptop.o)
                0xfff8ba0a                __set_heaptop
                0xfff8ba0a                _set_heaptop
 P              0xfff8ba10      0x3c8 ../../lib/gcc/libgcc.a(_udivdi3.o)
                0xfff8ba10                __udivdi3
                0xfff8ba10                _COM_DIV64u
 P              0xfff8bdd8      0x398 ../../lib/gcc/libgcc.a(_umoddi3.o)
                0xfff8bdd8                _COM_MOD64u
                0xfff8bdd8                __umoddi3
 P              0xfff8c170        0x0 ../../lib/gcc/libgcc.a(_clz.o)
 *(.text.*personality*)
 *(.gnu.warning)
 *(.interp .hash .dynsym .dynstr .gnu.version*)
                0xfff8c170                PROVIDE (__etext, .)
                0xfff8c170                PROVIDE (_etext, .)
                0xfff8c170                PROVIDE (etext, .)
                0xfff8c170                . = ALIGN (0x4)
 *(.init)
 *(.fini)

.rodata         0xfff8c170      0xca0
                0xfff8c170                . = ALIGN (0x4)
 *(.plt)
 *(.rodata C C_2 C_1 .rodata.* .gnu.linkonce.r.*)
 C              0xfff8c170      0x400 fatfs-test.o
 C              0xfff8c570       0x3c ../../lib/libfatfs.a(mmc_rspi.o)
 .rodata.str1.1
                0xfff8c5ac       0x43 ../../lib/libfatfs.a(ff.o)
 *fill*         0xfff8c5ef        0x1 00
 C              0xfff8c5f0       0x2c ../../lib/libfatfs.a(ff.o)
 .rodata.str1.1
                0xfff8c61c        0x5 ../../lib/libtkdnhal.a(tkdn_ether.o)
 *fill*         0xfff8c621        0x3 00
 .rodata.cst4   0xfff8c624        0x4 ../../lib/libtkdnhal.a(tkdn_ether.o)
 C              0xfff8c628       0x30 ../../lib/libtkdnhal.a(tkdn_pwm.o)
 C              0xfff8c658        0x8 ../../lib/libtkdnhal.a(usb_cdc.o)
 C              0xfff8c660       0x2c ../../lib/libtkdnhal.a(usb_core.o)
                0xfff8c688                gStringDescriptorLanguageIDsData
 C              0xfff8c68c       0xc4 ../../lib/libtkdnhal.a(usbdescriptors.o)
                0xfff8c68c                gStringDescriptorSerialNum
                0xfff8c694                gStringDescriptorProduct
                0xfff8c69c                gStringDescriptorManufacturer
                0xfff8c6a4                gConfigurationDescriptor
                0xfff8c6ac                gDeviceDescriptor
 C              0xfff8c750       0x20 ../../lib/libtkdnhal.a(tkdn_interrupt.o)
 C              0xfff8c770       0x84 ../../lib/libtkdnhal.a(tkdn_gpio.o)
                0xfff8c770                SFP_PINMAP
                0xfff8c784                GPIO_PINMAP
 .rodata.str1.1
                0xfff8c7f4       0x39 ../../lib/gcc/libc.a(lib_a-svfprintf.o)
                                 0x3b (size before relaxing)
 *fill*         0xfff8c82d        0x3 00
 .rodata._svfprintf_r
                0xfff8c830      0x164 ../../lib/gcc/libc.a(lib_a-svfprintf.o)
 .rodata.blanks.3859
                0xfff8c994       0x10 ../../lib/gcc/libc.a(lib_a-svfprintf.o)
 .rodata.zeroes.3860
                0xfff8c9a4       0x10 ../../lib/gcc/libc.a(lib_a-svfprintf.o)
 .rodata._ctype_
                0xfff8c9b4      0x101 ../../lib/gcc/libc.a(lib_a-ctype_.o)
                0xfff8c9b4                _ctype_
 .rodata.str1.1
                0xfff8cab5        0xd ../../lib/gcc/libc.a(lib_a-dtoa.o)
                                  0xf (size before relaxing)
 *fill*         0xfff8cac2        0x2 00
 .rodata._global_impure_ptr
                0xfff8cac4        0x4 ../../lib/gcc/libc.a(lib_a-impure.o)
                0xfff8cac4                _global_impure_ptr
 .rodata.str1.1
                0xfff8cac8        0x2 ../../lib/gcc/libc.a(lib_a-impure.o)
 .rodata.str1.1
                0xfff8caca        0x8 ../../lib/gcc/libc.a(lib_a-locale.o)
                                  0xb (size before relaxing)
 *fill*         0xfff8cad2        0x2 00
 .rodata.lconv  0xfff8cad4       0x38 ../../lib/gcc/libc.a(lib_a-locale.o)
 .rodata.__mprec_tinytens
                0xfff8cb0c        0x8 ../../lib/gcc/libc.a(lib_a-mprec.o)
                0xfff8cb0c                __mprec_tinytens
 .rodata.__mprec_bigtens
                0xfff8cb14        0x8 ../../lib/gcc/libc.a(lib_a-mprec.o)
                0xfff8cb14                __mprec_bigtens
 .rodata.__mprec_tens
                0xfff8cb1c       0x64 ../../lib/gcc/libc.a(lib_a-mprec.o)
                0xfff8cb1c                __mprec_tens
 .rodata.p05.2377
                0xfff8cb80        0xc ../../lib/gcc/libc.a(lib_a-mprec.o)
 .rodata.str1.1
                0x00000000       0x29 ../../lib/gcc/libc.a(lib_a-svfiprintf.o)
 .rodata._svfiprintf_r
                0xfff8cb8c      0x164 ../../lib/gcc/libc.a(lib_a-svfiprintf.o)
 .rodata.blanks.3804
                0xfff8ccf0       0x10 ../../lib/gcc/libc.a(lib_a-svfiprintf.o)
 .rodata.zeroes.3805
                0xfff8cd00       0x10 ../../lib/gcc/libc.a(lib_a-svfiprintf.o)
 C              0xfff8cd10      0x100 ../../lib/gcc/libgcc.a(_clz.o)
                0xfff8cd10                __clz_tab
 *(.rodata1)
 *(.eh_frame_hdr)
 *(.eh_frame)
 *(.gcc_except_table)
 *(.gcc_except_table.*)
                0xfff8ce10                . = ALIGN (0x4)
                0xfff8ce10                __rodataend = .

.data           0x00001000      0x964 load address 0xfff8ce10
                0x00001000                . = ALIGN (0x4)
                0xfff8ce10                PROVIDE (__romdatastart, __rodataend)
                0x00001000                PROVIDE (__datastart, .)
                0x00001000                PROVIDE (__preinit_array_start, .)
 *(.preinit_array)
                0x00001000                PROVIDE (__preinit_array_end, .)
                0x00001000                PROVIDE (__init_array_start, .)
 *(SORT(.init_array.*))
 *(.init_array)
                0x00001000                PROVIDE (__init_array_end, .)
                0x00001000                PROVIDE (__fini_array_start, .)
 *(.fini_array)
 *(SORT(.fini_array.*))
                0x00001000                PROVIDE (__fini_array_end, .)
                0x00001000        0x4 LONG 0x0
 *crtbegin*.o(.ctors)
 *(EXCLUDE_FILE(*crtend*.o) .ctors)
 *(SORT(.ctors.*))
 *(.ctors)
 *crtbegin*.o(.dtors)
 *(EXCLUDE_FILE(*crtend*.o) .dtors)
 *(SORT(.dtors.*))
 *(.dtors)
 *(.jcr)
 *(.data.rel.ro.local)
 *(.data.rel.ro*)
 *(.dynamic)
 *(.data D .data.* .gnu.linkonce.d.*)
 .data          0x00001004        0x4 ../../lib/start.o
                0x00001004                __dso_handle
 D              0x00001008        0x8 ../../lib/libfatfs.a(mmc_rspi.o)
                0x0000100c                INS
 D              0x00001010       0x6c ../../lib/libtkdnhal.a(tkdn_ether.o)
                0x00001010                le0
 D              0x0000107c        0x4 ../../lib/libtkdnhal.a(tkdn_pwm.o)
 D              0x00001080        0x4 ../../lib/libtkdnhal.a(tkdn_tone.o)
 D              0x00001084       0x30 ../../lib/libtkdnhal.a(usb_core.o)
 D              0x000010b4       0x24 ../../lib/libtkdnhal.a(usb_hal.o)
 D              0x000010d8        0x8 ../../lib/libtkdnhal.a(tkdn_interrupt.o)
                0x000010d8                USBI1_handler
                0x000010dc                USBI0_handler
 .data.__ctype_ptr__
                0x000010e0        0x4 ../../lib/gcc/libc.a(lib_a-ctype_.o)
                0x000010e0                __ctype_ptr__
 .data._impure_ptr
                0x000010e4        0x4 ../../lib/gcc/libc.a(lib_a-impure.o)
                0x000010e4                _impure_ptr
 .data.impure_data
                0x000010e8      0x424 ../../lib/gcc/libc.a(lib_a-impure.o)
 .data.__mb_cur_max
                0x0000150c        0x4 ../../lib/gcc/libc.a(lib_a-locale.o)
                0x0000150c                __mb_cur_max
 .data.lc_ctype_charset
                0x00001510       0x20 ../../lib/gcc/libc.a(lib_a-locale.o)
 .data.lc_message_charset
                0x00001530       0x20 ../../lib/gcc/libc.a(lib_a-locale.o)
 .data.__malloc_sbrk_base
                0x00001550        0x4 ../../lib/gcc/libc.a(lib_a-mallocr.o)
                0x00001550                __malloc_sbrk_base
 .data.__malloc_trim_threshold
                0x00001554        0x4 ../../lib/gcc/libc.a(lib_a-mallocr.o)
                0x00001554                __malloc_trim_threshold
 .data.__malloc_av_
                0x00001558      0x408 ../../lib/gcc/libc.a(lib_a-mallocr.o)
                0x00001558                __malloc_av_
 D              0x00001960        0x4 ../../lib/gcc/libsim.a(sbrk.o)
 *(.gnu.linkonce.d.*personality*)
 *(.data1)
 *(.got.plt)
 *(.got)
                0x00001964                . = ALIGN (0x4)
 *(.sdata .sdata.* .gnu.linkonce.s.* D_2 D_1)
 D_1            0x00001964        0x0 ../../lib/start.o
 D_1            0x00001964        0x0 fatfs-test.o
 D_1            0x00001964        0x0 ../../common/intvect.o
 D_1            0x00001964        0x0 ../../lib/libfatfs.a(mmc_rspi.o)
 D_1            0x00001964        0x0 ../../lib/libfatfs.a(ff.o)
 D_1            0x00001964        0x0 ../../lib/libtkdnhal.a(hwsetup.o)
 D_1            0x00001964        0x0 ../../lib/libtkdnhal.a(tkdn_sci.o)
 D_1            0x00001964        0x0 ../../lib/libtkdnhal.a(tkdn_ether.o)
 D_1            0x00001964        0x0 ../../lib/libtkdnhal.a(tkdn_timer.o)
 D_1            0x00001964        0x0 ../../lib/libtkdnhal.a(tkdn_pwm.o)
 D_1            0x00001964        0x0 ../../lib/libtkdnhal.a(tkdn_tone.o)
 D_1            0x00001964        0x0 ../../lib/libtkdnhal.a(phy.o)
 D_1            0x00001964        0x0 ../../lib/libtkdnhal.a(eidi.o)
 D_1            0x00001964        0x0 ../../lib/libtkdnhal.a(usb_cdc.o)
 D_1            0x00001964        0x0 ../../lib/libtkdnhal.a(usb_core.o)
 D_1            0x00001964        0x0 ../../lib/libtkdnhal.a(usb_hal.o)
 D_1            0x00001964        0x0 ../../lib/libtkdnhal.a(usbdescriptors.o)
 D_1            0x00001964        0x0 ../../lib/libtkdnhal.a(tkdn_interrupt.o)
 D_1            0x00001964        0x0 ../../lib/libtkdnhal.a(tkdn_gpio.o)
 D_1            0x00001964        0x0 ../../lib/gcc/libc.a(lib_a-sprintf.o)
 D_1            0x00001964        0x0 ../../lib/gcc/libc.a(lib_a-strcasecmp.o)
 D_1            0x00001964        0x0 ../../lib/gcc/libc.a(lib_a-strlen.o)
 D_1            0x00001964        0x0 ../../lib/gcc/libc.a(lib_a-strtok.o)
 D_1            0x00001964        0x0 ../../lib/gcc/libc.a(lib_a-strtok_r.o)
 D_1            0x00001964        0x0 ../../lib/gcc/libc.a(lib_a-svfprintf.o)
 D_1            0x00001964        0x0 ../../lib/gcc/libc.a(lib_a-ctype_.o)
 D_1            0x00001964        0x0 ../../lib/gcc/libc.a(lib_a-dtoa.o)
 D_1            0x00001964        0x0 ../../lib/gcc/libc.a(lib_a-impure.o)
 D_1            0x00001964        0x0 ../../lib/gcc/libc.a(lib_a-locale.o)
 D_1            0x00001964        0x0 ../../lib/gcc/libc.a(lib_a-mallocr.o)
 D_1            0x00001964        0x0 ../../lib/gcc/libc.a(lib_a-memchr.o)
 D_1            0x00001964        0x0 ../../lib/gcc/libc.a(lib_a-memcpy.o)
 D_1            0x00001964        0x0 ../../lib/gcc/libc.a(lib_a-mlock.o)
 D_1            0x00001964        0x0 ../../lib/gcc/libc.a(lib_a-mprec.o)
 D_1            0x00001964        0x0 ../../lib/gcc/libc.a(lib_a-sbrkr.o)
 D_1            0x00001964        0x0 ../../lib/gcc/libc.a(lib_a-sf_fpclassify.o)
 D_1            0x00001964        0x0 ../../lib/gcc/libc.a(lib_a-strcmp.o)
 D_1            0x00001964        0x0 ../../lib/gcc/libc.a(lib_a-svfiprintf.o)
 D_1            0x00001964        0x0 ../../lib/gcc/libc.a(lib_a-callocr.o)
 D_1            0x00001964        0x0 ../../lib/gcc/libc.a(lib_a-freer.o)
 D_1            0x00001964        0x0 ../../lib/gcc/libc.a(lib_a-memmove.o)
 D_1            0x00001964        0x0 ../../lib/gcc/libc.a(lib_a-memset.o)
 D_1            0x00001964        0x0 ../../lib/gcc/libc.a(lib_a-reallocr.o)
 D_1            0x00001964        0x0 ../../lib/gcc/libc.a(lib_a-reent.o)
 D_1            0x00001964        0x0 ../../lib/gcc/libsim.a(sbrk.o)
 D_1            0x00001964        0x0 ../../lib/gcc/libsim.a(heaptop.o)
 D_1            0x00001964        0x0 ../../lib/gcc/libgcc.a(_udivdi3.o)
 D_1            0x00001964        0x0 ../../lib/gcc/libgcc.a(_umoddi3.o)
 D_1            0x00001964        0x0 ../../lib/gcc/libgcc.a(_clz.o)
                0x00001964                . = ALIGN (0x4)
                0x00001964                _edata = .
                0x00001964                PROVIDE (edata, .)
                0x00001964                PROVIDE (__dataend, .)
                0x00000964                PROVIDE (__romdatacopysize, SIZEOF (.data))

.bss            0x00001964     0x187c load address 0xfff8d774
                0x00001964                . = ALIGN (0x4)
                0x00001964                PROVIDE (__bssstart, .)
 *(.dynbss)
 *(.sbss .sbss.*)
 *(.bss B B_2 B_1 .bss.* .gnu.linkonce.b.*)
 B_1            0x00001964        0x0 ../../lib/start.o
 B_1            0x00001964        0x0 fatfs-test.o
 B_1            0x00001964        0x0 ../../common/intvect.o
 B_1            0x00001964        0x6 ../../lib/libfatfs.a(mmc_rspi.o)
 *fill*         0x0000196a        0x2 00
 B_1            0x0000196c        0x8 ../../lib/libfatfs.a(ff.o)
 B_1            0x00001974        0x0 ../../lib/libtkdnhal.a(hwsetup.o)
 B_1            0x00001974        0x0 ../../lib/libtkdnhal.a(tkdn_sci.o)
 B_1            0x00001974        0x4 ../../lib/libtkdnhal.a(tkdn_ether.o)
 B_1            0x00001978        0x0 ../../lib/libtkdnhal.a(tkdn_timer.o)
 B              0x00001978        0xc ../../lib/libtkdnhal.a(tkdn_timer.o)
                0x00001978                disktimer
                0x0000197c                userfunc
                0x00001980                tim_1ms
 B_1            0x00001984       0x28 ../../lib/libtkdnhal.a(tkdn_pwm.o)
 B              0x000019ac        0x4 ../../lib/libtkdnhal.a(tkdn_pwm.o)
                0x000019ac                pwmpincount
 B_1            0x000019b0        0x4 ../../lib/libtkdnhal.a(tkdn_tone.o)
 B_1            0x000019b4        0x0 ../../lib/libtkdnhal.a(phy.o)
 B_1            0x000019b4        0x0 ../../lib/libtkdnhal.a(eidi.o)
 B_1            0x000019b4       0x10 ../../lib/libtkdnhal.a(usb_cdc.o)
 B_1            0x000019c4       0x14 ../../lib/libtkdnhal.a(usb_core.o)
 B_1            0x000019d8      0x44c ../../lib/libtkdnhal.a(usb_hal.o)
 B_1            0x00001e24        0x0 ../../lib/libtkdnhal.a(usbdescriptors.o)
 B_1            0x00001e24        0x0 ../../lib/libtkdnhal.a(tkdn_interrupt.o)
 B_1            0x00001e24        0x0 ../../lib/libtkdnhal.a(tkdn_gpio.o)
 B_1            0x00001e24        0x0 ../../lib/gcc/libc.a(lib_a-sprintf.o)
 B_1            0x00001e24        0x0 ../../lib/gcc/libc.a(lib_a-strcasecmp.o)
 B_1            0x00001e24        0x0 ../../lib/gcc/libc.a(lib_a-strlen.o)
 B_1            0x00001e24        0x0 ../../lib/gcc/libc.a(lib_a-strtok.o)
 B_1            0x00001e24        0x0 ../../lib/gcc/libc.a(lib_a-strtok_r.o)
 B_1            0x00001e24        0x0 ../../lib/gcc/libc.a(lib_a-svfprintf.o)
 B_1            0x00001e24        0x0 ../../lib/gcc/libc.a(lib_a-ctype_.o)
 B_1            0x00001e24        0x0 ../../lib/gcc/libc.a(lib_a-dtoa.o)
 B_1            0x00001e24        0x0 ../../lib/gcc/libc.a(lib_a-impure.o)
 B_1            0x00001e24        0x0 ../../lib/gcc/libc.a(lib_a-locale.o)
 .bss._PathLocale
                0x00001e24        0x4 ../../lib/gcc/libc.a(lib_a-locale.o)
                0x00001e24                _PathLocale
 .bss.__mlocale_changed
                0x00001e28        0x4 ../../lib/gcc/libc.a(lib_a-locale.o)
                0x00001e28                __mlocale_changed
 .bss.__nlocale_changed
                0x00001e2c        0x4 ../../lib/gcc/libc.a(lib_a-locale.o)
                0x00001e2c                __nlocale_changed
 B_1            0x00001e30        0x0 ../../lib/gcc/libc.a(lib_a-mallocr.o)
 .bss.__malloc_current_mallinfo
                0x00001e30       0x28 ../../lib/gcc/libc.a(lib_a-mallocr.o)
                0x00001e30                __malloc_current_mallinfo
 .bss.__malloc_max_total_mem
                0x00001e58        0x4 ../../lib/gcc/libc.a(lib_a-mallocr.o)
                0x00001e58                __malloc_max_total_mem
 .bss.__malloc_max_sbrked_mem
                0x00001e5c        0x4 ../../lib/gcc/libc.a(lib_a-mallocr.o)
                0x00001e5c                __malloc_max_sbrked_mem
 .bss.__malloc_top_pad
                0x00001e60        0x4 ../../lib/gcc/libc.a(lib_a-mallocr.o)
                0x00001e60                __malloc_top_pad
 B_1            0x00001e64        0x0 ../../lib/gcc/libc.a(lib_a-memchr.o)
 B_1            0x00001e64        0x0 ../../lib/gcc/libc.a(lib_a-memcpy.o)
 B_1            0x00001e64        0x0 ../../lib/gcc/libc.a(lib_a-mlock.o)
 B_1            0x00001e64        0x0 ../../lib/gcc/libc.a(lib_a-mprec.o)
 B_1            0x00001e64        0x0 ../../lib/gcc/libc.a(lib_a-sbrkr.o)
 B_1            0x00001e64        0x0 ../../lib/gcc/libc.a(lib_a-sf_fpclassify.o)
 B_1            0x00001e64        0x0 ../../lib/gcc/libc.a(lib_a-strcmp.o)
 B_1            0x00001e64        0x0 ../../lib/gcc/libc.a(lib_a-svfiprintf.o)
 B_1            0x00001e64        0x0 ../../lib/gcc/libc.a(lib_a-callocr.o)
 B_1            0x00001e64        0x0 ../../lib/gcc/libc.a(lib_a-freer.o)
 B_1            0x00001e64        0x0 ../../lib/gcc/libc.a(lib_a-memmove.o)
 B_1            0x00001e64        0x0 ../../lib/gcc/libc.a(lib_a-memset.o)
 B_1            0x00001e64        0x0 ../../lib/gcc/libc.a(lib_a-reallocr.o)
 B_1            0x00001e64        0x0 ../../lib/gcc/libc.a(lib_a-reent.o)
 B_1            0x00001e64        0x0 ../../lib/gcc/libsim.a(sbrk.o)
 B_1            0x00001e64        0x0 ../../lib/gcc/libsim.a(heaptop.o)
 B_1            0x00001e64        0x0 ../../lib/gcc/libgcc.a(_udivdi3.o)
 B_1            0x00001e64        0x0 ../../lib/gcc/libgcc.a(_umoddi3.o)
 B_1            0x00001e64        0x0 ../../lib/gcc/libgcc.a(_clz.o)
                0x00001e64                . = ALIGN (0x4)
 *(COMMON)
 COMMON         0x00001e64        0x4 fatfs-test.o
                0x00001e64                found_files
 COMMON         0x00001e68      0x238 ../../lib/libtkdnhal.a(tkdn_sci.o)
                0x00001e68                sci_default
                0x00002084                sci_handles
                0x0000209c                psci_default
 COMMON         0x000020a0        0x4 ../../lib/libtkdnhal.a(tkdn_ether.o)
                0x000020a0                user_rx_func
 COMMON         0x000020a4       0x20 ../../lib/libtkdnhal.a(tkdn_interrupt.o)
                0x000020a4                ifunc
 COMMON         0x000020c4        0x4 ../../lib/gcc/libc.a(lib_a-reent.o)
                0x000020c4                errno
                0x000020e0                . = ALIGN (0x20)
 *fill*         0x000020c8       0x18 00
 *(.etherdesc)
 .etherdesc     0x000020e0     0x1100 ../../lib/libtkdnhal.a(tkdn_ether.o)
                0x000031e0                . = ALIGN (0x4)
                0x000031e0                PROVIDE (__bssend, .)
                0x000031e0                _end = .
                0x000031e0                PROVIDE (end, .)
                0x0000061f                PROVIDE (__bsssize, (SIZEOF (.bss) / 0x4))

.stab
 *(.stab)

.stabstr
 *(.stabstr)

.stab.excl
 *(.stab.excl)

.stab.exclstr
 *(.stab.exclstr)

.stab.index
 *(.stab.index)

.stab.indexstr
 *(.stab.indexstr)

.comment        0x00000000       0x11
 *(.comment)
 .comment       0x00000000       0x11 fatfs-test.o
                                 0x12 (size before relaxing)
 .comment       0x00000000       0x12 ../../common/intvect.o
 .comment       0x00000000       0x12 ../../lib/libfatfs.a(mmc_rspi.o)
 .comment       0x00000000       0x12 ../../lib/libfatfs.a(ff.o)
 .comment       0x00000000       0x12 ../../lib/libtkdnhal.a(hwsetup.o)
 .comment       0x00000000       0x12 ../../lib/libtkdnhal.a(tkdn_sci.o)
 .comment       0x00000000       0x12 ../../lib/libtkdnhal.a(tkdn_ether.o)
 .comment       0x00000000       0x12 ../../lib/libtkdnhal.a(tkdn_timer.o)
 .comment       0x00000000       0x12 ../../lib/libtkdnhal.a(tkdn_pwm.o)
 .comment       0x00000000       0x12 ../../lib/libtkdnhal.a(tkdn_tone.o)
 .comment       0x00000000       0x12 ../../lib/libtkdnhal.a(phy.o)
 .comment       0x00000000       0x12 ../../lib/libtkdnhal.a(usb_cdc.o)
 .comment       0x00000000       0x12 ../../lib/libtkdnhal.a(usb_core.o)
 .comment       0x00000000       0x12 ../../lib/libtkdnhal.a(usb_hal.o)
 .comment       0x00000000       0x12 ../../lib/libtkdnhal.a(usbdescriptors.o)
 .comment       0x00000000       0x12 ../../lib/libtkdnhal.a(tkdn_interrupt.o)
 .comment       0x00000000       0x12 ../../lib/libtkdnhal.a(tkdn_gpio.o)
 .comment       0x00000000       0x12 ../../lib/gcc/libc.a(lib_a-sprintf.o)
 .comment       0x00000000       0x12 ../../lib/gcc/libc.a(lib_a-strcasecmp.o)
 .comment       0x00000000       0x12 ../../lib/gcc/libc.a(lib_a-strtok.o)
 .comment       0x00000000       0x12 ../../lib/gcc/libc.a(lib_a-strtok_r.o)
 .comment       0x00000000       0x12 ../../lib/gcc/libc.a(lib_a-svfprintf.o)
 .comment       0x00000000       0x12 ../../lib/gcc/libc.a(lib_a-ctype_.o)
 .comment       0x00000000       0x12 ../../lib/gcc/libc.a(lib_a-dtoa.o)
 .comment       0x00000000       0x12 ../../lib/gcc/libc.a(lib_a-impure.o)
 .comment       0x00000000       0x12 ../../lib/gcc/libc.a(lib_a-locale.o)
 .comment       0x00000000       0x12 ../../lib/gcc/libc.a(lib_a-mallocr.o)
 .comment       0x00000000       0x12 ../../lib/gcc/libc.a(lib_a-mlock.o)
 .comment       0x00000000       0x12 ../../lib/gcc/libc.a(lib_a-mprec.o)
 .comment       0x00000000       0x12 ../../lib/gcc/libc.a(lib_a-sbrkr.o)
 .comment       0x00000000       0x12 ../../lib/gcc/libc.a(lib_a-sf_fpclassify.o)
 .comment       0x00000000       0x12 ../../lib/gcc/libc.a(lib_a-svfiprintf.o)
 .comment       0x00000000       0x12 ../../lib/gcc/libc.a(lib_a-callocr.o)
 .comment       0x00000000       0x12 ../../lib/gcc/libc.a(lib_a-freer.o)
 .comment       0x00000000       0x12 ../../lib/gcc/libc.a(lib_a-reallocr.o)
 .comment       0x00000000       0x12 ../../lib/gcc/libc.a(lib_a-reent.o)
 .comment       0x00000000       0x12 ../../lib/gcc/libsim.a(sbrk.o)
 .comment       0x00000000       0x12 ../../lib/gcc/libgcc.a(_udivdi3.o)
 .comment       0x00000000       0x12 ../../lib/gcc/libgcc.a(_umoddi3.o)
 .comment       0x00000000       0x12 ../../lib/gcc/libgcc.a(_clz.o)

.debug
 *(.debug)

.line
 *(.line)

.debug_srcinfo
 *(.debug_srcinfo)

.debug_sfnames
 *(.debug_sfnames)

.debug_aranges  0x00000000      0x3e0
 *(.debug_aranges)
 .debug_aranges
                0x00000000       0x20 fatfs-test.o
 .debug_aranges
                0x00000020       0x20 ../../common/intvect.o
 .debug_aranges
                0x00000040       0x28 ../../lib/gcc/libc.a(lib_a-sprintf.o)
 .debug_aranges
                0x00000068       0x20 ../../lib/gcc/libc.a(lib_a-strcasecmp.o)
 .debug_aranges
                0x00000088       0x20 ../../lib/gcc/libc.a(lib_a-strtok.o)
 .debug_aranges
                0x000000a8       0x28 ../../lib/gcc/libc.a(lib_a-strtok_r.o)
 .debug_aranges
                0x000000d0       0x20 ../../lib/gcc/libc.a(lib_a-svfprintf.o)
 .debug_aranges
                0x000000f0       0x28 ../../lib/gcc/libc.a(lib_a-dtoa.o)
 .debug_aranges
                0x00000118       0x50 ../../lib/gcc/libc.a(lib_a-locale.o)
 .debug_aranges
                0x00000168       0x20 ../../lib/gcc/libc.a(lib_a-mallocr.o)
 .debug_aranges
                0x00000188       0x28 ../../lib/gcc/libc.a(lib_a-mlock.o)
 .debug_aranges
                0x000001b0       0xb0 ../../lib/gcc/libc.a(lib_a-mprec.o)
 .debug_aranges
                0x00000260       0x20 ../../lib/gcc/libc.a(lib_a-sbrkr.o)
 .debug_aranges
                0x00000280       0x20 ../../lib/gcc/libc.a(lib_a-sf_fpclassify.o)
 .debug_aranges
                0x000002a0       0x28 ../../lib/gcc/libc.a(lib_a-svfiprintf.o)
 .debug_aranges
                0x000002c8       0x20 ../../lib/gcc/libc.a(lib_a-callocr.o)
 .debug_aranges
                0x000002e8       0x28 ../../lib/gcc/libc.a(lib_a-freer.o)
 .debug_aranges
                0x00000310       0x20 ../../lib/gcc/libc.a(lib_a-reallocr.o)
 .debug_aranges
                0x00000330       0x30 ../../lib/gcc/libc.a(lib_a-reent.o)
 .debug_aranges
                0x00000360       0x20 ../../lib/gcc/libsim.a(sbrk.o)
 .debug_aranges
                0x00000380       0x20 ../../lib/gcc/libsim.a(heaptop.o)
 .debug_aranges
                0x000003a0       0x20 ../../lib/gcc/libgcc.a(_udivdi3.o)
 .debug_aranges
                0x000003c0       0x20 ../../lib/gcc/libgcc.a(_umoddi3.o)

.debug_pubnames
 *(.debug_pubnames)

.debug_info     0x00000000     0xde64
 *(.debug_info .gnu.linkonce.wi.*)
 .debug_info    0x00000000      0x69c fatfs-test.o
 .debug_info    0x0000069c      0xc6d ../../common/intvect.o
 .debug_info    0x00001309      0xa4b ../../lib/gcc/libc.a(lib_a-sprintf.o)
 .debug_info    0x00001d54      0x168 ../../lib/gcc/libc.a(lib_a-strcasecmp.o)
 .debug_info    0x00001ebc      0x982 ../../lib/gcc/libc.a(lib_a-strtok.o)
 .debug_info    0x0000283e      0x164 ../../lib/gcc/libc.a(lib_a-strtok_r.o)
 .debug_info    0x000029a2      0xfab ../../lib/gcc/libc.a(lib_a-svfprintf.o)
 .debug_info    0x0000394d       0x8b ../../lib/gcc/libc.a(lib_a-ctype_.o)
 .debug_info    0x000039d8      0xdcf ../../lib/gcc/libc.a(lib_a-dtoa.o)
 .debug_info    0x000047a7      0x965 ../../lib/gcc/libc.a(lib_a-impure.o)
 .debug_info    0x0000510c      0xc73 ../../lib/gcc/libc.a(lib_a-locale.o)
 .debug_info    0x00005d7f      0xd6e ../../lib/gcc/libc.a(lib_a-mallocr.o)
 .debug_info    0x00006aed      0x983 ../../lib/gcc/libc.a(lib_a-mlock.o)
 .debug_info    0x00007470     0x14f6 ../../lib/gcc/libc.a(lib_a-mprec.o)
 .debug_info    0x00008966      0x9af ../../lib/gcc/libc.a(lib_a-sbrkr.o)
 .debug_info    0x00009315       0xca ../../lib/gcc/libc.a(lib_a-sf_fpclassify.o)
 .debug_info    0x000093df      0xd84 ../../lib/gcc/libc.a(lib_a-svfiprintf.o)
 .debug_info    0x0000a163      0xa4b ../../lib/gcc/libc.a(lib_a-callocr.o)
 .debug_info    0x0000abae      0xc21 ../../lib/gcc/libc.a(lib_a-freer.o)
 .debug_info    0x0000b7cf      0xbc1 ../../lib/gcc/libc.a(lib_a-reallocr.o)
 .debug_info    0x0000c390      0xa53 ../../lib/gcc/libc.a(lib_a-reent.o)
 .debug_info    0x0000cde3       0xa0 ../../lib/gcc/libsim.a(sbrk.o)
 .debug_info    0x0000ce83       0x88 ../../lib/gcc/libsim.a(heaptop.o)
 .debug_info    0x0000cf0b      0x72a ../../lib/gcc/libgcc.a(_udivdi3.o)
 .debug_info    0x0000d635      0x77b ../../lib/gcc/libgcc.a(_umoddi3.o)
 .debug_info    0x0000ddb0       0xb4 ../../lib/gcc/libgcc.a(_clz.o)

.debug_abbrev   0x00000000     0x2777
 *(.debug_abbrev)
 .debug_abbrev  0x00000000      0x18c fatfs-test.o
 .debug_abbrev  0x0000018c       0x97 ../../common/intvect.o
 .debug_abbrev  0x00000223      0x1d3 ../../lib/gcc/libc.a(lib_a-sprintf.o)
 .debug_abbrev  0x000003f6       0xa5 ../../lib/gcc/libc.a(lib_a-strcasecmp.o)
 .debug_abbrev  0x0000049b      0x190 ../../lib/gcc/libc.a(lib_a-strtok.o)
 .debug_abbrev  0x0000062b       0xd1 ../../lib/gcc/libc.a(lib_a-strtok_r.o)
 .debug_abbrev  0x000006fc      0x2e8 ../../lib/gcc/libc.a(lib_a-svfprintf.o)
 .debug_abbrev  0x000009e4       0x63 ../../lib/gcc/libc.a(lib_a-ctype_.o)
 .debug_abbrev  0x00000a47      0x229 ../../lib/gcc/libc.a(lib_a-dtoa.o)
 .debug_abbrev  0x00000c70      0x166 ../../lib/gcc/libc.a(lib_a-impure.o)
 .debug_abbrev  0x00000dd6      0x24f ../../lib/gcc/libc.a(lib_a-locale.o)
 .debug_abbrev  0x00001025      0x235 ../../lib/gcc/libc.a(lib_a-mallocr.o)
 .debug_abbrev  0x0000125a      0x17b ../../lib/gcc/libc.a(lib_a-mlock.o)
 .debug_abbrev  0x000013d5      0x310 ../../lib/gcc/libc.a(lib_a-mprec.o)
 .debug_abbrev  0x000016e5      0x1b2 ../../lib/gcc/libc.a(lib_a-sbrkr.o)
 .debug_abbrev  0x00001897       0x6e ../../lib/gcc/libc.a(lib_a-sf_fpclassify.o)
 .debug_abbrev  0x00001905      0x260 ../../lib/gcc/libc.a(lib_a-svfiprintf.o)
 .debug_abbrev  0x00001b65      0x1c2 ../../lib/gcc/libc.a(lib_a-callocr.o)
 .debug_abbrev  0x00001d27      0x233 ../../lib/gcc/libc.a(lib_a-freer.o)
 .debug_abbrev  0x00001f5a      0x1ee ../../lib/gcc/libc.a(lib_a-reallocr.o)
 .debug_abbrev  0x00002148      0x211 ../../lib/gcc/libc.a(lib_a-reent.o)
 .debug_abbrev  0x00002359       0x8a ../../lib/gcc/libsim.a(sbrk.o)
 .debug_abbrev  0x000023e3       0x14 ../../lib/gcc/libsim.a(heaptop.o)
 .debug_abbrev  0x000023f7      0x17e ../../lib/gcc/libgcc.a(_udivdi3.o)
 .debug_abbrev  0x00002575      0x1a1 ../../lib/gcc/libgcc.a(_umoddi3.o)
 .debug_abbrev  0x00002716       0x61 ../../lib/gcc/libgcc.a(_clz.o)

.debug_line     0x00000000     0x86aa
 *(.debug_line)
 .debug_line    0x00000000      0x671 fatfs-test.o
 .debug_line    0x00000671      0x8b1 ../../common/intvect.o
 .debug_line    0x00000f22      0x225 ../../lib/gcc/libc.a(lib_a-sprintf.o)
 .debug_line    0x00001147      0x102 ../../lib/gcc/libc.a(lib_a-strcasecmp.o)
 .debug_line    0x00001249      0x168 ../../lib/gcc/libc.a(lib_a-strtok.o)
 .debug_line    0x000013b1      0x1c7 ../../lib/gcc/libc.a(lib_a-strtok_r.o)
 .debug_line    0x00001578     0x1596 ../../lib/gcc/libc.a(lib_a-svfprintf.o)
 .debug_line    0x00002b0e       0x6a ../../lib/gcc/libc.a(lib_a-ctype_.o)
 .debug_line    0x00002b78     0x1405 ../../lib/gcc/libc.a(lib_a-dtoa.o)
 .debug_line    0x00003f7d       0xfa ../../lib/gcc/libc.a(lib_a-impure.o)
 .debug_line    0x00004077      0x280 ../../lib/gcc/libc.a(lib_a-locale.o)
 .debug_line    0x000042f7      0x87e ../../lib/gcc/libc.a(lib_a-mallocr.o)
 .debug_line    0x00004b75      0x12e ../../lib/gcc/libc.a(lib_a-mlock.o)
 .debug_line    0x00004ca3     0x11bd ../../lib/gcc/libc.a(lib_a-mprec.o)
 .debug_line    0x00005e60      0x19d ../../lib/gcc/libc.a(lib_a-sbrkr.o)
 .debug_line    0x00005ffd      0x1a9 ../../lib/gcc/libc.a(lib_a-sf_fpclassify.o)
 .debug_line    0x000061a6      0xf4c ../../lib/gcc/libc.a(lib_a-svfiprintf.o)
 .debug_line    0x000070f2      0x189 ../../lib/gcc/libc.a(lib_a-callocr.o)
 .debug_line    0x0000727b      0x4a2 ../../lib/gcc/libc.a(lib_a-freer.o)
 .debug_line    0x0000771d      0x5db ../../lib/gcc/libc.a(lib_a-reallocr.o)
 .debug_line    0x00007cf8      0x2b3 ../../lib/gcc/libc.a(lib_a-reent.o)
 .debug_line    0x00007fab       0x8e ../../lib/gcc/libsim.a(sbrk.o)
 .debug_line    0x00008039       0x51 ../../lib/gcc/libsim.a(heaptop.o)
 .debug_line    0x0000808a      0x2ea ../../lib/gcc/libgcc.a(_udivdi3.o)
 .debug_line    0x00008374      0x2e1 ../../lib/gcc/libgcc.a(_umoddi3.o)
 .debug_line    0x00008655       0x55 ../../lib/gcc/libgcc.a(_clz.o)

.debug_frame    0x00000000     0x1490
 *(.debug_frame)
 .debug_frame   0x00000000       0xac fatfs-test.o
 .debug_frame   0x000000ac      0xcdc ../../common/intvect.o
 .debug_frame   0x00000d88       0x3c ../../lib/gcc/libc.a(lib_a-sprintf.o)
 .debug_frame   0x00000dc4       0x24 ../../lib/gcc/libc.a(lib_a-strcasecmp.o)
 .debug_frame   0x00000de8       0x24 ../../lib/gcc/libc.a(lib_a-strtok.o)
 .debug_frame   0x00000e0c       0x44 ../../lib/gcc/libc.a(lib_a-strtok_r.o)
 .debug_frame   0x00000e50       0x3c ../../lib/gcc/libc.a(lib_a-svfprintf.o)
 .debug_frame   0x00000e8c       0x64 ../../lib/gcc/libc.a(lib_a-dtoa.o)
 .debug_frame   0x00000ef0       0x90 ../../lib/gcc/libc.a(lib_a-locale.o)
 .debug_frame   0x00000f80       0x3c ../../lib/gcc/libc.a(lib_a-mallocr.o)
 .debug_frame   0x00000fbc       0x34 ../../lib/gcc/libc.a(lib_a-mlock.o)
 .debug_frame   0x00000ff0      0x220 ../../lib/gcc/libc.a(lib_a-mprec.o)
 .debug_frame   0x00001210       0x30 ../../lib/gcc/libc.a(lib_a-sbrkr.o)
 .debug_frame   0x00001240       0x24 ../../lib/gcc/libc.a(lib_a-sf_fpclassify.o)
 .debug_frame   0x00001264       0x64 ../../lib/gcc/libc.a(lib_a-svfiprintf.o)
 .debug_frame   0x000012c8       0x2c ../../lib/gcc/libc.a(lib_a-callocr.o)
 .debug_frame   0x000012f4       0x54 ../../lib/gcc/libc.a(lib_a-freer.o)
 .debug_frame   0x00001348       0x3c ../../lib/gcc/libc.a(lib_a-reallocr.o)
 .debug_frame   0x00001384       0x70 ../../lib/gcc/libc.a(lib_a-reent.o)
 .debug_frame   0x000013f4       0x2c ../../lib/gcc/libsim.a(sbrk.o)
 .debug_frame   0x00001420       0x38 ../../lib/gcc/libgcc.a(_udivdi3.o)
 .debug_frame   0x00001458       0x38 ../../lib/gcc/libgcc.a(_umoddi3.o)

.debug_str      0x00000000     0x1ed3
 *(.debug_str)
 .debug_str     0x00000000      0x386 fatfs-test.o
                                0x3e6 (size before relaxing)
 .debug_str     0x00000386      0x94c ../../common/intvect.o
                                0x990 (size before relaxing)
 .debug_str     0x00000cd2      0x41c ../../lib/gcc/libc.a(lib_a-sprintf.o)
                                0x502 (size before relaxing)
 .debug_str     0x000010ee       0x99 ../../lib/gcc/libc.a(lib_a-strcasecmp.o)
                                0x12e (size before relaxing)
 .debug_str     0x00001187       0x32 ../../lib/gcc/libc.a(lib_a-strtok.o)
                                0x4cf (size before relaxing)
 .debug_str     0x000011b9       0x5c ../../lib/gcc/libc.a(lib_a-strtok_r.o)
                                0x147 (size before relaxing)
 .debug_str     0x00001215      0x1a1 ../../lib/gcc/libc.a(lib_a-svfprintf.o)
                                0x6a0 (size before relaxing)
 .debug_str     0x000013b6       0x78 ../../lib/gcc/libc.a(lib_a-ctype_.o)
                                 0xa9 (size before relaxing)
 .debug_str     0x0000142e      0x139 ../../lib/gcc/libc.a(lib_a-dtoa.o)
                                0x5c6 (size before relaxing)
 .debug_str     0x00001567       0x8f ../../lib/gcc/libc.a(lib_a-impure.o)
                                0x4df (size before relaxing)
 .debug_str     0x000015f6      0x239 ../../lib/gcc/libc.a(lib_a-locale.o)
                                0x721 (size before relaxing)
 .debug_str     0x0000182f      0x1f8 ../../lib/gcc/libc.a(lib_a-mallocr.o)
                                0x6b6 (size before relaxing)
 .debug_str     0x00001a27       0x5d ../../lib/gcc/libc.a(lib_a-mlock.o)
                                0x4e8 (size before relaxing)
 .debug_str     0x00001a84       0xe8 ../../lib/gcc/libc.a(lib_a-mprec.o)
                                0x5d3 (size before relaxing)
 .debug_str     0x00001b6c       0x40 ../../lib/gcc/libc.a(lib_a-sbrkr.o)
                                0x4d5 (size before relaxing)
 .debug_str     0x00001bac       0x87 ../../lib/gcc/libc.a(lib_a-sf_fpclassify.o)
                                0x140 (size before relaxing)
 .debug_str     0x00001c33       0x29 ../../lib/gcc/libc.a(lib_a-svfiprintf.o)
                                0x620 (size before relaxing)
 .debug_str     0x00001c5c       0x19 ../../lib/gcc/libc.a(lib_a-callocr.o)
                                0x507 (size before relaxing)
 .debug_str     0x00001c75       0x3c ../../lib/gcc/libc.a(lib_a-freer.o)
                                0x608 (size before relaxing)
 .debug_str     0x00001cb1       0x59 ../../lib/gcc/libc.a(lib_a-reallocr.o)
                                0x588 (size before relaxing)
 .debug_str     0x00001d0a       0x63 ../../lib/gcc/libc.a(lib_a-reent.o)
                                0x504 (size before relaxing)
 .debug_str     0x00001d6d       0x6a ../../lib/gcc/libsim.a(sbrk.o)
                                 0x7b (size before relaxing)
 .debug_str     0x00001dd7       0xf2 ../../lib/gcc/libgcc.a(_udivdi3.o)
                                0x19b (size before relaxing)
 .debug_str     0x00001ec9        0xa ../../lib/gcc/libgcc.a(_umoddi3.o)
                                0x19b (size before relaxing)
 .debug_str     0x00000000      0x105 ../../lib/gcc/libgcc.a(_clz.o)

.debug_loc      0x00000000     0xb7c5
 *(.debug_loc)
 .debug_loc     0x00000000       0xd8 fatfs-test.o
 .debug_loc     0x000000d8     0x170c ../../common/intvect.o
 .debug_loc     0x000017e4       0xb7 ../../lib/gcc/libc.a(lib_a-sprintf.o)
 .debug_loc     0x0000189b      0x16b ../../lib/gcc/libc.a(lib_a-strcasecmp.o)
 .debug_loc     0x00001a06       0x26 ../../lib/gcc/libc.a(lib_a-strtok.o)
 .debug_loc     0x00001a2c      0x175 ../../lib/gcc/libc.a(lib_a-strtok_r.o)
 .debug_loc     0x00001ba1     0x2181 ../../lib/gcc/libc.a(lib_a-svfprintf.o)
 .debug_loc     0x00003d22     0x2361 ../../lib/gcc/libc.a(lib_a-dtoa.o)
 .debug_loc     0x00006083       0xb3 ../../lib/gcc/libc.a(lib_a-locale.o)
 .debug_loc     0x00006136      0xae2 ../../lib/gcc/libc.a(lib_a-mallocr.o)
 .debug_loc     0x00006c18     0x185f ../../lib/gcc/libc.a(lib_a-mprec.o)
 .debug_loc     0x00008477       0x51 ../../lib/gcc/libc.a(lib_a-sbrkr.o)
 .debug_loc     0x000084c8       0x84 ../../lib/gcc/libc.a(lib_a-sf_fpclassify.o)
 .debug_loc     0x0000854c     0x1385 ../../lib/gcc/libc.a(lib_a-svfiprintf.o)
 .debug_loc     0x000098d1      0x1d0 ../../lib/gcc/libc.a(lib_a-callocr.o)
 .debug_loc     0x00009aa1      0x115 ../../lib/gcc/libc.a(lib_a-freer.o)
 .debug_loc     0x00009bb6       0x2c ../../lib/gcc/libc.a(lib_a-reallocr.o)
 .debug_loc     0x00009be2      0x13e ../../lib/gcc/libc.a(lib_a-reent.o)
 .debug_loc     0x00009d20       0x55 ../../lib/gcc/libsim.a(sbrk.o)
 .debug_loc     0x00009d75      0xdc1 ../../lib/gcc/libgcc.a(_udivdi3.o)
 .debug_loc     0x0000ab36      0xc8f ../../lib/gcc/libgcc.a(_umoddi3.o)

.debug_macinfo
 *(.debug_macinfo)

.debug_weaknames
 *(.debug_weaknames)

.debug_funcnames
 *(.debug_funcnames)

.debug_typenames
 *(.debug_typenames)

.debug_varnames
 *(.debug_varnames)

/DISCARD/
 *(.note.GNU-stack)
LOAD ../../lib/libfatfs.a
LOAD ../../lib/librxduino.a
LOAD ../../lib/libtkdnhal.a
LOAD ../../lib/gcc/libstdc++.a
LOAD ../../lib/gcc/libsupc++.a
LOAD ../../lib/gcc/libc.a
LOAD ../../lib/gcc/libsim.a
LOAD ../../lib/gcc/libgcc.a
LOAD ../../lib/gcc/libm.a
OUTPUT(fatfs-test.elf elf32-rx-le)

.debug_ranges   0x00000000      0x968
 .debug_ranges  0x00000000       0x38 fatfs-test.o
 .debug_ranges  0x00000038       0x18 ../../lib/gcc/libc.a(lib_a-sprintf.o)
 .debug_ranges  0x00000050       0x28 ../../lib/gcc/libc.a(lib_a-strcasecmp.o)
 .debug_ranges  0x00000078       0x10 ../../lib/gcc/libc.a(lib_a-strtok.o)
 .debug_ranges  0x00000088       0x18 ../../lib/gcc/libc.a(lib_a-strtok_r.o)
 .debug_ranges  0x000000a0      0x110 ../../lib/gcc/libc.a(lib_a-svfprintf.o)
 .debug_ranges  0x000001b0       0x18 ../../lib/gcc/libc.a(lib_a-dtoa.o)
 .debug_ranges  0x000001c8       0x40 ../../lib/gcc/libc.a(lib_a-locale.o)
 .debug_ranges  0x00000208       0x90 ../../lib/gcc/libc.a(lib_a-mallocr.o)
 .debug_ranges  0x00000298       0x18 ../../lib/gcc/libc.a(lib_a-mlock.o)
 .debug_ranges  0x000002b0       0xe0 ../../lib/gcc/libc.a(lib_a-mprec.o)
 .debug_ranges  0x00000390       0x10 ../../lib/gcc/libc.a(lib_a-sbrkr.o)
 .debug_ranges  0x000003a0       0x10 ../../lib/gcc/libc.a(lib_a-sf_fpclassify.o)
 .debug_ranges  0x000003b0       0x58 ../../lib/gcc/libc.a(lib_a-svfiprintf.o)
 .debug_ranges  0x00000408       0x58 ../../lib/gcc/libc.a(lib_a-callocr.o)
 .debug_ranges  0x00000460       0x18 ../../lib/gcc/libc.a(lib_a-freer.o)
 .debug_ranges  0x00000478      0x168 ../../lib/gcc/libc.a(lib_a-reallocr.o)
 .debug_ranges  0x000005e0       0x20 ../../lib/gcc/libc.a(lib_a-reent.o)
 .debug_ranges  0x00000600      0x1d8 ../../lib/gcc/libgcc.a(_udivdi3.o)
 .debug_ranges  0x000007d8      0x190 ../../lib/gcc/libgcc.a(_umoddi3.o)
