
avrgcc_bystudio.elf:     file format elf32-avr

Sections:
Idx Name          Size      VMA       LMA       File off  Algn
  0 .data         00000190  00800100  00003ad0  00003b64  2**0
                  CONTENTS, ALLOC, LOAD, DATA
  1 .text         00003ad0  00000000  00000000  00000094  2**1
                  CONTENTS, ALLOC, LOAD, READONLY, CODE
  2 .bss          000000b5  00800290  00800290  00003cf4  2**0
                  ALLOC
  3 .debug_aranges 000001e0  00000000  00000000  00003cf4  2**0
                  CONTENTS, READONLY, DEBUGGING
  4 .debug_pubnames 0000024c  00000000  00000000  00003ed4  2**0
                  CONTENTS, READONLY, DEBUGGING
  5 .debug_info   000028e4  00000000  00000000  00004120  2**0
                  CONTENTS, READONLY, DEBUGGING
  6 .debug_abbrev 00001619  00000000  00000000  00006a04  2**0
                  CONTENTS, READONLY, DEBUGGING
  7 .debug_line   0000154a  00000000  00000000  0000801d  2**0
                  CONTENTS, READONLY, DEBUGGING
  8 .debug_frame  00000220  00000000  00000000  00009568  2**2
                  CONTENTS, READONLY, DEBUGGING
  9 .debug_str    000003ef  00000000  00000000  00009788  2**0
                  CONTENTS, READONLY, DEBUGGING
 10 .debug_loc    00000c44  00000000  00000000  00009b77  2**0
                  CONTENTS, READONLY, DEBUGGING
 11 .debug_ranges 00000068  00000000  00000000  0000a7bb  2**0
                  CONTENTS, READONLY, DEBUGGING

Disassembly of section .text:

00000000 <__vectors>:
       0:	0c 94 35 00 	jmp	0x6a	; 0x6a <__ctors_end>
       4:	0c 94 5d 00 	jmp	0xba	; 0xba <__bad_interrupt>
       8:	0c 94 5d 00 	jmp	0xba	; 0xba <__bad_interrupt>
       c:	0c 94 5d 00 	jmp	0xba	; 0xba <__bad_interrupt>
      10:	0c 94 5d 00 	jmp	0xba	; 0xba <__bad_interrupt>
      14:	0c 94 5d 00 	jmp	0xba	; 0xba <__bad_interrupt>
      18:	0c 94 5d 00 	jmp	0xba	; 0xba <__bad_interrupt>
      1c:	0c 94 5d 00 	jmp	0xba	; 0xba <__bad_interrupt>
      20:	0c 94 5d 00 	jmp	0xba	; 0xba <__bad_interrupt>
      24:	0c 94 5d 00 	jmp	0xba	; 0xba <__bad_interrupt>
      28:	0c 94 5d 00 	jmp	0xba	; 0xba <__bad_interrupt>
      2c:	0c 94 5d 00 	jmp	0xba	; 0xba <__bad_interrupt>
      30:	0c 94 5d 00 	jmp	0xba	; 0xba <__bad_interrupt>
      34:	0c 94 5d 00 	jmp	0xba	; 0xba <__bad_interrupt>
      38:	0c 94 5d 00 	jmp	0xba	; 0xba <__bad_interrupt>
      3c:	0c 94 5d 00 	jmp	0xba	; 0xba <__bad_interrupt>
      40:	0c 94 6c 11 	jmp	0x22d8	; 0x22d8 <__vector_16>
      44:	0c 94 5d 00 	jmp	0xba	; 0xba <__bad_interrupt>
      48:	0c 94 c4 01 	jmp	0x388	; 0x388 <__vector_18>
      4c:	0c 94 0b 02 	jmp	0x416	; 0x416 <__vector_19>
      50:	0c 94 5d 00 	jmp	0xba	; 0xba <__bad_interrupt>
      54:	0c 94 5d 00 	jmp	0xba	; 0xba <__bad_interrupt>
      58:	0c 94 5d 00 	jmp	0xba	; 0xba <__bad_interrupt>
      5c:	0c 94 5d 00 	jmp	0xba	; 0xba <__bad_interrupt>
      60:	0c 94 5d 00 	jmp	0xba	; 0xba <__bad_interrupt>
      64:	0c 94 5d 00 	jmp	0xba	; 0xba <__bad_interrupt>

00000068 <__ctors_start>:
      68:	66 04       	cpc	r6, r6

0000006a <__ctors_end>:
      6a:	11 24       	eor	r1, r1
      6c:	1f be       	out	0x3f, r1	; 63
      6e:	cf ef       	ldi	r28, 0xFF	; 255
      70:	d8 e0       	ldi	r29, 0x08	; 8
      72:	de bf       	out	0x3e, r29	; 62
      74:	cd bf       	out	0x3d, r28	; 61

00000076 <__do_copy_data>:
      76:	12 e0       	ldi	r17, 0x02	; 2
      78:	a0 e0       	ldi	r26, 0x00	; 0
      7a:	b1 e0       	ldi	r27, 0x01	; 1
      7c:	e0 ed       	ldi	r30, 0xD0	; 208
      7e:	fa e3       	ldi	r31, 0x3A	; 58
      80:	02 c0       	rjmp	.+4      	; 0x86 <.do_copy_data_start>

00000082 <.do_copy_data_loop>:
      82:	05 90       	lpm	r0, Z+
      84:	0d 92       	st	X+, r0

00000086 <.do_copy_data_start>:
      86:	a0 39       	cpi	r26, 0x90	; 144
      88:	b1 07       	cpc	r27, r17
      8a:	d9 f7       	brne	.-10     	; 0x82 <.do_copy_data_loop>

0000008c <__do_clear_bss>:
      8c:	13 e0       	ldi	r17, 0x03	; 3
      8e:	a0 e9       	ldi	r26, 0x90	; 144
      90:	b2 e0       	ldi	r27, 0x02	; 2
      92:	01 c0       	rjmp	.+2      	; 0x96 <.do_clear_bss_start>

00000094 <.do_clear_bss_loop>:
      94:	1d 92       	st	X+, r1

00000096 <.do_clear_bss_start>:
      96:	a5 34       	cpi	r26, 0x45	; 69
      98:	b1 07       	cpc	r27, r17
      9a:	e1 f7       	brne	.-8      	; 0x94 <.do_clear_bss_loop>

0000009c <__do_global_ctors>:
      9c:	10 e0       	ldi	r17, 0x00	; 0
      9e:	ca e6       	ldi	r28, 0x6A	; 106
      a0:	d0 e0       	ldi	r29, 0x00	; 0
      a2:	04 c0       	rjmp	.+8      	; 0xac <.do_global_ctors_start>

000000a4 <.do_global_ctors_loop>:
      a4:	22 97       	sbiw	r28, 0x02	; 2
      a6:	fe 01       	movw	r30, r28
      a8:	0e 94 20 1a 	call	0x3440	; 0x3440 <__tablejump__>

000000ac <.do_global_ctors_start>:
      ac:	c8 36       	cpi	r28, 0x68	; 104
      ae:	d1 07       	cpc	r29, r17
      b0:	c9 f7       	brne	.-14     	; 0xa4 <.do_global_ctors_loop>
      b2:	0e 94 41 01 	call	0x282	; 0x282 <main>
      b6:	0c 94 66 1d 	jmp	0x3acc	; 0x3acc <_exit>

000000ba <__bad_interrupt>:
      ba:	0c 94 00 00 	jmp	0	; 0x0 <__vectors>

000000be <_Z13binary_searchPffii>:
#include <avr/io.h>
#include <util/delay.h>

#include "Arduino.h"

int binary_search(float a[], float target, int aStart, int aEnd) {
      be:	2f 92       	push	r2
      c0:	3f 92       	push	r3
      c2:	4f 92       	push	r4
      c4:	5f 92       	push	r5
      c6:	6f 92       	push	r6
      c8:	7f 92       	push	r7
      ca:	8f 92       	push	r8
      cc:	9f 92       	push	r9
      ce:	af 92       	push	r10
      d0:	bf 92       	push	r11
      d2:	cf 92       	push	r12
      d4:	df 92       	push	r13
      d6:	ef 92       	push	r14
      d8:	ff 92       	push	r15
      da:	0f 93       	push	r16
      dc:	1f 93       	push	r17
      de:	df 93       	push	r29
      e0:	cf 93       	push	r28
      e2:	00 d0       	rcall	.+0      	; 0xe4 <_Z13binary_searchPffii+0x26>
      e4:	00 d0       	rcall	.+0      	; 0xe6 <_Z13binary_searchPffii+0x28>
      e6:	cd b7       	in	r28, 0x3d	; 61
      e8:	de b7       	in	r29, 0x3e	; 62
      ea:	1c 01       	movw	r2, r24
      ec:	2a 01       	movw	r4, r20
      ee:	3b 01       	movw	r6, r22
      f0:	09 83       	std	Y+1, r16	; 0x01
      f2:	1a 83       	std	Y+2, r17	; 0x02
      f4:	58 01       	movw	r10, r16
      f6:	69 01       	movw	r12, r18
      f8:	32 c0       	rjmp	.+100    	; 0x15e <_Z13binary_searchPffii+0xa0>
	int index, start = aStart, end = aEnd;
	while ( start < end ) {
		index = (start + end) / 2;
      fa:	c6 01       	movw	r24, r12
      fc:	8a 0d       	add	r24, r10
      fe:	9b 1d       	adc	r25, r11
     100:	62 e0       	ldi	r22, 0x02	; 2
     102:	70 e0       	ldi	r23, 0x00	; 0
     104:	0e 94 9e 19 	call	0x333c	; 0x333c <__divmodhi4>
     108:	6b 83       	std	Y+3, r22	; 0x03
     10a:	7c 83       	std	Y+4, r23	; 0x04
     10c:	8b 81       	ldd	r24, Y+3	; 0x03
     10e:	9c 81       	ldd	r25, Y+4	; 0x04
     110:	4c 01       	movw	r8, r24
		if ( a[index] == target ) {
     112:	fc 01       	movw	r30, r24
     114:	ee 0f       	add	r30, r30
     116:	ff 1f       	adc	r31, r31
     118:	ee 0f       	add	r30, r30
     11a:	ff 1f       	adc	r31, r31
     11c:	e2 0d       	add	r30, r2
     11e:	f3 1d       	adc	r31, r3
     120:	e0 80       	ld	r14, Z
     122:	f1 80       	ldd	r15, Z+1	; 0x01
     124:	02 81       	ldd	r16, Z+2	; 0x02
     126:	13 81       	ldd	r17, Z+3	; 0x03
     128:	c8 01       	movw	r24, r16
     12a:	b7 01       	movw	r22, r14
     12c:	a3 01       	movw	r20, r6
     12e:	92 01       	movw	r18, r4
     130:	0e 94 cf 15 	call	0x2b9e	; 0x2b9e <__eqsf2>
     134:	88 23       	and	r24, r24
     136:	c9 f0       	breq	.+50     	; 0x16a <_Z13binary_searchPffii+0xac>
			return index;
		} else if ( a[index] < target ) {
     138:	c8 01       	movw	r24, r16
     13a:	b7 01       	movw	r22, r14
     13c:	a3 01       	movw	r20, r6
     13e:	92 01       	movw	r18, r4
     140:	0e 94 2f 16 	call	0x2c5e	; 0x2c5e <__ltsf2>
     144:	88 23       	and	r24, r24
     146:	34 f4       	brge	.+12     	; 0x154 <_Z13binary_searchPffii+0x96>
			end = index - 1;
     148:	ab 80       	ldd	r10, Y+3	; 0x03
     14a:	bc 80       	ldd	r11, Y+4	; 0x04
     14c:	08 94       	sec
     14e:	a1 08       	sbc	r10, r1
     150:	b1 08       	sbc	r11, r1
     152:	05 c0       	rjmp	.+10     	; 0x15e <_Z13binary_searchPffii+0xa0>
		} else {
			start = index + 1;
     154:	cb 80       	ldd	r12, Y+3	; 0x03
     156:	dc 80       	ldd	r13, Y+4	; 0x04
     158:	08 94       	sec
     15a:	c1 1c       	adc	r12, r1
     15c:	d1 1c       	adc	r13, r1

#include "Arduino.h"

int binary_search(float a[], float target, int aStart, int aEnd) {
	int index, start = aStart, end = aEnd;
	while ( start < end ) {
     15e:	ca 14       	cp	r12, r10
     160:	db 04       	cpc	r13, r11
     162:	5c f2       	brlt	.-106    	; 0xfa <_Z13binary_searchPffii+0x3c>
     164:	89 81       	ldd	r24, Y+1	; 0x01
     166:	9a 81       	ldd	r25, Y+2	; 0x02
     168:	4c 01       	movw	r8, r24
		} else {
			start = index + 1;
		}
	}
	return aEnd;
}
     16a:	c4 01       	movw	r24, r8
     16c:	0f 90       	pop	r0
     16e:	0f 90       	pop	r0
     170:	0f 90       	pop	r0
     172:	0f 90       	pop	r0
     174:	cf 91       	pop	r28
     176:	df 91       	pop	r29
     178:	1f 91       	pop	r17
     17a:	0f 91       	pop	r16
     17c:	ff 90       	pop	r15
     17e:	ef 90       	pop	r14
     180:	df 90       	pop	r13
     182:	cf 90       	pop	r12
     184:	bf 90       	pop	r11
     186:	af 90       	pop	r10
     188:	9f 90       	pop	r9
     18a:	8f 90       	pop	r8
     18c:	7f 90       	pop	r7
     18e:	6f 90       	pop	r6
     190:	5f 90       	pop	r5
     192:	4f 90       	pop	r4
     194:	3f 90       	pop	r3
     196:	2f 90       	pop	r2
     198:	08 95       	ret

0000019a <_Z6bubblePfii>:

void bubble(float a[], int start, int end) {
     19a:	2f 92       	push	r2
     19c:	3f 92       	push	r3
     19e:	4f 92       	push	r4
     1a0:	5f 92       	push	r5
     1a2:	6f 92       	push	r6
     1a4:	7f 92       	push	r7
     1a6:	8f 92       	push	r8
     1a8:	9f 92       	push	r9
     1aa:	af 92       	push	r10
     1ac:	bf 92       	push	r11
     1ae:	cf 92       	push	r12
     1b0:	df 92       	push	r13
     1b2:	ef 92       	push	r14
     1b4:	ff 92       	push	r15
     1b6:	0f 93       	push	r16
     1b8:	1f 93       	push	r17
     1ba:	df 93       	push	r29
     1bc:	cf 93       	push	r28
     1be:	00 d0       	rcall	.+0      	; 0x1c0 <_Z6bubblePfii+0x26>
     1c0:	00 d0       	rcall	.+0      	; 0x1c2 <_Z6bubblePfii+0x28>
     1c2:	00 d0       	rcall	.+0      	; 0x1c4 <_Z6bubblePfii+0x2a>
     1c4:	cd b7       	in	r28, 0x3d	; 61
     1c6:	de b7       	in	r29, 0x3e	; 62
     1c8:	89 83       	std	Y+1, r24	; 0x01
     1ca:	9a 83       	std	Y+2, r25	; 0x02
     1cc:	1a 01       	movw	r2, r20
     1ce:	66 24       	eor	r6, r6
     1d0:	77 24       	eor	r7, r7
	float t;
	for(int i = 0; i < end-1; i++) {
     1d2:	ca 01       	movw	r24, r20
     1d4:	01 97       	sbiw	r24, 0x01	; 1
     1d6:	9c 83       	std	Y+4, r25	; 0x04
     1d8:	8b 83       	std	Y+3, r24	; 0x03
     1da:	2a c0       	rjmp	.+84     	; 0x230 <_Z6bubblePfii+0x96>
		for(int j = 0; j < end-i+1; j++) {
			if ( !(a[j] < a[j+1]) ) {
     1dc:	ed 81       	ldd	r30, Y+5	; 0x05
     1de:	fe 81       	ldd	r31, Y+6	; 0x06
     1e0:	a0 80       	ld	r10, Z
     1e2:	b1 80       	ldd	r11, Z+1	; 0x01
     1e4:	c2 80       	ldd	r12, Z+2	; 0x02
     1e6:	d3 80       	ldd	r13, Z+3	; 0x03
     1e8:	e4 80       	ldd	r14, Z+4	; 0x04
     1ea:	f5 80       	ldd	r15, Z+5	; 0x05
     1ec:	06 81       	ldd	r16, Z+6	; 0x06
     1ee:	17 81       	ldd	r17, Z+7	; 0x07
     1f0:	c6 01       	movw	r24, r12
     1f2:	b5 01       	movw	r22, r10
     1f4:	a8 01       	movw	r20, r16
     1f6:	97 01       	movw	r18, r14
     1f8:	0e 94 2f 16 	call	0x2c5e	; 0x2c5e <__ltsf2>
     1fc:	87 fd       	sbrc	r24, 7
     1fe:	0a c0       	rjmp	.+20     	; 0x214 <_Z6bubblePfii+0x7a>
				t = a[j+1];
				a[j+1] = a[j];
     200:	ed 81       	ldd	r30, Y+5	; 0x05
     202:	fe 81       	ldd	r31, Y+6	; 0x06
     204:	a4 82       	std	Z+4, r10	; 0x04
     206:	b5 82       	std	Z+5, r11	; 0x05
     208:	c6 82       	std	Z+6, r12	; 0x06
     20a:	d7 82       	std	Z+7, r13	; 0x07
				a[j] = t;
     20c:	e0 82       	st	Z, r14
     20e:	f1 82       	std	Z+1, r15	; 0x01
     210:	02 83       	std	Z+2, r16	; 0x02
     212:	13 83       	std	Z+3, r17	; 0x03
}

void bubble(float a[], int start, int end) {
	float t;
	for(int i = 0; i < end-1; i++) {
		for(int j = 0; j < end-i+1; j++) {
     214:	08 94       	sec
     216:	81 1c       	adc	r8, r1
     218:	91 1c       	adc	r9, r1
     21a:	8d 81       	ldd	r24, Y+5	; 0x05
     21c:	9e 81       	ldd	r25, Y+6	; 0x06
     21e:	04 96       	adiw	r24, 0x04	; 4
     220:	9e 83       	std	Y+6, r25	; 0x06
     222:	8d 83       	std	Y+5, r24	; 0x05
     224:	48 14       	cp	r4, r8
     226:	59 04       	cpc	r5, r9
     228:	cc f6       	brge	.-78     	; 0x1dc <_Z6bubblePfii+0x42>
	return aEnd;
}

void bubble(float a[], int start, int end) {
	float t;
	for(int i = 0; i < end-1; i++) {
     22a:	08 94       	sec
     22c:	61 1c       	adc	r6, r1
     22e:	71 1c       	adc	r7, r1
     230:	eb 81       	ldd	r30, Y+3	; 0x03
     232:	fc 81       	ldd	r31, Y+4	; 0x04
     234:	6e 16       	cp	r6, r30
     236:	7f 06       	cpc	r7, r31
     238:	5c f4       	brge	.+22     	; 0x250 <_Z6bubblePfii+0xb6>
     23a:	89 81       	ldd	r24, Y+1	; 0x01
     23c:	9a 81       	ldd	r25, Y+2	; 0x02
     23e:	9c 01       	movw	r18, r24
     240:	3e 83       	std	Y+6, r19	; 0x06
     242:	2d 83       	std	Y+5, r18	; 0x05
     244:	88 24       	eor	r8, r8
     246:	99 24       	eor	r9, r9
		for(int j = 0; j < end-i+1; j++) {
     248:	21 01       	movw	r4, r2
     24a:	46 18       	sub	r4, r6
     24c:	57 08       	sbc	r5, r7
     24e:	ea cf       	rjmp	.-44     	; 0x224 <_Z6bubblePfii+0x8a>
				a[j+1] = a[j];
				a[j] = t;
			}
		}
	}
}
     250:	26 96       	adiw	r28, 0x06	; 6
     252:	0f b6       	in	r0, 0x3f	; 63
     254:	f8 94       	cli
     256:	de bf       	out	0x3e, r29	; 62
     258:	0f be       	out	0x3f, r0	; 63
     25a:	cd bf       	out	0x3d, r28	; 61
     25c:	cf 91       	pop	r28
     25e:	df 91       	pop	r29
     260:	1f 91       	pop	r17
     262:	0f 91       	pop	r16
     264:	ff 90       	pop	r15
     266:	ef 90       	pop	r14
     268:	df 90       	pop	r13
     26a:	cf 90       	pop	r12
     26c:	bf 90       	pop	r11
     26e:	af 90       	pop	r10
     270:	9f 90       	pop	r9
     272:	8f 90       	pop	r8
     274:	7f 90       	pop	r7
     276:	6f 90       	pop	r6
     278:	5f 90       	pop	r5
     27a:	4f 90       	pop	r4
     27c:	3f 90       	pop	r3
     27e:	2f 90       	pop	r2
     280:	08 95       	ret

00000282 <main>:

int main(int argc, char * argv[]) {
     282:	ef 92       	push	r14
     284:	ff 92       	push	r15
     286:	0f 93       	push	r16
     288:	1f 93       	push	r17
     28a:	df 93       	push	r29
     28c:	cf 93       	push	r28
     28e:	cd b7       	in	r28, 0x3d	; 61
     290:	de b7       	in	r29, 0x3e	; 62
     292:	a8 97       	sbiw	r28, 0x28	; 40
     294:	0f b6       	in	r0, 0x3f	; 63
     296:	f8 94       	cli
     298:	de bf       	out	0x3e, r29	; 62
     29a:	0f be       	out	0x3f, r0	; 63
     29c:	cd bf       	out	0x3d, r28	; 61

	init();
     29e:	0e 94 18 12 	call	0x2430	; 0x2430 <init>
	// program body

	Serial.begin(9600);
     2a2:	88 e1       	ldi	r24, 0x18	; 24
     2a4:	93 e0       	ldi	r25, 0x03	; 3
     2a6:	40 e8       	ldi	r20, 0x80	; 128
     2a8:	55 e2       	ldi	r21, 0x25	; 37
     2aa:	60 e0       	ldi	r22, 0x00	; 0
     2ac:	70 e0       	ldi	r23, 0x00	; 0
     2ae:	0e 94 d2 02 	call	0x5a4	; 0x5a4 <_ZN14HardwareSerial5beginEm>
	Serial.println();
     2b2:	88 e1       	ldi	r24, 0x18	; 24
     2b4:	93 e0       	ldi	r25, 0x03	; 3
     2b6:	0e 94 16 05 	call	0xa2c	; 0xa2c <_ZN5Print7printlnEv>
	Serial.println("Hi friends!");
     2ba:	88 e1       	ldi	r24, 0x18	; 24
     2bc:	93 e0       	ldi	r25, 0x03	; 3
     2be:	60 e0       	ldi	r22, 0x00	; 0
     2c0:	71 e0       	ldi	r23, 0x01	; 1
     2c2:	0e 94 af 07 	call	0xf5e	; 0xf5e <_ZN5Print7printlnEPKc>
			6.02,
			1.4141356,
			0.1,
			0.991,
			1.333
	};
     2c6:	de 01       	movw	r26, r28
     2c8:	11 96       	adiw	r26, 0x01	; 1
     2ca:	ef e2       	ldi	r30, 0x2F	; 47
     2cc:	f1 e0       	ldi	r31, 0x01	; 1
     2ce:	88 e2       	ldi	r24, 0x28	; 40
     2d0:	01 90       	ld	r0, Z+
     2d2:	0d 92       	st	X+, r0
     2d4:	81 50       	subi	r24, 0x01	; 1
     2d6:	e1 f7       	brne	.-8      	; 0x2d0 <main+0x4e>
	bubble(a, 0, 10);
     2d8:	8e 01       	movw	r16, r28
     2da:	0f 5f       	subi	r16, 0xFF	; 255
     2dc:	1f 4f       	sbci	r17, 0xFF	; 255
     2de:	c8 01       	movw	r24, r16
     2e0:	60 e0       	ldi	r22, 0x00	; 0
     2e2:	70 e0       	ldi	r23, 0x00	; 0
     2e4:	4a e0       	ldi	r20, 0x0A	; 10
     2e6:	50 e0       	ldi	r21, 0x00	; 0
     2e8:	0e 94 cd 00 	call	0x19a	; 0x19a <_Z6bubblePfii>
	Serial.println("Bubble sort:");
     2ec:	88 e1       	ldi	r24, 0x18	; 24
     2ee:	93 e0       	ldi	r25, 0x03	; 3
     2f0:	6c e0       	ldi	r22, 0x0C	; 12
     2f2:	71 e0       	ldi	r23, 0x01	; 1
     2f4:	0e 94 af 07 	call	0xf5e	; 0xf5e <_ZN5Print7printlnEPKc>
	for(int i = 0; i < 10; i++) {
     2f8:	99 e2       	ldi	r25, 0x29	; 41
     2fa:	e9 2e       	mov	r14, r25
     2fc:	f1 2c       	mov	r15, r1
     2fe:	ec 0e       	add	r14, r28
     300:	fd 1e       	adc	r15, r29
		Serial.println(a[i]);
     302:	f8 01       	movw	r30, r16
     304:	41 91       	ld	r20, Z+
     306:	51 91       	ld	r21, Z+
     308:	61 91       	ld	r22, Z+
     30a:	71 91       	ld	r23, Z+
     30c:	8f 01       	movw	r16, r30
     30e:	88 e1       	ldi	r24, 0x18	; 24
     310:	93 e0       	ldi	r25, 0x03	; 3
     312:	22 e0       	ldi	r18, 0x02	; 2
     314:	30 e0       	ldi	r19, 0x00	; 0
     316:	0e 94 9c 07 	call	0xf38	; 0xf38 <_ZN5Print7printlnEdi>
			0.991,
			1.333
	};
	bubble(a, 0, 10);
	Serial.println("Bubble sort:");
	for(int i = 0; i < 10; i++) {
     31a:	0e 15       	cp	r16, r14
     31c:	1f 05       	cpc	r17, r15
     31e:	89 f7       	brne	.-30     	; 0x302 <main+0x80>
		Serial.println(a[i]);
	}

	Serial.println();
     320:	88 e1       	ldi	r24, 0x18	; 24
     322:	93 e0       	ldi	r25, 0x03	; 3
     324:	0e 94 16 05 	call	0xa2c	; 0xa2c <_ZN5Print7printlnEv>
//	_delay_ms(500);
	Serial.println("searching...");
     328:	88 e1       	ldi	r24, 0x18	; 24
     32a:	93 e0       	ldi	r25, 0x03	; 3
     32c:	69 e1       	ldi	r22, 0x19	; 25
     32e:	71 e0       	ldi	r23, 0x01	; 1
     330:	0e 94 af 07 	call	0xf5e	; 0xf5e <_ZN5Print7printlnEPKc>

	int place = binary_search(a, 0.221, 0, 9);
     334:	ce 01       	movw	r24, r28
     336:	01 96       	adiw	r24, 0x01	; 1
     338:	43 ed       	ldi	r20, 0xD3	; 211
     33a:	5d e4       	ldi	r21, 0x4D	; 77
     33c:	62 e6       	ldi	r22, 0x62	; 98
     33e:	7e e3       	ldi	r23, 0x3E	; 62
     340:	20 e0       	ldi	r18, 0x00	; 0
     342:	30 e0       	ldi	r19, 0x00	; 0
     344:	09 e0       	ldi	r16, 0x09	; 9
     346:	10 e0       	ldi	r17, 0x00	; 0
     348:	0e 94 5f 00 	call	0xbe	; 0xbe <_Z13binary_searchPffii>
     34c:	8c 01       	movw	r16, r24

	Serial.print("Result: ");
     34e:	88 e1       	ldi	r24, 0x18	; 24
     350:	93 e0       	ldi	r25, 0x03	; 3
     352:	66 e2       	ldi	r22, 0x26	; 38
     354:	71 e0       	ldi	r23, 0x01	; 1
     356:	0e 94 fb 06 	call	0xdf6	; 0xdf6 <_ZN5Print5printEPKc>
	Serial.println(place);
     35a:	88 e1       	ldi	r24, 0x18	; 24
     35c:	93 e0       	ldi	r25, 0x03	; 3
     35e:	b8 01       	movw	r22, r16
     360:	4a e0       	ldi	r20, 0x0A	; 10
     362:	50 e0       	ldi	r21, 0x00	; 0
     364:	0e 94 dc 06 	call	0xdb8	; 0xdb8 <_ZN5Print7printlnEii>

	return 0;
}
     368:	80 e0       	ldi	r24, 0x00	; 0
     36a:	90 e0       	ldi	r25, 0x00	; 0
     36c:	a8 96       	adiw	r28, 0x28	; 40
     36e:	0f b6       	in	r0, 0x3f	; 63
     370:	f8 94       	cli
     372:	de bf       	out	0x3e, r29	; 62
     374:	0f be       	out	0x3f, r0	; 63
     376:	cd bf       	out	0x3d, r28	; 61
     378:	cf 91       	pop	r28
     37a:	df 91       	pop	r29
     37c:	1f 91       	pop	r17
     37e:	0f 91       	pop	r16
     380:	ff 90       	pop	r15
     382:	ef 90       	pop	r14
     384:	08 95       	ret

00000386 <_Z11serialEventv>:
     386:	08 95       	ret

00000388 <__vector_18>:
     388:	1f 92       	push	r1
     38a:	0f 92       	push	r0
     38c:	0f b6       	in	r0, 0x3f	; 63
     38e:	0f 92       	push	r0
     390:	11 24       	eor	r1, r1
     392:	2f 93       	push	r18
     394:	3f 93       	push	r19
     396:	4f 93       	push	r20
     398:	8f 93       	push	r24
     39a:	9f 93       	push	r25
     39c:	ef 93       	push	r30
     39e:	ff 93       	push	r31
     3a0:	40 91 c6 00 	lds	r20, 0x00C6
     3a4:	20 91 d0 02 	lds	r18, 0x02D0
     3a8:	30 91 d1 02 	lds	r19, 0x02D1
     3ac:	2f 5f       	subi	r18, 0xFF	; 255
     3ae:	3f 4f       	sbci	r19, 0xFF	; 255
     3b0:	2f 73       	andi	r18, 0x3F	; 63
     3b2:	30 70       	andi	r19, 0x00	; 0
     3b4:	80 91 d2 02 	lds	r24, 0x02D2
     3b8:	90 91 d3 02 	lds	r25, 0x02D3
     3bc:	28 17       	cp	r18, r24
     3be:	39 07       	cpc	r19, r25
     3c0:	59 f0       	breq	.+22     	; 0x3d8 <__vector_18+0x50>
     3c2:	e0 91 d0 02 	lds	r30, 0x02D0
     3c6:	f0 91 d1 02 	lds	r31, 0x02D1
     3ca:	e0 57       	subi	r30, 0x70	; 112
     3cc:	fd 4f       	sbci	r31, 0xFD	; 253
     3ce:	40 83       	st	Z, r20
     3d0:	30 93 d1 02 	sts	0x02D1, r19
     3d4:	20 93 d0 02 	sts	0x02D0, r18
     3d8:	ff 91       	pop	r31
     3da:	ef 91       	pop	r30
     3dc:	9f 91       	pop	r25
     3de:	8f 91       	pop	r24
     3e0:	4f 91       	pop	r20
     3e2:	3f 91       	pop	r19
     3e4:	2f 91       	pop	r18
     3e6:	0f 90       	pop	r0
     3e8:	0f be       	out	0x3f, r0	; 63
     3ea:	0f 90       	pop	r0
     3ec:	1f 90       	pop	r1
     3ee:	18 95       	reti

000003f0 <_Z14serialEventRunv>:
     3f0:	e0 91 24 03 	lds	r30, 0x0324
     3f4:	f0 91 25 03 	lds	r31, 0x0325
     3f8:	e0 5c       	subi	r30, 0xC0	; 192
     3fa:	ff 4f       	sbci	r31, 0xFF	; 255
     3fc:	81 91       	ld	r24, Z+
     3fe:	91 91       	ld	r25, Z+
     400:	20 81       	ld	r18, Z
     402:	31 81       	ldd	r19, Z+1	; 0x01
     404:	82 1b       	sub	r24, r18
     406:	93 0b       	sbc	r25, r19
     408:	8f 73       	andi	r24, 0x3F	; 63
     40a:	90 70       	andi	r25, 0x00	; 0
     40c:	89 2b       	or	r24, r25
     40e:	11 f0       	breq	.+4      	; 0x414 <_Z14serialEventRunv+0x24>
     410:	0e 94 c3 01 	call	0x386	; 0x386 <_Z11serialEventv>
     414:	08 95       	ret

00000416 <__vector_19>:
     416:	1f 92       	push	r1
     418:	0f 92       	push	r0
     41a:	0f b6       	in	r0, 0x3f	; 63
     41c:	0f 92       	push	r0
     41e:	11 24       	eor	r1, r1
     420:	2f 93       	push	r18
     422:	3f 93       	push	r19
     424:	4f 93       	push	r20
     426:	5f 93       	push	r21
     428:	6f 93       	push	r22
     42a:	7f 93       	push	r23
     42c:	8f 93       	push	r24
     42e:	9f 93       	push	r25
     430:	af 93       	push	r26
     432:	bf 93       	push	r27
     434:	ef 93       	push	r30
     436:	ff 93       	push	r31
     438:	20 91 14 03 	lds	r18, 0x0314
     43c:	30 91 15 03 	lds	r19, 0x0315
     440:	80 91 16 03 	lds	r24, 0x0316
     444:	90 91 17 03 	lds	r25, 0x0317
     448:	28 17       	cp	r18, r24
     44a:	39 07       	cpc	r19, r25
     44c:	31 f4       	brne	.+12     	; 0x45a <__vector_19+0x44>
     44e:	80 91 c1 00 	lds	r24, 0x00C1
     452:	8f 7d       	andi	r24, 0xDF	; 223
     454:	80 93 c1 00 	sts	0x00C1, r24
     458:	16 c0       	rjmp	.+44     	; 0x486 <__vector_19+0x70>
     45a:	e0 91 16 03 	lds	r30, 0x0316
     45e:	f0 91 17 03 	lds	r31, 0x0317
     462:	ec 52       	subi	r30, 0x2C	; 44
     464:	fd 4f       	sbci	r31, 0xFD	; 253
     466:	40 81       	ld	r20, Z
     468:	80 91 16 03 	lds	r24, 0x0316
     46c:	90 91 17 03 	lds	r25, 0x0317
     470:	01 96       	adiw	r24, 0x01	; 1
     472:	60 e4       	ldi	r22, 0x40	; 64
     474:	70 e0       	ldi	r23, 0x00	; 0
     476:	0e 94 9e 19 	call	0x333c	; 0x333c <__divmodhi4>
     47a:	90 93 17 03 	sts	0x0317, r25
     47e:	80 93 16 03 	sts	0x0316, r24
     482:	40 93 c6 00 	sts	0x00C6, r20
     486:	ff 91       	pop	r31
     488:	ef 91       	pop	r30
     48a:	bf 91       	pop	r27
     48c:	af 91       	pop	r26
     48e:	9f 91       	pop	r25
     490:	8f 91       	pop	r24
     492:	7f 91       	pop	r23
     494:	6f 91       	pop	r22
     496:	5f 91       	pop	r21
     498:	4f 91       	pop	r20
     49a:	3f 91       	pop	r19
     49c:	2f 91       	pop	r18
     49e:	0f 90       	pop	r0
     4a0:	0f be       	out	0x3f, r0	; 63
     4a2:	0f 90       	pop	r0
     4a4:	1f 90       	pop	r1
     4a6:	18 95       	reti

000004a8 <_ZN14HardwareSerialC2EP11ring_bufferS1_PVhS3_S3_S3_S3_hhhhh>:
     4a8:	8f 92       	push	r8
     4aa:	af 92       	push	r10
     4ac:	bf 92       	push	r11
     4ae:	cf 92       	push	r12
     4b0:	df 92       	push	r13
     4b2:	ef 92       	push	r14
     4b4:	ff 92       	push	r15
     4b6:	0f 93       	push	r16
     4b8:	1f 93       	push	r17
     4ba:	df 93       	push	r29
     4bc:	cf 93       	push	r28
     4be:	cd b7       	in	r28, 0x3d	; 61
     4c0:	de b7       	in	r29, 0x3e	; 62
     4c2:	fc 01       	movw	r30, r24
     4c4:	13 82       	std	Z+3, r1	; 0x03
     4c6:	12 82       	std	Z+2, r1	; 0x02
     4c8:	88 ee       	ldi	r24, 0xE8	; 232
     4ca:	93 e0       	ldi	r25, 0x03	; 3
     4cc:	a0 e0       	ldi	r26, 0x00	; 0
     4ce:	b0 e0       	ldi	r27, 0x00	; 0
     4d0:	84 83       	std	Z+4, r24	; 0x04
     4d2:	95 83       	std	Z+5, r25	; 0x05
     4d4:	a6 83       	std	Z+6, r26	; 0x06
     4d6:	b7 83       	std	Z+7, r27	; 0x07
     4d8:	8b e5       	ldi	r24, 0x5B	; 91
     4da:	91 e0       	ldi	r25, 0x01	; 1
     4dc:	91 83       	std	Z+1, r25	; 0x01
     4de:	80 83       	st	Z, r24
     4e0:	75 87       	std	Z+13, r23	; 0x0d
     4e2:	64 87       	std	Z+12, r22	; 0x0c
     4e4:	57 87       	std	Z+15, r21	; 0x0f
     4e6:	46 87       	std	Z+14, r20	; 0x0e
     4e8:	31 8b       	std	Z+17, r19	; 0x11
     4ea:	20 8b       	std	Z+16, r18	; 0x10
     4ec:	13 8b       	std	Z+19, r17	; 0x13
     4ee:	02 8b       	std	Z+18, r16	; 0x12
     4f0:	f5 8a       	std	Z+21, r15	; 0x15
     4f2:	e4 8a       	std	Z+20, r14	; 0x14
     4f4:	d7 8a       	std	Z+23, r13	; 0x17
     4f6:	c6 8a       	std	Z+22, r12	; 0x16
     4f8:	b1 8e       	std	Z+25, r11	; 0x19
     4fa:	a0 8e       	std	Z+24, r10	; 0x18
     4fc:	82 8e       	std	Z+26, r8	; 0x1a
     4fe:	8e 85       	ldd	r24, Y+14	; 0x0e
     500:	83 8f       	std	Z+27, r24	; 0x1b
     502:	8f 85       	ldd	r24, Y+15	; 0x0f
     504:	84 8f       	std	Z+28, r24	; 0x1c
     506:	88 89       	ldd	r24, Y+16	; 0x10
     508:	85 8f       	std	Z+29, r24	; 0x1d
     50a:	89 89       	ldd	r24, Y+17	; 0x11
     50c:	86 8f       	std	Z+30, r24	; 0x1e
     50e:	cf 91       	pop	r28
     510:	df 91       	pop	r29
     512:	1f 91       	pop	r17
     514:	0f 91       	pop	r16
     516:	ff 90       	pop	r15
     518:	ef 90       	pop	r14
     51a:	df 90       	pop	r13
     51c:	cf 90       	pop	r12
     51e:	bf 90       	pop	r11
     520:	af 90       	pop	r10
     522:	8f 90       	pop	r8
     524:	08 95       	ret

00000526 <_ZN14HardwareSerialC1EP11ring_bufferS1_PVhS3_S3_S3_S3_hhhhh>:
     526:	8f 92       	push	r8
     528:	af 92       	push	r10
     52a:	bf 92       	push	r11
     52c:	cf 92       	push	r12
     52e:	df 92       	push	r13
     530:	ef 92       	push	r14
     532:	ff 92       	push	r15
     534:	0f 93       	push	r16
     536:	1f 93       	push	r17
     538:	df 93       	push	r29
     53a:	cf 93       	push	r28
     53c:	cd b7       	in	r28, 0x3d	; 61
     53e:	de b7       	in	r29, 0x3e	; 62
     540:	fc 01       	movw	r30, r24
     542:	13 82       	std	Z+3, r1	; 0x03
     544:	12 82       	std	Z+2, r1	; 0x02
     546:	88 ee       	ldi	r24, 0xE8	; 232
     548:	93 e0       	ldi	r25, 0x03	; 3
     54a:	a0 e0       	ldi	r26, 0x00	; 0
     54c:	b0 e0       	ldi	r27, 0x00	; 0
     54e:	84 83       	std	Z+4, r24	; 0x04
     550:	95 83       	std	Z+5, r25	; 0x05
     552:	a6 83       	std	Z+6, r26	; 0x06
     554:	b7 83       	std	Z+7, r27	; 0x07
     556:	8b e5       	ldi	r24, 0x5B	; 91
     558:	91 e0       	ldi	r25, 0x01	; 1
     55a:	91 83       	std	Z+1, r25	; 0x01
     55c:	80 83       	st	Z, r24
     55e:	75 87       	std	Z+13, r23	; 0x0d
     560:	64 87       	std	Z+12, r22	; 0x0c
     562:	57 87       	std	Z+15, r21	; 0x0f
     564:	46 87       	std	Z+14, r20	; 0x0e
     566:	31 8b       	std	Z+17, r19	; 0x11
     568:	20 8b       	std	Z+16, r18	; 0x10
     56a:	13 8b       	std	Z+19, r17	; 0x13
     56c:	02 8b       	std	Z+18, r16	; 0x12
     56e:	f5 8a       	std	Z+21, r15	; 0x15
     570:	e4 8a       	std	Z+20, r14	; 0x14
     572:	d7 8a       	std	Z+23, r13	; 0x17
     574:	c6 8a       	std	Z+22, r12	; 0x16
     576:	b1 8e       	std	Z+25, r11	; 0x19
     578:	a0 8e       	std	Z+24, r10	; 0x18
     57a:	82 8e       	std	Z+26, r8	; 0x1a
     57c:	8e 85       	ldd	r24, Y+14	; 0x0e
     57e:	83 8f       	std	Z+27, r24	; 0x1b
     580:	8f 85       	ldd	r24, Y+15	; 0x0f
     582:	84 8f       	std	Z+28, r24	; 0x1c
     584:	88 89       	ldd	r24, Y+16	; 0x10
     586:	85 8f       	std	Z+29, r24	; 0x1d
     588:	89 89       	ldd	r24, Y+17	; 0x11
     58a:	86 8f       	std	Z+30, r24	; 0x1e
     58c:	cf 91       	pop	r28
     58e:	df 91       	pop	r29
     590:	1f 91       	pop	r17
     592:	0f 91       	pop	r16
     594:	ff 90       	pop	r15
     596:	ef 90       	pop	r14
     598:	df 90       	pop	r13
     59a:	cf 90       	pop	r12
     59c:	bf 90       	pop	r11
     59e:	af 90       	pop	r10
     5a0:	8f 90       	pop	r8
     5a2:	08 95       	ret

000005a4 <_ZN14HardwareSerial5beginEm>:
     5a4:	af 92       	push	r10
     5a6:	bf 92       	push	r11
     5a8:	df 92       	push	r13
     5aa:	ef 92       	push	r14
     5ac:	ff 92       	push	r15
     5ae:	0f 93       	push	r16
     5b0:	1f 93       	push	r17
     5b2:	cf 93       	push	r28
     5b4:	df 93       	push	r29
     5b6:	ec 01       	movw	r28, r24
     5b8:	7a 01       	movw	r14, r20
     5ba:	8b 01       	movw	r16, r22
     5bc:	dd 24       	eor	r13, r13
     5be:	40 30       	cpi	r20, 0x00	; 0
     5c0:	81 ee       	ldi	r24, 0xE1	; 225
     5c2:	58 07       	cpc	r21, r24
     5c4:	80 e0       	ldi	r24, 0x00	; 0
     5c6:	68 07       	cpc	r22, r24
     5c8:	80 e0       	ldi	r24, 0x00	; 0
     5ca:	78 07       	cpc	r23, r24
     5cc:	11 f0       	breq	.+4      	; 0x5d2 <_ZN14HardwareSerial5beginEm+0x2e>
     5ce:	dd 24       	eor	r13, r13
     5d0:	d3 94       	inc	r13
     5d2:	91 e0       	ldi	r25, 0x01	; 1
     5d4:	a9 2e       	mov	r10, r25
     5d6:	b1 2c       	mov	r11, r1
     5d8:	ec 89       	ldd	r30, Y+20	; 0x14
     5da:	fd 89       	ldd	r31, Y+21	; 0x15
     5dc:	dd 20       	and	r13, r13
     5de:	69 f0       	breq	.+26     	; 0x5fa <_ZN14HardwareSerial5beginEm+0x56>
     5e0:	c5 01       	movw	r24, r10
     5e2:	0e 8c       	ldd	r0, Y+30	; 0x1e
     5e4:	02 c0       	rjmp	.+4      	; 0x5ea <_ZN14HardwareSerial5beginEm+0x46>
     5e6:	88 0f       	add	r24, r24
     5e8:	99 1f       	adc	r25, r25
     5ea:	0a 94       	dec	r0
     5ec:	e2 f7       	brpl	.-8      	; 0x5e6 <_ZN14HardwareSerial5beginEm+0x42>
     5ee:	80 83       	st	Z, r24
     5f0:	60 e0       	ldi	r22, 0x00	; 0
     5f2:	79 e0       	ldi	r23, 0x09	; 9
     5f4:	8d e3       	ldi	r24, 0x3D	; 61
     5f6:	90 e0       	ldi	r25, 0x00	; 0
     5f8:	05 c0       	rjmp	.+10     	; 0x604 <_ZN14HardwareSerial5beginEm+0x60>
     5fa:	10 82       	st	Z, r1
     5fc:	60 e8       	ldi	r22, 0x80	; 128
     5fe:	74 e8       	ldi	r23, 0x84	; 132
     600:	8e e1       	ldi	r24, 0x1E	; 30
     602:	90 e0       	ldi	r25, 0x00	; 0
     604:	a8 01       	movw	r20, r16
     606:	97 01       	movw	r18, r14
     608:	0e 94 b1 19 	call	0x3362	; 0x3362 <__udivmodsi4>
     60c:	21 50       	subi	r18, 0x01	; 1
     60e:	30 40       	sbci	r19, 0x00	; 0
     610:	40 40       	sbci	r20, 0x00	; 0
     612:	50 40       	sbci	r21, 0x00	; 0
     614:	56 95       	lsr	r21
     616:	47 95       	ror	r20
     618:	37 95       	ror	r19
     61a:	27 95       	ror	r18
     61c:	80 e1       	ldi	r24, 0x10	; 16
     61e:	20 30       	cpi	r18, 0x00	; 0
     620:	38 07       	cpc	r19, r24
     622:	20 f0       	brcs	.+8      	; 0x62c <_ZN14HardwareSerial5beginEm+0x88>
     624:	dd 20       	and	r13, r13
     626:	11 f0       	breq	.+4      	; 0x62c <_ZN14HardwareSerial5beginEm+0x88>
     628:	dd 24       	eor	r13, r13
     62a:	d6 cf       	rjmp	.-84     	; 0x5d8 <_ZN14HardwareSerial5beginEm+0x34>
     62c:	e8 89       	ldd	r30, Y+16	; 0x10
     62e:	f9 89       	ldd	r31, Y+17	; 0x11
     630:	30 83       	st	Z, r19
     632:	ea 89       	ldd	r30, Y+18	; 0x12
     634:	fb 89       	ldd	r31, Y+19	; 0x13
     636:	20 83       	st	Z, r18
     638:	ee 89       	ldd	r30, Y+22	; 0x16
     63a:	ff 89       	ldd	r31, Y+23	; 0x17
     63c:	40 81       	ld	r20, Z
     63e:	21 e0       	ldi	r18, 0x01	; 1
     640:	30 e0       	ldi	r19, 0x00	; 0
     642:	c9 01       	movw	r24, r18
     644:	0a 8c       	ldd	r0, Y+26	; 0x1a
     646:	02 c0       	rjmp	.+4      	; 0x64c <_ZN14HardwareSerial5beginEm+0xa8>
     648:	88 0f       	add	r24, r24
     64a:	99 1f       	adc	r25, r25
     64c:	0a 94       	dec	r0
     64e:	e2 f7       	brpl	.-8      	; 0x648 <_ZN14HardwareSerial5beginEm+0xa4>
     650:	48 2b       	or	r20, r24
     652:	40 83       	st	Z, r20
     654:	ee 89       	ldd	r30, Y+22	; 0x16
     656:	ff 89       	ldd	r31, Y+23	; 0x17
     658:	40 81       	ld	r20, Z
     65a:	c9 01       	movw	r24, r18
     65c:	0b 8c       	ldd	r0, Y+27	; 0x1b
     65e:	02 c0       	rjmp	.+4      	; 0x664 <_ZN14HardwareSerial5beginEm+0xc0>
     660:	88 0f       	add	r24, r24
     662:	99 1f       	adc	r25, r25
     664:	0a 94       	dec	r0
     666:	e2 f7       	brpl	.-8      	; 0x660 <_ZN14HardwareSerial5beginEm+0xbc>
     668:	48 2b       	or	r20, r24
     66a:	40 83       	st	Z, r20
     66c:	ee 89       	ldd	r30, Y+22	; 0x16
     66e:	ff 89       	ldd	r31, Y+23	; 0x17
     670:	40 81       	ld	r20, Z
     672:	c9 01       	movw	r24, r18
     674:	0c 8c       	ldd	r0, Y+28	; 0x1c
     676:	02 c0       	rjmp	.+4      	; 0x67c <_ZN14HardwareSerial5beginEm+0xd8>
     678:	88 0f       	add	r24, r24
     67a:	99 1f       	adc	r25, r25
     67c:	0a 94       	dec	r0
     67e:	e2 f7       	brpl	.-8      	; 0x678 <_ZN14HardwareSerial5beginEm+0xd4>
     680:	48 2b       	or	r20, r24
     682:	40 83       	st	Z, r20
     684:	ee 89       	ldd	r30, Y+22	; 0x16
     686:	ff 89       	ldd	r31, Y+23	; 0x17
     688:	80 81       	ld	r24, Z
     68a:	0d 8c       	ldd	r0, Y+29	; 0x1d
     68c:	02 c0       	rjmp	.+4      	; 0x692 <_ZN14HardwareSerial5beginEm+0xee>
     68e:	22 0f       	add	r18, r18
     690:	33 1f       	adc	r19, r19
     692:	0a 94       	dec	r0
     694:	e2 f7       	brpl	.-8      	; 0x68e <_ZN14HardwareSerial5beginEm+0xea>
     696:	20 95       	com	r18
     698:	28 23       	and	r18, r24
     69a:	20 83       	st	Z, r18
     69c:	df 91       	pop	r29
     69e:	cf 91       	pop	r28
     6a0:	1f 91       	pop	r17
     6a2:	0f 91       	pop	r16
     6a4:	ff 90       	pop	r15
     6a6:	ef 90       	pop	r14
     6a8:	df 90       	pop	r13
     6aa:	bf 90       	pop	r11
     6ac:	af 90       	pop	r10
     6ae:	08 95       	ret

000006b0 <_ZN14HardwareSerial3endEv>:
     6b0:	cf 93       	push	r28
     6b2:	df 93       	push	r29
     6b4:	dc 01       	movw	r26, r24
     6b6:	1e 96       	adiw	r26, 0x0e	; 14
     6b8:	8d 91       	ld	r24, X+
     6ba:	9c 91       	ld	r25, X
     6bc:	1f 97       	sbiw	r26, 0x0f	; 15
     6be:	ec 01       	movw	r28, r24
     6c0:	c0 5c       	subi	r28, 0xC0	; 192
     6c2:	df 4f       	sbci	r29, 0xFF	; 255
     6c4:	fc 01       	movw	r30, r24
     6c6:	ee 5b       	subi	r30, 0xBE	; 190
     6c8:	ff 4f       	sbci	r31, 0xFF	; 255
     6ca:	28 81       	ld	r18, Y
     6cc:	39 81       	ldd	r19, Y+1	; 0x01
     6ce:	80 81       	ld	r24, Z
     6d0:	91 81       	ldd	r25, Z+1	; 0x01
     6d2:	28 17       	cp	r18, r24
     6d4:	39 07       	cpc	r19, r25
     6d6:	c9 f7       	brne	.-14     	; 0x6ca <_ZN14HardwareSerial3endEv+0x1a>
     6d8:	56 96       	adiw	r26, 0x16	; 22
     6da:	ed 91       	ld	r30, X+
     6dc:	fc 91       	ld	r31, X
     6de:	57 97       	sbiw	r26, 0x17	; 23
     6e0:	40 81       	ld	r20, Z
     6e2:	21 e0       	ldi	r18, 0x01	; 1
     6e4:	30 e0       	ldi	r19, 0x00	; 0
     6e6:	c9 01       	movw	r24, r18
     6e8:	5a 96       	adiw	r26, 0x1a	; 26
     6ea:	0c 90       	ld	r0, X
     6ec:	5a 97       	sbiw	r26, 0x1a	; 26
     6ee:	02 c0       	rjmp	.+4      	; 0x6f4 <_ZN14HardwareSerial3endEv+0x44>
     6f0:	88 0f       	add	r24, r24
     6f2:	99 1f       	adc	r25, r25
     6f4:	0a 94       	dec	r0
     6f6:	e2 f7       	brpl	.-8      	; 0x6f0 <_ZN14HardwareSerial3endEv+0x40>
     6f8:	80 95       	com	r24
     6fa:	84 23       	and	r24, r20
     6fc:	80 83       	st	Z, r24
     6fe:	56 96       	adiw	r26, 0x16	; 22
     700:	ed 91       	ld	r30, X+
     702:	fc 91       	ld	r31, X
     704:	57 97       	sbiw	r26, 0x17	; 23
     706:	40 81       	ld	r20, Z
     708:	c9 01       	movw	r24, r18
     70a:	5b 96       	adiw	r26, 0x1b	; 27
     70c:	0c 90       	ld	r0, X
     70e:	5b 97       	sbiw	r26, 0x1b	; 27
     710:	02 c0       	rjmp	.+4      	; 0x716 <_ZN14HardwareSerial3endEv+0x66>
     712:	88 0f       	add	r24, r24
     714:	99 1f       	adc	r25, r25
     716:	0a 94       	dec	r0
     718:	e2 f7       	brpl	.-8      	; 0x712 <_ZN14HardwareSerial3endEv+0x62>
     71a:	80 95       	com	r24
     71c:	84 23       	and	r24, r20
     71e:	80 83       	st	Z, r24
     720:	56 96       	adiw	r26, 0x16	; 22
     722:	ed 91       	ld	r30, X+
     724:	fc 91       	ld	r31, X
     726:	57 97       	sbiw	r26, 0x17	; 23
     728:	40 81       	ld	r20, Z
     72a:	c9 01       	movw	r24, r18
     72c:	5c 96       	adiw	r26, 0x1c	; 28
     72e:	0c 90       	ld	r0, X
     730:	5c 97       	sbiw	r26, 0x1c	; 28
     732:	02 c0       	rjmp	.+4      	; 0x738 <_ZN14HardwareSerial3endEv+0x88>
     734:	88 0f       	add	r24, r24
     736:	99 1f       	adc	r25, r25
     738:	0a 94       	dec	r0
     73a:	e2 f7       	brpl	.-8      	; 0x734 <_ZN14HardwareSerial3endEv+0x84>
     73c:	80 95       	com	r24
     73e:	84 23       	and	r24, r20
     740:	80 83       	st	Z, r24
     742:	56 96       	adiw	r26, 0x16	; 22
     744:	ed 91       	ld	r30, X+
     746:	fc 91       	ld	r31, X
     748:	57 97       	sbiw	r26, 0x17	; 23
     74a:	80 81       	ld	r24, Z
     74c:	5d 96       	adiw	r26, 0x1d	; 29
     74e:	0c 90       	ld	r0, X
     750:	5d 97       	sbiw	r26, 0x1d	; 29
     752:	02 c0       	rjmp	.+4      	; 0x758 <_ZN14HardwareSerial3endEv+0xa8>
     754:	22 0f       	add	r18, r18
     756:	33 1f       	adc	r19, r19
     758:	0a 94       	dec	r0
     75a:	e2 f7       	brpl	.-8      	; 0x754 <_ZN14HardwareSerial3endEv+0xa4>
     75c:	20 95       	com	r18
     75e:	28 23       	and	r18, r24
     760:	20 83       	st	Z, r18
     762:	1c 96       	adiw	r26, 0x0c	; 12
     764:	ed 91       	ld	r30, X+
     766:	fc 91       	ld	r31, X
     768:	1d 97       	sbiw	r26, 0x0d	; 13
     76a:	ee 5b       	subi	r30, 0xBE	; 190
     76c:	ff 4f       	sbci	r31, 0xFF	; 255
     76e:	80 81       	ld	r24, Z
     770:	91 81       	ldd	r25, Z+1	; 0x01
     772:	92 93       	st	-Z, r25
     774:	82 93       	st	-Z, r24
     776:	df 91       	pop	r29
     778:	cf 91       	pop	r28
     77a:	08 95       	ret

0000077c <_ZN14HardwareSerial9availableEv>:
     77c:	dc 01       	movw	r26, r24
     77e:	1c 96       	adiw	r26, 0x0c	; 12
     780:	ed 91       	ld	r30, X+
     782:	fc 91       	ld	r31, X
     784:	1d 97       	sbiw	r26, 0x0d	; 13
     786:	e0 5c       	subi	r30, 0xC0	; 192
     788:	ff 4f       	sbci	r31, 0xFF	; 255
     78a:	21 91       	ld	r18, Z+
     78c:	31 91       	ld	r19, Z+
     78e:	80 81       	ld	r24, Z
     790:	91 81       	ldd	r25, Z+1	; 0x01
     792:	28 1b       	sub	r18, r24
     794:	39 0b       	sbc	r19, r25
     796:	2f 73       	andi	r18, 0x3F	; 63
     798:	30 70       	andi	r19, 0x00	; 0
     79a:	c9 01       	movw	r24, r18
     79c:	08 95       	ret

0000079e <_ZN14HardwareSerial4peekEv>:
     79e:	dc 01       	movw	r26, r24
     7a0:	1c 96       	adiw	r26, 0x0c	; 12
     7a2:	ed 91       	ld	r30, X+
     7a4:	fc 91       	ld	r31, X
     7a6:	1d 97       	sbiw	r26, 0x0d	; 13
     7a8:	e0 5c       	subi	r30, 0xC0	; 192
     7aa:	ff 4f       	sbci	r31, 0xFF	; 255
     7ac:	20 81       	ld	r18, Z
     7ae:	31 81       	ldd	r19, Z+1	; 0x01
     7b0:	e0 54       	subi	r30, 0x40	; 64
     7b2:	f0 40       	sbci	r31, 0x00	; 0
     7b4:	df 01       	movw	r26, r30
     7b6:	ae 5b       	subi	r26, 0xBE	; 190
     7b8:	bf 4f       	sbci	r27, 0xFF	; 255
     7ba:	8d 91       	ld	r24, X+
     7bc:	9c 91       	ld	r25, X
     7be:	11 97       	sbiw	r26, 0x01	; 1
     7c0:	28 17       	cp	r18, r24
     7c2:	39 07       	cpc	r19, r25
     7c4:	19 f4       	brne	.+6      	; 0x7cc <_ZN14HardwareSerial4peekEv+0x2e>
     7c6:	2f ef       	ldi	r18, 0xFF	; 255
     7c8:	3f ef       	ldi	r19, 0xFF	; 255
     7ca:	07 c0       	rjmp	.+14     	; 0x7da <_ZN14HardwareSerial4peekEv+0x3c>
     7cc:	8d 91       	ld	r24, X+
     7ce:	9c 91       	ld	r25, X
     7d0:	e8 0f       	add	r30, r24
     7d2:	f9 1f       	adc	r31, r25
     7d4:	80 81       	ld	r24, Z
     7d6:	28 2f       	mov	r18, r24
     7d8:	30 e0       	ldi	r19, 0x00	; 0
     7da:	c9 01       	movw	r24, r18
     7dc:	08 95       	ret

000007de <_ZN14HardwareSerial4readEv>:
     7de:	dc 01       	movw	r26, r24
     7e0:	1c 96       	adiw	r26, 0x0c	; 12
     7e2:	ed 91       	ld	r30, X+
     7e4:	fc 91       	ld	r31, X
     7e6:	1d 97       	sbiw	r26, 0x0d	; 13
     7e8:	e0 5c       	subi	r30, 0xC0	; 192
     7ea:	ff 4f       	sbci	r31, 0xFF	; 255
     7ec:	20 81       	ld	r18, Z
     7ee:	31 81       	ldd	r19, Z+1	; 0x01
     7f0:	e0 54       	subi	r30, 0x40	; 64
     7f2:	f0 40       	sbci	r31, 0x00	; 0
     7f4:	df 01       	movw	r26, r30
     7f6:	ae 5b       	subi	r26, 0xBE	; 190
     7f8:	bf 4f       	sbci	r27, 0xFF	; 255
     7fa:	8d 91       	ld	r24, X+
     7fc:	9c 91       	ld	r25, X
     7fe:	11 97       	sbiw	r26, 0x01	; 1
     800:	28 17       	cp	r18, r24
     802:	39 07       	cpc	r19, r25
     804:	19 f4       	brne	.+6      	; 0x80c <_ZN14HardwareSerial4readEv+0x2e>
     806:	2f ef       	ldi	r18, 0xFF	; 255
     808:	3f ef       	ldi	r19, 0xFF	; 255
     80a:	10 c0       	rjmp	.+32     	; 0x82c <_ZN14HardwareSerial4readEv+0x4e>
     80c:	8d 91       	ld	r24, X+
     80e:	9c 91       	ld	r25, X
     810:	11 97       	sbiw	r26, 0x01	; 1
     812:	e8 0f       	add	r30, r24
     814:	f9 1f       	adc	r31, r25
     816:	20 81       	ld	r18, Z
     818:	8d 91       	ld	r24, X+
     81a:	9c 91       	ld	r25, X
     81c:	11 97       	sbiw	r26, 0x01	; 1
     81e:	01 96       	adiw	r24, 0x01	; 1
     820:	8f 73       	andi	r24, 0x3F	; 63
     822:	90 70       	andi	r25, 0x00	; 0
     824:	11 96       	adiw	r26, 0x01	; 1
     826:	9c 93       	st	X, r25
     828:	8e 93       	st	-X, r24
     82a:	30 e0       	ldi	r19, 0x00	; 0
     82c:	c9 01       	movw	r24, r18
     82e:	08 95       	ret

00000830 <_ZN14HardwareSerial5flushEv>:
     830:	fc 01       	movw	r30, r24
     832:	86 85       	ldd	r24, Z+14	; 0x0e
     834:	97 85       	ldd	r25, Z+15	; 0x0f
     836:	dc 01       	movw	r26, r24
     838:	a0 5c       	subi	r26, 0xC0	; 192
     83a:	bf 4f       	sbci	r27, 0xFF	; 255
     83c:	fc 01       	movw	r30, r24
     83e:	ee 5b       	subi	r30, 0xBE	; 190
     840:	ff 4f       	sbci	r31, 0xFF	; 255
     842:	2d 91       	ld	r18, X+
     844:	3c 91       	ld	r19, X
     846:	11 97       	sbiw	r26, 0x01	; 1
     848:	80 81       	ld	r24, Z
     84a:	91 81       	ldd	r25, Z+1	; 0x01
     84c:	28 17       	cp	r18, r24
     84e:	39 07       	cpc	r19, r25
     850:	c1 f7       	brne	.-16     	; 0x842 <_ZN14HardwareSerial5flushEv+0x12>
     852:	08 95       	ret

00000854 <_ZN14HardwareSerial5writeEh>:
     854:	cf 93       	push	r28
     856:	df 93       	push	r29
     858:	ec 01       	movw	r28, r24
     85a:	46 2f       	mov	r20, r22
     85c:	ee 85       	ldd	r30, Y+14	; 0x0e
     85e:	ff 85       	ldd	r31, Y+15	; 0x0f
     860:	e0 5c       	subi	r30, 0xC0	; 192
     862:	ff 4f       	sbci	r31, 0xFF	; 255
     864:	80 81       	ld	r24, Z
     866:	91 81       	ldd	r25, Z+1	; 0x01
     868:	e0 54       	subi	r30, 0x40	; 64
     86a:	f0 40       	sbci	r31, 0x00	; 0
     86c:	01 96       	adiw	r24, 0x01	; 1
     86e:	60 e4       	ldi	r22, 0x40	; 64
     870:	70 e0       	ldi	r23, 0x00	; 0
     872:	0e 94 9e 19 	call	0x333c	; 0x333c <__divmodhi4>
     876:	9c 01       	movw	r18, r24
     878:	df 01       	movw	r26, r30
     87a:	ae 5b       	subi	r26, 0xBE	; 190
     87c:	bf 4f       	sbci	r27, 0xFF	; 255
     87e:	8d 91       	ld	r24, X+
     880:	9c 91       	ld	r25, X
     882:	11 97       	sbiw	r26, 0x01	; 1
     884:	28 17       	cp	r18, r24
     886:	39 07       	cpc	r19, r25
     888:	d1 f3       	breq	.-12     	; 0x87e <_ZN14HardwareSerial5writeEh+0x2a>
     88a:	e0 5c       	subi	r30, 0xC0	; 192
     88c:	ff 4f       	sbci	r31, 0xFF	; 255
     88e:	80 81       	ld	r24, Z
     890:	91 81       	ldd	r25, Z+1	; 0x01
     892:	e0 54       	subi	r30, 0x40	; 64
     894:	f0 40       	sbci	r31, 0x00	; 0
     896:	e8 0f       	add	r30, r24
     898:	f9 1f       	adc	r31, r25
     89a:	40 83       	st	Z, r20
     89c:	ee 85       	ldd	r30, Y+14	; 0x0e
     89e:	ff 85       	ldd	r31, Y+15	; 0x0f
     8a0:	e0 5c       	subi	r30, 0xC0	; 192
     8a2:	ff 4f       	sbci	r31, 0xFF	; 255
     8a4:	31 83       	std	Z+1, r19	; 0x01
     8a6:	20 83       	st	Z, r18
     8a8:	ee 89       	ldd	r30, Y+22	; 0x16
     8aa:	ff 89       	ldd	r31, Y+23	; 0x17
     8ac:	20 81       	ld	r18, Z
     8ae:	81 e0       	ldi	r24, 0x01	; 1
     8b0:	90 e0       	ldi	r25, 0x00	; 0
     8b2:	0d 8c       	ldd	r0, Y+29	; 0x1d
     8b4:	02 c0       	rjmp	.+4      	; 0x8ba <_ZN14HardwareSerial5writeEh+0x66>
     8b6:	88 0f       	add	r24, r24
     8b8:	99 1f       	adc	r25, r25
     8ba:	0a 94       	dec	r0
     8bc:	e2 f7       	brpl	.-8      	; 0x8b6 <_ZN14HardwareSerial5writeEh+0x62>
     8be:	28 2b       	or	r18, r24
     8c0:	20 83       	st	Z, r18
     8c2:	81 e0       	ldi	r24, 0x01	; 1
     8c4:	90 e0       	ldi	r25, 0x00	; 0
     8c6:	df 91       	pop	r29
     8c8:	cf 91       	pop	r28
     8ca:	08 95       	ret

000008cc <_GLOBAL__I_rx_buffer>:
     8cc:	10 92 1b 03 	sts	0x031B, r1
     8d0:	10 92 1a 03 	sts	0x031A, r1
     8d4:	88 ee       	ldi	r24, 0xE8	; 232
     8d6:	93 e0       	ldi	r25, 0x03	; 3
     8d8:	a0 e0       	ldi	r26, 0x00	; 0
     8da:	b0 e0       	ldi	r27, 0x00	; 0
     8dc:	80 93 1c 03 	sts	0x031C, r24
     8e0:	90 93 1d 03 	sts	0x031D, r25
     8e4:	a0 93 1e 03 	sts	0x031E, r26
     8e8:	b0 93 1f 03 	sts	0x031F, r27
     8ec:	8b e5       	ldi	r24, 0x5B	; 91
     8ee:	91 e0       	ldi	r25, 0x01	; 1
     8f0:	90 93 19 03 	sts	0x0319, r25
     8f4:	80 93 18 03 	sts	0x0318, r24
     8f8:	80 e9       	ldi	r24, 0x90	; 144
     8fa:	92 e0       	ldi	r25, 0x02	; 2
     8fc:	90 93 25 03 	sts	0x0325, r25
     900:	80 93 24 03 	sts	0x0324, r24
     904:	84 ed       	ldi	r24, 0xD4	; 212
     906:	92 e0       	ldi	r25, 0x02	; 2
     908:	90 93 27 03 	sts	0x0327, r25
     90c:	80 93 26 03 	sts	0x0326, r24
     910:	85 ec       	ldi	r24, 0xC5	; 197
     912:	90 e0       	ldi	r25, 0x00	; 0
     914:	90 93 29 03 	sts	0x0329, r25
     918:	80 93 28 03 	sts	0x0328, r24
     91c:	84 ec       	ldi	r24, 0xC4	; 196
     91e:	90 e0       	ldi	r25, 0x00	; 0
     920:	90 93 2b 03 	sts	0x032B, r25
     924:	80 93 2a 03 	sts	0x032A, r24
     928:	80 ec       	ldi	r24, 0xC0	; 192
     92a:	90 e0       	ldi	r25, 0x00	; 0
     92c:	90 93 2d 03 	sts	0x032D, r25
     930:	80 93 2c 03 	sts	0x032C, r24
     934:	81 ec       	ldi	r24, 0xC1	; 193
     936:	90 e0       	ldi	r25, 0x00	; 0
     938:	90 93 2f 03 	sts	0x032F, r25
     93c:	80 93 2e 03 	sts	0x032E, r24
     940:	86 ec       	ldi	r24, 0xC6	; 198
     942:	90 e0       	ldi	r25, 0x00	; 0
     944:	90 93 31 03 	sts	0x0331, r25
     948:	80 93 30 03 	sts	0x0330, r24
     94c:	84 e0       	ldi	r24, 0x04	; 4
     94e:	80 93 32 03 	sts	0x0332, r24
     952:	83 e0       	ldi	r24, 0x03	; 3
     954:	80 93 33 03 	sts	0x0333, r24
     958:	87 e0       	ldi	r24, 0x07	; 7
     95a:	80 93 34 03 	sts	0x0334, r24
     95e:	85 e0       	ldi	r24, 0x05	; 5
     960:	80 93 35 03 	sts	0x0335, r24
     964:	81 e0       	ldi	r24, 0x01	; 1
     966:	80 93 36 03 	sts	0x0336, r24
     96a:	08 95       	ret

0000096c <_ZN5Print5writeEPKhj>:
     96c:	cf 92       	push	r12
     96e:	df 92       	push	r13
     970:	ef 92       	push	r14
     972:	ff 92       	push	r15
     974:	0f 93       	push	r16
     976:	1f 93       	push	r17
     978:	cf 93       	push	r28
     97a:	df 93       	push	r29
     97c:	7c 01       	movw	r14, r24
     97e:	6b 01       	movw	r12, r22
     980:	8a 01       	movw	r16, r20
     982:	c0 e0       	ldi	r28, 0x00	; 0
     984:	d0 e0       	ldi	r29, 0x00	; 0
     986:	0f c0       	rjmp	.+30     	; 0x9a6 <_ZN5Print5writeEPKhj+0x3a>
     988:	d6 01       	movw	r26, r12
     98a:	6d 91       	ld	r22, X+
     98c:	6d 01       	movw	r12, r26
     98e:	d7 01       	movw	r26, r14
     990:	ed 91       	ld	r30, X+
     992:	fc 91       	ld	r31, X
     994:	01 90       	ld	r0, Z+
     996:	f0 81       	ld	r31, Z
     998:	e0 2d       	mov	r30, r0
     99a:	c7 01       	movw	r24, r14
     99c:	09 95       	icall
     99e:	c8 0f       	add	r28, r24
     9a0:	d9 1f       	adc	r29, r25
     9a2:	01 50       	subi	r16, 0x01	; 1
     9a4:	10 40       	sbci	r17, 0x00	; 0
     9a6:	01 15       	cp	r16, r1
     9a8:	11 05       	cpc	r17, r1
     9aa:	71 f7       	brne	.-36     	; 0x988 <_ZN5Print5writeEPKhj+0x1c>
     9ac:	ce 01       	movw	r24, r28
     9ae:	df 91       	pop	r29
     9b0:	cf 91       	pop	r28
     9b2:	1f 91       	pop	r17
     9b4:	0f 91       	pop	r16
     9b6:	ff 90       	pop	r15
     9b8:	ef 90       	pop	r14
     9ba:	df 90       	pop	r13
     9bc:	cf 90       	pop	r12
     9be:	08 95       	ret

000009c0 <_ZN5Print5printEPK19__FlashStringHelper>:
     9c0:	ef 92       	push	r14
     9c2:	ff 92       	push	r15
     9c4:	0f 93       	push	r16
     9c6:	1f 93       	push	r17
     9c8:	cf 93       	push	r28
     9ca:	df 93       	push	r29
     9cc:	7c 01       	movw	r14, r24
     9ce:	8b 01       	movw	r16, r22
     9d0:	c0 e0       	ldi	r28, 0x00	; 0
     9d2:	d0 e0       	ldi	r29, 0x00	; 0
     9d4:	f8 01       	movw	r30, r16
     9d6:	0f 5f       	subi	r16, 0xFF	; 255
     9d8:	1f 4f       	sbci	r17, 0xFF	; 255
     9da:	64 91       	lpm	r22, Z+
     9dc:	66 23       	and	r22, r22
     9de:	59 f0       	breq	.+22     	; 0x9f6 <_ZN5Print5printEPK19__FlashStringHelper+0x36>
     9e0:	d7 01       	movw	r26, r14
     9e2:	ed 91       	ld	r30, X+
     9e4:	fc 91       	ld	r31, X
     9e6:	01 90       	ld	r0, Z+
     9e8:	f0 81       	ld	r31, Z
     9ea:	e0 2d       	mov	r30, r0
     9ec:	c7 01       	movw	r24, r14
     9ee:	09 95       	icall
     9f0:	c8 0f       	add	r28, r24
     9f2:	d9 1f       	adc	r29, r25
     9f4:	ef cf       	rjmp	.-34     	; 0x9d4 <_ZN5Print5printEPK19__FlashStringHelper+0x14>
     9f6:	ce 01       	movw	r24, r28
     9f8:	df 91       	pop	r29
     9fa:	cf 91       	pop	r28
     9fc:	1f 91       	pop	r17
     9fe:	0f 91       	pop	r16
     a00:	ff 90       	pop	r15
     a02:	ef 90       	pop	r14
     a04:	08 95       	ret

00000a06 <_ZN5Print5printEc>:
     a06:	dc 01       	movw	r26, r24
     a08:	ed 91       	ld	r30, X+
     a0a:	fc 91       	ld	r31, X
     a0c:	01 90       	ld	r0, Z+
     a0e:	f0 81       	ld	r31, Z
     a10:	e0 2d       	mov	r30, r0
     a12:	09 95       	icall
     a14:	08 95       	ret

00000a16 <_ZN5Print5printERK9Printable>:
     a16:	9c 01       	movw	r18, r24
     a18:	db 01       	movw	r26, r22
     a1a:	ed 91       	ld	r30, X+
     a1c:	fc 91       	ld	r31, X
     a1e:	01 90       	ld	r0, Z+
     a20:	f0 81       	ld	r31, Z
     a22:	e0 2d       	mov	r30, r0
     a24:	cb 01       	movw	r24, r22
     a26:	b9 01       	movw	r22, r18
     a28:	09 95       	icall
     a2a:	08 95       	ret

00000a2c <_ZN5Print7printlnEv>:
     a2c:	ef 92       	push	r14
     a2e:	ff 92       	push	r15
     a30:	0f 93       	push	r16
     a32:	1f 93       	push	r17
     a34:	8c 01       	movw	r16, r24
     a36:	dc 01       	movw	r26, r24
     a38:	ed 91       	ld	r30, X+
     a3a:	fc 91       	ld	r31, X
     a3c:	01 90       	ld	r0, Z+
     a3e:	f0 81       	ld	r31, Z
     a40:	e0 2d       	mov	r30, r0
     a42:	6d e0       	ldi	r22, 0x0D	; 13
     a44:	09 95       	icall
     a46:	7c 01       	movw	r14, r24
     a48:	d8 01       	movw	r26, r16
     a4a:	ed 91       	ld	r30, X+
     a4c:	fc 91       	ld	r31, X
     a4e:	01 90       	ld	r0, Z+
     a50:	f0 81       	ld	r31, Z
     a52:	e0 2d       	mov	r30, r0
     a54:	c8 01       	movw	r24, r16
     a56:	6a e0       	ldi	r22, 0x0A	; 10
     a58:	09 95       	icall
     a5a:	9c 01       	movw	r18, r24
     a5c:	2e 0d       	add	r18, r14
     a5e:	3f 1d       	adc	r19, r15
     a60:	c9 01       	movw	r24, r18
     a62:	1f 91       	pop	r17
     a64:	0f 91       	pop	r16
     a66:	ff 90       	pop	r15
     a68:	ef 90       	pop	r14
     a6a:	08 95       	ret

00000a6c <_ZN5Print7printlnEPK19__FlashStringHelper>:
     a6c:	ef 92       	push	r14
     a6e:	ff 92       	push	r15
     a70:	0f 93       	push	r16
     a72:	1f 93       	push	r17
     a74:	7c 01       	movw	r14, r24
     a76:	0e 94 e0 04 	call	0x9c0	; 0x9c0 <_ZN5Print5printEPK19__FlashStringHelper>
     a7a:	8c 01       	movw	r16, r24
     a7c:	c7 01       	movw	r24, r14
     a7e:	0e 94 16 05 	call	0xa2c	; 0xa2c <_ZN5Print7printlnEv>
     a82:	9c 01       	movw	r18, r24
     a84:	20 0f       	add	r18, r16
     a86:	31 1f       	adc	r19, r17
     a88:	c9 01       	movw	r24, r18
     a8a:	1f 91       	pop	r17
     a8c:	0f 91       	pop	r16
     a8e:	ff 90       	pop	r15
     a90:	ef 90       	pop	r14
     a92:	08 95       	ret

00000a94 <_ZN5Print7printlnEc>:
     a94:	ef 92       	push	r14
     a96:	ff 92       	push	r15
     a98:	0f 93       	push	r16
     a9a:	1f 93       	push	r17
     a9c:	7c 01       	movw	r14, r24
     a9e:	dc 01       	movw	r26, r24
     aa0:	ed 91       	ld	r30, X+
     aa2:	fc 91       	ld	r31, X
     aa4:	01 90       	ld	r0, Z+
     aa6:	f0 81       	ld	r31, Z
     aa8:	e0 2d       	mov	r30, r0
     aaa:	09 95       	icall
     aac:	8c 01       	movw	r16, r24
     aae:	c7 01       	movw	r24, r14
     ab0:	0e 94 16 05 	call	0xa2c	; 0xa2c <_ZN5Print7printlnEv>
     ab4:	08 0f       	add	r16, r24
     ab6:	19 1f       	adc	r17, r25
     ab8:	c8 01       	movw	r24, r16
     aba:	1f 91       	pop	r17
     abc:	0f 91       	pop	r16
     abe:	ff 90       	pop	r15
     ac0:	ef 90       	pop	r14
     ac2:	08 95       	ret

00000ac4 <_ZN5Print7printlnERK9Printable>:
     ac4:	ef 92       	push	r14
     ac6:	ff 92       	push	r15
     ac8:	0f 93       	push	r16
     aca:	1f 93       	push	r17
     acc:	7c 01       	movw	r14, r24
     ace:	db 01       	movw	r26, r22
     ad0:	ed 91       	ld	r30, X+
     ad2:	fc 91       	ld	r31, X
     ad4:	01 90       	ld	r0, Z+
     ad6:	f0 81       	ld	r31, Z
     ad8:	e0 2d       	mov	r30, r0
     ada:	cb 01       	movw	r24, r22
     adc:	b7 01       	movw	r22, r14
     ade:	09 95       	icall
     ae0:	8c 01       	movw	r16, r24
     ae2:	c7 01       	movw	r24, r14
     ae4:	0e 94 16 05 	call	0xa2c	; 0xa2c <_ZN5Print7printlnEv>
     ae8:	08 0f       	add	r16, r24
     aea:	19 1f       	adc	r17, r25
     aec:	c8 01       	movw	r24, r16
     aee:	1f 91       	pop	r17
     af0:	0f 91       	pop	r16
     af2:	ff 90       	pop	r15
     af4:	ef 90       	pop	r14
     af6:	08 95       	ret

00000af8 <_ZN5Print5writeEPKc>:
     af8:	cf 93       	push	r28
     afa:	df 93       	push	r29
     afc:	db 01       	movw	r26, r22
     afe:	0d 90       	ld	r0, X+
     b00:	00 20       	and	r0, r0
     b02:	e9 f7       	brne	.-6      	; 0xafe <_ZN5Print5writeEPKc+0x6>
     b04:	11 97       	sbiw	r26, 0x01	; 1
     b06:	a6 1b       	sub	r26, r22
     b08:	b7 0b       	sbc	r27, r23
     b0a:	ec 01       	movw	r28, r24
     b0c:	e8 81       	ld	r30, Y
     b0e:	f9 81       	ldd	r31, Y+1	; 0x01
     b10:	02 80       	ldd	r0, Z+2	; 0x02
     b12:	f3 81       	ldd	r31, Z+3	; 0x03
     b14:	e0 2d       	mov	r30, r0
     b16:	ad 01       	movw	r20, r26
     b18:	09 95       	icall
     b1a:	df 91       	pop	r29
     b1c:	cf 91       	pop	r28
     b1e:	08 95       	ret

00000b20 <_ZN5Print11printNumberEmh>:
     b20:	4f 92       	push	r4
     b22:	5f 92       	push	r5
     b24:	7f 92       	push	r7
     b26:	8f 92       	push	r8
     b28:	9f 92       	push	r9
     b2a:	af 92       	push	r10
     b2c:	bf 92       	push	r11
     b2e:	cf 92       	push	r12
     b30:	df 92       	push	r13
     b32:	ef 92       	push	r14
     b34:	ff 92       	push	r15
     b36:	0f 93       	push	r16
     b38:	1f 93       	push	r17
     b3a:	df 93       	push	r29
     b3c:	cf 93       	push	r28
     b3e:	cd b7       	in	r28, 0x3d	; 61
     b40:	de b7       	in	r29, 0x3e	; 62
     b42:	a1 97       	sbiw	r28, 0x21	; 33
     b44:	0f b6       	in	r0, 0x3f	; 63
     b46:	f8 94       	cli
     b48:	de bf       	out	0x3e, r29	; 62
     b4a:	0f be       	out	0x3f, r0	; 63
     b4c:	cd bf       	out	0x3d, r28	; 61
     b4e:	2c 01       	movw	r4, r24
     b50:	74 2e       	mov	r7, r20
     b52:	cb 01       	movw	r24, r22
     b54:	22 30       	cpi	r18, 0x02	; 2
     b56:	08 f4       	brcc	.+2      	; 0xb5a <_ZN5Print11printNumberEmh+0x3a>
     b58:	2a e0       	ldi	r18, 0x0A	; 10
     b5a:	19 a2       	std	Y+33, r1	; 0x21
     b5c:	31 e2       	ldi	r19, 0x21	; 33
     b5e:	c3 2e       	mov	r12, r19
     b60:	d1 2c       	mov	r13, r1
     b62:	cc 0e       	add	r12, r28
     b64:	dd 1e       	adc	r13, r29
     b66:	82 2e       	mov	r8, r18
     b68:	99 24       	eor	r9, r9
     b6a:	aa 24       	eor	r10, r10
     b6c:	bb 24       	eor	r11, r11
     b6e:	67 2d       	mov	r22, r7
     b70:	75 2f       	mov	r23, r21
     b72:	a5 01       	movw	r20, r10
     b74:	94 01       	movw	r18, r8
     b76:	0e 94 b1 19 	call	0x3362	; 0x3362 <__udivmodsi4>
     b7a:	79 01       	movw	r14, r18
     b7c:	8a 01       	movw	r16, r20
     b7e:	c8 01       	movw	r24, r16
     b80:	b7 01       	movw	r22, r14
     b82:	a5 01       	movw	r20, r10
     b84:	94 01       	movw	r18, r8
     b86:	0e 94 7f 19 	call	0x32fe	; 0x32fe <__mulsi3>
     b8a:	47 2d       	mov	r20, r7
     b8c:	46 1b       	sub	r20, r22
     b8e:	08 94       	sec
     b90:	c1 08       	sbc	r12, r1
     b92:	d1 08       	sbc	r13, r1
     b94:	4a 30       	cpi	r20, 0x0A	; 10
     b96:	10 f4       	brcc	.+4      	; 0xb9c <_ZN5Print11printNumberEmh+0x7c>
     b98:	40 5d       	subi	r20, 0xD0	; 208
     b9a:	01 c0       	rjmp	.+2      	; 0xb9e <_ZN5Print11printNumberEmh+0x7e>
     b9c:	49 5c       	subi	r20, 0xC9	; 201
     b9e:	f6 01       	movw	r30, r12
     ba0:	40 83       	st	Z, r20
     ba2:	e1 14       	cp	r14, r1
     ba4:	f1 04       	cpc	r15, r1
     ba6:	01 05       	cpc	r16, r1
     ba8:	11 05       	cpc	r17, r1
     baa:	21 f0       	breq	.+8      	; 0xbb4 <_ZN5Print11printNumberEmh+0x94>
     bac:	7e 2c       	mov	r7, r14
     bae:	5f 2d       	mov	r21, r15
     bb0:	c8 01       	movw	r24, r16
     bb2:	dd cf       	rjmp	.-70     	; 0xb6e <_ZN5Print11printNumberEmh+0x4e>
     bb4:	c2 01       	movw	r24, r4
     bb6:	b6 01       	movw	r22, r12
     bb8:	0e 94 7c 05 	call	0xaf8	; 0xaf8 <_ZN5Print5writeEPKc>
     bbc:	a1 96       	adiw	r28, 0x21	; 33
     bbe:	0f b6       	in	r0, 0x3f	; 63
     bc0:	f8 94       	cli
     bc2:	de bf       	out	0x3e, r29	; 62
     bc4:	0f be       	out	0x3f, r0	; 63
     bc6:	cd bf       	out	0x3d, r28	; 61
     bc8:	cf 91       	pop	r28
     bca:	df 91       	pop	r29
     bcc:	1f 91       	pop	r17
     bce:	0f 91       	pop	r16
     bd0:	ff 90       	pop	r15
     bd2:	ef 90       	pop	r14
     bd4:	df 90       	pop	r13
     bd6:	cf 90       	pop	r12
     bd8:	bf 90       	pop	r11
     bda:	af 90       	pop	r10
     bdc:	9f 90       	pop	r9
     bde:	8f 90       	pop	r8
     be0:	7f 90       	pop	r7
     be2:	5f 90       	pop	r5
     be4:	4f 90       	pop	r4
     be6:	08 95       	ret

00000be8 <_ZN5Print5printEmi>:
     be8:	dc 01       	movw	r26, r24
     bea:	21 15       	cp	r18, r1
     bec:	31 05       	cpc	r19, r1
     bee:	41 f4       	brne	.+16     	; 0xc00 <_ZN5Print5printEmi+0x18>
     bf0:	ed 91       	ld	r30, X+
     bf2:	fc 91       	ld	r31, X
     bf4:	01 90       	ld	r0, Z+
     bf6:	f0 81       	ld	r31, Z
     bf8:	e0 2d       	mov	r30, r0
     bfa:	64 2f       	mov	r22, r20
     bfc:	09 95       	icall
     bfe:	08 95       	ret
     c00:	0e 94 90 05 	call	0xb20	; 0xb20 <_ZN5Print11printNumberEmh>
     c04:	08 95       	ret

00000c06 <_ZN5Print7printlnEmi>:
     c06:	ef 92       	push	r14
     c08:	ff 92       	push	r15
     c0a:	0f 93       	push	r16
     c0c:	1f 93       	push	r17
     c0e:	7c 01       	movw	r14, r24
     c10:	0e 94 f4 05 	call	0xbe8	; 0xbe8 <_ZN5Print5printEmi>
     c14:	8c 01       	movw	r16, r24
     c16:	c7 01       	movw	r24, r14
     c18:	0e 94 16 05 	call	0xa2c	; 0xa2c <_ZN5Print7printlnEv>
     c1c:	9c 01       	movw	r18, r24
     c1e:	20 0f       	add	r18, r16
     c20:	31 1f       	adc	r19, r17
     c22:	c9 01       	movw	r24, r18
     c24:	1f 91       	pop	r17
     c26:	0f 91       	pop	r16
     c28:	ff 90       	pop	r15
     c2a:	ef 90       	pop	r14
     c2c:	08 95       	ret

00000c2e <_ZN5Print5printEji>:
     c2e:	ef 92       	push	r14
     c30:	ff 92       	push	r15
     c32:	0f 93       	push	r16
     c34:	1f 93       	push	r17
     c36:	9a 01       	movw	r18, r20
     c38:	7b 01       	movw	r14, r22
     c3a:	00 e0       	ldi	r16, 0x00	; 0
     c3c:	10 e0       	ldi	r17, 0x00	; 0
     c3e:	b8 01       	movw	r22, r16
     c40:	a7 01       	movw	r20, r14
     c42:	0e 94 f4 05 	call	0xbe8	; 0xbe8 <_ZN5Print5printEmi>
     c46:	1f 91       	pop	r17
     c48:	0f 91       	pop	r16
     c4a:	ff 90       	pop	r15
     c4c:	ef 90       	pop	r14
     c4e:	08 95       	ret

00000c50 <_ZN5Print7printlnEji>:
     c50:	cf 92       	push	r12
     c52:	df 92       	push	r13
     c54:	ef 92       	push	r14
     c56:	ff 92       	push	r15
     c58:	0f 93       	push	r16
     c5a:	1f 93       	push	r17
     c5c:	6c 01       	movw	r12, r24
     c5e:	7b 01       	movw	r14, r22
     c60:	9a 01       	movw	r18, r20
     c62:	00 e0       	ldi	r16, 0x00	; 0
     c64:	10 e0       	ldi	r17, 0x00	; 0
     c66:	b8 01       	movw	r22, r16
     c68:	a7 01       	movw	r20, r14
     c6a:	0e 94 f4 05 	call	0xbe8	; 0xbe8 <_ZN5Print5printEmi>
     c6e:	8c 01       	movw	r16, r24
     c70:	c6 01       	movw	r24, r12
     c72:	0e 94 16 05 	call	0xa2c	; 0xa2c <_ZN5Print7printlnEv>
     c76:	08 0f       	add	r16, r24
     c78:	19 1f       	adc	r17, r25
     c7a:	c8 01       	movw	r24, r16
     c7c:	1f 91       	pop	r17
     c7e:	0f 91       	pop	r16
     c80:	ff 90       	pop	r15
     c82:	ef 90       	pop	r14
     c84:	df 90       	pop	r13
     c86:	cf 90       	pop	r12
     c88:	08 95       	ret

00000c8a <_ZN5Print5printEhi>:
     c8a:	ef 92       	push	r14
     c8c:	ff 92       	push	r15
     c8e:	0f 93       	push	r16
     c90:	1f 93       	push	r17
     c92:	9a 01       	movw	r18, r20
     c94:	e6 2e       	mov	r14, r22
     c96:	ff 24       	eor	r15, r15
     c98:	00 e0       	ldi	r16, 0x00	; 0
     c9a:	10 e0       	ldi	r17, 0x00	; 0
     c9c:	b8 01       	movw	r22, r16
     c9e:	a7 01       	movw	r20, r14
     ca0:	0e 94 f4 05 	call	0xbe8	; 0xbe8 <_ZN5Print5printEmi>
     ca4:	1f 91       	pop	r17
     ca6:	0f 91       	pop	r16
     ca8:	ff 90       	pop	r15
     caa:	ef 90       	pop	r14
     cac:	08 95       	ret

00000cae <_ZN5Print7printlnEhi>:
     cae:	cf 92       	push	r12
     cb0:	df 92       	push	r13
     cb2:	ef 92       	push	r14
     cb4:	ff 92       	push	r15
     cb6:	0f 93       	push	r16
     cb8:	1f 93       	push	r17
     cba:	6c 01       	movw	r12, r24
     cbc:	e6 2e       	mov	r14, r22
     cbe:	9a 01       	movw	r18, r20
     cc0:	ff 24       	eor	r15, r15
     cc2:	00 e0       	ldi	r16, 0x00	; 0
     cc4:	10 e0       	ldi	r17, 0x00	; 0
     cc6:	b8 01       	movw	r22, r16
     cc8:	a7 01       	movw	r20, r14
     cca:	0e 94 f4 05 	call	0xbe8	; 0xbe8 <_ZN5Print5printEmi>
     cce:	8c 01       	movw	r16, r24
     cd0:	c6 01       	movw	r24, r12
     cd2:	0e 94 16 05 	call	0xa2c	; 0xa2c <_ZN5Print7printlnEv>
     cd6:	08 0f       	add	r16, r24
     cd8:	19 1f       	adc	r17, r25
     cda:	c8 01       	movw	r24, r16
     cdc:	1f 91       	pop	r17
     cde:	0f 91       	pop	r16
     ce0:	ff 90       	pop	r15
     ce2:	ef 90       	pop	r14
     ce4:	df 90       	pop	r13
     ce6:	cf 90       	pop	r12
     ce8:	08 95       	ret

00000cea <_ZN5Print5printEli>:
     cea:	cf 92       	push	r12
     cec:	df 92       	push	r13
     cee:	ef 92       	push	r14
     cf0:	ff 92       	push	r15
     cf2:	0f 93       	push	r16
     cf4:	1f 93       	push	r17
     cf6:	cf 93       	push	r28
     cf8:	df 93       	push	r29
     cfa:	ec 01       	movw	r28, r24
     cfc:	6a 01       	movw	r12, r20
     cfe:	7b 01       	movw	r14, r22
     d00:	21 15       	cp	r18, r1
     d02:	31 05       	cpc	r19, r1
     d04:	41 f4       	brne	.+16     	; 0xd16 <_ZN5Print5printEli+0x2c>
     d06:	e8 81       	ld	r30, Y
     d08:	f9 81       	ldd	r31, Y+1	; 0x01
     d0a:	01 90       	ld	r0, Z+
     d0c:	f0 81       	ld	r31, Z
     d0e:	e0 2d       	mov	r30, r0
     d10:	64 2f       	mov	r22, r20
     d12:	09 95       	icall
     d14:	1f c0       	rjmp	.+62     	; 0xd54 <_ZN5Print5printEli+0x6a>
     d16:	2a 30       	cpi	r18, 0x0A	; 10
     d18:	31 05       	cpc	r19, r1
     d1a:	d1 f4       	brne	.+52     	; 0xd50 <_ZN5Print5printEli+0x66>
     d1c:	77 ff       	sbrs	r23, 7
     d1e:	17 c0       	rjmp	.+46     	; 0xd4e <_ZN5Print5printEli+0x64>
     d20:	e8 81       	ld	r30, Y
     d22:	f9 81       	ldd	r31, Y+1	; 0x01
     d24:	01 90       	ld	r0, Z+
     d26:	f0 81       	ld	r31, Z
     d28:	e0 2d       	mov	r30, r0
     d2a:	6d e2       	ldi	r22, 0x2D	; 45
     d2c:	09 95       	icall
     d2e:	8c 01       	movw	r16, r24
     d30:	44 27       	eor	r20, r20
     d32:	55 27       	eor	r21, r21
     d34:	ba 01       	movw	r22, r20
     d36:	4c 19       	sub	r20, r12
     d38:	5d 09       	sbc	r21, r13
     d3a:	6e 09       	sbc	r22, r14
     d3c:	7f 09       	sbc	r23, r15
     d3e:	ce 01       	movw	r24, r28
     d40:	2a e0       	ldi	r18, 0x0A	; 10
     d42:	0e 94 90 05 	call	0xb20	; 0xb20 <_ZN5Print11printNumberEmh>
     d46:	98 01       	movw	r18, r16
     d48:	28 0f       	add	r18, r24
     d4a:	39 1f       	adc	r19, r25
     d4c:	04 c0       	rjmp	.+8      	; 0xd56 <_ZN5Print5printEli+0x6c>
     d4e:	2a e0       	ldi	r18, 0x0A	; 10
     d50:	0e 94 90 05 	call	0xb20	; 0xb20 <_ZN5Print11printNumberEmh>
     d54:	9c 01       	movw	r18, r24
     d56:	c9 01       	movw	r24, r18
     d58:	df 91       	pop	r29
     d5a:	cf 91       	pop	r28
     d5c:	1f 91       	pop	r17
     d5e:	0f 91       	pop	r16
     d60:	ff 90       	pop	r15
     d62:	ef 90       	pop	r14
     d64:	df 90       	pop	r13
     d66:	cf 90       	pop	r12
     d68:	08 95       	ret

00000d6a <_ZN5Print7printlnEli>:
     d6a:	ef 92       	push	r14
     d6c:	ff 92       	push	r15
     d6e:	0f 93       	push	r16
     d70:	1f 93       	push	r17
     d72:	7c 01       	movw	r14, r24
     d74:	0e 94 75 06 	call	0xcea	; 0xcea <_ZN5Print5printEli>
     d78:	8c 01       	movw	r16, r24
     d7a:	c7 01       	movw	r24, r14
     d7c:	0e 94 16 05 	call	0xa2c	; 0xa2c <_ZN5Print7printlnEv>
     d80:	9c 01       	movw	r18, r24
     d82:	20 0f       	add	r18, r16
     d84:	31 1f       	adc	r19, r17
     d86:	c9 01       	movw	r24, r18
     d88:	1f 91       	pop	r17
     d8a:	0f 91       	pop	r16
     d8c:	ff 90       	pop	r15
     d8e:	ef 90       	pop	r14
     d90:	08 95       	ret

00000d92 <_ZN5Print5printEii>:
     d92:	ef 92       	push	r14
     d94:	ff 92       	push	r15
     d96:	0f 93       	push	r16
     d98:	1f 93       	push	r17
     d9a:	7b 01       	movw	r14, r22
     d9c:	9a 01       	movw	r18, r20
     d9e:	00 27       	eor	r16, r16
     da0:	f7 fc       	sbrc	r15, 7
     da2:	00 95       	com	r16
     da4:	10 2f       	mov	r17, r16
     da6:	b8 01       	movw	r22, r16
     da8:	a7 01       	movw	r20, r14
     daa:	0e 94 75 06 	call	0xcea	; 0xcea <_ZN5Print5printEli>
     dae:	1f 91       	pop	r17
     db0:	0f 91       	pop	r16
     db2:	ff 90       	pop	r15
     db4:	ef 90       	pop	r14
     db6:	08 95       	ret

00000db8 <_ZN5Print7printlnEii>:
     db8:	cf 92       	push	r12
     dba:	df 92       	push	r13
     dbc:	ef 92       	push	r14
     dbe:	ff 92       	push	r15
     dc0:	0f 93       	push	r16
     dc2:	1f 93       	push	r17
     dc4:	6c 01       	movw	r12, r24
     dc6:	7b 01       	movw	r14, r22
     dc8:	9a 01       	movw	r18, r20
     dca:	00 27       	eor	r16, r16
     dcc:	f7 fc       	sbrc	r15, 7
     dce:	00 95       	com	r16
     dd0:	10 2f       	mov	r17, r16
     dd2:	b8 01       	movw	r22, r16
     dd4:	a7 01       	movw	r20, r14
     dd6:	0e 94 75 06 	call	0xcea	; 0xcea <_ZN5Print5printEli>
     dda:	8c 01       	movw	r16, r24
     ddc:	c6 01       	movw	r24, r12
     dde:	0e 94 16 05 	call	0xa2c	; 0xa2c <_ZN5Print7printlnEv>
     de2:	08 0f       	add	r16, r24
     de4:	19 1f       	adc	r17, r25
     de6:	c8 01       	movw	r24, r16
     de8:	1f 91       	pop	r17
     dea:	0f 91       	pop	r16
     dec:	ff 90       	pop	r15
     dee:	ef 90       	pop	r14
     df0:	df 90       	pop	r13
     df2:	cf 90       	pop	r12
     df4:	08 95       	ret

00000df6 <_ZN5Print5printEPKc>:
     df6:	0e 94 7c 05 	call	0xaf8	; 0xaf8 <_ZN5Print5writeEPKc>
     dfa:	08 95       	ret

00000dfc <_ZN5Print10printFloatEdh>:
     dfc:	7f 92       	push	r7
     dfe:	8f 92       	push	r8
     e00:	9f 92       	push	r9
     e02:	af 92       	push	r10
     e04:	bf 92       	push	r11
     e06:	cf 92       	push	r12
     e08:	df 92       	push	r13
     e0a:	ef 92       	push	r14
     e0c:	ff 92       	push	r15
     e0e:	0f 93       	push	r16
     e10:	1f 93       	push	r17
     e12:	cf 93       	push	r28
     e14:	df 93       	push	r29
     e16:	4c 01       	movw	r8, r24
     e18:	7a 01       	movw	r14, r20
     e1a:	8b 01       	movw	r16, r22
     e1c:	72 2e       	mov	r7, r18
     e1e:	cb 01       	movw	r24, r22
     e20:	ba 01       	movw	r22, r20
     e22:	20 e0       	ldi	r18, 0x00	; 0
     e24:	30 e0       	ldi	r19, 0x00	; 0
     e26:	40 e0       	ldi	r20, 0x00	; 0
     e28:	50 e0       	ldi	r21, 0x00	; 0
     e2a:	0e 94 2f 16 	call	0x2c5e	; 0x2c5e <__ltsf2>
     e2e:	87 fd       	sbrc	r24, 7
     e30:	03 c0       	rjmp	.+6      	; 0xe38 <_ZN5Print10printFloatEdh+0x3c>
     e32:	c0 e0       	ldi	r28, 0x00	; 0
     e34:	d0 e0       	ldi	r29, 0x00	; 0
     e36:	0e c0       	rjmp	.+28     	; 0xe54 <_ZN5Print10printFloatEdh+0x58>
     e38:	d4 01       	movw	r26, r8
     e3a:	ed 91       	ld	r30, X+
     e3c:	fc 91       	ld	r31, X
     e3e:	01 90       	ld	r0, Z+
     e40:	f0 81       	ld	r31, Z
     e42:	e0 2d       	mov	r30, r0
     e44:	c4 01       	movw	r24, r8
     e46:	6d e2       	ldi	r22, 0x2D	; 45
     e48:	09 95       	icall
     e4a:	ec 01       	movw	r28, r24
     e4c:	17 fb       	bst	r17, 7
     e4e:	10 95       	com	r17
     e50:	17 f9       	bld	r17, 7
     e52:	10 95       	com	r17
     e54:	20 e0       	ldi	r18, 0x00	; 0
     e56:	30 e0       	ldi	r19, 0x00	; 0
     e58:	40 e0       	ldi	r20, 0x00	; 0
     e5a:	5f e3       	ldi	r21, 0x3F	; 63
     e5c:	aa 24       	eor	r10, r10
     e5e:	0b c0       	rjmp	.+22     	; 0xe76 <_ZN5Print10printFloatEdh+0x7a>
     e60:	ca 01       	movw	r24, r20
     e62:	b9 01       	movw	r22, r18
     e64:	20 e0       	ldi	r18, 0x00	; 0
     e66:	30 e0       	ldi	r19, 0x00	; 0
     e68:	40 e2       	ldi	r20, 0x20	; 32
     e6a:	51 e4       	ldi	r21, 0x41	; 65
     e6c:	0e 94 23 15 	call	0x2a46	; 0x2a46 <__divsf3>
     e70:	9b 01       	movw	r18, r22
     e72:	ac 01       	movw	r20, r24
     e74:	a3 94       	inc	r10
     e76:	a7 14       	cp	r10, r7
     e78:	98 f3       	brcs	.-26     	; 0xe60 <_ZN5Print10printFloatEdh+0x64>
     e7a:	c8 01       	movw	r24, r16
     e7c:	b7 01       	movw	r22, r14
     e7e:	0e 94 fc 13 	call	0x27f8	; 0x27f8 <__addsf3>
     e82:	5b 01       	movw	r10, r22
     e84:	6c 01       	movw	r12, r24
     e86:	0e 94 53 12 	call	0x24a6	; 0x24a6 <__fixunssfsi>
     e8a:	7b 01       	movw	r14, r22
     e8c:	8c 01       	movw	r16, r24
     e8e:	c4 01       	movw	r24, r8
     e90:	b8 01       	movw	r22, r16
     e92:	a7 01       	movw	r20, r14
     e94:	2a e0       	ldi	r18, 0x0A	; 10
     e96:	30 e0       	ldi	r19, 0x00	; 0
     e98:	0e 94 f4 05 	call	0xbe8	; 0xbe8 <_ZN5Print5printEmi>
     e9c:	c8 0f       	add	r28, r24
     e9e:	d9 1f       	adc	r29, r25
     ea0:	77 20       	and	r7, r7
     ea2:	39 f0       	breq	.+14     	; 0xeb2 <_ZN5Print10printFloatEdh+0xb6>
     ea4:	c4 01       	movw	r24, r8
     ea6:	67 e7       	ldi	r22, 0x77	; 119
     ea8:	71 e0       	ldi	r23, 0x01	; 1
     eaa:	0e 94 7c 05 	call	0xaf8	; 0xaf8 <_ZN5Print5writeEPKc>
     eae:	c8 0f       	add	r28, r24
     eb0:	d9 1f       	adc	r29, r25
     eb2:	c8 01       	movw	r24, r16
     eb4:	b7 01       	movw	r22, r14
     eb6:	0e 94 11 17 	call	0x2e22	; 0x2e22 <__floatunsisf>
     eba:	9b 01       	movw	r18, r22
     ebc:	ac 01       	movw	r20, r24
     ebe:	c6 01       	movw	r24, r12
     ec0:	b5 01       	movw	r22, r10
     ec2:	0e 94 cb 13 	call	0x2796	; 0x2796 <__subsf3>
     ec6:	24 c0       	rjmp	.+72     	; 0xf10 <_ZN5Print10printFloatEdh+0x114>
     ec8:	20 e0       	ldi	r18, 0x00	; 0
     eca:	30 e0       	ldi	r19, 0x00	; 0
     ecc:	40 e2       	ldi	r20, 0x20	; 32
     ece:	51 e4       	ldi	r21, 0x41	; 65
     ed0:	0e 94 29 14 	call	0x2852	; 0x2852 <__mulsf3>
     ed4:	7b 01       	movw	r14, r22
     ed6:	8c 01       	movw	r16, r24
     ed8:	0e 94 bd 16 	call	0x2d7a	; 0x2d7a <__fixsfsi>
     edc:	5b 01       	movw	r10, r22
     ede:	6c 01       	movw	r12, r24
     ee0:	cc 24       	eor	r12, r12
     ee2:	b7 fc       	sbrc	r11, 7
     ee4:	c0 94       	com	r12
     ee6:	dc 2c       	mov	r13, r12
     ee8:	c4 01       	movw	r24, r8
     eea:	b6 01       	movw	r22, r12
     eec:	a5 01       	movw	r20, r10
     eee:	2a e0       	ldi	r18, 0x0A	; 10
     ef0:	30 e0       	ldi	r19, 0x00	; 0
     ef2:	0e 94 75 06 	call	0xcea	; 0xcea <_ZN5Print5printEli>
     ef6:	c8 0f       	add	r28, r24
     ef8:	d9 1f       	adc	r29, r25
     efa:	c6 01       	movw	r24, r12
     efc:	b5 01       	movw	r22, r10
     efe:	0e 94 5f 16 	call	0x2cbe	; 0x2cbe <__floatsisf>
     f02:	9b 01       	movw	r18, r22
     f04:	ac 01       	movw	r20, r24
     f06:	c8 01       	movw	r24, r16
     f08:	b7 01       	movw	r22, r14
     f0a:	0e 94 cb 13 	call	0x2796	; 0x2796 <__subsf3>
     f0e:	7a 94       	dec	r7
     f10:	77 20       	and	r7, r7
     f12:	d1 f6       	brne	.-76     	; 0xec8 <_ZN5Print10printFloatEdh+0xcc>
     f14:	ce 01       	movw	r24, r28
     f16:	df 91       	pop	r29
     f18:	cf 91       	pop	r28
     f1a:	1f 91       	pop	r17
     f1c:	0f 91       	pop	r16
     f1e:	ff 90       	pop	r15
     f20:	ef 90       	pop	r14
     f22:	df 90       	pop	r13
     f24:	cf 90       	pop	r12
     f26:	bf 90       	pop	r11
     f28:	af 90       	pop	r10
     f2a:	9f 90       	pop	r9
     f2c:	8f 90       	pop	r8
     f2e:	7f 90       	pop	r7
     f30:	08 95       	ret

00000f32 <_ZN5Print5printEdi>:
     f32:	0e 94 fe 06 	call	0xdfc	; 0xdfc <_ZN5Print10printFloatEdh>
     f36:	08 95       	ret

00000f38 <_ZN5Print7printlnEdi>:
     f38:	ef 92       	push	r14
     f3a:	ff 92       	push	r15
     f3c:	0f 93       	push	r16
     f3e:	1f 93       	push	r17
     f40:	7c 01       	movw	r14, r24
     f42:	0e 94 fe 06 	call	0xdfc	; 0xdfc <_ZN5Print10printFloatEdh>
     f46:	8c 01       	movw	r16, r24
     f48:	c7 01       	movw	r24, r14
     f4a:	0e 94 16 05 	call	0xa2c	; 0xa2c <_ZN5Print7printlnEv>
     f4e:	08 0f       	add	r16, r24
     f50:	19 1f       	adc	r17, r25
     f52:	c8 01       	movw	r24, r16
     f54:	1f 91       	pop	r17
     f56:	0f 91       	pop	r16
     f58:	ff 90       	pop	r15
     f5a:	ef 90       	pop	r14
     f5c:	08 95       	ret

00000f5e <_ZN5Print7printlnEPKc>:
     f5e:	ef 92       	push	r14
     f60:	ff 92       	push	r15
     f62:	0f 93       	push	r16
     f64:	1f 93       	push	r17
     f66:	7c 01       	movw	r14, r24
     f68:	0e 94 7c 05 	call	0xaf8	; 0xaf8 <_ZN5Print5writeEPKc>
     f6c:	8c 01       	movw	r16, r24
     f6e:	c7 01       	movw	r24, r14
     f70:	0e 94 16 05 	call	0xa2c	; 0xa2c <_ZN5Print7printlnEv>
     f74:	08 0f       	add	r16, r24
     f76:	19 1f       	adc	r17, r25
     f78:	c8 01       	movw	r24, r16
     f7a:	1f 91       	pop	r17
     f7c:	0f 91       	pop	r16
     f7e:	ff 90       	pop	r15
     f80:	ef 90       	pop	r14
     f82:	08 95       	ret

00000f84 <_ZN5Print5printERK6String>:
     f84:	af 92       	push	r10
     f86:	bf 92       	push	r11
     f88:	cf 92       	push	r12
     f8a:	df 92       	push	r13
     f8c:	ef 92       	push	r14
     f8e:	ff 92       	push	r15
     f90:	0f 93       	push	r16
     f92:	1f 93       	push	r17
     f94:	cf 93       	push	r28
     f96:	df 93       	push	r29
     f98:	5c 01       	movw	r10, r24
     f9a:	6b 01       	movw	r12, r22
     f9c:	ee 24       	eor	r14, r14
     f9e:	ff 24       	eor	r15, r15
     fa0:	c0 e0       	ldi	r28, 0x00	; 0
     fa2:	d0 e0       	ldi	r29, 0x00	; 0
     fa4:	10 c0       	rjmp	.+32     	; 0xfc6 <_ZN5Print5printERK6String+0x42>
     fa6:	d5 01       	movw	r26, r10
     fa8:	ed 91       	ld	r30, X+
     faa:	fc 91       	ld	r31, X
     fac:	00 81       	ld	r16, Z
     fae:	11 81       	ldd	r17, Z+1	; 0x01
     fb0:	c6 01       	movw	r24, r12
     fb2:	be 01       	movw	r22, r28
     fb4:	0e 94 3c 08 	call	0x1078	; 0x1078 <_ZNK6StringixEj>
     fb8:	68 2f       	mov	r22, r24
     fba:	c5 01       	movw	r24, r10
     fbc:	f8 01       	movw	r30, r16
     fbe:	09 95       	icall
     fc0:	e8 0e       	add	r14, r24
     fc2:	f9 1e       	adc	r15, r25
     fc4:	21 96       	adiw	r28, 0x01	; 1
     fc6:	f6 01       	movw	r30, r12
     fc8:	84 81       	ldd	r24, Z+4	; 0x04
     fca:	95 81       	ldd	r25, Z+5	; 0x05
     fcc:	c8 17       	cp	r28, r24
     fce:	d9 07       	cpc	r29, r25
     fd0:	50 f3       	brcs	.-44     	; 0xfa6 <_ZN5Print5printERK6String+0x22>
     fd2:	c7 01       	movw	r24, r14
     fd4:	df 91       	pop	r29
     fd6:	cf 91       	pop	r28
     fd8:	1f 91       	pop	r17
     fda:	0f 91       	pop	r16
     fdc:	ff 90       	pop	r15
     fde:	ef 90       	pop	r14
     fe0:	df 90       	pop	r13
     fe2:	cf 90       	pop	r12
     fe4:	bf 90       	pop	r11
     fe6:	af 90       	pop	r10
     fe8:	08 95       	ret

00000fea <_ZN5Print7printlnERK6String>:
     fea:	ef 92       	push	r14
     fec:	ff 92       	push	r15
     fee:	0f 93       	push	r16
     ff0:	1f 93       	push	r17
     ff2:	7c 01       	movw	r14, r24
     ff4:	0e 94 c2 07 	call	0xf84	; 0xf84 <_ZN5Print5printERK6String>
     ff8:	8c 01       	movw	r16, r24
     ffa:	c7 01       	movw	r24, r14
     ffc:	0e 94 16 05 	call	0xa2c	; 0xa2c <_ZN5Print7printlnEv>
    1000:	9c 01       	movw	r18, r24
    1002:	20 0f       	add	r18, r16
    1004:	31 1f       	adc	r19, r17
    1006:	c9 01       	movw	r24, r18
    1008:	1f 91       	pop	r17
    100a:	0f 91       	pop	r16
    100c:	ff 90       	pop	r15
    100e:	ef 90       	pop	r14
    1010:	08 95       	ret

00001012 <_ZNK6String6charAtEj>:
    1012:	fc 01       	movw	r30, r24
    1014:	84 81       	ldd	r24, Z+4	; 0x04
    1016:	95 81       	ldd	r25, Z+5	; 0x05
    1018:	68 17       	cp	r22, r24
    101a:	79 07       	cpc	r23, r25
    101c:	48 f4       	brcc	.+18     	; 0x1030 <_ZNK6String6charAtEj+0x1e>
    101e:	01 90       	ld	r0, Z+
    1020:	f0 81       	ld	r31, Z
    1022:	e0 2d       	mov	r30, r0
    1024:	30 97       	sbiw	r30, 0x00	; 0
    1026:	21 f0       	breq	.+8      	; 0x1030 <_ZNK6String6charAtEj+0x1e>
    1028:	e6 0f       	add	r30, r22
    102a:	f7 1f       	adc	r31, r23
    102c:	80 81       	ld	r24, Z
    102e:	08 95       	ret
    1030:	80 e0       	ldi	r24, 0x00	; 0
    1032:	08 95       	ret

00001034 <_ZN6String9setCharAtEjc>:
    1034:	fc 01       	movw	r30, r24
    1036:	84 81       	ldd	r24, Z+4	; 0x04
    1038:	95 81       	ldd	r25, Z+5	; 0x05
    103a:	68 17       	cp	r22, r24
    103c:	79 07       	cpc	r23, r25
    103e:	30 f4       	brcc	.+12     	; 0x104c <_ZN6String9setCharAtEjc+0x18>
    1040:	01 90       	ld	r0, Z+
    1042:	f0 81       	ld	r31, Z
    1044:	e0 2d       	mov	r30, r0
    1046:	e6 0f       	add	r30, r22
    1048:	f7 1f       	adc	r31, r23
    104a:	40 83       	st	Z, r20
    104c:	08 95       	ret

0000104e <_ZN6StringixEj>:
    104e:	fc 01       	movw	r30, r24
    1050:	9b 01       	movw	r18, r22
    1052:	84 81       	ldd	r24, Z+4	; 0x04
    1054:	95 81       	ldd	r25, Z+5	; 0x05
    1056:	68 17       	cp	r22, r24
    1058:	79 07       	cpc	r23, r25
    105a:	28 f4       	brcc	.+10     	; 0x1066 <_ZN6StringixEj+0x18>
    105c:	60 81       	ld	r22, Z
    105e:	71 81       	ldd	r23, Z+1	; 0x01
    1060:	61 15       	cp	r22, r1
    1062:	71 05       	cpc	r23, r1
    1064:	29 f4       	brne	.+10     	; 0x1070 <_ZN6StringixEj+0x22>
    1066:	10 92 37 03 	sts	0x0337, r1
    106a:	67 e3       	ldi	r22, 0x37	; 55
    106c:	73 e0       	ldi	r23, 0x03	; 3
    106e:	02 c0       	rjmp	.+4      	; 0x1074 <_ZN6StringixEj+0x26>
    1070:	62 0f       	add	r22, r18
    1072:	73 1f       	adc	r23, r19
    1074:	cb 01       	movw	r24, r22
    1076:	08 95       	ret

00001078 <_ZNK6StringixEj>:
    1078:	fc 01       	movw	r30, r24
    107a:	84 81       	ldd	r24, Z+4	; 0x04
    107c:	95 81       	ldd	r25, Z+5	; 0x05
    107e:	68 17       	cp	r22, r24
    1080:	79 07       	cpc	r23, r25
    1082:	48 f4       	brcc	.+18     	; 0x1096 <_ZNK6StringixEj+0x1e>
    1084:	01 90       	ld	r0, Z+
    1086:	f0 81       	ld	r31, Z
    1088:	e0 2d       	mov	r30, r0
    108a:	30 97       	sbiw	r30, 0x00	; 0
    108c:	21 f0       	breq	.+8      	; 0x1096 <_ZNK6StringixEj+0x1e>
    108e:	e6 0f       	add	r30, r22
    1090:	f7 1f       	adc	r31, r23
    1092:	80 81       	ld	r24, Z
    1094:	08 95       	ret
    1096:	80 e0       	ldi	r24, 0x00	; 0
    1098:	08 95       	ret

0000109a <_ZN6String7replaceEcc>:
    109a:	fc 01       	movw	r30, r24
    109c:	01 90       	ld	r0, Z+
    109e:	f0 81       	ld	r31, Z
    10a0:	e0 2d       	mov	r30, r0
    10a2:	30 97       	sbiw	r30, 0x00	; 0
    10a4:	29 f4       	brne	.+10     	; 0x10b0 <_ZN6String7replaceEcc+0x16>
    10a6:	08 95       	ret
    10a8:	86 17       	cp	r24, r22
    10aa:	09 f4       	brne	.+2      	; 0x10ae <_ZN6String7replaceEcc+0x14>
    10ac:	40 83       	st	Z, r20
    10ae:	31 96       	adiw	r30, 0x01	; 1
    10b0:	80 81       	ld	r24, Z
    10b2:	88 23       	and	r24, r24
    10b4:	c9 f7       	brne	.-14     	; 0x10a8 <_ZN6String7replaceEcc+0xe>
    10b6:	08 95       	ret

000010b8 <_ZNK6String5toIntEv>:
    10b8:	fc 01       	movw	r30, r24
    10ba:	80 81       	ld	r24, Z
    10bc:	91 81       	ldd	r25, Z+1	; 0x01
    10be:	00 97       	sbiw	r24, 0x00	; 0
    10c0:	29 f4       	brne	.+10     	; 0x10cc <_ZNK6String5toIntEv+0x14>
    10c2:	20 e0       	ldi	r18, 0x00	; 0
    10c4:	30 e0       	ldi	r19, 0x00	; 0
    10c6:	40 e0       	ldi	r20, 0x00	; 0
    10c8:	50 e0       	ldi	r21, 0x00	; 0
    10ca:	04 c0       	rjmp	.+8      	; 0x10d4 <_ZNK6String5toIntEv+0x1c>
    10cc:	0e 94 f7 1b 	call	0x37ee	; 0x37ee <atol>
    10d0:	9b 01       	movw	r18, r22
    10d2:	ac 01       	movw	r20, r24
    10d4:	b9 01       	movw	r22, r18
    10d6:	ca 01       	movw	r24, r20
    10d8:	08 95       	ret

000010da <_ZN6String4trimEv>:
    10da:	cf 92       	push	r12
    10dc:	df 92       	push	r13
    10de:	ef 92       	push	r14
    10e0:	ff 92       	push	r15
    10e2:	0f 93       	push	r16
    10e4:	1f 93       	push	r17
    10e6:	cf 93       	push	r28
    10e8:	df 93       	push	r29
    10ea:	6c 01       	movw	r12, r24
    10ec:	dc 01       	movw	r26, r24
    10ee:	ed 90       	ld	r14, X+
    10f0:	fc 90       	ld	r15, X
    10f2:	11 97       	sbiw	r26, 0x01	; 1
    10f4:	e1 14       	cp	r14, r1
    10f6:	f1 04       	cpc	r15, r1
    10f8:	e9 f1       	breq	.+122    	; 0x1174 <_ZN6String4trimEv+0x9a>
    10fa:	14 96       	adiw	r26, 0x04	; 4
    10fc:	cd 91       	ld	r28, X+
    10fe:	dc 91       	ld	r29, X
    1100:	15 97       	sbiw	r26, 0x05	; 5
    1102:	20 97       	sbiw	r28, 0x00	; 0
    1104:	b9 f1       	breq	.+110    	; 0x1174 <_ZN6String4trimEv+0x9a>
    1106:	87 01       	movw	r16, r14
    1108:	02 c0       	rjmp	.+4      	; 0x110e <_ZN6String4trimEv+0x34>
    110a:	0f 5f       	subi	r16, 0xFF	; 255
    110c:	1f 4f       	sbci	r17, 0xFF	; 255
    110e:	f8 01       	movw	r30, r16
    1110:	80 81       	ld	r24, Z
    1112:	90 e0       	ldi	r25, 0x00	; 0
    1114:	0e 94 1e 1c 	call	0x383c	; 0x383c <isspace>
    1118:	89 2b       	or	r24, r25
    111a:	b9 f7       	brne	.-18     	; 0x110a <_ZN6String4trimEv+0x30>
    111c:	21 97       	sbiw	r28, 0x01	; 1
    111e:	ce 0d       	add	r28, r14
    1120:	df 1d       	adc	r29, r15
    1122:	01 c0       	rjmp	.+2      	; 0x1126 <_ZN6String4trimEv+0x4c>
    1124:	21 97       	sbiw	r28, 0x01	; 1
    1126:	88 81       	ld	r24, Y
    1128:	90 e0       	ldi	r25, 0x00	; 0
    112a:	0e 94 1e 1c 	call	0x383c	; 0x383c <isspace>
    112e:	89 2b       	or	r24, r25
    1130:	19 f0       	breq	.+6      	; 0x1138 <_ZN6String4trimEv+0x5e>
    1132:	c0 17       	cp	r28, r16
    1134:	d1 07       	cpc	r29, r17
    1136:	b0 f7       	brcc	.-20     	; 0x1124 <_ZN6String4trimEv+0x4a>
    1138:	fe 01       	movw	r30, r28
    113a:	31 96       	adiw	r30, 0x01	; 1
    113c:	e0 1b       	sub	r30, r16
    113e:	f1 0b       	sbc	r31, r17
    1140:	d6 01       	movw	r26, r12
    1142:	15 96       	adiw	r26, 0x05	; 5
    1144:	fc 93       	st	X, r31
    1146:	ee 93       	st	-X, r30
    1148:	14 97       	sbiw	r26, 0x04	; 4
    114a:	2d 91       	ld	r18, X+
    114c:	3c 91       	ld	r19, X
    114e:	20 17       	cp	r18, r16
    1150:	31 07       	cpc	r19, r17
    1152:	28 f4       	brcc	.+10     	; 0x115e <_ZN6String4trimEv+0x84>
    1154:	c9 01       	movw	r24, r18
    1156:	b8 01       	movw	r22, r16
    1158:	af 01       	movw	r20, r30
    115a:	0e 94 36 1c 	call	0x386c	; 0x386c <memcpy>
    115e:	d6 01       	movw	r26, r12
    1160:	ed 91       	ld	r30, X+
    1162:	fc 91       	ld	r31, X
    1164:	11 97       	sbiw	r26, 0x01	; 1
    1166:	14 96       	adiw	r26, 0x04	; 4
    1168:	8d 91       	ld	r24, X+
    116a:	9c 91       	ld	r25, X
    116c:	15 97       	sbiw	r26, 0x05	; 5
    116e:	e8 0f       	add	r30, r24
    1170:	f9 1f       	adc	r31, r25
    1172:	10 82       	st	Z, r1
    1174:	df 91       	pop	r29
    1176:	cf 91       	pop	r28
    1178:	1f 91       	pop	r17
    117a:	0f 91       	pop	r16
    117c:	ff 90       	pop	r15
    117e:	ef 90       	pop	r14
    1180:	df 90       	pop	r13
    1182:	cf 90       	pop	r12
    1184:	08 95       	ret

00001186 <_ZN6String11toUpperCaseEv>:
    1186:	cf 93       	push	r28
    1188:	df 93       	push	r29
    118a:	fc 01       	movw	r30, r24
    118c:	c0 81       	ld	r28, Z
    118e:	d1 81       	ldd	r29, Z+1	; 0x01
    1190:	20 97       	sbiw	r28, 0x00	; 0
    1192:	29 f4       	brne	.+10     	; 0x119e <_ZN6String11toUpperCaseEv+0x18>
    1194:	07 c0       	rjmp	.+14     	; 0x11a4 <_ZN6String11toUpperCaseEv+0x1e>
    1196:	90 e0       	ldi	r25, 0x00	; 0
    1198:	0e 94 2e 1c 	call	0x385c	; 0x385c <toupper>
    119c:	89 93       	st	Y+, r24
    119e:	88 81       	ld	r24, Y
    11a0:	88 23       	and	r24, r24
    11a2:	c9 f7       	brne	.-14     	; 0x1196 <_ZN6String11toUpperCaseEv+0x10>
    11a4:	df 91       	pop	r29
    11a6:	cf 91       	pop	r28
    11a8:	08 95       	ret

000011aa <_ZN6String11toLowerCaseEv>:
    11aa:	cf 93       	push	r28
    11ac:	df 93       	push	r29
    11ae:	fc 01       	movw	r30, r24
    11b0:	c0 81       	ld	r28, Z
    11b2:	d1 81       	ldd	r29, Z+1	; 0x01
    11b4:	20 97       	sbiw	r28, 0x00	; 0
    11b6:	29 f4       	brne	.+10     	; 0x11c2 <_ZN6String11toLowerCaseEv+0x18>
    11b8:	07 c0       	rjmp	.+14     	; 0x11c8 <_ZN6String11toLowerCaseEv+0x1e>
    11ba:	90 e0       	ldi	r25, 0x00	; 0
    11bc:	0e 94 26 1c 	call	0x384c	; 0x384c <tolower>
    11c0:	89 93       	st	Y+, r24
    11c2:	88 81       	ld	r24, Y
    11c4:	88 23       	and	r24, r24
    11c6:	c9 f7       	brne	.-14     	; 0x11ba <_ZN6String11toLowerCaseEv+0x10>
    11c8:	df 91       	pop	r29
    11ca:	cf 91       	pop	r28
    11cc:	08 95       	ret

000011ce <_ZNK6String16equalsIgnoreCaseERKS_>:
    11ce:	ef 92       	push	r14
    11d0:	ff 92       	push	r15
    11d2:	0f 93       	push	r16
    11d4:	1f 93       	push	r17
    11d6:	cf 93       	push	r28
    11d8:	df 93       	push	r29
    11da:	fc 01       	movw	r30, r24
    11dc:	db 01       	movw	r26, r22
    11de:	86 17       	cp	r24, r22
    11e0:	97 07       	cpc	r25, r23
    11e2:	19 f1       	breq	.+70     	; 0x122a <_ZNK6String16equalsIgnoreCaseERKS_+0x5c>
    11e4:	24 81       	ldd	r18, Z+4	; 0x04
    11e6:	35 81       	ldd	r19, Z+5	; 0x05
    11e8:	14 96       	adiw	r26, 0x04	; 4
    11ea:	8d 91       	ld	r24, X+
    11ec:	9c 91       	ld	r25, X
    11ee:	15 97       	sbiw	r26, 0x05	; 5
    11f0:	28 17       	cp	r18, r24
    11f2:	39 07       	cpc	r19, r25
    11f4:	e1 f4       	brne	.+56     	; 0x122e <_ZNK6String16equalsIgnoreCaseERKS_+0x60>
    11f6:	23 2b       	or	r18, r19
    11f8:	c1 f0       	breq	.+48     	; 0x122a <_ZNK6String16equalsIgnoreCaseERKS_+0x5c>
    11fa:	e0 80       	ld	r14, Z
    11fc:	f1 80       	ldd	r15, Z+1	; 0x01
    11fe:	cd 91       	ld	r28, X+
    1200:	dc 91       	ld	r29, X
    1202:	0f c0       	rjmp	.+30     	; 0x1222 <_ZNK6String16equalsIgnoreCaseERKS_+0x54>
    1204:	90 e0       	ldi	r25, 0x00	; 0
    1206:	0e 94 26 1c 	call	0x384c	; 0x384c <tolower>
    120a:	8c 01       	movw	r16, r24
    120c:	88 81       	ld	r24, Y
    120e:	90 e0       	ldi	r25, 0x00	; 0
    1210:	0e 94 26 1c 	call	0x384c	; 0x384c <tolower>
    1214:	08 17       	cp	r16, r24
    1216:	19 07       	cpc	r17, r25
    1218:	51 f4       	brne	.+20     	; 0x122e <_ZNK6String16equalsIgnoreCaseERKS_+0x60>
    121a:	08 94       	sec
    121c:	e1 1c       	adc	r14, r1
    121e:	f1 1c       	adc	r15, r1
    1220:	21 96       	adiw	r28, 0x01	; 1
    1222:	f7 01       	movw	r30, r14
    1224:	80 81       	ld	r24, Z
    1226:	88 23       	and	r24, r24
    1228:	69 f7       	brne	.-38     	; 0x1204 <_ZNK6String16equalsIgnoreCaseERKS_+0x36>
    122a:	81 e0       	ldi	r24, 0x01	; 1
    122c:	01 c0       	rjmp	.+2      	; 0x1230 <_ZNK6String16equalsIgnoreCaseERKS_+0x62>
    122e:	80 e0       	ldi	r24, 0x00	; 0
    1230:	df 91       	pop	r29
    1232:	cf 91       	pop	r28
    1234:	1f 91       	pop	r17
    1236:	0f 91       	pop	r16
    1238:	ff 90       	pop	r15
    123a:	ef 90       	pop	r14
    123c:	08 95       	ret

0000123e <_ZNK6String11lastIndexOfERKS_j>:
    123e:	af 92       	push	r10
    1240:	bf 92       	push	r11
    1242:	cf 92       	push	r12
    1244:	df 92       	push	r13
    1246:	ef 92       	push	r14
    1248:	ff 92       	push	r15
    124a:	0f 93       	push	r16
    124c:	1f 93       	push	r17
    124e:	cf 93       	push	r28
    1250:	df 93       	push	r29
    1252:	fc 01       	movw	r30, r24
    1254:	5b 01       	movw	r10, r22
    1256:	7a 01       	movw	r14, r20
    1258:	db 01       	movw	r26, r22
    125a:	14 96       	adiw	r26, 0x04	; 4
    125c:	2d 91       	ld	r18, X+
    125e:	3c 91       	ld	r19, X
    1260:	15 97       	sbiw	r26, 0x05	; 5
    1262:	21 15       	cp	r18, r1
    1264:	31 05       	cpc	r19, r1
    1266:	59 f1       	breq	.+86     	; 0x12be <_ZNK6String11lastIndexOfERKS_j+0x80>
    1268:	84 81       	ldd	r24, Z+4	; 0x04
    126a:	95 81       	ldd	r25, Z+5	; 0x05
    126c:	00 97       	sbiw	r24, 0x00	; 0
    126e:	39 f1       	breq	.+78     	; 0x12be <_ZNK6String11lastIndexOfERKS_j+0x80>
    1270:	82 17       	cp	r24, r18
    1272:	93 07       	cpc	r25, r19
    1274:	20 f1       	brcs	.+72     	; 0x12be <_ZNK6String11lastIndexOfERKS_j+0x80>
    1276:	48 17       	cp	r20, r24
    1278:	59 07       	cpc	r21, r25
    127a:	20 f0       	brcs	.+8      	; 0x1284 <_ZNK6String11lastIndexOfERKS_j+0x46>
    127c:	7c 01       	movw	r14, r24
    127e:	08 94       	sec
    1280:	e1 08       	sbc	r14, r1
    1282:	f1 08       	sbc	r15, r1
    1284:	00 81       	ld	r16, Z
    1286:	11 81       	ldd	r17, Z+1	; 0x01
    1288:	c8 01       	movw	r24, r16
    128a:	cf ef       	ldi	r28, 0xFF	; 255
    128c:	df ef       	ldi	r29, 0xFF	; 255
    128e:	68 01       	movw	r12, r16
    1290:	ce 0c       	add	r12, r14
    1292:	df 1c       	adc	r13, r15
    1294:	10 c0       	rjmp	.+32     	; 0x12b6 <_ZNK6String11lastIndexOfERKS_j+0x78>
    1296:	f5 01       	movw	r30, r10
    1298:	60 81       	ld	r22, Z
    129a:	71 81       	ldd	r23, Z+1	; 0x01
    129c:	0e 94 94 1c 	call	0x3928	; 0x3928 <strstr>
    12a0:	9c 01       	movw	r18, r24
    12a2:	00 97       	sbiw	r24, 0x00	; 0
    12a4:	71 f0       	breq	.+28     	; 0x12c2 <_ZNK6String11lastIndexOfERKS_j+0x84>
    12a6:	80 1b       	sub	r24, r16
    12a8:	91 0b       	sbc	r25, r17
    12aa:	e8 16       	cp	r14, r24
    12ac:	f9 06       	cpc	r15, r25
    12ae:	08 f0       	brcs	.+2      	; 0x12b2 <_ZNK6String11lastIndexOfERKS_j+0x74>
    12b0:	ec 01       	movw	r28, r24
    12b2:	c9 01       	movw	r24, r18
    12b4:	01 96       	adiw	r24, 0x01	; 1
    12b6:	c8 16       	cp	r12, r24
    12b8:	d9 06       	cpc	r13, r25
    12ba:	68 f7       	brcc	.-38     	; 0x1296 <_ZNK6String11lastIndexOfERKS_j+0x58>
    12bc:	02 c0       	rjmp	.+4      	; 0x12c2 <_ZNK6String11lastIndexOfERKS_j+0x84>
    12be:	cf ef       	ldi	r28, 0xFF	; 255
    12c0:	df ef       	ldi	r29, 0xFF	; 255
    12c2:	ce 01       	movw	r24, r28
    12c4:	df 91       	pop	r29
    12c6:	cf 91       	pop	r28
    12c8:	1f 91       	pop	r17
    12ca:	0f 91       	pop	r16
    12cc:	ff 90       	pop	r15
    12ce:	ef 90       	pop	r14
    12d0:	df 90       	pop	r13
    12d2:	cf 90       	pop	r12
    12d4:	bf 90       	pop	r11
    12d6:	af 90       	pop	r10
    12d8:	08 95       	ret

000012da <_ZNK6String11lastIndexOfERKS_>:
    12da:	fc 01       	movw	r30, r24
    12dc:	db 01       	movw	r26, r22
    12de:	44 81       	ldd	r20, Z+4	; 0x04
    12e0:	55 81       	ldd	r21, Z+5	; 0x05
    12e2:	14 96       	adiw	r26, 0x04	; 4
    12e4:	8d 91       	ld	r24, X+
    12e6:	9c 91       	ld	r25, X
    12e8:	15 97       	sbiw	r26, 0x05	; 5
    12ea:	48 1b       	sub	r20, r24
    12ec:	59 0b       	sbc	r21, r25
    12ee:	cf 01       	movw	r24, r30
    12f0:	0e 94 1f 09 	call	0x123e	; 0x123e <_ZNK6String11lastIndexOfERKS_j>
    12f4:	08 95       	ret

000012f6 <_ZNK6String7indexOfERKS_j>:
    12f6:	cf 93       	push	r28
    12f8:	df 93       	push	r29
    12fa:	fc 01       	movw	r30, r24
    12fc:	db 01       	movw	r26, r22
    12fe:	84 81       	ldd	r24, Z+4	; 0x04
    1300:	95 81       	ldd	r25, Z+5	; 0x05
    1302:	48 17       	cp	r20, r24
    1304:	59 07       	cpc	r21, r25
    1306:	60 f4       	brcc	.+24     	; 0x1320 <_ZNK6String7indexOfERKS_j+0x2a>
    1308:	c0 81       	ld	r28, Z
    130a:	d1 81       	ldd	r29, Z+1	; 0x01
    130c:	6d 91       	ld	r22, X+
    130e:	7c 91       	ld	r23, X
    1310:	ce 01       	movw	r24, r28
    1312:	84 0f       	add	r24, r20
    1314:	95 1f       	adc	r25, r21
    1316:	0e 94 94 1c 	call	0x3928	; 0x3928 <strstr>
    131a:	9c 01       	movw	r18, r24
    131c:	00 97       	sbiw	r24, 0x00	; 0
    131e:	19 f4       	brne	.+6      	; 0x1326 <_ZNK6String7indexOfERKS_j+0x30>
    1320:	2f ef       	ldi	r18, 0xFF	; 255
    1322:	3f ef       	ldi	r19, 0xFF	; 255
    1324:	02 c0       	rjmp	.+4      	; 0x132a <_ZNK6String7indexOfERKS_j+0x34>
    1326:	2c 1b       	sub	r18, r28
    1328:	3d 0b       	sbc	r19, r29
    132a:	c9 01       	movw	r24, r18
    132c:	df 91       	pop	r29
    132e:	cf 91       	pop	r28
    1330:	08 95       	ret

00001332 <_ZNK6String7indexOfERKS_>:
    1332:	40 e0       	ldi	r20, 0x00	; 0
    1334:	50 e0       	ldi	r21, 0x00	; 0
    1336:	0e 94 7b 09 	call	0x12f6	; 0x12f6 <_ZNK6String7indexOfERKS_j>
    133a:	08 95       	ret

0000133c <_ZNK6String11lastIndexOfEcj>:
    133c:	df 92       	push	r13
    133e:	ef 92       	push	r14
    1340:	ff 92       	push	r15
    1342:	0f 93       	push	r16
    1344:	1f 93       	push	r17
    1346:	cf 93       	push	r28
    1348:	df 93       	push	r29
    134a:	ec 01       	movw	r28, r24
    134c:	8c 81       	ldd	r24, Y+4	; 0x04
    134e:	9d 81       	ldd	r25, Y+5	; 0x05
    1350:	48 17       	cp	r20, r24
    1352:	59 07       	cpc	r21, r25
    1354:	b8 f4       	brcc	.+46     	; 0x1384 <_ZNK6String11lastIndexOfEcj+0x48>
    1356:	7a 01       	movw	r14, r20
    1358:	08 94       	sec
    135a:	e1 1c       	adc	r14, r1
    135c:	f1 1c       	adc	r15, r1
    135e:	e8 81       	ld	r30, Y
    1360:	f9 81       	ldd	r31, Y+1	; 0x01
    1362:	ee 0d       	add	r30, r14
    1364:	ff 1d       	adc	r31, r15
    1366:	d0 80       	ld	r13, Z
    1368:	10 82       	st	Z, r1
    136a:	08 81       	ld	r16, Y
    136c:	19 81       	ldd	r17, Y+1	; 0x01
    136e:	c8 01       	movw	r24, r16
    1370:	70 e0       	ldi	r23, 0x00	; 0
    1372:	0e 94 89 1c 	call	0x3912	; 0x3912 <strrchr>
    1376:	9c 01       	movw	r18, r24
    1378:	0e 0d       	add	r16, r14
    137a:	1f 1d       	adc	r17, r15
    137c:	f8 01       	movw	r30, r16
    137e:	d0 82       	st	Z, r13
    1380:	00 97       	sbiw	r24, 0x00	; 0
    1382:	19 f4       	brne	.+6      	; 0x138a <_ZNK6String11lastIndexOfEcj+0x4e>
    1384:	ef ef       	ldi	r30, 0xFF	; 255
    1386:	ff ef       	ldi	r31, 0xFF	; 255
    1388:	05 c0       	rjmp	.+10     	; 0x1394 <_ZNK6String11lastIndexOfEcj+0x58>
    138a:	88 81       	ld	r24, Y
    138c:	99 81       	ldd	r25, Y+1	; 0x01
    138e:	f9 01       	movw	r30, r18
    1390:	e8 1b       	sub	r30, r24
    1392:	f9 0b       	sbc	r31, r25
    1394:	cf 01       	movw	r24, r30
    1396:	df 91       	pop	r29
    1398:	cf 91       	pop	r28
    139a:	1f 91       	pop	r17
    139c:	0f 91       	pop	r16
    139e:	ff 90       	pop	r15
    13a0:	ef 90       	pop	r14
    13a2:	df 90       	pop	r13
    13a4:	08 95       	ret

000013a6 <_ZNK6String11lastIndexOfEc>:
    13a6:	fc 01       	movw	r30, r24
    13a8:	44 81       	ldd	r20, Z+4	; 0x04
    13aa:	55 81       	ldd	r21, Z+5	; 0x05
    13ac:	41 50       	subi	r20, 0x01	; 1
    13ae:	50 40       	sbci	r21, 0x00	; 0
    13b0:	0e 94 9e 09 	call	0x133c	; 0x133c <_ZNK6String11lastIndexOfEcj>
    13b4:	08 95       	ret

000013b6 <_ZNK6String7indexOfEcj>:
    13b6:	cf 93       	push	r28
    13b8:	df 93       	push	r29
    13ba:	fc 01       	movw	r30, r24
    13bc:	84 81       	ldd	r24, Z+4	; 0x04
    13be:	95 81       	ldd	r25, Z+5	; 0x05
    13c0:	48 17       	cp	r20, r24
    13c2:	59 07       	cpc	r21, r25
    13c4:	58 f4       	brcc	.+22     	; 0x13dc <_ZNK6String7indexOfEcj+0x26>
    13c6:	c0 81       	ld	r28, Z
    13c8:	d1 81       	ldd	r29, Z+1	; 0x01
    13ca:	ce 01       	movw	r24, r28
    13cc:	84 0f       	add	r24, r20
    13ce:	95 1f       	adc	r25, r21
    13d0:	70 e0       	ldi	r23, 0x00	; 0
    13d2:	0e 94 51 1c 	call	0x38a2	; 0x38a2 <strchr>
    13d6:	9c 01       	movw	r18, r24
    13d8:	00 97       	sbiw	r24, 0x00	; 0
    13da:	19 f4       	brne	.+6      	; 0x13e2 <_ZNK6String7indexOfEcj+0x2c>
    13dc:	2f ef       	ldi	r18, 0xFF	; 255
    13de:	3f ef       	ldi	r19, 0xFF	; 255
    13e0:	02 c0       	rjmp	.+4      	; 0x13e6 <_ZNK6String7indexOfEcj+0x30>
    13e2:	2c 1b       	sub	r18, r28
    13e4:	3d 0b       	sbc	r19, r29
    13e6:	c9 01       	movw	r24, r18
    13e8:	df 91       	pop	r29
    13ea:	cf 91       	pop	r28
    13ec:	08 95       	ret

000013ee <_ZNK6String7indexOfEc>:
    13ee:	40 e0       	ldi	r20, 0x00	; 0
    13f0:	50 e0       	ldi	r21, 0x00	; 0
    13f2:	0e 94 db 09 	call	0x13b6	; 0x13b6 <_ZNK6String7indexOfEcj>
    13f6:	08 95       	ret

000013f8 <_ZNK6String8getBytesEPhjj>:
    13f8:	0f 93       	push	r16
    13fa:	1f 93       	push	r17
    13fc:	cf 93       	push	r28
    13fe:	df 93       	push	r29
    1400:	fc 01       	movw	r30, r24
    1402:	8b 01       	movw	r16, r22
    1404:	41 15       	cp	r20, r1
    1406:	51 05       	cpc	r21, r1
    1408:	f9 f0       	breq	.+62     	; 0x1448 <_ZNK6String8getBytesEPhjj+0x50>
    140a:	61 15       	cp	r22, r1
    140c:	71 05       	cpc	r23, r1
    140e:	e1 f0       	breq	.+56     	; 0x1448 <_ZNK6String8getBytesEPhjj+0x50>
    1410:	84 81       	ldd	r24, Z+4	; 0x04
    1412:	95 81       	ldd	r25, Z+5	; 0x05
    1414:	28 17       	cp	r18, r24
    1416:	39 07       	cpc	r19, r25
    1418:	18 f0       	brcs	.+6      	; 0x1420 <_ZNK6String8getBytesEPhjj+0x28>
    141a:	fb 01       	movw	r30, r22
    141c:	10 82       	st	Z, r1
    141e:	14 c0       	rjmp	.+40     	; 0x1448 <_ZNK6String8getBytesEPhjj+0x50>
    1420:	41 50       	subi	r20, 0x01	; 1
    1422:	50 40       	sbci	r21, 0x00	; 0
    1424:	ec 01       	movw	r28, r24
    1426:	c2 1b       	sub	r28, r18
    1428:	d3 0b       	sbc	r29, r19
    142a:	4c 17       	cp	r20, r28
    142c:	5d 07       	cpc	r21, r29
    142e:	08 f4       	brcc	.+2      	; 0x1432 <_ZNK6String8getBytesEPhjj+0x3a>
    1430:	ea 01       	movw	r28, r20
    1432:	60 81       	ld	r22, Z
    1434:	71 81       	ldd	r23, Z+1	; 0x01
    1436:	62 0f       	add	r22, r18
    1438:	73 1f       	adc	r23, r19
    143a:	c8 01       	movw	r24, r16
    143c:	ae 01       	movw	r20, r28
    143e:	0e 94 7a 1c 	call	0x38f4	; 0x38f4 <strncpy>
    1442:	c0 0f       	add	r28, r16
    1444:	d1 1f       	adc	r29, r17
    1446:	18 82       	st	Y, r1
    1448:	df 91       	pop	r29
    144a:	cf 91       	pop	r28
    144c:	1f 91       	pop	r17
    144e:	0f 91       	pop	r16
    1450:	08 95       	ret

00001452 <_ZNK6String8endsWithERKS_>:
    1452:	fc 01       	movw	r30, r24
    1454:	db 01       	movw	r26, r22
    1456:	24 81       	ldd	r18, Z+4	; 0x04
    1458:	35 81       	ldd	r19, Z+5	; 0x05
    145a:	14 96       	adiw	r26, 0x04	; 4
    145c:	4d 91       	ld	r20, X+
    145e:	5c 91       	ld	r21, X
    1460:	15 97       	sbiw	r26, 0x05	; 5
    1462:	24 17       	cp	r18, r20
    1464:	35 07       	cpc	r19, r21
    1466:	a8 f0       	brcs	.+42     	; 0x1492 <_ZNK6String8endsWithERKS_+0x40>
    1468:	80 81       	ld	r24, Z
    146a:	91 81       	ldd	r25, Z+1	; 0x01
    146c:	00 97       	sbiw	r24, 0x00	; 0
    146e:	89 f0       	breq	.+34     	; 0x1492 <_ZNK6String8endsWithERKS_+0x40>
    1470:	6d 91       	ld	r22, X+
    1472:	7c 91       	ld	r23, X
    1474:	61 15       	cp	r22, r1
    1476:	71 05       	cpc	r23, r1
    1478:	61 f0       	breq	.+24     	; 0x1492 <_ZNK6String8endsWithERKS_+0x40>
    147a:	24 1b       	sub	r18, r20
    147c:	35 0b       	sbc	r19, r21
    147e:	82 0f       	add	r24, r18
    1480:	93 1f       	adc	r25, r19
    1482:	0e 94 5c 1c 	call	0x38b8	; 0x38b8 <strcmp>
    1486:	9c 01       	movw	r18, r24
    1488:	80 e0       	ldi	r24, 0x00	; 0
    148a:	23 2b       	or	r18, r19
    148c:	19 f4       	brne	.+6      	; 0x1494 <_ZNK6String8endsWithERKS_+0x42>
    148e:	81 e0       	ldi	r24, 0x01	; 1
    1490:	08 95       	ret
    1492:	80 e0       	ldi	r24, 0x00	; 0
    1494:	08 95       	ret

00001496 <_ZNK6String6equalsEPKc>:
    1496:	dc 01       	movw	r26, r24
    1498:	fb 01       	movw	r30, r22
    149a:	14 96       	adiw	r26, 0x04	; 4
    149c:	8d 91       	ld	r24, X+
    149e:	9c 91       	ld	r25, X
    14a0:	15 97       	sbiw	r26, 0x05	; 5
    14a2:	89 2b       	or	r24, r25
    14a4:	31 f4       	brne	.+12     	; 0x14b2 <_ZNK6String6equalsEPKc+0x1c>
    14a6:	61 15       	cp	r22, r1
    14a8:	71 05       	cpc	r23, r1
    14aa:	a9 f0       	breq	.+42     	; 0x14d6 <_ZNK6String6equalsEPKc+0x40>
    14ac:	90 e0       	ldi	r25, 0x00	; 0
    14ae:	80 81       	ld	r24, Z
    14b0:	08 c0       	rjmp	.+16     	; 0x14c2 <_ZNK6String6equalsEPKc+0x2c>
    14b2:	0d 90       	ld	r0, X+
    14b4:	bc 91       	ld	r27, X
    14b6:	a0 2d       	mov	r26, r0
    14b8:	61 15       	cp	r22, r1
    14ba:	71 05       	cpc	r23, r1
    14bc:	29 f4       	brne	.+10     	; 0x14c8 <_ZNK6String6equalsEPKc+0x32>
    14be:	90 e0       	ldi	r25, 0x00	; 0
    14c0:	8c 91       	ld	r24, X
    14c2:	88 23       	and	r24, r24
    14c4:	49 f4       	brne	.+18     	; 0x14d8 <_ZNK6String6equalsEPKc+0x42>
    14c6:	07 c0       	rjmp	.+14     	; 0x14d6 <_ZNK6String6equalsEPKc+0x40>
    14c8:	cd 01       	movw	r24, r26
    14ca:	0e 94 5c 1c 	call	0x38b8	; 0x38b8 <strcmp>
    14ce:	9c 01       	movw	r18, r24
    14d0:	90 e0       	ldi	r25, 0x00	; 0
    14d2:	23 2b       	or	r18, r19
    14d4:	09 f4       	brne	.+2      	; 0x14d8 <_ZNK6String6equalsEPKc+0x42>
    14d6:	91 e0       	ldi	r25, 0x01	; 1
    14d8:	89 2f       	mov	r24, r25
    14da:	08 95       	ret

000014dc <_ZNK6String9compareToERKS_>:
    14dc:	cf 93       	push	r28
    14de:	df 93       	push	r29
    14e0:	9c 01       	movw	r18, r24
    14e2:	fb 01       	movw	r30, r22
    14e4:	ec 01       	movw	r28, r24
    14e6:	a8 81       	ld	r26, Y
    14e8:	b9 81       	ldd	r27, Y+1	; 0x01
    14ea:	10 97       	sbiw	r26, 0x00	; 0
    14ec:	29 f0       	breq	.+10     	; 0x14f8 <_ZNK6String9compareToERKS_+0x1c>
    14ee:	60 81       	ld	r22, Z
    14f0:	71 81       	ldd	r23, Z+1	; 0x01
    14f2:	61 15       	cp	r22, r1
    14f4:	71 05       	cpc	r23, r1
    14f6:	d1 f4       	brne	.+52     	; 0x152c <_ZNK6String9compareToERKS_+0x50>
    14f8:	c0 81       	ld	r28, Z
    14fa:	d1 81       	ldd	r29, Z+1	; 0x01
    14fc:	20 97       	sbiw	r28, 0x00	; 0
    14fe:	59 f0       	breq	.+22     	; 0x1516 <_ZNK6String9compareToERKS_+0x3a>
    1500:	84 81       	ldd	r24, Z+4	; 0x04
    1502:	95 81       	ldd	r25, Z+5	; 0x05
    1504:	89 2b       	or	r24, r25
    1506:	39 f0       	breq	.+14     	; 0x1516 <_ZNK6String9compareToERKS_+0x3a>
    1508:	88 81       	ld	r24, Y
    150a:	90 e0       	ldi	r25, 0x00	; 0
    150c:	22 27       	eor	r18, r18
    150e:	33 27       	eor	r19, r19
    1510:	28 1b       	sub	r18, r24
    1512:	39 0b       	sbc	r19, r25
    1514:	12 c0       	rjmp	.+36     	; 0x153a <_ZNK6String9compareToERKS_+0x5e>
    1516:	10 97       	sbiw	r26, 0x00	; 0
    1518:	71 f0       	breq	.+28     	; 0x1536 <_ZNK6String9compareToERKS_+0x5a>
    151a:	f9 01       	movw	r30, r18
    151c:	84 81       	ldd	r24, Z+4	; 0x04
    151e:	95 81       	ldd	r25, Z+5	; 0x05
    1520:	89 2b       	or	r24, r25
    1522:	49 f0       	breq	.+18     	; 0x1536 <_ZNK6String9compareToERKS_+0x5a>
    1524:	8c 91       	ld	r24, X
    1526:	28 2f       	mov	r18, r24
    1528:	30 e0       	ldi	r19, 0x00	; 0
    152a:	07 c0       	rjmp	.+14     	; 0x153a <_ZNK6String9compareToERKS_+0x5e>
    152c:	cd 01       	movw	r24, r26
    152e:	0e 94 5c 1c 	call	0x38b8	; 0x38b8 <strcmp>
    1532:	9c 01       	movw	r18, r24
    1534:	02 c0       	rjmp	.+4      	; 0x153a <_ZNK6String9compareToERKS_+0x5e>
    1536:	20 e0       	ldi	r18, 0x00	; 0
    1538:	30 e0       	ldi	r19, 0x00	; 0
    153a:	c9 01       	movw	r24, r18
    153c:	df 91       	pop	r29
    153e:	cf 91       	pop	r28
    1540:	08 95       	ret

00001542 <_ZNK6StringgeERKS_>:
    1542:	0e 94 6e 0a 	call	0x14dc	; 0x14dc <_ZNK6String9compareToERKS_>
    1546:	89 2f       	mov	r24, r25
    1548:	80 95       	com	r24
    154a:	88 1f       	adc	r24, r24
    154c:	88 27       	eor	r24, r24
    154e:	88 1f       	adc	r24, r24
    1550:	08 95       	ret

00001552 <_ZNK6StringleERKS_>:
    1552:	0e 94 6e 0a 	call	0x14dc	; 0x14dc <_ZNK6String9compareToERKS_>
    1556:	20 e0       	ldi	r18, 0x00	; 0
    1558:	18 16       	cp	r1, r24
    155a:	19 06       	cpc	r1, r25
    155c:	0c f0       	brlt	.+2      	; 0x1560 <_ZNK6StringleERKS_+0xe>
    155e:	21 e0       	ldi	r18, 0x01	; 1
    1560:	82 2f       	mov	r24, r18
    1562:	08 95       	ret

00001564 <_ZNK6StringgtERKS_>:
    1564:	0e 94 6e 0a 	call	0x14dc	; 0x14dc <_ZNK6String9compareToERKS_>
    1568:	20 e0       	ldi	r18, 0x00	; 0
    156a:	18 16       	cp	r1, r24
    156c:	19 06       	cpc	r1, r25
    156e:	0c f4       	brge	.+2      	; 0x1572 <_ZNK6StringgtERKS_+0xe>
    1570:	21 e0       	ldi	r18, 0x01	; 1
    1572:	82 2f       	mov	r24, r18
    1574:	08 95       	ret

00001576 <_ZNK6StringltERKS_>:
    1576:	0e 94 6e 0a 	call	0x14dc	; 0x14dc <_ZNK6String9compareToERKS_>
    157a:	89 2f       	mov	r24, r25
    157c:	88 1f       	adc	r24, r24
    157e:	88 27       	eor	r24, r24
    1580:	88 1f       	adc	r24, r24
    1582:	08 95       	ret

00001584 <_ZNK6String6equalsERKS_>:
    1584:	fc 01       	movw	r30, r24
    1586:	db 01       	movw	r26, r22
    1588:	24 81       	ldd	r18, Z+4	; 0x04
    158a:	35 81       	ldd	r19, Z+5	; 0x05
    158c:	14 96       	adiw	r26, 0x04	; 4
    158e:	8d 91       	ld	r24, X+
    1590:	9c 91       	ld	r25, X
    1592:	15 97       	sbiw	r26, 0x05	; 5
    1594:	28 17       	cp	r18, r24
    1596:	39 07       	cpc	r19, r25
    1598:	11 f0       	breq	.+4      	; 0x159e <_ZNK6String6equalsERKS_+0x1a>
    159a:	20 e0       	ldi	r18, 0x00	; 0
    159c:	07 c0       	rjmp	.+14     	; 0x15ac <_ZNK6String6equalsERKS_+0x28>
    159e:	cf 01       	movw	r24, r30
    15a0:	0e 94 6e 0a 	call	0x14dc	; 0x14dc <_ZNK6String9compareToERKS_>
    15a4:	20 e0       	ldi	r18, 0x00	; 0
    15a6:	89 2b       	or	r24, r25
    15a8:	09 f4       	brne	.+2      	; 0x15ac <_ZNK6String6equalsERKS_+0x28>
    15aa:	21 e0       	ldi	r18, 0x01	; 1
    15ac:	82 2f       	mov	r24, r18
    15ae:	08 95       	ret

000015b0 <_ZNK6String10startsWithERKS_j>:
    15b0:	fc 01       	movw	r30, r24
    15b2:	db 01       	movw	r26, r22
    15b4:	14 96       	adiw	r26, 0x04	; 4
    15b6:	2d 91       	ld	r18, X+
    15b8:	3c 91       	ld	r19, X
    15ba:	15 97       	sbiw	r26, 0x05	; 5
    15bc:	84 81       	ldd	r24, Z+4	; 0x04
    15be:	95 81       	ldd	r25, Z+5	; 0x05
    15c0:	82 1b       	sub	r24, r18
    15c2:	93 0b       	sbc	r25, r19
    15c4:	84 17       	cp	r24, r20
    15c6:	95 07       	cpc	r25, r21
    15c8:	a0 f0       	brcs	.+40     	; 0x15f2 <_ZNK6String10startsWithERKS_j+0x42>
    15ca:	80 81       	ld	r24, Z
    15cc:	91 81       	ldd	r25, Z+1	; 0x01
    15ce:	00 97       	sbiw	r24, 0x00	; 0
    15d0:	81 f0       	breq	.+32     	; 0x15f2 <_ZNK6String10startsWithERKS_j+0x42>
    15d2:	6d 91       	ld	r22, X+
    15d4:	7c 91       	ld	r23, X
    15d6:	61 15       	cp	r22, r1
    15d8:	71 05       	cpc	r23, r1
    15da:	59 f0       	breq	.+22     	; 0x15f2 <_ZNK6String10startsWithERKS_j+0x42>
    15dc:	84 0f       	add	r24, r20
    15de:	95 1f       	adc	r25, r21
    15e0:	a9 01       	movw	r20, r18
    15e2:	0e 94 6c 1c 	call	0x38d8	; 0x38d8 <strncmp>
    15e6:	9c 01       	movw	r18, r24
    15e8:	80 e0       	ldi	r24, 0x00	; 0
    15ea:	23 2b       	or	r18, r19
    15ec:	19 f4       	brne	.+6      	; 0x15f4 <_ZNK6String10startsWithERKS_j+0x44>
    15ee:	81 e0       	ldi	r24, 0x01	; 1
    15f0:	08 95       	ret
    15f2:	80 e0       	ldi	r24, 0x00	; 0
    15f4:	08 95       	ret

000015f6 <_ZNK6String10startsWithERKS_>:
    15f6:	fc 01       	movw	r30, r24
    15f8:	db 01       	movw	r26, r22
    15fa:	24 81       	ldd	r18, Z+4	; 0x04
    15fc:	35 81       	ldd	r19, Z+5	; 0x05
    15fe:	14 96       	adiw	r26, 0x04	; 4
    1600:	8d 91       	ld	r24, X+
    1602:	9c 91       	ld	r25, X
    1604:	15 97       	sbiw	r26, 0x05	; 5
    1606:	28 17       	cp	r18, r24
    1608:	39 07       	cpc	r19, r25
    160a:	10 f4       	brcc	.+4      	; 0x1610 <_ZNK6String10startsWithERKS_+0x1a>
    160c:	80 e0       	ldi	r24, 0x00	; 0
    160e:	08 95       	ret
    1610:	cf 01       	movw	r24, r30
    1612:	40 e0       	ldi	r20, 0x00	; 0
    1614:	50 e0       	ldi	r21, 0x00	; 0
    1616:	0e 94 d8 0a 	call	0x15b0	; 0x15b0 <_ZNK6String10startsWithERKS_j>
    161a:	08 95       	ret

0000161c <_ZN6String12changeBufferEj>:
    161c:	0f 93       	push	r16
    161e:	1f 93       	push	r17
    1620:	cf 93       	push	r28
    1622:	df 93       	push	r29
    1624:	ec 01       	movw	r28, r24
    1626:	8b 01       	movw	r16, r22
    1628:	6f 5f       	subi	r22, 0xFF	; 255
    162a:	7f 4f       	sbci	r23, 0xFF	; 255
    162c:	88 81       	ld	r24, Y
    162e:	99 81       	ldd	r25, Y+1	; 0x01
    1630:	0e 94 29 1b 	call	0x3652	; 0x3652 <realloc>
    1634:	00 97       	sbiw	r24, 0x00	; 0
    1636:	11 f4       	brne	.+4      	; 0x163c <_ZN6String12changeBufferEj+0x20>
    1638:	80 e0       	ldi	r24, 0x00	; 0
    163a:	05 c0       	rjmp	.+10     	; 0x1646 <_ZN6String12changeBufferEj+0x2a>
    163c:	99 83       	std	Y+1, r25	; 0x01
    163e:	88 83       	st	Y, r24
    1640:	1b 83       	std	Y+3, r17	; 0x03
    1642:	0a 83       	std	Y+2, r16	; 0x02
    1644:	81 e0       	ldi	r24, 0x01	; 1
    1646:	df 91       	pop	r29
    1648:	cf 91       	pop	r28
    164a:	1f 91       	pop	r17
    164c:	0f 91       	pop	r16
    164e:	08 95       	ret

00001650 <_ZN6String7replaceERKS_S1_>:
    1650:	2f 92       	push	r2
    1652:	3f 92       	push	r3
    1654:	4f 92       	push	r4
    1656:	5f 92       	push	r5
    1658:	6f 92       	push	r6
    165a:	7f 92       	push	r7
    165c:	8f 92       	push	r8
    165e:	9f 92       	push	r9
    1660:	af 92       	push	r10
    1662:	bf 92       	push	r11
    1664:	cf 92       	push	r12
    1666:	df 92       	push	r13
    1668:	ef 92       	push	r14
    166a:	ff 92       	push	r15
    166c:	0f 93       	push	r16
    166e:	1f 93       	push	r17
    1670:	cf 93       	push	r28
    1672:	df 93       	push	r29
    1674:	5c 01       	movw	r10, r24
    1676:	2b 01       	movw	r4, r22
    1678:	4a 01       	movw	r8, r20
    167a:	dc 01       	movw	r26, r24
    167c:	14 96       	adiw	r26, 0x04	; 4
    167e:	0d 91       	ld	r16, X+
    1680:	1c 91       	ld	r17, X
    1682:	15 97       	sbiw	r26, 0x05	; 5
    1684:	01 15       	cp	r16, r1
    1686:	11 05       	cpc	r17, r1
    1688:	09 f4       	brne	.+2      	; 0x168c <_ZN6String7replaceERKS_S1_+0x3c>
    168a:	d4 c0       	rjmp	.+424    	; 0x1834 <_ZN6String7replaceERKS_S1_+0x1e4>
    168c:	fb 01       	movw	r30, r22
    168e:	c4 80       	ldd	r12, Z+4	; 0x04
    1690:	d5 80       	ldd	r13, Z+5	; 0x05
    1692:	c1 14       	cp	r12, r1
    1694:	d1 04       	cpc	r13, r1
    1696:	09 f4       	brne	.+2      	; 0x169a <_ZN6String7replaceERKS_S1_+0x4a>
    1698:	cd c0       	rjmp	.+410    	; 0x1834 <_ZN6String7replaceERKS_S1_+0x1e4>
    169a:	da 01       	movw	r26, r20
    169c:	14 96       	adiw	r26, 0x04	; 4
    169e:	6d 90       	ld	r6, X+
    16a0:	7c 90       	ld	r7, X
    16a2:	15 97       	sbiw	r26, 0x05	; 5
    16a4:	6c 18       	sub	r6, r12
    16a6:	7d 08       	sbc	r7, r13
    16a8:	fc 01       	movw	r30, r24
    16aa:	e0 80       	ld	r14, Z
    16ac:	f1 80       	ldd	r15, Z+1	; 0x01
    16ae:	61 14       	cp	r6, r1
    16b0:	71 04       	cpc	r7, r1
    16b2:	91 f0       	breq	.+36     	; 0x16d8 <_ZN6String7replaceERKS_S1_+0x88>
    16b4:	1b c0       	rjmp	.+54     	; 0x16ec <_ZN6String7replaceERKS_S1_+0x9c>
    16b6:	d4 01       	movw	r26, r8
    16b8:	6c 91       	ld	r22, X
    16ba:	11 96       	adiw	r26, 0x01	; 1
    16bc:	7c 91       	ld	r23, X
    16be:	11 97       	sbiw	r26, 0x01	; 1
    16c0:	14 96       	adiw	r26, 0x04	; 4
    16c2:	4d 91       	ld	r20, X+
    16c4:	5c 91       	ld	r21, X
    16c6:	15 97       	sbiw	r26, 0x05	; 5
    16c8:	8c 2f       	mov	r24, r28
    16ca:	0e 94 36 1c 	call	0x386c	; 0x386c <memcpy>
    16ce:	f4 01       	movw	r30, r8
    16d0:	e4 80       	ldd	r14, Z+4	; 0x04
    16d2:	f5 80       	ldd	r15, Z+5	; 0x05
    16d4:	ec 0e       	add	r14, r28
    16d6:	fd 1e       	adc	r15, r29
    16d8:	d2 01       	movw	r26, r4
    16da:	6d 91       	ld	r22, X+
    16dc:	7c 91       	ld	r23, X
    16de:	c7 01       	movw	r24, r14
    16e0:	0e 94 94 1c 	call	0x3928	; 0x3928 <strstr>
    16e4:	ec 01       	movw	r28, r24
    16e6:	00 97       	sbiw	r24, 0x00	; 0
    16e8:	31 f7       	brne	.-52     	; 0x16b6 <_ZN6String7replaceERKS_S1_+0x66>
    16ea:	a4 c0       	rjmp	.+328    	; 0x1834 <_ZN6String7replaceERKS_S1_+0x1e4>
    16ec:	77 fe       	sbrs	r7, 7
    16ee:	02 c0       	rjmp	.+4      	; 0x16f4 <_ZN6String7replaceERKS_S1_+0xa4>
    16f0:	67 01       	movw	r12, r14
    16f2:	2e c0       	rjmp	.+92     	; 0x1750 <_ZN6String7replaceERKS_S1_+0x100>
    16f4:	fb 01       	movw	r30, r22
    16f6:	20 80       	ld	r2, Z
    16f8:	31 80       	ldd	r3, Z+1	; 0x01
    16fa:	e8 01       	movw	r28, r16
    16fc:	3c c0       	rjmp	.+120    	; 0x1776 <_ZN6String7replaceERKS_S1_+0x126>
    16fe:	8e 01       	movw	r16, r28
    1700:	0e 19       	sub	r16, r14
    1702:	1f 09       	sbc	r17, r15
    1704:	c6 01       	movw	r24, r12
    1706:	b7 01       	movw	r22, r14
    1708:	a8 01       	movw	r20, r16
    170a:	0e 94 36 1c 	call	0x386c	; 0x386c <memcpy>
    170e:	0c 0d       	add	r16, r12
    1710:	1d 1d       	adc	r17, r13
    1712:	d4 01       	movw	r26, r8
    1714:	6c 91       	ld	r22, X
    1716:	11 96       	adiw	r26, 0x01	; 1
    1718:	7c 91       	ld	r23, X
    171a:	11 97       	sbiw	r26, 0x01	; 1
    171c:	14 96       	adiw	r26, 0x04	; 4
    171e:	4d 91       	ld	r20, X+
    1720:	5c 91       	ld	r21, X
    1722:	15 97       	sbiw	r26, 0x05	; 5
    1724:	c8 01       	movw	r24, r16
    1726:	0e 94 36 1c 	call	0x386c	; 0x386c <memcpy>
    172a:	f4 01       	movw	r30, r8
    172c:	c4 80       	ldd	r12, Z+4	; 0x04
    172e:	d5 80       	ldd	r13, Z+5	; 0x05
    1730:	c0 0e       	add	r12, r16
    1732:	d1 1e       	adc	r13, r17
    1734:	d2 01       	movw	r26, r4
    1736:	14 96       	adiw	r26, 0x04	; 4
    1738:	ed 90       	ld	r14, X+
    173a:	fc 90       	ld	r15, X
    173c:	15 97       	sbiw	r26, 0x05	; 5
    173e:	ec 0e       	add	r14, r28
    1740:	fd 1e       	adc	r15, r29
    1742:	f5 01       	movw	r30, r10
    1744:	84 81       	ldd	r24, Z+4	; 0x04
    1746:	95 81       	ldd	r25, Z+5	; 0x05
    1748:	86 0d       	add	r24, r6
    174a:	97 1d       	adc	r25, r7
    174c:	95 83       	std	Z+5, r25	; 0x05
    174e:	84 83       	std	Z+4, r24	; 0x04
    1750:	d2 01       	movw	r26, r4
    1752:	6d 91       	ld	r22, X+
    1754:	7c 91       	ld	r23, X
    1756:	c7 01       	movw	r24, r14
    1758:	0e 94 94 1c 	call	0x3928	; 0x3928 <strstr>
    175c:	ec 01       	movw	r28, r24
    175e:	00 97       	sbiw	r24, 0x00	; 0
    1760:	71 f6       	brne	.-100    	; 0x16fe <_ZN6String7replaceERKS_S1_+0xae>
    1762:	c6 01       	movw	r24, r12
    1764:	b7 01       	movw	r22, r14
    1766:	0e 94 65 1c 	call	0x38ca	; 0x38ca <strcpy>
    176a:	64 c0       	rjmp	.+200    	; 0x1834 <_ZN6String7replaceERKS_S1_+0x1e4>
    176c:	7b 01       	movw	r14, r22
    176e:	ec 0c       	add	r14, r12
    1770:	fd 1c       	adc	r15, r13
    1772:	c6 0d       	add	r28, r6
    1774:	d7 1d       	adc	r29, r7
    1776:	c7 01       	movw	r24, r14
    1778:	b1 01       	movw	r22, r2
    177a:	0e 94 94 1c 	call	0x3928	; 0x3928 <strstr>
    177e:	bc 01       	movw	r22, r24
    1780:	00 97       	sbiw	r24, 0x00	; 0
    1782:	a1 f7       	brne	.-24     	; 0x176c <_ZN6String7replaceERKS_S1_+0x11c>
    1784:	c0 17       	cp	r28, r16
    1786:	d1 07       	cpc	r29, r17
    1788:	09 f4       	brne	.+2      	; 0x178c <_ZN6String7replaceERKS_S1_+0x13c>
    178a:	54 c0       	rjmp	.+168    	; 0x1834 <_ZN6String7replaceERKS_S1_+0x1e4>
    178c:	f5 01       	movw	r30, r10
    178e:	82 81       	ldd	r24, Z+2	; 0x02
    1790:	93 81       	ldd	r25, Z+3	; 0x03
    1792:	8c 17       	cp	r24, r28
    1794:	9d 07       	cpc	r25, r29
    1796:	08 f0       	brcs	.+2      	; 0x179a <_ZN6String7replaceERKS_S1_+0x14a>
    1798:	44 c0       	rjmp	.+136    	; 0x1822 <_ZN6String7replaceERKS_S1_+0x1d2>
    179a:	c5 01       	movw	r24, r10
    179c:	be 01       	movw	r22, r28
    179e:	0e 94 0e 0b 	call	0x161c	; 0x161c <_ZN6String12changeBufferEj>
    17a2:	88 23       	and	r24, r24
    17a4:	f1 f5       	brne	.+124    	; 0x1822 <_ZN6String7replaceERKS_S1_+0x1d2>
    17a6:	46 c0       	rjmp	.+140    	; 0x1834 <_ZN6String7replaceERKS_S1_+0x1e4>
    17a8:	c5 01       	movw	r24, r10
    17aa:	b2 01       	movw	r22, r4
    17ac:	a9 01       	movw	r20, r18
    17ae:	0e 94 1f 09 	call	0x123e	; 0x123e <_ZNK6String11lastIndexOfERKS_j>
    17b2:	ec 01       	movw	r28, r24
    17b4:	97 fd       	sbrc	r25, 7
    17b6:	3e c0       	rjmp	.+124    	; 0x1834 <_ZN6String7replaceERKS_S1_+0x1e4>
    17b8:	d5 01       	movw	r26, r10
    17ba:	6d 91       	ld	r22, X+
    17bc:	7c 91       	ld	r23, X
    17be:	11 97       	sbiw	r26, 0x01	; 1
    17c0:	f2 01       	movw	r30, r4
    17c2:	84 81       	ldd	r24, Z+4	; 0x04
    17c4:	95 81       	ldd	r25, Z+5	; 0x05
    17c6:	8c 0f       	add	r24, r28
    17c8:	9d 1f       	adc	r25, r29
    17ca:	68 0f       	add	r22, r24
    17cc:	79 1f       	adc	r23, r25
    17ce:	14 96       	adiw	r26, 0x04	; 4
    17d0:	4d 91       	ld	r20, X+
    17d2:	5c 91       	ld	r21, X
    17d4:	15 97       	sbiw	r26, 0x05	; 5
    17d6:	48 1b       	sub	r20, r24
    17d8:	59 0b       	sbc	r21, r25
    17da:	cb 01       	movw	r24, r22
    17dc:	86 0d       	add	r24, r6
    17de:	97 1d       	adc	r25, r7
    17e0:	0e 94 3f 1c 	call	0x387e	; 0x387e <memmove>
    17e4:	d5 01       	movw	r26, r10
    17e6:	14 96       	adiw	r26, 0x04	; 4
    17e8:	8d 91       	ld	r24, X+
    17ea:	9c 91       	ld	r25, X
    17ec:	15 97       	sbiw	r26, 0x05	; 5
    17ee:	86 0d       	add	r24, r6
    17f0:	97 1d       	adc	r25, r7
    17f2:	15 96       	adiw	r26, 0x05	; 5
    17f4:	9c 93       	st	X, r25
    17f6:	8e 93       	st	-X, r24
    17f8:	14 97       	sbiw	r26, 0x04	; 4
    17fa:	ed 91       	ld	r30, X+
    17fc:	fc 91       	ld	r31, X
    17fe:	11 97       	sbiw	r26, 0x01	; 1
    1800:	e8 0f       	add	r30, r24
    1802:	f9 1f       	adc	r31, r25
    1804:	10 82       	st	Z, r1
    1806:	2d 91       	ld	r18, X+
    1808:	3c 91       	ld	r19, X
    180a:	2c 0f       	add	r18, r28
    180c:	3d 1f       	adc	r19, r29
    180e:	f4 01       	movw	r30, r8
    1810:	60 81       	ld	r22, Z
    1812:	71 81       	ldd	r23, Z+1	; 0x01
    1814:	44 81       	ldd	r20, Z+4	; 0x04
    1816:	55 81       	ldd	r21, Z+5	; 0x05
    1818:	c9 01       	movw	r24, r18
    181a:	0e 94 36 1c 	call	0x386c	; 0x386c <memcpy>
    181e:	9e 01       	movw	r18, r28
    1820:	05 c0       	rjmp	.+10     	; 0x182c <_ZN6String7replaceERKS_S1_+0x1dc>
    1822:	d5 01       	movw	r26, r10
    1824:	14 96       	adiw	r26, 0x04	; 4
    1826:	2d 91       	ld	r18, X+
    1828:	3c 91       	ld	r19, X
    182a:	15 97       	sbiw	r26, 0x05	; 5
    182c:	21 50       	subi	r18, 0x01	; 1
    182e:	30 40       	sbci	r19, 0x00	; 0
    1830:	37 ff       	sbrs	r19, 7
    1832:	ba cf       	rjmp	.-140    	; 0x17a8 <_ZN6String7replaceERKS_S1_+0x158>
    1834:	df 91       	pop	r29
    1836:	cf 91       	pop	r28
    1838:	1f 91       	pop	r17
    183a:	0f 91       	pop	r16
    183c:	ff 90       	pop	r15
    183e:	ef 90       	pop	r14
    1840:	df 90       	pop	r13
    1842:	cf 90       	pop	r12
    1844:	bf 90       	pop	r11
    1846:	af 90       	pop	r10
    1848:	9f 90       	pop	r9
    184a:	8f 90       	pop	r8
    184c:	7f 90       	pop	r7
    184e:	6f 90       	pop	r6
    1850:	5f 90       	pop	r5
    1852:	4f 90       	pop	r4
    1854:	3f 90       	pop	r3
    1856:	2f 90       	pop	r2
    1858:	08 95       	ret

0000185a <_ZN6String7reserveEj>:
    185a:	cf 93       	push	r28
    185c:	df 93       	push	r29
    185e:	ec 01       	movw	r28, r24
    1860:	88 81       	ld	r24, Y
    1862:	99 81       	ldd	r25, Y+1	; 0x01
    1864:	89 2b       	or	r24, r25
    1866:	29 f0       	breq	.+10     	; 0x1872 <_ZN6String7reserveEj+0x18>
    1868:	8a 81       	ldd	r24, Y+2	; 0x02
    186a:	9b 81       	ldd	r25, Y+3	; 0x03
    186c:	86 17       	cp	r24, r22
    186e:	97 07       	cpc	r25, r23
    1870:	60 f4       	brcc	.+24     	; 0x188a <_ZN6String7reserveEj+0x30>
    1872:	ce 01       	movw	r24, r28
    1874:	0e 94 0e 0b 	call	0x161c	; 0x161c <_ZN6String12changeBufferEj>
    1878:	88 23       	and	r24, r24
    187a:	41 f0       	breq	.+16     	; 0x188c <_ZN6String7reserveEj+0x32>
    187c:	8c 81       	ldd	r24, Y+4	; 0x04
    187e:	9d 81       	ldd	r25, Y+5	; 0x05
    1880:	89 2b       	or	r24, r25
    1882:	19 f4       	brne	.+6      	; 0x188a <_ZN6String7reserveEj+0x30>
    1884:	e8 81       	ld	r30, Y
    1886:	f9 81       	ldd	r31, Y+1	; 0x01
    1888:	10 82       	st	Z, r1
    188a:	81 e0       	ldi	r24, 0x01	; 1
    188c:	df 91       	pop	r29
    188e:	cf 91       	pop	r28
    1890:	08 95       	ret

00001892 <_ZN6String6concatEPKcj>:
    1892:	ef 92       	push	r14
    1894:	ff 92       	push	r15
    1896:	0f 93       	push	r16
    1898:	1f 93       	push	r17
    189a:	cf 93       	push	r28
    189c:	df 93       	push	r29
    189e:	ec 01       	movw	r28, r24
    18a0:	7b 01       	movw	r14, r22
    18a2:	6c 81       	ldd	r22, Y+4	; 0x04
    18a4:	7d 81       	ldd	r23, Y+5	; 0x05
    18a6:	e1 14       	cp	r14, r1
    18a8:	f1 04       	cpc	r15, r1
    18aa:	c1 f0       	breq	.+48     	; 0x18dc <_ZN6String6concatEPKcj+0x4a>
    18ac:	41 15       	cp	r20, r1
    18ae:	51 05       	cpc	r21, r1
    18b0:	99 f0       	breq	.+38     	; 0x18d8 <_ZN6String6concatEPKcj+0x46>
    18b2:	8a 01       	movw	r16, r20
    18b4:	06 0f       	add	r16, r22
    18b6:	17 1f       	adc	r17, r23
    18b8:	b8 01       	movw	r22, r16
    18ba:	0e 94 2d 0c 	call	0x185a	; 0x185a <_ZN6String7reserveEj>
    18be:	88 23       	and	r24, r24
    18c0:	69 f0       	breq	.+26     	; 0x18dc <_ZN6String6concatEPKcj+0x4a>
    18c2:	88 81       	ld	r24, Y
    18c4:	99 81       	ldd	r25, Y+1	; 0x01
    18c6:	2c 81       	ldd	r18, Y+4	; 0x04
    18c8:	3d 81       	ldd	r19, Y+5	; 0x05
    18ca:	82 0f       	add	r24, r18
    18cc:	93 1f       	adc	r25, r19
    18ce:	b7 01       	movw	r22, r14
    18d0:	0e 94 65 1c 	call	0x38ca	; 0x38ca <strcpy>
    18d4:	1d 83       	std	Y+5, r17	; 0x05
    18d6:	0c 83       	std	Y+4, r16	; 0x04
    18d8:	81 e0       	ldi	r24, 0x01	; 1
    18da:	01 c0       	rjmp	.+2      	; 0x18de <_ZN6String6concatEPKcj+0x4c>
    18dc:	80 e0       	ldi	r24, 0x00	; 0
    18de:	df 91       	pop	r29
    18e0:	cf 91       	pop	r28
    18e2:	1f 91       	pop	r17
    18e4:	0f 91       	pop	r16
    18e6:	ff 90       	pop	r15
    18e8:	ef 90       	pop	r14
    18ea:	08 95       	ret

000018ec <_ZN6String6concatEm>:
    18ec:	ef 92       	push	r14
    18ee:	ff 92       	push	r15
    18f0:	0f 93       	push	r16
    18f2:	1f 93       	push	r17
    18f4:	df 93       	push	r29
    18f6:	cf 93       	push	r28
    18f8:	cd b7       	in	r28, 0x3d	; 61
    18fa:	de b7       	in	r29, 0x3e	; 62
    18fc:	2b 97       	sbiw	r28, 0x0b	; 11
    18fe:	0f b6       	in	r0, 0x3f	; 63
    1900:	f8 94       	cli
    1902:	de bf       	out	0x3e, r29	; 62
    1904:	0f be       	out	0x3f, r0	; 63
    1906:	cd bf       	out	0x3d, r28	; 61
    1908:	7c 01       	movw	r14, r24
    190a:	cb 01       	movw	r24, r22
    190c:	ba 01       	movw	r22, r20
    190e:	8e 01       	movw	r16, r28
    1910:	0f 5f       	subi	r16, 0xFF	; 255
    1912:	1f 4f       	sbci	r17, 0xFF	; 255
    1914:	a8 01       	movw	r20, r16
    1916:	2a e0       	ldi	r18, 0x0A	; 10
    1918:	30 e0       	ldi	r19, 0x00	; 0
    191a:	0e 94 18 1d 	call	0x3a30	; 0x3a30 <ultoa>
    191e:	f8 01       	movw	r30, r16
    1920:	01 90       	ld	r0, Z+
    1922:	00 20       	and	r0, r0
    1924:	e9 f7       	brne	.-6      	; 0x1920 <_ZN6String6concatEm+0x34>
    1926:	31 97       	sbiw	r30, 0x01	; 1
    1928:	e0 1b       	sub	r30, r16
    192a:	f1 0b       	sbc	r31, r17
    192c:	c7 01       	movw	r24, r14
    192e:	b8 01       	movw	r22, r16
    1930:	af 01       	movw	r20, r30
    1932:	0e 94 49 0c 	call	0x1892	; 0x1892 <_ZN6String6concatEPKcj>
    1936:	2b 96       	adiw	r28, 0x0b	; 11
    1938:	0f b6       	in	r0, 0x3f	; 63
    193a:	f8 94       	cli
    193c:	de bf       	out	0x3e, r29	; 62
    193e:	0f be       	out	0x3f, r0	; 63
    1940:	cd bf       	out	0x3d, r28	; 61
    1942:	cf 91       	pop	r28
    1944:	df 91       	pop	r29
    1946:	1f 91       	pop	r17
    1948:	0f 91       	pop	r16
    194a:	ff 90       	pop	r15
    194c:	ef 90       	pop	r14
    194e:	08 95       	ret

00001950 <_ZN6String6concatEl>:
    1950:	ef 92       	push	r14
    1952:	ff 92       	push	r15
    1954:	0f 93       	push	r16
    1956:	1f 93       	push	r17
    1958:	df 93       	push	r29
    195a:	cf 93       	push	r28
    195c:	cd b7       	in	r28, 0x3d	; 61
    195e:	de b7       	in	r29, 0x3e	; 62
    1960:	2c 97       	sbiw	r28, 0x0c	; 12
    1962:	0f b6       	in	r0, 0x3f	; 63
    1964:	f8 94       	cli
    1966:	de bf       	out	0x3e, r29	; 62
    1968:	0f be       	out	0x3f, r0	; 63
    196a:	cd bf       	out	0x3d, r28	; 61
    196c:	7c 01       	movw	r14, r24
    196e:	cb 01       	movw	r24, r22
    1970:	ba 01       	movw	r22, r20
    1972:	8e 01       	movw	r16, r28
    1974:	0f 5f       	subi	r16, 0xFF	; 255
    1976:	1f 4f       	sbci	r17, 0xFF	; 255
    1978:	a8 01       	movw	r20, r16
    197a:	2a e0       	ldi	r18, 0x0A	; 10
    197c:	30 e0       	ldi	r19, 0x00	; 0
    197e:	0e 94 cf 1c 	call	0x399e	; 0x399e <ltoa>
    1982:	f8 01       	movw	r30, r16
    1984:	01 90       	ld	r0, Z+
    1986:	00 20       	and	r0, r0
    1988:	e9 f7       	brne	.-6      	; 0x1984 <_ZN6String6concatEl+0x34>
    198a:	31 97       	sbiw	r30, 0x01	; 1
    198c:	e0 1b       	sub	r30, r16
    198e:	f1 0b       	sbc	r31, r17
    1990:	c7 01       	movw	r24, r14
    1992:	b8 01       	movw	r22, r16
    1994:	af 01       	movw	r20, r30
    1996:	0e 94 49 0c 	call	0x1892	; 0x1892 <_ZN6String6concatEPKcj>
    199a:	2c 96       	adiw	r28, 0x0c	; 12
    199c:	0f b6       	in	r0, 0x3f	; 63
    199e:	f8 94       	cli
    19a0:	de bf       	out	0x3e, r29	; 62
    19a2:	0f be       	out	0x3f, r0	; 63
    19a4:	cd bf       	out	0x3d, r28	; 61
    19a6:	cf 91       	pop	r28
    19a8:	df 91       	pop	r29
    19aa:	1f 91       	pop	r17
    19ac:	0f 91       	pop	r16
    19ae:	ff 90       	pop	r15
    19b0:	ef 90       	pop	r14
    19b2:	08 95       	ret

000019b4 <_ZN6String6concatEj>:
    19b4:	ef 92       	push	r14
    19b6:	ff 92       	push	r15
    19b8:	0f 93       	push	r16
    19ba:	1f 93       	push	r17
    19bc:	df 93       	push	r29
    19be:	cf 93       	push	r28
    19c0:	00 d0       	rcall	.+0      	; 0x19c2 <_ZN6String6concatEj+0xe>
    19c2:	00 d0       	rcall	.+0      	; 0x19c4 <_ZN6String6concatEj+0x10>
    19c4:	00 d0       	rcall	.+0      	; 0x19c6 <_ZN6String6concatEj+0x12>
    19c6:	cd b7       	in	r28, 0x3d	; 61
    19c8:	de b7       	in	r29, 0x3e	; 62
    19ca:	7c 01       	movw	r14, r24
    19cc:	cb 01       	movw	r24, r22
    19ce:	8e 01       	movw	r16, r28
    19d0:	0f 5f       	subi	r16, 0xFF	; 255
    19d2:	1f 4f       	sbci	r17, 0xFF	; 255
    19d4:	b8 01       	movw	r22, r16
    19d6:	4a e0       	ldi	r20, 0x0A	; 10
    19d8:	50 e0       	ldi	r21, 0x00	; 0
    19da:	0e 94 3d 1d 	call	0x3a7a	; 0x3a7a <utoa>
    19de:	f8 01       	movw	r30, r16
    19e0:	01 90       	ld	r0, Z+
    19e2:	00 20       	and	r0, r0
    19e4:	e9 f7       	brne	.-6      	; 0x19e0 <_ZN6String6concatEj+0x2c>
    19e6:	31 97       	sbiw	r30, 0x01	; 1
    19e8:	e0 1b       	sub	r30, r16
    19ea:	f1 0b       	sbc	r31, r17
    19ec:	c7 01       	movw	r24, r14
    19ee:	b8 01       	movw	r22, r16
    19f0:	af 01       	movw	r20, r30
    19f2:	0e 94 49 0c 	call	0x1892	; 0x1892 <_ZN6String6concatEPKcj>
    19f6:	26 96       	adiw	r28, 0x06	; 6
    19f8:	0f b6       	in	r0, 0x3f	; 63
    19fa:	f8 94       	cli
    19fc:	de bf       	out	0x3e, r29	; 62
    19fe:	0f be       	out	0x3f, r0	; 63
    1a00:	cd bf       	out	0x3d, r28	; 61
    1a02:	cf 91       	pop	r28
    1a04:	df 91       	pop	r29
    1a06:	1f 91       	pop	r17
    1a08:	0f 91       	pop	r16
    1a0a:	ff 90       	pop	r15
    1a0c:	ef 90       	pop	r14
    1a0e:	08 95       	ret

00001a10 <_ZN6String6concatEi>:
    1a10:	ef 92       	push	r14
    1a12:	ff 92       	push	r15
    1a14:	0f 93       	push	r16
    1a16:	1f 93       	push	r17
    1a18:	df 93       	push	r29
    1a1a:	cf 93       	push	r28
    1a1c:	cd b7       	in	r28, 0x3d	; 61
    1a1e:	de b7       	in	r29, 0x3e	; 62
    1a20:	27 97       	sbiw	r28, 0x07	; 7
    1a22:	0f b6       	in	r0, 0x3f	; 63
    1a24:	f8 94       	cli
    1a26:	de bf       	out	0x3e, r29	; 62
    1a28:	0f be       	out	0x3f, r0	; 63
    1a2a:	cd bf       	out	0x3d, r28	; 61
    1a2c:	7c 01       	movw	r14, r24
    1a2e:	cb 01       	movw	r24, r22
    1a30:	8e 01       	movw	r16, r28
    1a32:	0f 5f       	subi	r16, 0xFF	; 255
    1a34:	1f 4f       	sbci	r17, 0xFF	; 255
    1a36:	b8 01       	movw	r22, r16
    1a38:	4a e0       	ldi	r20, 0x0A	; 10
    1a3a:	50 e0       	ldi	r21, 0x00	; 0
    1a3c:	0e 94 ae 1c 	call	0x395c	; 0x395c <itoa>
    1a40:	f8 01       	movw	r30, r16
    1a42:	01 90       	ld	r0, Z+
    1a44:	00 20       	and	r0, r0
    1a46:	e9 f7       	brne	.-6      	; 0x1a42 <_ZN6String6concatEi+0x32>
    1a48:	31 97       	sbiw	r30, 0x01	; 1
    1a4a:	e0 1b       	sub	r30, r16
    1a4c:	f1 0b       	sbc	r31, r17
    1a4e:	c7 01       	movw	r24, r14
    1a50:	b8 01       	movw	r22, r16
    1a52:	af 01       	movw	r20, r30
    1a54:	0e 94 49 0c 	call	0x1892	; 0x1892 <_ZN6String6concatEPKcj>
    1a58:	27 96       	adiw	r28, 0x07	; 7
    1a5a:	0f b6       	in	r0, 0x3f	; 63
    1a5c:	f8 94       	cli
    1a5e:	de bf       	out	0x3e, r29	; 62
    1a60:	0f be       	out	0x3f, r0	; 63
    1a62:	cd bf       	out	0x3d, r28	; 61
    1a64:	cf 91       	pop	r28
    1a66:	df 91       	pop	r29
    1a68:	1f 91       	pop	r17
    1a6a:	0f 91       	pop	r16
    1a6c:	ff 90       	pop	r15
    1a6e:	ef 90       	pop	r14
    1a70:	08 95       	ret

00001a72 <_ZN6String6concatEh>:
    1a72:	ef 92       	push	r14
    1a74:	ff 92       	push	r15
    1a76:	0f 93       	push	r16
    1a78:	1f 93       	push	r17
    1a7a:	df 93       	push	r29
    1a7c:	cf 93       	push	r28
    1a7e:	00 d0       	rcall	.+0      	; 0x1a80 <_ZN6String6concatEh+0xe>
    1a80:	00 d0       	rcall	.+0      	; 0x1a82 <_ZN6String6concatEh+0x10>
    1a82:	cd b7       	in	r28, 0x3d	; 61
    1a84:	de b7       	in	r29, 0x3e	; 62
    1a86:	7c 01       	movw	r14, r24
    1a88:	86 2f       	mov	r24, r22
    1a8a:	90 e0       	ldi	r25, 0x00	; 0
    1a8c:	8e 01       	movw	r16, r28
    1a8e:	0f 5f       	subi	r16, 0xFF	; 255
    1a90:	1f 4f       	sbci	r17, 0xFF	; 255
    1a92:	b8 01       	movw	r22, r16
    1a94:	4a e0       	ldi	r20, 0x0A	; 10
    1a96:	50 e0       	ldi	r21, 0x00	; 0
    1a98:	0e 94 ae 1c 	call	0x395c	; 0x395c <itoa>
    1a9c:	f8 01       	movw	r30, r16
    1a9e:	01 90       	ld	r0, Z+
    1aa0:	00 20       	and	r0, r0
    1aa2:	e9 f7       	brne	.-6      	; 0x1a9e <_ZN6String6concatEh+0x2c>
    1aa4:	31 97       	sbiw	r30, 0x01	; 1
    1aa6:	e0 1b       	sub	r30, r16
    1aa8:	f1 0b       	sbc	r31, r17
    1aaa:	c7 01       	movw	r24, r14
    1aac:	b8 01       	movw	r22, r16
    1aae:	af 01       	movw	r20, r30
    1ab0:	0e 94 49 0c 	call	0x1892	; 0x1892 <_ZN6String6concatEPKcj>
    1ab4:	0f 90       	pop	r0
    1ab6:	0f 90       	pop	r0
    1ab8:	0f 90       	pop	r0
    1aba:	0f 90       	pop	r0
    1abc:	cf 91       	pop	r28
    1abe:	df 91       	pop	r29
    1ac0:	1f 91       	pop	r17
    1ac2:	0f 91       	pop	r16
    1ac4:	ff 90       	pop	r15
    1ac6:	ef 90       	pop	r14
    1ac8:	08 95       	ret

00001aca <_ZN6String6concatEc>:
    1aca:	df 93       	push	r29
    1acc:	cf 93       	push	r28
    1ace:	00 d0       	rcall	.+0      	; 0x1ad0 <_ZN6String6concatEc+0x6>
    1ad0:	cd b7       	in	r28, 0x3d	; 61
    1ad2:	de b7       	in	r29, 0x3e	; 62
    1ad4:	69 83       	std	Y+1, r22	; 0x01
    1ad6:	1a 82       	std	Y+2, r1	; 0x02
    1ad8:	be 01       	movw	r22, r28
    1ada:	6f 5f       	subi	r22, 0xFF	; 255
    1adc:	7f 4f       	sbci	r23, 0xFF	; 255
    1ade:	41 e0       	ldi	r20, 0x01	; 1
    1ae0:	50 e0       	ldi	r21, 0x00	; 0
    1ae2:	0e 94 49 0c 	call	0x1892	; 0x1892 <_ZN6String6concatEPKcj>
    1ae6:	0f 90       	pop	r0
    1ae8:	0f 90       	pop	r0
    1aea:	cf 91       	pop	r28
    1aec:	df 91       	pop	r29
    1aee:	08 95       	ret

00001af0 <_ZN6String6concatEPKc>:
    1af0:	61 15       	cp	r22, r1
    1af2:	71 05       	cpc	r23, r1
    1af4:	11 f4       	brne	.+4      	; 0x1afa <_ZN6String6concatEPKc+0xa>
    1af6:	80 e0       	ldi	r24, 0x00	; 0
    1af8:	08 95       	ret
    1afa:	db 01       	movw	r26, r22
    1afc:	0d 90       	ld	r0, X+
    1afe:	00 20       	and	r0, r0
    1b00:	e9 f7       	brne	.-6      	; 0x1afc <_ZN6String6concatEPKc+0xc>
    1b02:	11 97       	sbiw	r26, 0x01	; 1
    1b04:	a6 1b       	sub	r26, r22
    1b06:	b7 0b       	sbc	r27, r23
    1b08:	ad 01       	movw	r20, r26
    1b0a:	0e 94 49 0c 	call	0x1892	; 0x1892 <_ZN6String6concatEPKcj>
    1b0e:	08 95       	ret

00001b10 <_ZN6String6concatERKS_>:
    1b10:	fb 01       	movw	r30, r22
    1b12:	60 81       	ld	r22, Z
    1b14:	71 81       	ldd	r23, Z+1	; 0x01
    1b16:	44 81       	ldd	r20, Z+4	; 0x04
    1b18:	55 81       	ldd	r21, Z+5	; 0x05
    1b1a:	0e 94 49 0c 	call	0x1892	; 0x1892 <_ZN6String6concatEPKcj>
    1b1e:	08 95       	ret

00001b20 <_ZN6String10invalidateEv>:
    1b20:	cf 93       	push	r28
    1b22:	df 93       	push	r29
    1b24:	ec 01       	movw	r28, r24
    1b26:	88 81       	ld	r24, Y
    1b28:	99 81       	ldd	r25, Y+1	; 0x01
    1b2a:	00 97       	sbiw	r24, 0x00	; 0
    1b2c:	11 f0       	breq	.+4      	; 0x1b32 <_ZN6String10invalidateEv+0x12>
    1b2e:	0e 94 d1 1a 	call	0x35a2	; 0x35a2 <free>
    1b32:	19 82       	std	Y+1, r1	; 0x01
    1b34:	18 82       	st	Y, r1
    1b36:	1d 82       	std	Y+5, r1	; 0x05
    1b38:	1c 82       	std	Y+4, r1	; 0x04
    1b3a:	1b 82       	std	Y+3, r1	; 0x03
    1b3c:	1a 82       	std	Y+2, r1	; 0x02
    1b3e:	df 91       	pop	r29
    1b40:	cf 91       	pop	r28
    1b42:	08 95       	ret

00001b44 <_ZplRK15StringSumHelperm>:
    1b44:	0f 93       	push	r16
    1b46:	1f 93       	push	r17
    1b48:	18 2f       	mov	r17, r24
    1b4a:	09 2f       	mov	r16, r25
    1b4c:	0e 94 76 0c 	call	0x18ec	; 0x18ec <_ZN6String6concatEm>
    1b50:	88 23       	and	r24, r24
    1b52:	21 f4       	brne	.+8      	; 0x1b5c <_ZplRK15StringSumHelperm+0x18>
    1b54:	81 2f       	mov	r24, r17
    1b56:	90 2f       	mov	r25, r16
    1b58:	0e 94 90 0d 	call	0x1b20	; 0x1b20 <_ZN6String10invalidateEv>
    1b5c:	81 2f       	mov	r24, r17
    1b5e:	90 2f       	mov	r25, r16
    1b60:	1f 91       	pop	r17
    1b62:	0f 91       	pop	r16
    1b64:	08 95       	ret

00001b66 <_ZplRK15StringSumHelperl>:
    1b66:	0f 93       	push	r16
    1b68:	1f 93       	push	r17
    1b6a:	18 2f       	mov	r17, r24
    1b6c:	09 2f       	mov	r16, r25
    1b6e:	0e 94 a8 0c 	call	0x1950	; 0x1950 <_ZN6String6concatEl>
    1b72:	88 23       	and	r24, r24
    1b74:	21 f4       	brne	.+8      	; 0x1b7e <_ZplRK15StringSumHelperl+0x18>
    1b76:	81 2f       	mov	r24, r17
    1b78:	90 2f       	mov	r25, r16
    1b7a:	0e 94 90 0d 	call	0x1b20	; 0x1b20 <_ZN6String10invalidateEv>
    1b7e:	81 2f       	mov	r24, r17
    1b80:	90 2f       	mov	r25, r16
    1b82:	1f 91       	pop	r17
    1b84:	0f 91       	pop	r16
    1b86:	08 95       	ret

00001b88 <_ZplRK15StringSumHelperj>:
    1b88:	0f 93       	push	r16
    1b8a:	1f 93       	push	r17
    1b8c:	18 2f       	mov	r17, r24
    1b8e:	09 2f       	mov	r16, r25
    1b90:	0e 94 da 0c 	call	0x19b4	; 0x19b4 <_ZN6String6concatEj>
    1b94:	88 23       	and	r24, r24
    1b96:	21 f4       	brne	.+8      	; 0x1ba0 <_ZplRK15StringSumHelperj+0x18>
    1b98:	81 2f       	mov	r24, r17
    1b9a:	90 2f       	mov	r25, r16
    1b9c:	0e 94 90 0d 	call	0x1b20	; 0x1b20 <_ZN6String10invalidateEv>
    1ba0:	81 2f       	mov	r24, r17
    1ba2:	90 2f       	mov	r25, r16
    1ba4:	1f 91       	pop	r17
    1ba6:	0f 91       	pop	r16
    1ba8:	08 95       	ret

00001baa <_ZplRK15StringSumHelperi>:
    1baa:	0f 93       	push	r16
    1bac:	1f 93       	push	r17
    1bae:	18 2f       	mov	r17, r24
    1bb0:	09 2f       	mov	r16, r25
    1bb2:	0e 94 08 0d 	call	0x1a10	; 0x1a10 <_ZN6String6concatEi>
    1bb6:	88 23       	and	r24, r24
    1bb8:	21 f4       	brne	.+8      	; 0x1bc2 <_ZplRK15StringSumHelperi+0x18>
    1bba:	81 2f       	mov	r24, r17
    1bbc:	90 2f       	mov	r25, r16
    1bbe:	0e 94 90 0d 	call	0x1b20	; 0x1b20 <_ZN6String10invalidateEv>
    1bc2:	81 2f       	mov	r24, r17
    1bc4:	90 2f       	mov	r25, r16
    1bc6:	1f 91       	pop	r17
    1bc8:	0f 91       	pop	r16
    1bca:	08 95       	ret

00001bcc <_ZplRK15StringSumHelperh>:
    1bcc:	0f 93       	push	r16
    1bce:	1f 93       	push	r17
    1bd0:	18 2f       	mov	r17, r24
    1bd2:	09 2f       	mov	r16, r25
    1bd4:	0e 94 39 0d 	call	0x1a72	; 0x1a72 <_ZN6String6concatEh>
    1bd8:	88 23       	and	r24, r24
    1bda:	21 f4       	brne	.+8      	; 0x1be4 <_ZplRK15StringSumHelperh+0x18>
    1bdc:	81 2f       	mov	r24, r17
    1bde:	90 2f       	mov	r25, r16
    1be0:	0e 94 90 0d 	call	0x1b20	; 0x1b20 <_ZN6String10invalidateEv>
    1be4:	81 2f       	mov	r24, r17
    1be6:	90 2f       	mov	r25, r16
    1be8:	1f 91       	pop	r17
    1bea:	0f 91       	pop	r16
    1bec:	08 95       	ret

00001bee <_ZplRK15StringSumHelperc>:
    1bee:	0f 93       	push	r16
    1bf0:	1f 93       	push	r17
    1bf2:	18 2f       	mov	r17, r24
    1bf4:	09 2f       	mov	r16, r25
    1bf6:	0e 94 65 0d 	call	0x1aca	; 0x1aca <_ZN6String6concatEc>
    1bfa:	88 23       	and	r24, r24
    1bfc:	21 f4       	brne	.+8      	; 0x1c06 <_ZplRK15StringSumHelperc+0x18>
    1bfe:	81 2f       	mov	r24, r17
    1c00:	90 2f       	mov	r25, r16
    1c02:	0e 94 90 0d 	call	0x1b20	; 0x1b20 <_ZN6String10invalidateEv>
    1c06:	81 2f       	mov	r24, r17
    1c08:	90 2f       	mov	r25, r16
    1c0a:	1f 91       	pop	r17
    1c0c:	0f 91       	pop	r16
    1c0e:	08 95       	ret

00001c10 <_ZplRK15StringSumHelperPKc>:
    1c10:	0f 93       	push	r16
    1c12:	1f 93       	push	r17
    1c14:	18 2f       	mov	r17, r24
    1c16:	09 2f       	mov	r16, r25
    1c18:	61 15       	cp	r22, r1
    1c1a:	71 05       	cpc	r23, r1
    1c1c:	61 f0       	breq	.+24     	; 0x1c36 <_ZplRK15StringSumHelperPKc+0x26>
    1c1e:	db 01       	movw	r26, r22
    1c20:	0d 90       	ld	r0, X+
    1c22:	00 20       	and	r0, r0
    1c24:	e9 f7       	brne	.-6      	; 0x1c20 <_ZplRK15StringSumHelperPKc+0x10>
    1c26:	11 97       	sbiw	r26, 0x01	; 1
    1c28:	a6 1b       	sub	r26, r22
    1c2a:	b7 0b       	sbc	r27, r23
    1c2c:	ad 01       	movw	r20, r26
    1c2e:	0e 94 49 0c 	call	0x1892	; 0x1892 <_ZN6String6concatEPKcj>
    1c32:	88 23       	and	r24, r24
    1c34:	21 f4       	brne	.+8      	; 0x1c3e <_ZplRK15StringSumHelperPKc+0x2e>
    1c36:	81 2f       	mov	r24, r17
    1c38:	90 2f       	mov	r25, r16
    1c3a:	0e 94 90 0d 	call	0x1b20	; 0x1b20 <_ZN6String10invalidateEv>
    1c3e:	81 2f       	mov	r24, r17
    1c40:	90 2f       	mov	r25, r16
    1c42:	1f 91       	pop	r17
    1c44:	0f 91       	pop	r16
    1c46:	08 95       	ret

00001c48 <_ZplRK15StringSumHelperRK6String>:
    1c48:	0f 93       	push	r16
    1c4a:	1f 93       	push	r17
    1c4c:	18 2f       	mov	r17, r24
    1c4e:	09 2f       	mov	r16, r25
    1c50:	fb 01       	movw	r30, r22
    1c52:	60 81       	ld	r22, Z
    1c54:	71 81       	ldd	r23, Z+1	; 0x01
    1c56:	44 81       	ldd	r20, Z+4	; 0x04
    1c58:	55 81       	ldd	r21, Z+5	; 0x05
    1c5a:	0e 94 49 0c 	call	0x1892	; 0x1892 <_ZN6String6concatEPKcj>
    1c5e:	88 23       	and	r24, r24
    1c60:	21 f4       	brne	.+8      	; 0x1c6a <_ZplRK15StringSumHelperRK6String+0x22>
    1c62:	81 2f       	mov	r24, r17
    1c64:	90 2f       	mov	r25, r16
    1c66:	0e 94 90 0d 	call	0x1b20	; 0x1b20 <_ZN6String10invalidateEv>
    1c6a:	81 2f       	mov	r24, r17
    1c6c:	90 2f       	mov	r25, r16
    1c6e:	1f 91       	pop	r17
    1c70:	0f 91       	pop	r16
    1c72:	08 95       	ret

00001c74 <_ZN6String4copyEPKcj>:
    1c74:	ef 92       	push	r14
    1c76:	ff 92       	push	r15
    1c78:	0f 93       	push	r16
    1c7a:	1f 93       	push	r17
    1c7c:	cf 93       	push	r28
    1c7e:	df 93       	push	r29
    1c80:	ec 01       	movw	r28, r24
    1c82:	7b 01       	movw	r14, r22
    1c84:	8a 01       	movw	r16, r20
    1c86:	ba 01       	movw	r22, r20
    1c88:	0e 94 2d 0c 	call	0x185a	; 0x185a <_ZN6String7reserveEj>
    1c8c:	88 23       	and	r24, r24
    1c8e:	21 f4       	brne	.+8      	; 0x1c98 <_ZN6String4copyEPKcj+0x24>
    1c90:	ce 01       	movw	r24, r28
    1c92:	0e 94 90 0d 	call	0x1b20	; 0x1b20 <_ZN6String10invalidateEv>
    1c96:	07 c0       	rjmp	.+14     	; 0x1ca6 <_ZN6String4copyEPKcj+0x32>
    1c98:	1d 83       	std	Y+5, r17	; 0x05
    1c9a:	0c 83       	std	Y+4, r16	; 0x04
    1c9c:	88 81       	ld	r24, Y
    1c9e:	99 81       	ldd	r25, Y+1	; 0x01
    1ca0:	b7 01       	movw	r22, r14
    1ca2:	0e 94 65 1c 	call	0x38ca	; 0x38ca <strcpy>
    1ca6:	ce 01       	movw	r24, r28
    1ca8:	df 91       	pop	r29
    1caa:	cf 91       	pop	r28
    1cac:	1f 91       	pop	r17
    1cae:	0f 91       	pop	r16
    1cb0:	ff 90       	pop	r15
    1cb2:	ef 90       	pop	r14
    1cb4:	08 95       	ret

00001cb6 <_ZN6StringC1EPKc>:
    1cb6:	cf 93       	push	r28
    1cb8:	df 93       	push	r29
    1cba:	ec 01       	movw	r28, r24
    1cbc:	19 82       	std	Y+1, r1	; 0x01
    1cbe:	18 82       	st	Y, r1
    1cc0:	1b 82       	std	Y+3, r1	; 0x03
    1cc2:	1a 82       	std	Y+2, r1	; 0x02
    1cc4:	1d 82       	std	Y+5, r1	; 0x05
    1cc6:	1c 82       	std	Y+4, r1	; 0x04
    1cc8:	1e 82       	std	Y+6, r1	; 0x06
    1cca:	61 15       	cp	r22, r1
    1ccc:	71 05       	cpc	r23, r1
    1cce:	51 f0       	breq	.+20     	; 0x1ce4 <_ZN6StringC1EPKc+0x2e>
    1cd0:	db 01       	movw	r26, r22
    1cd2:	0d 90       	ld	r0, X+
    1cd4:	00 20       	and	r0, r0
    1cd6:	e9 f7       	brne	.-6      	; 0x1cd2 <_ZN6StringC1EPKc+0x1c>
    1cd8:	11 97       	sbiw	r26, 0x01	; 1
    1cda:	a6 1b       	sub	r26, r22
    1cdc:	b7 0b       	sbc	r27, r23
    1cde:	ad 01       	movw	r20, r26
    1ce0:	0e 94 3a 0e 	call	0x1c74	; 0x1c74 <_ZN6String4copyEPKcj>
    1ce4:	df 91       	pop	r29
    1ce6:	cf 91       	pop	r28
    1ce8:	08 95       	ret

00001cea <_ZN6StringC2EPKc>:
    1cea:	cf 93       	push	r28
    1cec:	df 93       	push	r29
    1cee:	ec 01       	movw	r28, r24
    1cf0:	19 82       	std	Y+1, r1	; 0x01
    1cf2:	18 82       	st	Y, r1
    1cf4:	1b 82       	std	Y+3, r1	; 0x03
    1cf6:	1a 82       	std	Y+2, r1	; 0x02
    1cf8:	1d 82       	std	Y+5, r1	; 0x05
    1cfa:	1c 82       	std	Y+4, r1	; 0x04
    1cfc:	1e 82       	std	Y+6, r1	; 0x06
    1cfe:	61 15       	cp	r22, r1
    1d00:	71 05       	cpc	r23, r1
    1d02:	51 f0       	breq	.+20     	; 0x1d18 <_ZN6StringC2EPKc+0x2e>
    1d04:	db 01       	movw	r26, r22
    1d06:	0d 90       	ld	r0, X+
    1d08:	00 20       	and	r0, r0
    1d0a:	e9 f7       	brne	.-6      	; 0x1d06 <_ZN6StringC2EPKc+0x1c>
    1d0c:	11 97       	sbiw	r26, 0x01	; 1
    1d0e:	a6 1b       	sub	r26, r22
    1d10:	b7 0b       	sbc	r27, r23
    1d12:	ad 01       	movw	r20, r26
    1d14:	0e 94 3a 0e 	call	0x1c74	; 0x1c74 <_ZN6String4copyEPKcj>
    1d18:	df 91       	pop	r29
    1d1a:	cf 91       	pop	r28
    1d1c:	08 95       	ret

00001d1e <_ZN6StringaSEPKc>:
    1d1e:	0f 93       	push	r16
    1d20:	1f 93       	push	r17
    1d22:	18 2f       	mov	r17, r24
    1d24:	09 2f       	mov	r16, r25
    1d26:	61 15       	cp	r22, r1
    1d28:	71 05       	cpc	r23, r1
    1d2a:	59 f0       	breq	.+22     	; 0x1d42 <_ZN6StringaSEPKc+0x24>
    1d2c:	db 01       	movw	r26, r22
    1d2e:	0d 90       	ld	r0, X+
    1d30:	00 20       	and	r0, r0
    1d32:	e9 f7       	brne	.-6      	; 0x1d2e <_ZN6StringaSEPKc+0x10>
    1d34:	11 97       	sbiw	r26, 0x01	; 1
    1d36:	a6 1b       	sub	r26, r22
    1d38:	b7 0b       	sbc	r27, r23
    1d3a:	ad 01       	movw	r20, r26
    1d3c:	0e 94 3a 0e 	call	0x1c74	; 0x1c74 <_ZN6String4copyEPKcj>
    1d40:	02 c0       	rjmp	.+4      	; 0x1d46 <_ZN6StringaSEPKc+0x28>
    1d42:	0e 94 90 0d 	call	0x1b20	; 0x1b20 <_ZN6String10invalidateEv>
    1d46:	81 2f       	mov	r24, r17
    1d48:	90 2f       	mov	r25, r16
    1d4a:	1f 91       	pop	r17
    1d4c:	0f 91       	pop	r16
    1d4e:	08 95       	ret

00001d50 <_ZN6StringC1Emh>:
    1d50:	ef 92       	push	r14
    1d52:	ff 92       	push	r15
    1d54:	0f 93       	push	r16
    1d56:	1f 93       	push	r17
    1d58:	df 93       	push	r29
    1d5a:	cf 93       	push	r28
    1d5c:	cd b7       	in	r28, 0x3d	; 61
    1d5e:	de b7       	in	r29, 0x3e	; 62
    1d60:	a1 97       	sbiw	r28, 0x21	; 33
    1d62:	0f b6       	in	r0, 0x3f	; 63
    1d64:	f8 94       	cli
    1d66:	de bf       	out	0x3e, r29	; 62
    1d68:	0f be       	out	0x3f, r0	; 63
    1d6a:	cd bf       	out	0x3d, r28	; 61
    1d6c:	8c 01       	movw	r16, r24
    1d6e:	fc 01       	movw	r30, r24
    1d70:	11 82       	std	Z+1, r1	; 0x01
    1d72:	10 82       	st	Z, r1
    1d74:	13 82       	std	Z+3, r1	; 0x03
    1d76:	12 82       	std	Z+2, r1	; 0x02
    1d78:	15 82       	std	Z+5, r1	; 0x05
    1d7a:	14 82       	std	Z+4, r1	; 0x04
    1d7c:	16 82       	std	Z+6, r1	; 0x06
    1d7e:	cb 01       	movw	r24, r22
    1d80:	ba 01       	movw	r22, r20
    1d82:	7e 01       	movw	r14, r28
    1d84:	08 94       	sec
    1d86:	e1 1c       	adc	r14, r1
    1d88:	f1 1c       	adc	r15, r1
    1d8a:	a7 01       	movw	r20, r14
    1d8c:	30 e0       	ldi	r19, 0x00	; 0
    1d8e:	0e 94 18 1d 	call	0x3a30	; 0x3a30 <ultoa>
    1d92:	c8 01       	movw	r24, r16
    1d94:	b7 01       	movw	r22, r14
    1d96:	0e 94 8f 0e 	call	0x1d1e	; 0x1d1e <_ZN6StringaSEPKc>
    1d9a:	a1 96       	adiw	r28, 0x21	; 33
    1d9c:	0f b6       	in	r0, 0x3f	; 63
    1d9e:	f8 94       	cli
    1da0:	de bf       	out	0x3e, r29	; 62
    1da2:	0f be       	out	0x3f, r0	; 63
    1da4:	cd bf       	out	0x3d, r28	; 61
    1da6:	cf 91       	pop	r28
    1da8:	df 91       	pop	r29
    1daa:	1f 91       	pop	r17
    1dac:	0f 91       	pop	r16
    1dae:	ff 90       	pop	r15
    1db0:	ef 90       	pop	r14
    1db2:	08 95       	ret

00001db4 <_ZN6StringC2Emh>:
    1db4:	ef 92       	push	r14
    1db6:	ff 92       	push	r15
    1db8:	0f 93       	push	r16
    1dba:	1f 93       	push	r17
    1dbc:	df 93       	push	r29
    1dbe:	cf 93       	push	r28
    1dc0:	cd b7       	in	r28, 0x3d	; 61
    1dc2:	de b7       	in	r29, 0x3e	; 62
    1dc4:	a1 97       	sbiw	r28, 0x21	; 33
    1dc6:	0f b6       	in	r0, 0x3f	; 63
    1dc8:	f8 94       	cli
    1dca:	de bf       	out	0x3e, r29	; 62
    1dcc:	0f be       	out	0x3f, r0	; 63
    1dce:	cd bf       	out	0x3d, r28	; 61
    1dd0:	8c 01       	movw	r16, r24
    1dd2:	fc 01       	movw	r30, r24
    1dd4:	11 82       	std	Z+1, r1	; 0x01
    1dd6:	10 82       	st	Z, r1
    1dd8:	13 82       	std	Z+3, r1	; 0x03
    1dda:	12 82       	std	Z+2, r1	; 0x02
    1ddc:	15 82       	std	Z+5, r1	; 0x05
    1dde:	14 82       	std	Z+4, r1	; 0x04
    1de0:	16 82       	std	Z+6, r1	; 0x06
    1de2:	cb 01       	movw	r24, r22
    1de4:	ba 01       	movw	r22, r20
    1de6:	7e 01       	movw	r14, r28
    1de8:	08 94       	sec
    1dea:	e1 1c       	adc	r14, r1
    1dec:	f1 1c       	adc	r15, r1
    1dee:	a7 01       	movw	r20, r14
    1df0:	30 e0       	ldi	r19, 0x00	; 0
    1df2:	0e 94 18 1d 	call	0x3a30	; 0x3a30 <ultoa>
    1df6:	c8 01       	movw	r24, r16
    1df8:	b7 01       	movw	r22, r14
    1dfa:	0e 94 8f 0e 	call	0x1d1e	; 0x1d1e <_ZN6StringaSEPKc>
    1dfe:	a1 96       	adiw	r28, 0x21	; 33
    1e00:	0f b6       	in	r0, 0x3f	; 63
    1e02:	f8 94       	cli
    1e04:	de bf       	out	0x3e, r29	; 62
    1e06:	0f be       	out	0x3f, r0	; 63
    1e08:	cd bf       	out	0x3d, r28	; 61
    1e0a:	cf 91       	pop	r28
    1e0c:	df 91       	pop	r29
    1e0e:	1f 91       	pop	r17
    1e10:	0f 91       	pop	r16
    1e12:	ff 90       	pop	r15
    1e14:	ef 90       	pop	r14
    1e16:	08 95       	ret

00001e18 <_ZN6StringC1Elh>:
    1e18:	ef 92       	push	r14
    1e1a:	ff 92       	push	r15
    1e1c:	0f 93       	push	r16
    1e1e:	1f 93       	push	r17
    1e20:	df 93       	push	r29
    1e22:	cf 93       	push	r28
    1e24:	cd b7       	in	r28, 0x3d	; 61
    1e26:	de b7       	in	r29, 0x3e	; 62
    1e28:	a2 97       	sbiw	r28, 0x22	; 34
    1e2a:	0f b6       	in	r0, 0x3f	; 63
    1e2c:	f8 94       	cli
    1e2e:	de bf       	out	0x3e, r29	; 62
    1e30:	0f be       	out	0x3f, r0	; 63
    1e32:	cd bf       	out	0x3d, r28	; 61
    1e34:	8c 01       	movw	r16, r24
    1e36:	fc 01       	movw	r30, r24
    1e38:	11 82       	std	Z+1, r1	; 0x01
    1e3a:	10 82       	st	Z, r1
    1e3c:	13 82       	std	Z+3, r1	; 0x03
    1e3e:	12 82       	std	Z+2, r1	; 0x02
    1e40:	15 82       	std	Z+5, r1	; 0x05
    1e42:	14 82       	std	Z+4, r1	; 0x04
    1e44:	16 82       	std	Z+6, r1	; 0x06
    1e46:	cb 01       	movw	r24, r22
    1e48:	ba 01       	movw	r22, r20
    1e4a:	7e 01       	movw	r14, r28
    1e4c:	08 94       	sec
    1e4e:	e1 1c       	adc	r14, r1
    1e50:	f1 1c       	adc	r15, r1
    1e52:	a7 01       	movw	r20, r14
    1e54:	30 e0       	ldi	r19, 0x00	; 0
    1e56:	0e 94 cf 1c 	call	0x399e	; 0x399e <ltoa>
    1e5a:	c8 01       	movw	r24, r16
    1e5c:	b7 01       	movw	r22, r14
    1e5e:	0e 94 8f 0e 	call	0x1d1e	; 0x1d1e <_ZN6StringaSEPKc>
    1e62:	a2 96       	adiw	r28, 0x22	; 34
    1e64:	0f b6       	in	r0, 0x3f	; 63
    1e66:	f8 94       	cli
    1e68:	de bf       	out	0x3e, r29	; 62
    1e6a:	0f be       	out	0x3f, r0	; 63
    1e6c:	cd bf       	out	0x3d, r28	; 61
    1e6e:	cf 91       	pop	r28
    1e70:	df 91       	pop	r29
    1e72:	1f 91       	pop	r17
    1e74:	0f 91       	pop	r16
    1e76:	ff 90       	pop	r15
    1e78:	ef 90       	pop	r14
    1e7a:	08 95       	ret

00001e7c <_ZN6StringC2Elh>:
    1e7c:	ef 92       	push	r14
    1e7e:	ff 92       	push	r15
    1e80:	0f 93       	push	r16
    1e82:	1f 93       	push	r17
    1e84:	df 93       	push	r29
    1e86:	cf 93       	push	r28
    1e88:	cd b7       	in	r28, 0x3d	; 61
    1e8a:	de b7       	in	r29, 0x3e	; 62
    1e8c:	a2 97       	sbiw	r28, 0x22	; 34
    1e8e:	0f b6       	in	r0, 0x3f	; 63
    1e90:	f8 94       	cli
    1e92:	de bf       	out	0x3e, r29	; 62
    1e94:	0f be       	out	0x3f, r0	; 63
    1e96:	cd bf       	out	0x3d, r28	; 61
    1e98:	8c 01       	movw	r16, r24
    1e9a:	fc 01       	movw	r30, r24
    1e9c:	11 82       	std	Z+1, r1	; 0x01
    1e9e:	10 82       	st	Z, r1
    1ea0:	13 82       	std	Z+3, r1	; 0x03
    1ea2:	12 82       	std	Z+2, r1	; 0x02
    1ea4:	15 82       	std	Z+5, r1	; 0x05
    1ea6:	14 82       	std	Z+4, r1	; 0x04
    1ea8:	16 82       	std	Z+6, r1	; 0x06
    1eaa:	cb 01       	movw	r24, r22
    1eac:	ba 01       	movw	r22, r20
    1eae:	7e 01       	movw	r14, r28
    1eb0:	08 94       	sec
    1eb2:	e1 1c       	adc	r14, r1
    1eb4:	f1 1c       	adc	r15, r1
    1eb6:	a7 01       	movw	r20, r14
    1eb8:	30 e0       	ldi	r19, 0x00	; 0
    1eba:	0e 94 cf 1c 	call	0x399e	; 0x399e <ltoa>
    1ebe:	c8 01       	movw	r24, r16
    1ec0:	b7 01       	movw	r22, r14
    1ec2:	0e 94 8f 0e 	call	0x1d1e	; 0x1d1e <_ZN6StringaSEPKc>
    1ec6:	a2 96       	adiw	r28, 0x22	; 34
    1ec8:	0f b6       	in	r0, 0x3f	; 63
    1eca:	f8 94       	cli
    1ecc:	de bf       	out	0x3e, r29	; 62
    1ece:	0f be       	out	0x3f, r0	; 63
    1ed0:	cd bf       	out	0x3d, r28	; 61
    1ed2:	cf 91       	pop	r28
    1ed4:	df 91       	pop	r29
    1ed6:	1f 91       	pop	r17
    1ed8:	0f 91       	pop	r16
    1eda:	ff 90       	pop	r15
    1edc:	ef 90       	pop	r14
    1ede:	08 95       	ret

00001ee0 <_ZN6StringC1Ejh>:
    1ee0:	ef 92       	push	r14
    1ee2:	ff 92       	push	r15
    1ee4:	0f 93       	push	r16
    1ee6:	1f 93       	push	r17
    1ee8:	df 93       	push	r29
    1eea:	cf 93       	push	r28
    1eec:	cd b7       	in	r28, 0x3d	; 61
    1eee:	de b7       	in	r29, 0x3e	; 62
    1ef0:	61 97       	sbiw	r28, 0x11	; 17
    1ef2:	0f b6       	in	r0, 0x3f	; 63
    1ef4:	f8 94       	cli
    1ef6:	de bf       	out	0x3e, r29	; 62
    1ef8:	0f be       	out	0x3f, r0	; 63
    1efa:	cd bf       	out	0x3d, r28	; 61
    1efc:	8c 01       	movw	r16, r24
    1efe:	cb 01       	movw	r24, r22
    1f00:	f8 01       	movw	r30, r16
    1f02:	11 82       	std	Z+1, r1	; 0x01
    1f04:	10 82       	st	Z, r1
    1f06:	13 82       	std	Z+3, r1	; 0x03
    1f08:	12 82       	std	Z+2, r1	; 0x02
    1f0a:	15 82       	std	Z+5, r1	; 0x05
    1f0c:	14 82       	std	Z+4, r1	; 0x04
    1f0e:	16 82       	std	Z+6, r1	; 0x06
    1f10:	7e 01       	movw	r14, r28
    1f12:	08 94       	sec
    1f14:	e1 1c       	adc	r14, r1
    1f16:	f1 1c       	adc	r15, r1
    1f18:	b7 01       	movw	r22, r14
    1f1a:	50 e0       	ldi	r21, 0x00	; 0
    1f1c:	0e 94 3d 1d 	call	0x3a7a	; 0x3a7a <utoa>
    1f20:	c8 01       	movw	r24, r16
    1f22:	b7 01       	movw	r22, r14
    1f24:	0e 94 8f 0e 	call	0x1d1e	; 0x1d1e <_ZN6StringaSEPKc>
    1f28:	61 96       	adiw	r28, 0x11	; 17
    1f2a:	0f b6       	in	r0, 0x3f	; 63
    1f2c:	f8 94       	cli
    1f2e:	de bf       	out	0x3e, r29	; 62
    1f30:	0f be       	out	0x3f, r0	; 63
    1f32:	cd bf       	out	0x3d, r28	; 61
    1f34:	cf 91       	pop	r28
    1f36:	df 91       	pop	r29
    1f38:	1f 91       	pop	r17
    1f3a:	0f 91       	pop	r16
    1f3c:	ff 90       	pop	r15
    1f3e:	ef 90       	pop	r14
    1f40:	08 95       	ret

00001f42 <_ZN6StringC2Ejh>:
    1f42:	ef 92       	push	r14
    1f44:	ff 92       	push	r15
    1f46:	0f 93       	push	r16
    1f48:	1f 93       	push	r17
    1f4a:	df 93       	push	r29
    1f4c:	cf 93       	push	r28
    1f4e:	cd b7       	in	r28, 0x3d	; 61
    1f50:	de b7       	in	r29, 0x3e	; 62
    1f52:	61 97       	sbiw	r28, 0x11	; 17
    1f54:	0f b6       	in	r0, 0x3f	; 63
    1f56:	f8 94       	cli
    1f58:	de bf       	out	0x3e, r29	; 62
    1f5a:	0f be       	out	0x3f, r0	; 63
    1f5c:	cd bf       	out	0x3d, r28	; 61
    1f5e:	8c 01       	movw	r16, r24
    1f60:	cb 01       	movw	r24, r22
    1f62:	f8 01       	movw	r30, r16
    1f64:	11 82       	std	Z+1, r1	; 0x01
    1f66:	10 82       	st	Z, r1
    1f68:	13 82       	std	Z+3, r1	; 0x03
    1f6a:	12 82       	std	Z+2, r1	; 0x02
    1f6c:	15 82       	std	Z+5, r1	; 0x05
    1f6e:	14 82       	std	Z+4, r1	; 0x04
    1f70:	16 82       	std	Z+6, r1	; 0x06
    1f72:	7e 01       	movw	r14, r28
    1f74:	08 94       	sec
    1f76:	e1 1c       	adc	r14, r1
    1f78:	f1 1c       	adc	r15, r1
    1f7a:	b7 01       	movw	r22, r14
    1f7c:	50 e0       	ldi	r21, 0x00	; 0
    1f7e:	0e 94 3d 1d 	call	0x3a7a	; 0x3a7a <utoa>
    1f82:	c8 01       	movw	r24, r16
    1f84:	b7 01       	movw	r22, r14
    1f86:	0e 94 8f 0e 	call	0x1d1e	; 0x1d1e <_ZN6StringaSEPKc>
    1f8a:	61 96       	adiw	r28, 0x11	; 17
    1f8c:	0f b6       	in	r0, 0x3f	; 63
    1f8e:	f8 94       	cli
    1f90:	de bf       	out	0x3e, r29	; 62
    1f92:	0f be       	out	0x3f, r0	; 63
    1f94:	cd bf       	out	0x3d, r28	; 61
    1f96:	cf 91       	pop	r28
    1f98:	df 91       	pop	r29
    1f9a:	1f 91       	pop	r17
    1f9c:	0f 91       	pop	r16
    1f9e:	ff 90       	pop	r15
    1fa0:	ef 90       	pop	r14
    1fa2:	08 95       	ret

00001fa4 <_ZN6StringC1Eih>:
    1fa4:	ef 92       	push	r14
    1fa6:	ff 92       	push	r15
    1fa8:	0f 93       	push	r16
    1faa:	1f 93       	push	r17
    1fac:	df 93       	push	r29
    1fae:	cf 93       	push	r28
    1fb0:	cd b7       	in	r28, 0x3d	; 61
    1fb2:	de b7       	in	r29, 0x3e	; 62
    1fb4:	62 97       	sbiw	r28, 0x12	; 18
    1fb6:	0f b6       	in	r0, 0x3f	; 63
    1fb8:	f8 94       	cli
    1fba:	de bf       	out	0x3e, r29	; 62
    1fbc:	0f be       	out	0x3f, r0	; 63
    1fbe:	cd bf       	out	0x3d, r28	; 61
    1fc0:	8c 01       	movw	r16, r24
    1fc2:	cb 01       	movw	r24, r22
    1fc4:	f8 01       	movw	r30, r16
    1fc6:	11 82       	std	Z+1, r1	; 0x01
    1fc8:	10 82       	st	Z, r1
    1fca:	13 82       	std	Z+3, r1	; 0x03
    1fcc:	12 82       	std	Z+2, r1	; 0x02
    1fce:	15 82       	std	Z+5, r1	; 0x05
    1fd0:	14 82       	std	Z+4, r1	; 0x04
    1fd2:	16 82       	std	Z+6, r1	; 0x06
    1fd4:	7e 01       	movw	r14, r28
    1fd6:	08 94       	sec
    1fd8:	e1 1c       	adc	r14, r1
    1fda:	f1 1c       	adc	r15, r1
    1fdc:	b7 01       	movw	r22, r14
    1fde:	50 e0       	ldi	r21, 0x00	; 0
    1fe0:	0e 94 ae 1c 	call	0x395c	; 0x395c <itoa>
    1fe4:	c8 01       	movw	r24, r16
    1fe6:	b7 01       	movw	r22, r14
    1fe8:	0e 94 8f 0e 	call	0x1d1e	; 0x1d1e <_ZN6StringaSEPKc>
    1fec:	62 96       	adiw	r28, 0x12	; 18
    1fee:	0f b6       	in	r0, 0x3f	; 63
    1ff0:	f8 94       	cli
    1ff2:	de bf       	out	0x3e, r29	; 62
    1ff4:	0f be       	out	0x3f, r0	; 63
    1ff6:	cd bf       	out	0x3d, r28	; 61
    1ff8:	cf 91       	pop	r28
    1ffa:	df 91       	pop	r29
    1ffc:	1f 91       	pop	r17
    1ffe:	0f 91       	pop	r16
    2000:	ff 90       	pop	r15
    2002:	ef 90       	pop	r14
    2004:	08 95       	ret

00002006 <_ZN6StringC2Eih>:
    2006:	ef 92       	push	r14
    2008:	ff 92       	push	r15
    200a:	0f 93       	push	r16
    200c:	1f 93       	push	r17
    200e:	df 93       	push	r29
    2010:	cf 93       	push	r28
    2012:	cd b7       	in	r28, 0x3d	; 61
    2014:	de b7       	in	r29, 0x3e	; 62
    2016:	62 97       	sbiw	r28, 0x12	; 18
    2018:	0f b6       	in	r0, 0x3f	; 63
    201a:	f8 94       	cli
    201c:	de bf       	out	0x3e, r29	; 62
    201e:	0f be       	out	0x3f, r0	; 63
    2020:	cd bf       	out	0x3d, r28	; 61
    2022:	8c 01       	movw	r16, r24
    2024:	cb 01       	movw	r24, r22
    2026:	f8 01       	movw	r30, r16
    2028:	11 82       	std	Z+1, r1	; 0x01
    202a:	10 82       	st	Z, r1
    202c:	13 82       	std	Z+3, r1	; 0x03
    202e:	12 82       	std	Z+2, r1	; 0x02
    2030:	15 82       	std	Z+5, r1	; 0x05
    2032:	14 82       	std	Z+4, r1	; 0x04
    2034:	16 82       	std	Z+6, r1	; 0x06
    2036:	7e 01       	movw	r14, r28
    2038:	08 94       	sec
    203a:	e1 1c       	adc	r14, r1
    203c:	f1 1c       	adc	r15, r1
    203e:	b7 01       	movw	r22, r14
    2040:	50 e0       	ldi	r21, 0x00	; 0
    2042:	0e 94 ae 1c 	call	0x395c	; 0x395c <itoa>
    2046:	c8 01       	movw	r24, r16
    2048:	b7 01       	movw	r22, r14
    204a:	0e 94 8f 0e 	call	0x1d1e	; 0x1d1e <_ZN6StringaSEPKc>
    204e:	62 96       	adiw	r28, 0x12	; 18
    2050:	0f b6       	in	r0, 0x3f	; 63
    2052:	f8 94       	cli
    2054:	de bf       	out	0x3e, r29	; 62
    2056:	0f be       	out	0x3f, r0	; 63
    2058:	cd bf       	out	0x3d, r28	; 61
    205a:	cf 91       	pop	r28
    205c:	df 91       	pop	r29
    205e:	1f 91       	pop	r17
    2060:	0f 91       	pop	r16
    2062:	ff 90       	pop	r15
    2064:	ef 90       	pop	r14
    2066:	08 95       	ret

00002068 <_ZN6StringC1Ehh>:
    2068:	ef 92       	push	r14
    206a:	ff 92       	push	r15
    206c:	0f 93       	push	r16
    206e:	1f 93       	push	r17
    2070:	df 93       	push	r29
    2072:	cf 93       	push	r28
    2074:	cd b7       	in	r28, 0x3d	; 61
    2076:	de b7       	in	r29, 0x3e	; 62
    2078:	29 97       	sbiw	r28, 0x09	; 9
    207a:	0f b6       	in	r0, 0x3f	; 63
    207c:	f8 94       	cli
    207e:	de bf       	out	0x3e, r29	; 62
    2080:	0f be       	out	0x3f, r0	; 63
    2082:	cd bf       	out	0x3d, r28	; 61
    2084:	8c 01       	movw	r16, r24
    2086:	86 2f       	mov	r24, r22
    2088:	f8 01       	movw	r30, r16
    208a:	11 82       	std	Z+1, r1	; 0x01
    208c:	10 82       	st	Z, r1
    208e:	13 82       	std	Z+3, r1	; 0x03
    2090:	12 82       	std	Z+2, r1	; 0x02
    2092:	15 82       	std	Z+5, r1	; 0x05
    2094:	14 82       	std	Z+4, r1	; 0x04
    2096:	16 82       	std	Z+6, r1	; 0x06
    2098:	90 e0       	ldi	r25, 0x00	; 0
    209a:	7e 01       	movw	r14, r28
    209c:	08 94       	sec
    209e:	e1 1c       	adc	r14, r1
    20a0:	f1 1c       	adc	r15, r1
    20a2:	b7 01       	movw	r22, r14
    20a4:	50 e0       	ldi	r21, 0x00	; 0
    20a6:	0e 94 3d 1d 	call	0x3a7a	; 0x3a7a <utoa>
    20aa:	c8 01       	movw	r24, r16
    20ac:	b7 01       	movw	r22, r14
    20ae:	0e 94 8f 0e 	call	0x1d1e	; 0x1d1e <_ZN6StringaSEPKc>
    20b2:	29 96       	adiw	r28, 0x09	; 9
    20b4:	0f b6       	in	r0, 0x3f	; 63
    20b6:	f8 94       	cli
    20b8:	de bf       	out	0x3e, r29	; 62
    20ba:	0f be       	out	0x3f, r0	; 63
    20bc:	cd bf       	out	0x3d, r28	; 61
    20be:	cf 91       	pop	r28
    20c0:	df 91       	pop	r29
    20c2:	1f 91       	pop	r17
    20c4:	0f 91       	pop	r16
    20c6:	ff 90       	pop	r15
    20c8:	ef 90       	pop	r14
    20ca:	08 95       	ret

000020cc <_ZN6StringC2Ehh>:
    20cc:	ef 92       	push	r14
    20ce:	ff 92       	push	r15
    20d0:	0f 93       	push	r16
    20d2:	1f 93       	push	r17
    20d4:	df 93       	push	r29
    20d6:	cf 93       	push	r28
    20d8:	cd b7       	in	r28, 0x3d	; 61
    20da:	de b7       	in	r29, 0x3e	; 62
    20dc:	29 97       	sbiw	r28, 0x09	; 9
    20de:	0f b6       	in	r0, 0x3f	; 63
    20e0:	f8 94       	cli
    20e2:	de bf       	out	0x3e, r29	; 62
    20e4:	0f be       	out	0x3f, r0	; 63
    20e6:	cd bf       	out	0x3d, r28	; 61
    20e8:	8c 01       	movw	r16, r24
    20ea:	86 2f       	mov	r24, r22
    20ec:	f8 01       	movw	r30, r16
    20ee:	11 82       	std	Z+1, r1	; 0x01
    20f0:	10 82       	st	Z, r1
    20f2:	13 82       	std	Z+3, r1	; 0x03
    20f4:	12 82       	std	Z+2, r1	; 0x02
    20f6:	15 82       	std	Z+5, r1	; 0x05
    20f8:	14 82       	std	Z+4, r1	; 0x04
    20fa:	16 82       	std	Z+6, r1	; 0x06
    20fc:	90 e0       	ldi	r25, 0x00	; 0
    20fe:	7e 01       	movw	r14, r28
    2100:	08 94       	sec
    2102:	e1 1c       	adc	r14, r1
    2104:	f1 1c       	adc	r15, r1
    2106:	b7 01       	movw	r22, r14
    2108:	50 e0       	ldi	r21, 0x00	; 0
    210a:	0e 94 3d 1d 	call	0x3a7a	; 0x3a7a <utoa>
    210e:	c8 01       	movw	r24, r16
    2110:	b7 01       	movw	r22, r14
    2112:	0e 94 8f 0e 	call	0x1d1e	; 0x1d1e <_ZN6StringaSEPKc>
    2116:	29 96       	adiw	r28, 0x09	; 9
    2118:	0f b6       	in	r0, 0x3f	; 63
    211a:	f8 94       	cli
    211c:	de bf       	out	0x3e, r29	; 62
    211e:	0f be       	out	0x3f, r0	; 63
    2120:	cd bf       	out	0x3d, r28	; 61
    2122:	cf 91       	pop	r28
    2124:	df 91       	pop	r29
    2126:	1f 91       	pop	r17
    2128:	0f 91       	pop	r16
    212a:	ff 90       	pop	r15
    212c:	ef 90       	pop	r14
    212e:	08 95       	ret

00002130 <_ZN6StringC1Ec>:
    2130:	df 93       	push	r29
    2132:	cf 93       	push	r28
    2134:	00 d0       	rcall	.+0      	; 0x2136 <_ZN6StringC1Ec+0x6>
    2136:	cd b7       	in	r28, 0x3d	; 61
    2138:	de b7       	in	r29, 0x3e	; 62
    213a:	fc 01       	movw	r30, r24
    213c:	11 82       	std	Z+1, r1	; 0x01
    213e:	10 82       	st	Z, r1
    2140:	13 82       	std	Z+3, r1	; 0x03
    2142:	12 82       	std	Z+2, r1	; 0x02
    2144:	15 82       	std	Z+5, r1	; 0x05
    2146:	14 82       	std	Z+4, r1	; 0x04
    2148:	16 82       	std	Z+6, r1	; 0x06
    214a:	69 83       	std	Y+1, r22	; 0x01
    214c:	1a 82       	std	Y+2, r1	; 0x02
    214e:	be 01       	movw	r22, r28
    2150:	6f 5f       	subi	r22, 0xFF	; 255
    2152:	7f 4f       	sbci	r23, 0xFF	; 255
    2154:	0e 94 8f 0e 	call	0x1d1e	; 0x1d1e <_ZN6StringaSEPKc>
    2158:	0f 90       	pop	r0
    215a:	0f 90       	pop	r0
    215c:	cf 91       	pop	r28
    215e:	df 91       	pop	r29
    2160:	08 95       	ret

00002162 <_ZN6StringC2Ec>:
    2162:	df 93       	push	r29
    2164:	cf 93       	push	r28
    2166:	00 d0       	rcall	.+0      	; 0x2168 <_ZN6StringC2Ec+0x6>
    2168:	cd b7       	in	r28, 0x3d	; 61
    216a:	de b7       	in	r29, 0x3e	; 62
    216c:	fc 01       	movw	r30, r24
    216e:	11 82       	std	Z+1, r1	; 0x01
    2170:	10 82       	st	Z, r1
    2172:	13 82       	std	Z+3, r1	; 0x03
    2174:	12 82       	std	Z+2, r1	; 0x02
    2176:	15 82       	std	Z+5, r1	; 0x05
    2178:	14 82       	std	Z+4, r1	; 0x04
    217a:	16 82       	std	Z+6, r1	; 0x06
    217c:	69 83       	std	Y+1, r22	; 0x01
    217e:	1a 82       	std	Y+2, r1	; 0x02
    2180:	be 01       	movw	r22, r28
    2182:	6f 5f       	subi	r22, 0xFF	; 255
    2184:	7f 4f       	sbci	r23, 0xFF	; 255
    2186:	0e 94 8f 0e 	call	0x1d1e	; 0x1d1e <_ZN6StringaSEPKc>
    218a:	0f 90       	pop	r0
    218c:	0f 90       	pop	r0
    218e:	cf 91       	pop	r28
    2190:	df 91       	pop	r29
    2192:	08 95       	ret

00002194 <_ZNK6String9substringEjj>:
    2194:	bf 92       	push	r11
    2196:	cf 92       	push	r12
    2198:	df 92       	push	r13
    219a:	ef 92       	push	r14
    219c:	ff 92       	push	r15
    219e:	0f 93       	push	r16
    21a0:	1f 93       	push	r17
    21a2:	cf 93       	push	r28
    21a4:	df 93       	push	r29
    21a6:	08 2f       	mov	r16, r24
    21a8:	b9 2e       	mov	r11, r25
    21aa:	6b 01       	movw	r12, r22
    21ac:	7a 01       	movw	r14, r20
    21ae:	e9 01       	movw	r28, r18
    21b0:	24 17       	cp	r18, r20
    21b2:	35 07       	cpc	r19, r21
    21b4:	10 f4       	brcc	.+4      	; 0x21ba <_ZNK6String9substringEjj+0x26>
    21b6:	ea 01       	movw	r28, r20
    21b8:	79 01       	movw	r14, r18
    21ba:	80 2f       	mov	r24, r16
    21bc:	9b 2d       	mov	r25, r11
    21be:	61 e8       	ldi	r22, 0x81	; 129
    21c0:	71 e0       	ldi	r23, 0x01	; 1
    21c2:	0e 94 5b 0e 	call	0x1cb6	; 0x1cb6 <_ZN6StringC1EPKc>
    21c6:	d6 01       	movw	r26, r12
    21c8:	14 96       	adiw	r26, 0x04	; 4
    21ca:	8d 91       	ld	r24, X+
    21cc:	9c 91       	ld	r25, X
    21ce:	15 97       	sbiw	r26, 0x05	; 5
    21d0:	8e 15       	cp	r24, r14
    21d2:	9f 05       	cpc	r25, r15
    21d4:	d0 f0       	brcs	.+52     	; 0x220a <_ZNK6String9substringEjj+0x76>
    21d6:	8c 17       	cp	r24, r28
    21d8:	9d 07       	cpc	r25, r29
    21da:	08 f4       	brcc	.+2      	; 0x21de <_ZNK6String9substringEjj+0x4a>
    21dc:	ec 01       	movw	r28, r24
    21de:	d6 01       	movw	r26, r12
    21e0:	ed 91       	ld	r30, X+
    21e2:	fc 91       	ld	r31, X
    21e4:	11 97       	sbiw	r26, 0x01	; 1
    21e6:	ec 0f       	add	r30, r28
    21e8:	fd 1f       	adc	r31, r29
    21ea:	10 81       	ld	r17, Z
    21ec:	10 82       	st	Z, r1
    21ee:	6d 91       	ld	r22, X+
    21f0:	7c 91       	ld	r23, X
    21f2:	6e 0d       	add	r22, r14
    21f4:	7f 1d       	adc	r23, r15
    21f6:	80 2f       	mov	r24, r16
    21f8:	9b 2d       	mov	r25, r11
    21fa:	0e 94 8f 0e 	call	0x1d1e	; 0x1d1e <_ZN6StringaSEPKc>
    21fe:	d6 01       	movw	r26, r12
    2200:	ed 91       	ld	r30, X+
    2202:	fc 91       	ld	r31, X
    2204:	ec 0f       	add	r30, r28
    2206:	fd 1f       	adc	r31, r29
    2208:	10 83       	st	Z, r17
    220a:	80 2f       	mov	r24, r16
    220c:	9b 2d       	mov	r25, r11
    220e:	df 91       	pop	r29
    2210:	cf 91       	pop	r28
    2212:	1f 91       	pop	r17
    2214:	0f 91       	pop	r16
    2216:	ff 90       	pop	r15
    2218:	ef 90       	pop	r14
    221a:	df 90       	pop	r13
    221c:	cf 90       	pop	r12
    221e:	bf 90       	pop	r11
    2220:	08 95       	ret

00002222 <_ZNK6String9substringEj>:
    2222:	0f 93       	push	r16
    2224:	1f 93       	push	r17
    2226:	8c 01       	movw	r16, r24
    2228:	fb 01       	movw	r30, r22
    222a:	24 81       	ldd	r18, Z+4	; 0x04
    222c:	35 81       	ldd	r19, Z+5	; 0x05
    222e:	0e 94 ca 10 	call	0x2194	; 0x2194 <_ZNK6String9substringEjj>
    2232:	c8 01       	movw	r24, r16
    2234:	1f 91       	pop	r17
    2236:	0f 91       	pop	r16
    2238:	08 95       	ret

0000223a <_ZN6StringaSERKS_>:
    223a:	cf 93       	push	r28
    223c:	df 93       	push	r29
    223e:	ec 01       	movw	r28, r24
    2240:	fb 01       	movw	r30, r22
    2242:	86 17       	cp	r24, r22
    2244:	97 07       	cpc	r25, r23
    2246:	61 f0       	breq	.+24     	; 0x2260 <_ZN6StringaSERKS_+0x26>
    2248:	60 81       	ld	r22, Z
    224a:	71 81       	ldd	r23, Z+1	; 0x01
    224c:	61 15       	cp	r22, r1
    224e:	71 05       	cpc	r23, r1
    2250:	29 f0       	breq	.+10     	; 0x225c <_ZN6StringaSERKS_+0x22>
    2252:	44 81       	ldd	r20, Z+4	; 0x04
    2254:	55 81       	ldd	r21, Z+5	; 0x05
    2256:	0e 94 3a 0e 	call	0x1c74	; 0x1c74 <_ZN6String4copyEPKcj>
    225a:	02 c0       	rjmp	.+4      	; 0x2260 <_ZN6StringaSERKS_+0x26>
    225c:	0e 94 90 0d 	call	0x1b20	; 0x1b20 <_ZN6String10invalidateEv>
    2260:	ce 01       	movw	r24, r28
    2262:	df 91       	pop	r29
    2264:	cf 91       	pop	r28
    2266:	08 95       	ret

00002268 <_ZN6StringC1ERKS_>:
    2268:	fc 01       	movw	r30, r24
    226a:	11 82       	std	Z+1, r1	; 0x01
    226c:	10 82       	st	Z, r1
    226e:	13 82       	std	Z+3, r1	; 0x03
    2270:	12 82       	std	Z+2, r1	; 0x02
    2272:	15 82       	std	Z+5, r1	; 0x05
    2274:	14 82       	std	Z+4, r1	; 0x04
    2276:	16 82       	std	Z+6, r1	; 0x06
    2278:	0e 94 1d 11 	call	0x223a	; 0x223a <_ZN6StringaSERKS_>
    227c:	08 95       	ret

0000227e <_ZN6StringC2ERKS_>:
    227e:	fc 01       	movw	r30, r24
    2280:	11 82       	std	Z+1, r1	; 0x01
    2282:	10 82       	st	Z, r1
    2284:	13 82       	std	Z+3, r1	; 0x03
    2286:	12 82       	std	Z+2, r1	; 0x02
    2288:	15 82       	std	Z+5, r1	; 0x05
    228a:	14 82       	std	Z+4, r1	; 0x04
    228c:	16 82       	std	Z+6, r1	; 0x06
    228e:	0e 94 1d 11 	call	0x223a	; 0x223a <_ZN6StringaSERKS_>
    2292:	08 95       	ret

00002294 <_ZN6StringD1Ev>:
    2294:	fc 01       	movw	r30, r24
    2296:	80 81       	ld	r24, Z
    2298:	91 81       	ldd	r25, Z+1	; 0x01
    229a:	0e 94 d1 1a 	call	0x35a2	; 0x35a2 <free>
    229e:	08 95       	ret

000022a0 <_ZN6StringD2Ev>:
    22a0:	fc 01       	movw	r30, r24
    22a2:	80 81       	ld	r24, Z
    22a4:	91 81       	ldd	r25, Z+1	; 0x01
    22a6:	0e 94 d1 1a 	call	0x35a2	; 0x35a2 <free>
    22aa:	08 95       	ret

000022ac <__cxa_guard_acquire>:
    22ac:	fc 01       	movw	r30, r24
    22ae:	20 e0       	ldi	r18, 0x00	; 0
    22b0:	30 e0       	ldi	r19, 0x00	; 0
    22b2:	80 81       	ld	r24, Z
    22b4:	88 23       	and	r24, r24
    22b6:	11 f4       	brne	.+4      	; 0x22bc <__cxa_guard_acquire+0x10>
    22b8:	21 e0       	ldi	r18, 0x01	; 1
    22ba:	30 e0       	ldi	r19, 0x00	; 0
    22bc:	c9 01       	movw	r24, r18
    22be:	08 95       	ret

000022c0 <__cxa_guard_release>:
    22c0:	fc 01       	movw	r30, r24
    22c2:	81 e0       	ldi	r24, 0x01	; 1
    22c4:	80 83       	st	Z, r24
    22c6:	08 95       	ret

000022c8 <__cxa_guard_abort>:
    22c8:	08 95       	ret

000022ca <__cxa_pure_virtual>:
    22ca:	08 95       	ret

000022cc <_ZdlPv>:
    22cc:	0e 94 d1 1a 	call	0x35a2	; 0x35a2 <free>
    22d0:	08 95       	ret

000022d2 <_Znwj>:
    22d2:	0e 94 24 1a 	call	0x3448	; 0x3448 <malloc>
    22d6:	08 95       	ret

000022d8 <__vector_16>:
    22d8:	1f 92       	push	r1
    22da:	0f 92       	push	r0
    22dc:	0f b6       	in	r0, 0x3f	; 63
    22de:	0f 92       	push	r0
    22e0:	11 24       	eor	r1, r1
    22e2:	2f 93       	push	r18
    22e4:	3f 93       	push	r19
    22e6:	8f 93       	push	r24
    22e8:	9f 93       	push	r25
    22ea:	af 93       	push	r26
    22ec:	bf 93       	push	r27
    22ee:	80 91 3c 03 	lds	r24, 0x033C
    22f2:	90 91 3d 03 	lds	r25, 0x033D
    22f6:	a0 91 3e 03 	lds	r26, 0x033E
    22fa:	b0 91 3f 03 	lds	r27, 0x033F
    22fe:	30 91 40 03 	lds	r19, 0x0340
    2302:	01 96       	adiw	r24, 0x01	; 1
    2304:	a1 1d       	adc	r26, r1
    2306:	b1 1d       	adc	r27, r1
    2308:	23 2f       	mov	r18, r19
    230a:	2d 5f       	subi	r18, 0xFD	; 253
    230c:	2d 37       	cpi	r18, 0x7D	; 125
    230e:	20 f0       	brcs	.+8      	; 0x2318 <__vector_16+0x40>
    2310:	2d 57       	subi	r18, 0x7D	; 125
    2312:	01 96       	adiw	r24, 0x01	; 1
    2314:	a1 1d       	adc	r26, r1
    2316:	b1 1d       	adc	r27, r1
    2318:	20 93 40 03 	sts	0x0340, r18
    231c:	80 93 3c 03 	sts	0x033C, r24
    2320:	90 93 3d 03 	sts	0x033D, r25
    2324:	a0 93 3e 03 	sts	0x033E, r26
    2328:	b0 93 3f 03 	sts	0x033F, r27
    232c:	80 91 38 03 	lds	r24, 0x0338
    2330:	90 91 39 03 	lds	r25, 0x0339
    2334:	a0 91 3a 03 	lds	r26, 0x033A
    2338:	b0 91 3b 03 	lds	r27, 0x033B
    233c:	01 96       	adiw	r24, 0x01	; 1
    233e:	a1 1d       	adc	r26, r1
    2340:	b1 1d       	adc	r27, r1
    2342:	80 93 38 03 	sts	0x0338, r24
    2346:	90 93 39 03 	sts	0x0339, r25
    234a:	a0 93 3a 03 	sts	0x033A, r26
    234e:	b0 93 3b 03 	sts	0x033B, r27
    2352:	bf 91       	pop	r27
    2354:	af 91       	pop	r26
    2356:	9f 91       	pop	r25
    2358:	8f 91       	pop	r24
    235a:	3f 91       	pop	r19
    235c:	2f 91       	pop	r18
    235e:	0f 90       	pop	r0
    2360:	0f be       	out	0x3f, r0	; 63
    2362:	0f 90       	pop	r0
    2364:	1f 90       	pop	r1
    2366:	18 95       	reti

00002368 <millis>:
    2368:	8f b7       	in	r24, 0x3f	; 63
    236a:	f8 94       	cli
    236c:	20 91 3c 03 	lds	r18, 0x033C
    2370:	30 91 3d 03 	lds	r19, 0x033D
    2374:	40 91 3e 03 	lds	r20, 0x033E
    2378:	50 91 3f 03 	lds	r21, 0x033F
    237c:	8f bf       	out	0x3f, r24	; 63
    237e:	b9 01       	movw	r22, r18
    2380:	ca 01       	movw	r24, r20
    2382:	08 95       	ret

00002384 <micros>:
    2384:	9f b7       	in	r25, 0x3f	; 63
    2386:	f8 94       	cli
    2388:	20 91 38 03 	lds	r18, 0x0338
    238c:	30 91 39 03 	lds	r19, 0x0339
    2390:	40 91 3a 03 	lds	r20, 0x033A
    2394:	50 91 3b 03 	lds	r21, 0x033B
    2398:	86 b5       	in	r24, 0x26	; 38
    239a:	a8 9b       	sbis	0x15, 0	; 21
    239c:	06 c0       	rjmp	.+12     	; 0x23aa <micros+0x26>
    239e:	8f 3f       	cpi	r24, 0xFF	; 255
    23a0:	21 f0       	breq	.+8      	; 0x23aa <micros+0x26>
    23a2:	2f 5f       	subi	r18, 0xFF	; 255
    23a4:	3f 4f       	sbci	r19, 0xFF	; 255
    23a6:	4f 4f       	sbci	r20, 0xFF	; 255
    23a8:	5f 4f       	sbci	r21, 0xFF	; 255
    23aa:	9f bf       	out	0x3f, r25	; 63
    23ac:	54 2f       	mov	r21, r20
    23ae:	43 2f       	mov	r20, r19
    23b0:	32 2f       	mov	r19, r18
    23b2:	22 27       	eor	r18, r18
    23b4:	28 0f       	add	r18, r24
    23b6:	31 1d       	adc	r19, r1
    23b8:	41 1d       	adc	r20, r1
    23ba:	51 1d       	adc	r21, r1
    23bc:	82 e0       	ldi	r24, 0x02	; 2
    23be:	22 0f       	add	r18, r18
    23c0:	33 1f       	adc	r19, r19
    23c2:	44 1f       	adc	r20, r20
    23c4:	55 1f       	adc	r21, r21
    23c6:	8a 95       	dec	r24
    23c8:	d1 f7       	brne	.-12     	; 0x23be <micros+0x3a>
    23ca:	b9 01       	movw	r22, r18
    23cc:	ca 01       	movw	r24, r20
    23ce:	08 95       	ret

000023d0 <delay>:
    23d0:	ef 92       	push	r14
    23d2:	ff 92       	push	r15
    23d4:	0f 93       	push	r16
    23d6:	1f 93       	push	r17
    23d8:	cf 93       	push	r28
    23da:	df 93       	push	r29
    23dc:	7b 01       	movw	r14, r22
    23de:	8c 01       	movw	r16, r24
    23e0:	0e 94 c2 11 	call	0x2384	; 0x2384 <micros>
    23e4:	eb 01       	movw	r28, r22
    23e6:	0e c0       	rjmp	.+28     	; 0x2404 <delay+0x34>
    23e8:	0e 94 c2 11 	call	0x2384	; 0x2384 <micros>
    23ec:	6c 1b       	sub	r22, r28
    23ee:	7d 0b       	sbc	r23, r29
    23f0:	68 5e       	subi	r22, 0xE8	; 232
    23f2:	73 40       	sbci	r23, 0x03	; 3
    23f4:	c8 f3       	brcs	.-14     	; 0x23e8 <delay+0x18>
    23f6:	08 94       	sec
    23f8:	e1 08       	sbc	r14, r1
    23fa:	f1 08       	sbc	r15, r1
    23fc:	01 09       	sbc	r16, r1
    23fe:	11 09       	sbc	r17, r1
    2400:	c8 51       	subi	r28, 0x18	; 24
    2402:	dc 4f       	sbci	r29, 0xFC	; 252
    2404:	e1 14       	cp	r14, r1
    2406:	f1 04       	cpc	r15, r1
    2408:	01 05       	cpc	r16, r1
    240a:	11 05       	cpc	r17, r1
    240c:	69 f7       	brne	.-38     	; 0x23e8 <delay+0x18>
    240e:	df 91       	pop	r29
    2410:	cf 91       	pop	r28
    2412:	1f 91       	pop	r17
    2414:	0f 91       	pop	r16
    2416:	ff 90       	pop	r15
    2418:	ef 90       	pop	r14
    241a:	08 95       	ret

0000241c <delayMicroseconds>:
    241c:	01 97       	sbiw	r24, 0x01	; 1
    241e:	39 f0       	breq	.+14     	; 0x242e <delayMicroseconds+0x12>
    2420:	88 0f       	add	r24, r24
    2422:	99 1f       	adc	r25, r25
    2424:	88 0f       	add	r24, r24
    2426:	99 1f       	adc	r25, r25
    2428:	02 97       	sbiw	r24, 0x02	; 2
    242a:	01 97       	sbiw	r24, 0x01	; 1
    242c:	f1 f7       	brne	.-4      	; 0x242a <delayMicroseconds+0xe>
    242e:	08 95       	ret

00002430 <init>:
    2430:	78 94       	sei
    2432:	84 b5       	in	r24, 0x24	; 36
    2434:	82 60       	ori	r24, 0x02	; 2
    2436:	84 bd       	out	0x24, r24	; 36
    2438:	84 b5       	in	r24, 0x24	; 36
    243a:	81 60       	ori	r24, 0x01	; 1
    243c:	84 bd       	out	0x24, r24	; 36
    243e:	85 b5       	in	r24, 0x25	; 37
    2440:	82 60       	ori	r24, 0x02	; 2
    2442:	85 bd       	out	0x25, r24	; 37
    2444:	85 b5       	in	r24, 0x25	; 37
    2446:	81 60       	ori	r24, 0x01	; 1
    2448:	85 bd       	out	0x25, r24	; 37
    244a:	ee e6       	ldi	r30, 0x6E	; 110
    244c:	f0 e0       	ldi	r31, 0x00	; 0
    244e:	80 81       	ld	r24, Z
    2450:	81 60       	ori	r24, 0x01	; 1
    2452:	80 83       	st	Z, r24
    2454:	e1 e8       	ldi	r30, 0x81	; 129
    2456:	f0 e0       	ldi	r31, 0x00	; 0
    2458:	10 82       	st	Z, r1
    245a:	80 81       	ld	r24, Z
    245c:	82 60       	ori	r24, 0x02	; 2
    245e:	80 83       	st	Z, r24
    2460:	80 81       	ld	r24, Z
    2462:	81 60       	ori	r24, 0x01	; 1
    2464:	80 83       	st	Z, r24
    2466:	e0 e8       	ldi	r30, 0x80	; 128
    2468:	f0 e0       	ldi	r31, 0x00	; 0
    246a:	80 81       	ld	r24, Z
    246c:	81 60       	ori	r24, 0x01	; 1
    246e:	80 83       	st	Z, r24
    2470:	e1 eb       	ldi	r30, 0xB1	; 177
    2472:	f0 e0       	ldi	r31, 0x00	; 0
    2474:	80 81       	ld	r24, Z
    2476:	84 60       	ori	r24, 0x04	; 4
    2478:	80 83       	st	Z, r24
    247a:	e0 eb       	ldi	r30, 0xB0	; 176
    247c:	f0 e0       	ldi	r31, 0x00	; 0
    247e:	80 81       	ld	r24, Z
    2480:	81 60       	ori	r24, 0x01	; 1
    2482:	80 83       	st	Z, r24
    2484:	ea e7       	ldi	r30, 0x7A	; 122
    2486:	f0 e0       	ldi	r31, 0x00	; 0
    2488:	80 81       	ld	r24, Z
    248a:	84 60       	ori	r24, 0x04	; 4
    248c:	80 83       	st	Z, r24
    248e:	80 81       	ld	r24, Z
    2490:	82 60       	ori	r24, 0x02	; 2
    2492:	80 83       	st	Z, r24
    2494:	80 81       	ld	r24, Z
    2496:	81 60       	ori	r24, 0x01	; 1
    2498:	80 83       	st	Z, r24
    249a:	80 81       	ld	r24, Z
    249c:	80 68       	ori	r24, 0x80	; 128
    249e:	80 83       	st	Z, r24
    24a0:	10 92 c1 00 	sts	0x00C1, r1
    24a4:	08 95       	ret

000024a6 <__fixunssfsi>:
    24a6:	ef 92       	push	r14
    24a8:	ff 92       	push	r15
    24aa:	0f 93       	push	r16
    24ac:	1f 93       	push	r17
    24ae:	7b 01       	movw	r14, r22
    24b0:	8c 01       	movw	r16, r24
    24b2:	20 e0       	ldi	r18, 0x00	; 0
    24b4:	30 e0       	ldi	r19, 0x00	; 0
    24b6:	40 e0       	ldi	r20, 0x00	; 0
    24b8:	5f e4       	ldi	r21, 0x4F	; 79
    24ba:	0e 94 ff 15 	call	0x2bfe	; 0x2bfe <__gesf2>
    24be:	88 23       	and	r24, r24
    24c0:	8c f0       	brlt	.+34     	; 0x24e4 <__fixunssfsi+0x3e>
    24c2:	c8 01       	movw	r24, r16
    24c4:	b7 01       	movw	r22, r14
    24c6:	20 e0       	ldi	r18, 0x00	; 0
    24c8:	30 e0       	ldi	r19, 0x00	; 0
    24ca:	40 e0       	ldi	r20, 0x00	; 0
    24cc:	5f e4       	ldi	r21, 0x4F	; 79
    24ce:	0e 94 cb 13 	call	0x2796	; 0x2796 <__subsf3>
    24d2:	0e 94 bd 16 	call	0x2d7a	; 0x2d7a <__fixsfsi>
    24d6:	9b 01       	movw	r18, r22
    24d8:	ac 01       	movw	r20, r24
    24da:	20 50       	subi	r18, 0x00	; 0
    24dc:	30 40       	sbci	r19, 0x00	; 0
    24de:	40 40       	sbci	r20, 0x00	; 0
    24e0:	50 48       	sbci	r21, 0x80	; 128
    24e2:	06 c0       	rjmp	.+12     	; 0x24f0 <__fixunssfsi+0x4a>
    24e4:	c8 01       	movw	r24, r16
    24e6:	b7 01       	movw	r22, r14
    24e8:	0e 94 bd 16 	call	0x2d7a	; 0x2d7a <__fixsfsi>
    24ec:	9b 01       	movw	r18, r22
    24ee:	ac 01       	movw	r20, r24
    24f0:	b9 01       	movw	r22, r18
    24f2:	ca 01       	movw	r24, r20
    24f4:	1f 91       	pop	r17
    24f6:	0f 91       	pop	r16
    24f8:	ff 90       	pop	r15
    24fa:	ef 90       	pop	r14
    24fc:	08 95       	ret

000024fe <_fpadd_parts>:
    24fe:	a0 e0       	ldi	r26, 0x00	; 0
    2500:	b0 e0       	ldi	r27, 0x00	; 0
    2502:	e5 e8       	ldi	r30, 0x85	; 133
    2504:	f2 e1       	ldi	r31, 0x12	; 18
    2506:	0c 94 e7 19 	jmp	0x33ce	; 0x33ce <__prologue_saves__>
    250a:	dc 01       	movw	r26, r24
    250c:	2b 01       	movw	r4, r22
    250e:	fa 01       	movw	r30, r20
    2510:	9c 91       	ld	r25, X
    2512:	92 30       	cpi	r25, 0x02	; 2
    2514:	08 f4       	brcc	.+2      	; 0x2518 <_fpadd_parts+0x1a>
    2516:	39 c1       	rjmp	.+626    	; 0x278a <_fpadd_parts+0x28c>
    2518:	eb 01       	movw	r28, r22
    251a:	88 81       	ld	r24, Y
    251c:	82 30       	cpi	r24, 0x02	; 2
    251e:	08 f4       	brcc	.+2      	; 0x2522 <_fpadd_parts+0x24>
    2520:	33 c1       	rjmp	.+614    	; 0x2788 <_fpadd_parts+0x28a>
    2522:	94 30       	cpi	r25, 0x04	; 4
    2524:	69 f4       	brne	.+26     	; 0x2540 <_fpadd_parts+0x42>
    2526:	84 30       	cpi	r24, 0x04	; 4
    2528:	09 f0       	breq	.+2      	; 0x252c <_fpadd_parts+0x2e>
    252a:	2f c1       	rjmp	.+606    	; 0x278a <_fpadd_parts+0x28c>
    252c:	11 96       	adiw	r26, 0x01	; 1
    252e:	9c 91       	ld	r25, X
    2530:	11 97       	sbiw	r26, 0x01	; 1
    2532:	89 81       	ldd	r24, Y+1	; 0x01
    2534:	98 17       	cp	r25, r24
    2536:	09 f4       	brne	.+2      	; 0x253a <_fpadd_parts+0x3c>
    2538:	28 c1       	rjmp	.+592    	; 0x278a <_fpadd_parts+0x28c>
    253a:	a2 e8       	ldi	r26, 0x82	; 130
    253c:	b1 e0       	ldi	r27, 0x01	; 1
    253e:	25 c1       	rjmp	.+586    	; 0x278a <_fpadd_parts+0x28c>
    2540:	84 30       	cpi	r24, 0x04	; 4
    2542:	09 f4       	brne	.+2      	; 0x2546 <_fpadd_parts+0x48>
    2544:	21 c1       	rjmp	.+578    	; 0x2788 <_fpadd_parts+0x28a>
    2546:	82 30       	cpi	r24, 0x02	; 2
    2548:	a9 f4       	brne	.+42     	; 0x2574 <_fpadd_parts+0x76>
    254a:	92 30       	cpi	r25, 0x02	; 2
    254c:	09 f0       	breq	.+2      	; 0x2550 <_fpadd_parts+0x52>
    254e:	1d c1       	rjmp	.+570    	; 0x278a <_fpadd_parts+0x28c>
    2550:	9a 01       	movw	r18, r20
    2552:	ad 01       	movw	r20, r26
    2554:	88 e0       	ldi	r24, 0x08	; 8
    2556:	ea 01       	movw	r28, r20
    2558:	09 90       	ld	r0, Y+
    255a:	ae 01       	movw	r20, r28
    255c:	e9 01       	movw	r28, r18
    255e:	09 92       	st	Y+, r0
    2560:	9e 01       	movw	r18, r28
    2562:	81 50       	subi	r24, 0x01	; 1
    2564:	c1 f7       	brne	.-16     	; 0x2556 <_fpadd_parts+0x58>
    2566:	e2 01       	movw	r28, r4
    2568:	89 81       	ldd	r24, Y+1	; 0x01
    256a:	11 96       	adiw	r26, 0x01	; 1
    256c:	9c 91       	ld	r25, X
    256e:	89 23       	and	r24, r25
    2570:	81 83       	std	Z+1, r24	; 0x01
    2572:	08 c1       	rjmp	.+528    	; 0x2784 <_fpadd_parts+0x286>
    2574:	92 30       	cpi	r25, 0x02	; 2
    2576:	09 f4       	brne	.+2      	; 0x257a <_fpadd_parts+0x7c>
    2578:	07 c1       	rjmp	.+526    	; 0x2788 <_fpadd_parts+0x28a>
    257a:	12 96       	adiw	r26, 0x02	; 2
    257c:	2d 90       	ld	r2, X+
    257e:	3c 90       	ld	r3, X
    2580:	13 97       	sbiw	r26, 0x03	; 3
    2582:	eb 01       	movw	r28, r22
    2584:	8a 81       	ldd	r24, Y+2	; 0x02
    2586:	9b 81       	ldd	r25, Y+3	; 0x03
    2588:	14 96       	adiw	r26, 0x04	; 4
    258a:	ad 90       	ld	r10, X+
    258c:	bd 90       	ld	r11, X+
    258e:	cd 90       	ld	r12, X+
    2590:	dc 90       	ld	r13, X
    2592:	17 97       	sbiw	r26, 0x07	; 7
    2594:	ec 80       	ldd	r14, Y+4	; 0x04
    2596:	fd 80       	ldd	r15, Y+5	; 0x05
    2598:	0e 81       	ldd	r16, Y+6	; 0x06
    259a:	1f 81       	ldd	r17, Y+7	; 0x07
    259c:	91 01       	movw	r18, r2
    259e:	28 1b       	sub	r18, r24
    25a0:	39 0b       	sbc	r19, r25
    25a2:	b9 01       	movw	r22, r18
    25a4:	37 ff       	sbrs	r19, 7
    25a6:	04 c0       	rjmp	.+8      	; 0x25b0 <_fpadd_parts+0xb2>
    25a8:	66 27       	eor	r22, r22
    25aa:	77 27       	eor	r23, r23
    25ac:	62 1b       	sub	r22, r18
    25ae:	73 0b       	sbc	r23, r19
    25b0:	60 32       	cpi	r22, 0x20	; 32
    25b2:	71 05       	cpc	r23, r1
    25b4:	0c f0       	brlt	.+2      	; 0x25b8 <_fpadd_parts+0xba>
    25b6:	61 c0       	rjmp	.+194    	; 0x267a <_fpadd_parts+0x17c>
    25b8:	12 16       	cp	r1, r18
    25ba:	13 06       	cpc	r1, r19
    25bc:	6c f5       	brge	.+90     	; 0x2618 <_fpadd_parts+0x11a>
    25be:	37 01       	movw	r6, r14
    25c0:	48 01       	movw	r8, r16
    25c2:	06 2e       	mov	r0, r22
    25c4:	04 c0       	rjmp	.+8      	; 0x25ce <_fpadd_parts+0xd0>
    25c6:	96 94       	lsr	r9
    25c8:	87 94       	ror	r8
    25ca:	77 94       	ror	r7
    25cc:	67 94       	ror	r6
    25ce:	0a 94       	dec	r0
    25d0:	d2 f7       	brpl	.-12     	; 0x25c6 <_fpadd_parts+0xc8>
    25d2:	21 e0       	ldi	r18, 0x01	; 1
    25d4:	30 e0       	ldi	r19, 0x00	; 0
    25d6:	40 e0       	ldi	r20, 0x00	; 0
    25d8:	50 e0       	ldi	r21, 0x00	; 0
    25da:	04 c0       	rjmp	.+8      	; 0x25e4 <_fpadd_parts+0xe6>
    25dc:	22 0f       	add	r18, r18
    25de:	33 1f       	adc	r19, r19
    25e0:	44 1f       	adc	r20, r20
    25e2:	55 1f       	adc	r21, r21
    25e4:	6a 95       	dec	r22
    25e6:	d2 f7       	brpl	.-12     	; 0x25dc <_fpadd_parts+0xde>
    25e8:	21 50       	subi	r18, 0x01	; 1
    25ea:	30 40       	sbci	r19, 0x00	; 0
    25ec:	40 40       	sbci	r20, 0x00	; 0
    25ee:	50 40       	sbci	r21, 0x00	; 0
    25f0:	2e 21       	and	r18, r14
    25f2:	3f 21       	and	r19, r15
    25f4:	40 23       	and	r20, r16
    25f6:	51 23       	and	r21, r17
    25f8:	21 15       	cp	r18, r1
    25fa:	31 05       	cpc	r19, r1
    25fc:	41 05       	cpc	r20, r1
    25fe:	51 05       	cpc	r21, r1
    2600:	21 f0       	breq	.+8      	; 0x260a <_fpadd_parts+0x10c>
    2602:	21 e0       	ldi	r18, 0x01	; 1
    2604:	30 e0       	ldi	r19, 0x00	; 0
    2606:	40 e0       	ldi	r20, 0x00	; 0
    2608:	50 e0       	ldi	r21, 0x00	; 0
    260a:	79 01       	movw	r14, r18
    260c:	8a 01       	movw	r16, r20
    260e:	e6 28       	or	r14, r6
    2610:	f7 28       	or	r15, r7
    2612:	08 29       	or	r16, r8
    2614:	19 29       	or	r17, r9
    2616:	3c c0       	rjmp	.+120    	; 0x2690 <_fpadd_parts+0x192>
    2618:	23 2b       	or	r18, r19
    261a:	d1 f1       	breq	.+116    	; 0x2690 <_fpadd_parts+0x192>
    261c:	26 0e       	add	r2, r22
    261e:	37 1e       	adc	r3, r23
    2620:	35 01       	movw	r6, r10
    2622:	46 01       	movw	r8, r12
    2624:	06 2e       	mov	r0, r22
    2626:	04 c0       	rjmp	.+8      	; 0x2630 <_fpadd_parts+0x132>
    2628:	96 94       	lsr	r9
    262a:	87 94       	ror	r8
    262c:	77 94       	ror	r7
    262e:	67 94       	ror	r6
    2630:	0a 94       	dec	r0
    2632:	d2 f7       	brpl	.-12     	; 0x2628 <_fpadd_parts+0x12a>
    2634:	21 e0       	ldi	r18, 0x01	; 1
    2636:	30 e0       	ldi	r19, 0x00	; 0
    2638:	40 e0       	ldi	r20, 0x00	; 0
    263a:	50 e0       	ldi	r21, 0x00	; 0
    263c:	04 c0       	rjmp	.+8      	; 0x2646 <_fpadd_parts+0x148>
    263e:	22 0f       	add	r18, r18
    2640:	33 1f       	adc	r19, r19
    2642:	44 1f       	adc	r20, r20
    2644:	55 1f       	adc	r21, r21
    2646:	6a 95       	dec	r22
    2648:	d2 f7       	brpl	.-12     	; 0x263e <_fpadd_parts+0x140>
    264a:	21 50       	subi	r18, 0x01	; 1
    264c:	30 40       	sbci	r19, 0x00	; 0
    264e:	40 40       	sbci	r20, 0x00	; 0
    2650:	50 40       	sbci	r21, 0x00	; 0
    2652:	2a 21       	and	r18, r10
    2654:	3b 21       	and	r19, r11
    2656:	4c 21       	and	r20, r12
    2658:	5d 21       	and	r21, r13
    265a:	21 15       	cp	r18, r1
    265c:	31 05       	cpc	r19, r1
    265e:	41 05       	cpc	r20, r1
    2660:	51 05       	cpc	r21, r1
    2662:	21 f0       	breq	.+8      	; 0x266c <_fpadd_parts+0x16e>
    2664:	21 e0       	ldi	r18, 0x01	; 1
    2666:	30 e0       	ldi	r19, 0x00	; 0
    2668:	40 e0       	ldi	r20, 0x00	; 0
    266a:	50 e0       	ldi	r21, 0x00	; 0
    266c:	59 01       	movw	r10, r18
    266e:	6a 01       	movw	r12, r20
    2670:	a6 28       	or	r10, r6
    2672:	b7 28       	or	r11, r7
    2674:	c8 28       	or	r12, r8
    2676:	d9 28       	or	r13, r9
    2678:	0b c0       	rjmp	.+22     	; 0x2690 <_fpadd_parts+0x192>
    267a:	82 15       	cp	r24, r2
    267c:	93 05       	cpc	r25, r3
    267e:	2c f0       	brlt	.+10     	; 0x268a <_fpadd_parts+0x18c>
    2680:	1c 01       	movw	r2, r24
    2682:	aa 24       	eor	r10, r10
    2684:	bb 24       	eor	r11, r11
    2686:	65 01       	movw	r12, r10
    2688:	03 c0       	rjmp	.+6      	; 0x2690 <_fpadd_parts+0x192>
    268a:	ee 24       	eor	r14, r14
    268c:	ff 24       	eor	r15, r15
    268e:	87 01       	movw	r16, r14
    2690:	11 96       	adiw	r26, 0x01	; 1
    2692:	9c 91       	ld	r25, X
    2694:	d2 01       	movw	r26, r4
    2696:	11 96       	adiw	r26, 0x01	; 1
    2698:	8c 91       	ld	r24, X
    269a:	98 17       	cp	r25, r24
    269c:	09 f4       	brne	.+2      	; 0x26a0 <_fpadd_parts+0x1a2>
    269e:	45 c0       	rjmp	.+138    	; 0x272a <_fpadd_parts+0x22c>
    26a0:	99 23       	and	r25, r25
    26a2:	39 f0       	breq	.+14     	; 0x26b2 <_fpadd_parts+0x1b4>
    26a4:	a8 01       	movw	r20, r16
    26a6:	97 01       	movw	r18, r14
    26a8:	2a 19       	sub	r18, r10
    26aa:	3b 09       	sbc	r19, r11
    26ac:	4c 09       	sbc	r20, r12
    26ae:	5d 09       	sbc	r21, r13
    26b0:	06 c0       	rjmp	.+12     	; 0x26be <_fpadd_parts+0x1c0>
    26b2:	a6 01       	movw	r20, r12
    26b4:	95 01       	movw	r18, r10
    26b6:	2e 19       	sub	r18, r14
    26b8:	3f 09       	sbc	r19, r15
    26ba:	40 0b       	sbc	r20, r16
    26bc:	51 0b       	sbc	r21, r17
    26be:	57 fd       	sbrc	r21, 7
    26c0:	08 c0       	rjmp	.+16     	; 0x26d2 <_fpadd_parts+0x1d4>
    26c2:	11 82       	std	Z+1, r1	; 0x01
    26c4:	33 82       	std	Z+3, r3	; 0x03
    26c6:	22 82       	std	Z+2, r2	; 0x02
    26c8:	24 83       	std	Z+4, r18	; 0x04
    26ca:	35 83       	std	Z+5, r19	; 0x05
    26cc:	46 83       	std	Z+6, r20	; 0x06
    26ce:	57 83       	std	Z+7, r21	; 0x07
    26d0:	1d c0       	rjmp	.+58     	; 0x270c <_fpadd_parts+0x20e>
    26d2:	81 e0       	ldi	r24, 0x01	; 1
    26d4:	81 83       	std	Z+1, r24	; 0x01
    26d6:	33 82       	std	Z+3, r3	; 0x03
    26d8:	22 82       	std	Z+2, r2	; 0x02
    26da:	88 27       	eor	r24, r24
    26dc:	99 27       	eor	r25, r25
    26de:	dc 01       	movw	r26, r24
    26e0:	82 1b       	sub	r24, r18
    26e2:	93 0b       	sbc	r25, r19
    26e4:	a4 0b       	sbc	r26, r20
    26e6:	b5 0b       	sbc	r27, r21
    26e8:	84 83       	std	Z+4, r24	; 0x04
    26ea:	95 83       	std	Z+5, r25	; 0x05
    26ec:	a6 83       	std	Z+6, r26	; 0x06
    26ee:	b7 83       	std	Z+7, r27	; 0x07
    26f0:	0d c0       	rjmp	.+26     	; 0x270c <_fpadd_parts+0x20e>
    26f2:	22 0f       	add	r18, r18
    26f4:	33 1f       	adc	r19, r19
    26f6:	44 1f       	adc	r20, r20
    26f8:	55 1f       	adc	r21, r21
    26fa:	24 83       	std	Z+4, r18	; 0x04
    26fc:	35 83       	std	Z+5, r19	; 0x05
    26fe:	46 83       	std	Z+6, r20	; 0x06
    2700:	57 83       	std	Z+7, r21	; 0x07
    2702:	82 81       	ldd	r24, Z+2	; 0x02
    2704:	93 81       	ldd	r25, Z+3	; 0x03
    2706:	01 97       	sbiw	r24, 0x01	; 1
    2708:	93 83       	std	Z+3, r25	; 0x03
    270a:	82 83       	std	Z+2, r24	; 0x02
    270c:	24 81       	ldd	r18, Z+4	; 0x04
    270e:	35 81       	ldd	r19, Z+5	; 0x05
    2710:	46 81       	ldd	r20, Z+6	; 0x06
    2712:	57 81       	ldd	r21, Z+7	; 0x07
    2714:	da 01       	movw	r26, r20
    2716:	c9 01       	movw	r24, r18
    2718:	01 97       	sbiw	r24, 0x01	; 1
    271a:	a1 09       	sbc	r26, r1
    271c:	b1 09       	sbc	r27, r1
    271e:	8f 5f       	subi	r24, 0xFF	; 255
    2720:	9f 4f       	sbci	r25, 0xFF	; 255
    2722:	af 4f       	sbci	r26, 0xFF	; 255
    2724:	bf 43       	sbci	r27, 0x3F	; 63
    2726:	28 f3       	brcs	.-54     	; 0x26f2 <_fpadd_parts+0x1f4>
    2728:	0b c0       	rjmp	.+22     	; 0x2740 <_fpadd_parts+0x242>
    272a:	91 83       	std	Z+1, r25	; 0x01
    272c:	33 82       	std	Z+3, r3	; 0x03
    272e:	22 82       	std	Z+2, r2	; 0x02
    2730:	ea 0c       	add	r14, r10
    2732:	fb 1c       	adc	r15, r11
    2734:	0c 1d       	adc	r16, r12
    2736:	1d 1d       	adc	r17, r13
    2738:	e4 82       	std	Z+4, r14	; 0x04
    273a:	f5 82       	std	Z+5, r15	; 0x05
    273c:	06 83       	std	Z+6, r16	; 0x06
    273e:	17 83       	std	Z+7, r17	; 0x07
    2740:	83 e0       	ldi	r24, 0x03	; 3
    2742:	80 83       	st	Z, r24
    2744:	24 81       	ldd	r18, Z+4	; 0x04
    2746:	35 81       	ldd	r19, Z+5	; 0x05
    2748:	46 81       	ldd	r20, Z+6	; 0x06
    274a:	57 81       	ldd	r21, Z+7	; 0x07
    274c:	57 ff       	sbrs	r21, 7
    274e:	1a c0       	rjmp	.+52     	; 0x2784 <_fpadd_parts+0x286>
    2750:	c9 01       	movw	r24, r18
    2752:	aa 27       	eor	r26, r26
    2754:	97 fd       	sbrc	r25, 7
    2756:	a0 95       	com	r26
    2758:	ba 2f       	mov	r27, r26
    275a:	81 70       	andi	r24, 0x01	; 1
    275c:	90 70       	andi	r25, 0x00	; 0
    275e:	a0 70       	andi	r26, 0x00	; 0
    2760:	b0 70       	andi	r27, 0x00	; 0
    2762:	56 95       	lsr	r21
    2764:	47 95       	ror	r20
    2766:	37 95       	ror	r19
    2768:	27 95       	ror	r18
    276a:	82 2b       	or	r24, r18
    276c:	93 2b       	or	r25, r19
    276e:	a4 2b       	or	r26, r20
    2770:	b5 2b       	or	r27, r21
    2772:	84 83       	std	Z+4, r24	; 0x04
    2774:	95 83       	std	Z+5, r25	; 0x05
    2776:	a6 83       	std	Z+6, r26	; 0x06
    2778:	b7 83       	std	Z+7, r27	; 0x07
    277a:	82 81       	ldd	r24, Z+2	; 0x02
    277c:	93 81       	ldd	r25, Z+3	; 0x03
    277e:	01 96       	adiw	r24, 0x01	; 1
    2780:	93 83       	std	Z+3, r25	; 0x03
    2782:	82 83       	std	Z+2, r24	; 0x02
    2784:	df 01       	movw	r26, r30
    2786:	01 c0       	rjmp	.+2      	; 0x278a <_fpadd_parts+0x28c>
    2788:	d2 01       	movw	r26, r4
    278a:	cd 01       	movw	r24, r26
    278c:	cd b7       	in	r28, 0x3d	; 61
    278e:	de b7       	in	r29, 0x3e	; 62
    2790:	e2 e1       	ldi	r30, 0x12	; 18
    2792:	0c 94 03 1a 	jmp	0x3406	; 0x3406 <__epilogue_restores__>

00002796 <__subsf3>:
    2796:	a0 e2       	ldi	r26, 0x20	; 32
    2798:	b0 e0       	ldi	r27, 0x00	; 0
    279a:	e1 ed       	ldi	r30, 0xD1	; 209
    279c:	f3 e1       	ldi	r31, 0x13	; 19
    279e:	0c 94 f3 19 	jmp	0x33e6	; 0x33e6 <__prologue_saves__+0x18>
    27a2:	69 83       	std	Y+1, r22	; 0x01
    27a4:	7a 83       	std	Y+2, r23	; 0x02
    27a6:	8b 83       	std	Y+3, r24	; 0x03
    27a8:	9c 83       	std	Y+4, r25	; 0x04
    27aa:	2d 83       	std	Y+5, r18	; 0x05
    27ac:	3e 83       	std	Y+6, r19	; 0x06
    27ae:	4f 83       	std	Y+7, r20	; 0x07
    27b0:	58 87       	std	Y+8, r21	; 0x08
    27b2:	e9 e0       	ldi	r30, 0x09	; 9
    27b4:	ee 2e       	mov	r14, r30
    27b6:	f1 2c       	mov	r15, r1
    27b8:	ec 0e       	add	r14, r28
    27ba:	fd 1e       	adc	r15, r29
    27bc:	ce 01       	movw	r24, r28
    27be:	01 96       	adiw	r24, 0x01	; 1
    27c0:	b7 01       	movw	r22, r14
    27c2:	0e 94 ae 18 	call	0x315c	; 0x315c <__unpack_f>
    27c6:	8e 01       	movw	r16, r28
    27c8:	0f 5e       	subi	r16, 0xEF	; 239
    27ca:	1f 4f       	sbci	r17, 0xFF	; 255
    27cc:	ce 01       	movw	r24, r28
    27ce:	05 96       	adiw	r24, 0x05	; 5
    27d0:	b8 01       	movw	r22, r16
    27d2:	0e 94 ae 18 	call	0x315c	; 0x315c <__unpack_f>
    27d6:	8a 89       	ldd	r24, Y+18	; 0x12
    27d8:	91 e0       	ldi	r25, 0x01	; 1
    27da:	89 27       	eor	r24, r25
    27dc:	8a 8b       	std	Y+18, r24	; 0x12
    27de:	c7 01       	movw	r24, r14
    27e0:	b8 01       	movw	r22, r16
    27e2:	ae 01       	movw	r20, r28
    27e4:	47 5e       	subi	r20, 0xE7	; 231
    27e6:	5f 4f       	sbci	r21, 0xFF	; 255
    27e8:	0e 94 7f 12 	call	0x24fe	; 0x24fe <_fpadd_parts>
    27ec:	0e 94 d9 17 	call	0x2fb2	; 0x2fb2 <__pack_f>
    27f0:	a0 96       	adiw	r28, 0x20	; 32
    27f2:	e6 e0       	ldi	r30, 0x06	; 6
    27f4:	0c 94 0f 1a 	jmp	0x341e	; 0x341e <__epilogue_restores__+0x18>

000027f8 <__addsf3>:
    27f8:	a0 e2       	ldi	r26, 0x20	; 32
    27fa:	b0 e0       	ldi	r27, 0x00	; 0
    27fc:	e2 e0       	ldi	r30, 0x02	; 2
    27fe:	f4 e1       	ldi	r31, 0x14	; 20
    2800:	0c 94 f3 19 	jmp	0x33e6	; 0x33e6 <__prologue_saves__+0x18>
    2804:	69 83       	std	Y+1, r22	; 0x01
    2806:	7a 83       	std	Y+2, r23	; 0x02
    2808:	8b 83       	std	Y+3, r24	; 0x03
    280a:	9c 83       	std	Y+4, r25	; 0x04
    280c:	2d 83       	std	Y+5, r18	; 0x05
    280e:	3e 83       	std	Y+6, r19	; 0x06
    2810:	4f 83       	std	Y+7, r20	; 0x07
    2812:	58 87       	std	Y+8, r21	; 0x08
    2814:	f9 e0       	ldi	r31, 0x09	; 9
    2816:	ef 2e       	mov	r14, r31
    2818:	f1 2c       	mov	r15, r1
    281a:	ec 0e       	add	r14, r28
    281c:	fd 1e       	adc	r15, r29
    281e:	ce 01       	movw	r24, r28
    2820:	01 96       	adiw	r24, 0x01	; 1
    2822:	b7 01       	movw	r22, r14
    2824:	0e 94 ae 18 	call	0x315c	; 0x315c <__unpack_f>
    2828:	8e 01       	movw	r16, r28
    282a:	0f 5e       	subi	r16, 0xEF	; 239
    282c:	1f 4f       	sbci	r17, 0xFF	; 255
    282e:	ce 01       	movw	r24, r28
    2830:	05 96       	adiw	r24, 0x05	; 5
    2832:	b8 01       	movw	r22, r16
    2834:	0e 94 ae 18 	call	0x315c	; 0x315c <__unpack_f>
    2838:	c7 01       	movw	r24, r14
    283a:	b8 01       	movw	r22, r16
    283c:	ae 01       	movw	r20, r28
    283e:	47 5e       	subi	r20, 0xE7	; 231
    2840:	5f 4f       	sbci	r21, 0xFF	; 255
    2842:	0e 94 7f 12 	call	0x24fe	; 0x24fe <_fpadd_parts>
    2846:	0e 94 d9 17 	call	0x2fb2	; 0x2fb2 <__pack_f>
    284a:	a0 96       	adiw	r28, 0x20	; 32
    284c:	e6 e0       	ldi	r30, 0x06	; 6
    284e:	0c 94 0f 1a 	jmp	0x341e	; 0x341e <__epilogue_restores__+0x18>

00002852 <__mulsf3>:
    2852:	a0 e2       	ldi	r26, 0x20	; 32
    2854:	b0 e0       	ldi	r27, 0x00	; 0
    2856:	ef e2       	ldi	r30, 0x2F	; 47
    2858:	f4 e1       	ldi	r31, 0x14	; 20
    285a:	0c 94 e7 19 	jmp	0x33ce	; 0x33ce <__prologue_saves__>
    285e:	69 83       	std	Y+1, r22	; 0x01
    2860:	7a 83       	std	Y+2, r23	; 0x02
    2862:	8b 83       	std	Y+3, r24	; 0x03
    2864:	9c 83       	std	Y+4, r25	; 0x04
    2866:	2d 83       	std	Y+5, r18	; 0x05
    2868:	3e 83       	std	Y+6, r19	; 0x06
    286a:	4f 83       	std	Y+7, r20	; 0x07
    286c:	58 87       	std	Y+8, r21	; 0x08
    286e:	ce 01       	movw	r24, r28
    2870:	01 96       	adiw	r24, 0x01	; 1
    2872:	be 01       	movw	r22, r28
    2874:	67 5f       	subi	r22, 0xF7	; 247
    2876:	7f 4f       	sbci	r23, 0xFF	; 255
    2878:	0e 94 ae 18 	call	0x315c	; 0x315c <__unpack_f>
    287c:	ce 01       	movw	r24, r28
    287e:	05 96       	adiw	r24, 0x05	; 5
    2880:	be 01       	movw	r22, r28
    2882:	6f 5e       	subi	r22, 0xEF	; 239
    2884:	7f 4f       	sbci	r23, 0xFF	; 255
    2886:	0e 94 ae 18 	call	0x315c	; 0x315c <__unpack_f>
    288a:	99 85       	ldd	r25, Y+9	; 0x09
    288c:	92 30       	cpi	r25, 0x02	; 2
    288e:	88 f0       	brcs	.+34     	; 0x28b2 <__mulsf3+0x60>
    2890:	89 89       	ldd	r24, Y+17	; 0x11
    2892:	82 30       	cpi	r24, 0x02	; 2
    2894:	c8 f0       	brcs	.+50     	; 0x28c8 <__mulsf3+0x76>
    2896:	94 30       	cpi	r25, 0x04	; 4
    2898:	19 f4       	brne	.+6      	; 0x28a0 <__mulsf3+0x4e>
    289a:	82 30       	cpi	r24, 0x02	; 2
    289c:	51 f4       	brne	.+20     	; 0x28b2 <__mulsf3+0x60>
    289e:	04 c0       	rjmp	.+8      	; 0x28a8 <__mulsf3+0x56>
    28a0:	84 30       	cpi	r24, 0x04	; 4
    28a2:	29 f4       	brne	.+10     	; 0x28ae <__mulsf3+0x5c>
    28a4:	92 30       	cpi	r25, 0x02	; 2
    28a6:	81 f4       	brne	.+32     	; 0x28c8 <__mulsf3+0x76>
    28a8:	82 e8       	ldi	r24, 0x82	; 130
    28aa:	91 e0       	ldi	r25, 0x01	; 1
    28ac:	c6 c0       	rjmp	.+396    	; 0x2a3a <__mulsf3+0x1e8>
    28ae:	92 30       	cpi	r25, 0x02	; 2
    28b0:	49 f4       	brne	.+18     	; 0x28c4 <__mulsf3+0x72>
    28b2:	20 e0       	ldi	r18, 0x00	; 0
    28b4:	9a 85       	ldd	r25, Y+10	; 0x0a
    28b6:	8a 89       	ldd	r24, Y+18	; 0x12
    28b8:	98 13       	cpse	r25, r24
    28ba:	21 e0       	ldi	r18, 0x01	; 1
    28bc:	2a 87       	std	Y+10, r18	; 0x0a
    28be:	ce 01       	movw	r24, r28
    28c0:	09 96       	adiw	r24, 0x09	; 9
    28c2:	bb c0       	rjmp	.+374    	; 0x2a3a <__mulsf3+0x1e8>
    28c4:	82 30       	cpi	r24, 0x02	; 2
    28c6:	49 f4       	brne	.+18     	; 0x28da <__mulsf3+0x88>
    28c8:	20 e0       	ldi	r18, 0x00	; 0
    28ca:	9a 85       	ldd	r25, Y+10	; 0x0a
    28cc:	8a 89       	ldd	r24, Y+18	; 0x12
    28ce:	98 13       	cpse	r25, r24
    28d0:	21 e0       	ldi	r18, 0x01	; 1
    28d2:	2a 8b       	std	Y+18, r18	; 0x12
    28d4:	ce 01       	movw	r24, r28
    28d6:	41 96       	adiw	r24, 0x11	; 17
    28d8:	b0 c0       	rjmp	.+352    	; 0x2a3a <__mulsf3+0x1e8>
    28da:	2d 84       	ldd	r2, Y+13	; 0x0d
    28dc:	3e 84       	ldd	r3, Y+14	; 0x0e
    28de:	4f 84       	ldd	r4, Y+15	; 0x0f
    28e0:	58 88       	ldd	r5, Y+16	; 0x10
    28e2:	6d 88       	ldd	r6, Y+21	; 0x15
    28e4:	7e 88       	ldd	r7, Y+22	; 0x16
    28e6:	8f 88       	ldd	r8, Y+23	; 0x17
    28e8:	98 8c       	ldd	r9, Y+24	; 0x18
    28ea:	ee 24       	eor	r14, r14
    28ec:	ff 24       	eor	r15, r15
    28ee:	87 01       	movw	r16, r14
    28f0:	aa 24       	eor	r10, r10
    28f2:	bb 24       	eor	r11, r11
    28f4:	65 01       	movw	r12, r10
    28f6:	40 e0       	ldi	r20, 0x00	; 0
    28f8:	50 e0       	ldi	r21, 0x00	; 0
    28fa:	60 e0       	ldi	r22, 0x00	; 0
    28fc:	70 e0       	ldi	r23, 0x00	; 0
    28fe:	e0 e0       	ldi	r30, 0x00	; 0
    2900:	f0 e0       	ldi	r31, 0x00	; 0
    2902:	c1 01       	movw	r24, r2
    2904:	81 70       	andi	r24, 0x01	; 1
    2906:	90 70       	andi	r25, 0x00	; 0
    2908:	89 2b       	or	r24, r25
    290a:	e9 f0       	breq	.+58     	; 0x2946 <__mulsf3+0xf4>
    290c:	e6 0c       	add	r14, r6
    290e:	f7 1c       	adc	r15, r7
    2910:	08 1d       	adc	r16, r8
    2912:	19 1d       	adc	r17, r9
    2914:	9a 01       	movw	r18, r20
    2916:	ab 01       	movw	r20, r22
    2918:	2a 0d       	add	r18, r10
    291a:	3b 1d       	adc	r19, r11
    291c:	4c 1d       	adc	r20, r12
    291e:	5d 1d       	adc	r21, r13
    2920:	80 e0       	ldi	r24, 0x00	; 0
    2922:	90 e0       	ldi	r25, 0x00	; 0
    2924:	a0 e0       	ldi	r26, 0x00	; 0
    2926:	b0 e0       	ldi	r27, 0x00	; 0
    2928:	e6 14       	cp	r14, r6
    292a:	f7 04       	cpc	r15, r7
    292c:	08 05       	cpc	r16, r8
    292e:	19 05       	cpc	r17, r9
    2930:	20 f4       	brcc	.+8      	; 0x293a <__mulsf3+0xe8>
    2932:	81 e0       	ldi	r24, 0x01	; 1
    2934:	90 e0       	ldi	r25, 0x00	; 0
    2936:	a0 e0       	ldi	r26, 0x00	; 0
    2938:	b0 e0       	ldi	r27, 0x00	; 0
    293a:	ba 01       	movw	r22, r20
    293c:	a9 01       	movw	r20, r18
    293e:	48 0f       	add	r20, r24
    2940:	59 1f       	adc	r21, r25
    2942:	6a 1f       	adc	r22, r26
    2944:	7b 1f       	adc	r23, r27
    2946:	aa 0c       	add	r10, r10
    2948:	bb 1c       	adc	r11, r11
    294a:	cc 1c       	adc	r12, r12
    294c:	dd 1c       	adc	r13, r13
    294e:	97 fe       	sbrs	r9, 7
    2950:	08 c0       	rjmp	.+16     	; 0x2962 <__mulsf3+0x110>
    2952:	81 e0       	ldi	r24, 0x01	; 1
    2954:	90 e0       	ldi	r25, 0x00	; 0
    2956:	a0 e0       	ldi	r26, 0x00	; 0
    2958:	b0 e0       	ldi	r27, 0x00	; 0
    295a:	a8 2a       	or	r10, r24
    295c:	b9 2a       	or	r11, r25
    295e:	ca 2a       	or	r12, r26
    2960:	db 2a       	or	r13, r27
    2962:	31 96       	adiw	r30, 0x01	; 1
    2964:	e0 32       	cpi	r30, 0x20	; 32
    2966:	f1 05       	cpc	r31, r1
    2968:	49 f0       	breq	.+18     	; 0x297c <__mulsf3+0x12a>
    296a:	66 0c       	add	r6, r6
    296c:	77 1c       	adc	r7, r7
    296e:	88 1c       	adc	r8, r8
    2970:	99 1c       	adc	r9, r9
    2972:	56 94       	lsr	r5
    2974:	47 94       	ror	r4
    2976:	37 94       	ror	r3
    2978:	27 94       	ror	r2
    297a:	c3 cf       	rjmp	.-122    	; 0x2902 <__mulsf3+0xb0>
    297c:	fa 85       	ldd	r31, Y+10	; 0x0a
    297e:	ea 89       	ldd	r30, Y+18	; 0x12
    2980:	2b 89       	ldd	r18, Y+19	; 0x13
    2982:	3c 89       	ldd	r19, Y+20	; 0x14
    2984:	8b 85       	ldd	r24, Y+11	; 0x0b
    2986:	9c 85       	ldd	r25, Y+12	; 0x0c
    2988:	28 0f       	add	r18, r24
    298a:	39 1f       	adc	r19, r25
    298c:	2e 5f       	subi	r18, 0xFE	; 254
    298e:	3f 4f       	sbci	r19, 0xFF	; 255
    2990:	17 c0       	rjmp	.+46     	; 0x29c0 <__mulsf3+0x16e>
    2992:	ca 01       	movw	r24, r20
    2994:	81 70       	andi	r24, 0x01	; 1
    2996:	90 70       	andi	r25, 0x00	; 0
    2998:	89 2b       	or	r24, r25
    299a:	61 f0       	breq	.+24     	; 0x29b4 <__mulsf3+0x162>
    299c:	16 95       	lsr	r17
    299e:	07 95       	ror	r16
    29a0:	f7 94       	ror	r15
    29a2:	e7 94       	ror	r14
    29a4:	80 e0       	ldi	r24, 0x00	; 0
    29a6:	90 e0       	ldi	r25, 0x00	; 0
    29a8:	a0 e0       	ldi	r26, 0x00	; 0
    29aa:	b0 e8       	ldi	r27, 0x80	; 128
    29ac:	e8 2a       	or	r14, r24
    29ae:	f9 2a       	or	r15, r25
    29b0:	0a 2b       	or	r16, r26
    29b2:	1b 2b       	or	r17, r27
    29b4:	76 95       	lsr	r23
    29b6:	67 95       	ror	r22
    29b8:	57 95       	ror	r21
    29ba:	47 95       	ror	r20
    29bc:	2f 5f       	subi	r18, 0xFF	; 255
    29be:	3f 4f       	sbci	r19, 0xFF	; 255
    29c0:	77 fd       	sbrc	r23, 7
    29c2:	e7 cf       	rjmp	.-50     	; 0x2992 <__mulsf3+0x140>
    29c4:	0c c0       	rjmp	.+24     	; 0x29de <__mulsf3+0x18c>
    29c6:	44 0f       	add	r20, r20
    29c8:	55 1f       	adc	r21, r21
    29ca:	66 1f       	adc	r22, r22
    29cc:	77 1f       	adc	r23, r23
    29ce:	17 fd       	sbrc	r17, 7
    29d0:	41 60       	ori	r20, 0x01	; 1
    29d2:	ee 0c       	add	r14, r14
    29d4:	ff 1c       	adc	r15, r15
    29d6:	00 1f       	adc	r16, r16
    29d8:	11 1f       	adc	r17, r17
    29da:	21 50       	subi	r18, 0x01	; 1
    29dc:	30 40       	sbci	r19, 0x00	; 0
    29de:	40 30       	cpi	r20, 0x00	; 0
    29e0:	90 e0       	ldi	r25, 0x00	; 0
    29e2:	59 07       	cpc	r21, r25
    29e4:	90 e0       	ldi	r25, 0x00	; 0
    29e6:	69 07       	cpc	r22, r25
    29e8:	90 e4       	ldi	r25, 0x40	; 64
    29ea:	79 07       	cpc	r23, r25
    29ec:	60 f3       	brcs	.-40     	; 0x29c6 <__mulsf3+0x174>
    29ee:	2b 8f       	std	Y+27, r18	; 0x1b
    29f0:	3c 8f       	std	Y+28, r19	; 0x1c
    29f2:	db 01       	movw	r26, r22
    29f4:	ca 01       	movw	r24, r20
    29f6:	8f 77       	andi	r24, 0x7F	; 127
    29f8:	90 70       	andi	r25, 0x00	; 0
    29fa:	a0 70       	andi	r26, 0x00	; 0
    29fc:	b0 70       	andi	r27, 0x00	; 0
    29fe:	80 34       	cpi	r24, 0x40	; 64
    2a00:	91 05       	cpc	r25, r1
    2a02:	a1 05       	cpc	r26, r1
    2a04:	b1 05       	cpc	r27, r1
    2a06:	61 f4       	brne	.+24     	; 0x2a20 <__mulsf3+0x1ce>
    2a08:	47 fd       	sbrc	r20, 7
    2a0a:	0a c0       	rjmp	.+20     	; 0x2a20 <__mulsf3+0x1ce>
    2a0c:	e1 14       	cp	r14, r1
    2a0e:	f1 04       	cpc	r15, r1
    2a10:	01 05       	cpc	r16, r1
    2a12:	11 05       	cpc	r17, r1
    2a14:	29 f0       	breq	.+10     	; 0x2a20 <__mulsf3+0x1ce>
    2a16:	40 5c       	subi	r20, 0xC0	; 192
    2a18:	5f 4f       	sbci	r21, 0xFF	; 255
    2a1a:	6f 4f       	sbci	r22, 0xFF	; 255
    2a1c:	7f 4f       	sbci	r23, 0xFF	; 255
    2a1e:	40 78       	andi	r20, 0x80	; 128
    2a20:	1a 8e       	std	Y+26, r1	; 0x1a
    2a22:	fe 17       	cp	r31, r30
    2a24:	11 f0       	breq	.+4      	; 0x2a2a <__mulsf3+0x1d8>
    2a26:	81 e0       	ldi	r24, 0x01	; 1
    2a28:	8a 8f       	std	Y+26, r24	; 0x1a
    2a2a:	4d 8f       	std	Y+29, r20	; 0x1d
    2a2c:	5e 8f       	std	Y+30, r21	; 0x1e
    2a2e:	6f 8f       	std	Y+31, r22	; 0x1f
    2a30:	78 a3       	std	Y+32, r23	; 0x20
    2a32:	83 e0       	ldi	r24, 0x03	; 3
    2a34:	89 8f       	std	Y+25, r24	; 0x19
    2a36:	ce 01       	movw	r24, r28
    2a38:	49 96       	adiw	r24, 0x19	; 25
    2a3a:	0e 94 d9 17 	call	0x2fb2	; 0x2fb2 <__pack_f>
    2a3e:	a0 96       	adiw	r28, 0x20	; 32
    2a40:	e2 e1       	ldi	r30, 0x12	; 18
    2a42:	0c 94 03 1a 	jmp	0x3406	; 0x3406 <__epilogue_restores__>

00002a46 <__divsf3>:
    2a46:	a8 e1       	ldi	r26, 0x18	; 24
    2a48:	b0 e0       	ldi	r27, 0x00	; 0
    2a4a:	e9 e2       	ldi	r30, 0x29	; 41
    2a4c:	f5 e1       	ldi	r31, 0x15	; 21
    2a4e:	0c 94 ef 19 	jmp	0x33de	; 0x33de <__prologue_saves__+0x10>
    2a52:	69 83       	std	Y+1, r22	; 0x01
    2a54:	7a 83       	std	Y+2, r23	; 0x02
    2a56:	8b 83       	std	Y+3, r24	; 0x03
    2a58:	9c 83       	std	Y+4, r25	; 0x04
    2a5a:	2d 83       	std	Y+5, r18	; 0x05
    2a5c:	3e 83       	std	Y+6, r19	; 0x06
    2a5e:	4f 83       	std	Y+7, r20	; 0x07
    2a60:	58 87       	std	Y+8, r21	; 0x08
    2a62:	b9 e0       	ldi	r27, 0x09	; 9
    2a64:	eb 2e       	mov	r14, r27
    2a66:	f1 2c       	mov	r15, r1
    2a68:	ec 0e       	add	r14, r28
    2a6a:	fd 1e       	adc	r15, r29
    2a6c:	ce 01       	movw	r24, r28
    2a6e:	01 96       	adiw	r24, 0x01	; 1
    2a70:	b7 01       	movw	r22, r14
    2a72:	0e 94 ae 18 	call	0x315c	; 0x315c <__unpack_f>
    2a76:	8e 01       	movw	r16, r28
    2a78:	0f 5e       	subi	r16, 0xEF	; 239
    2a7a:	1f 4f       	sbci	r17, 0xFF	; 255
    2a7c:	ce 01       	movw	r24, r28
    2a7e:	05 96       	adiw	r24, 0x05	; 5
    2a80:	b8 01       	movw	r22, r16
    2a82:	0e 94 ae 18 	call	0x315c	; 0x315c <__unpack_f>
    2a86:	29 85       	ldd	r18, Y+9	; 0x09
    2a88:	22 30       	cpi	r18, 0x02	; 2
    2a8a:	08 f4       	brcc	.+2      	; 0x2a8e <__divsf3+0x48>
    2a8c:	7e c0       	rjmp	.+252    	; 0x2b8a <__divsf3+0x144>
    2a8e:	39 89       	ldd	r19, Y+17	; 0x11
    2a90:	32 30       	cpi	r19, 0x02	; 2
    2a92:	10 f4       	brcc	.+4      	; 0x2a98 <__divsf3+0x52>
    2a94:	b8 01       	movw	r22, r16
    2a96:	7c c0       	rjmp	.+248    	; 0x2b90 <__divsf3+0x14a>
    2a98:	8a 85       	ldd	r24, Y+10	; 0x0a
    2a9a:	9a 89       	ldd	r25, Y+18	; 0x12
    2a9c:	89 27       	eor	r24, r25
    2a9e:	8a 87       	std	Y+10, r24	; 0x0a
    2aa0:	24 30       	cpi	r18, 0x04	; 4
    2aa2:	11 f0       	breq	.+4      	; 0x2aa8 <__divsf3+0x62>
    2aa4:	22 30       	cpi	r18, 0x02	; 2
    2aa6:	31 f4       	brne	.+12     	; 0x2ab4 <__divsf3+0x6e>
    2aa8:	23 17       	cp	r18, r19
    2aaa:	09 f0       	breq	.+2      	; 0x2aae <__divsf3+0x68>
    2aac:	6e c0       	rjmp	.+220    	; 0x2b8a <__divsf3+0x144>
    2aae:	62 e8       	ldi	r22, 0x82	; 130
    2ab0:	71 e0       	ldi	r23, 0x01	; 1
    2ab2:	6e c0       	rjmp	.+220    	; 0x2b90 <__divsf3+0x14a>
    2ab4:	34 30       	cpi	r19, 0x04	; 4
    2ab6:	39 f4       	brne	.+14     	; 0x2ac6 <__divsf3+0x80>
    2ab8:	1d 86       	std	Y+13, r1	; 0x0d
    2aba:	1e 86       	std	Y+14, r1	; 0x0e
    2abc:	1f 86       	std	Y+15, r1	; 0x0f
    2abe:	18 8a       	std	Y+16, r1	; 0x10
    2ac0:	1c 86       	std	Y+12, r1	; 0x0c
    2ac2:	1b 86       	std	Y+11, r1	; 0x0b
    2ac4:	04 c0       	rjmp	.+8      	; 0x2ace <__divsf3+0x88>
    2ac6:	32 30       	cpi	r19, 0x02	; 2
    2ac8:	21 f4       	brne	.+8      	; 0x2ad2 <__divsf3+0x8c>
    2aca:	84 e0       	ldi	r24, 0x04	; 4
    2acc:	89 87       	std	Y+9, r24	; 0x09
    2ace:	b7 01       	movw	r22, r14
    2ad0:	5f c0       	rjmp	.+190    	; 0x2b90 <__divsf3+0x14a>
    2ad2:	2b 85       	ldd	r18, Y+11	; 0x0b
    2ad4:	3c 85       	ldd	r19, Y+12	; 0x0c
    2ad6:	8b 89       	ldd	r24, Y+19	; 0x13
    2ad8:	9c 89       	ldd	r25, Y+20	; 0x14
    2ada:	28 1b       	sub	r18, r24
    2adc:	39 0b       	sbc	r19, r25
    2ade:	3c 87       	std	Y+12, r19	; 0x0c
    2ae0:	2b 87       	std	Y+11, r18	; 0x0b
    2ae2:	ed 84       	ldd	r14, Y+13	; 0x0d
    2ae4:	fe 84       	ldd	r15, Y+14	; 0x0e
    2ae6:	0f 85       	ldd	r16, Y+15	; 0x0f
    2ae8:	18 89       	ldd	r17, Y+16	; 0x10
    2aea:	ad 88       	ldd	r10, Y+21	; 0x15
    2aec:	be 88       	ldd	r11, Y+22	; 0x16
    2aee:	cf 88       	ldd	r12, Y+23	; 0x17
    2af0:	d8 8c       	ldd	r13, Y+24	; 0x18
    2af2:	ea 14       	cp	r14, r10
    2af4:	fb 04       	cpc	r15, r11
    2af6:	0c 05       	cpc	r16, r12
    2af8:	1d 05       	cpc	r17, r13
    2afa:	40 f4       	brcc	.+16     	; 0x2b0c <__divsf3+0xc6>
    2afc:	ee 0c       	add	r14, r14
    2afe:	ff 1c       	adc	r15, r15
    2b00:	00 1f       	adc	r16, r16
    2b02:	11 1f       	adc	r17, r17
    2b04:	21 50       	subi	r18, 0x01	; 1
    2b06:	30 40       	sbci	r19, 0x00	; 0
    2b08:	3c 87       	std	Y+12, r19	; 0x0c
    2b0a:	2b 87       	std	Y+11, r18	; 0x0b
    2b0c:	20 e0       	ldi	r18, 0x00	; 0
    2b0e:	30 e0       	ldi	r19, 0x00	; 0
    2b10:	40 e0       	ldi	r20, 0x00	; 0
    2b12:	50 e0       	ldi	r21, 0x00	; 0
    2b14:	80 e0       	ldi	r24, 0x00	; 0
    2b16:	90 e0       	ldi	r25, 0x00	; 0
    2b18:	a0 e0       	ldi	r26, 0x00	; 0
    2b1a:	b0 e4       	ldi	r27, 0x40	; 64
    2b1c:	60 e0       	ldi	r22, 0x00	; 0
    2b1e:	70 e0       	ldi	r23, 0x00	; 0
    2b20:	ea 14       	cp	r14, r10
    2b22:	fb 04       	cpc	r15, r11
    2b24:	0c 05       	cpc	r16, r12
    2b26:	1d 05       	cpc	r17, r13
    2b28:	40 f0       	brcs	.+16     	; 0x2b3a <__divsf3+0xf4>
    2b2a:	28 2b       	or	r18, r24
    2b2c:	39 2b       	or	r19, r25
    2b2e:	4a 2b       	or	r20, r26
    2b30:	5b 2b       	or	r21, r27
    2b32:	ea 18       	sub	r14, r10
    2b34:	fb 08       	sbc	r15, r11
    2b36:	0c 09       	sbc	r16, r12
    2b38:	1d 09       	sbc	r17, r13
    2b3a:	b6 95       	lsr	r27
    2b3c:	a7 95       	ror	r26
    2b3e:	97 95       	ror	r25
    2b40:	87 95       	ror	r24
    2b42:	ee 0c       	add	r14, r14
    2b44:	ff 1c       	adc	r15, r15
    2b46:	00 1f       	adc	r16, r16
    2b48:	11 1f       	adc	r17, r17
    2b4a:	6f 5f       	subi	r22, 0xFF	; 255
    2b4c:	7f 4f       	sbci	r23, 0xFF	; 255
    2b4e:	6f 31       	cpi	r22, 0x1F	; 31
    2b50:	71 05       	cpc	r23, r1
    2b52:	31 f7       	brne	.-52     	; 0x2b20 <__divsf3+0xda>
    2b54:	da 01       	movw	r26, r20
    2b56:	c9 01       	movw	r24, r18
    2b58:	8f 77       	andi	r24, 0x7F	; 127
    2b5a:	90 70       	andi	r25, 0x00	; 0
    2b5c:	a0 70       	andi	r26, 0x00	; 0
    2b5e:	b0 70       	andi	r27, 0x00	; 0
    2b60:	80 34       	cpi	r24, 0x40	; 64
    2b62:	91 05       	cpc	r25, r1
    2b64:	a1 05       	cpc	r26, r1
    2b66:	b1 05       	cpc	r27, r1
    2b68:	61 f4       	brne	.+24     	; 0x2b82 <__divsf3+0x13c>
    2b6a:	27 fd       	sbrc	r18, 7
    2b6c:	0a c0       	rjmp	.+20     	; 0x2b82 <__divsf3+0x13c>
    2b6e:	e1 14       	cp	r14, r1
    2b70:	f1 04       	cpc	r15, r1
    2b72:	01 05       	cpc	r16, r1
    2b74:	11 05       	cpc	r17, r1
    2b76:	29 f0       	breq	.+10     	; 0x2b82 <__divsf3+0x13c>
    2b78:	20 5c       	subi	r18, 0xC0	; 192
    2b7a:	3f 4f       	sbci	r19, 0xFF	; 255
    2b7c:	4f 4f       	sbci	r20, 0xFF	; 255
    2b7e:	5f 4f       	sbci	r21, 0xFF	; 255
    2b80:	20 78       	andi	r18, 0x80	; 128
    2b82:	2d 87       	std	Y+13, r18	; 0x0d
    2b84:	3e 87       	std	Y+14, r19	; 0x0e
    2b86:	4f 87       	std	Y+15, r20	; 0x0f
    2b88:	58 8b       	std	Y+16, r21	; 0x10
    2b8a:	be 01       	movw	r22, r28
    2b8c:	67 5f       	subi	r22, 0xF7	; 247
    2b8e:	7f 4f       	sbci	r23, 0xFF	; 255
    2b90:	cb 01       	movw	r24, r22
    2b92:	0e 94 d9 17 	call	0x2fb2	; 0x2fb2 <__pack_f>
    2b96:	68 96       	adiw	r28, 0x18	; 24
    2b98:	ea e0       	ldi	r30, 0x0A	; 10
    2b9a:	0c 94 0b 1a 	jmp	0x3416	; 0x3416 <__epilogue_restores__+0x10>

00002b9e <__eqsf2>:
    2b9e:	a8 e1       	ldi	r26, 0x18	; 24
    2ba0:	b0 e0       	ldi	r27, 0x00	; 0
    2ba2:	e5 ed       	ldi	r30, 0xD5	; 213
    2ba4:	f5 e1       	ldi	r31, 0x15	; 21
    2ba6:	0c 94 f3 19 	jmp	0x33e6	; 0x33e6 <__prologue_saves__+0x18>
    2baa:	69 83       	std	Y+1, r22	; 0x01
    2bac:	7a 83       	std	Y+2, r23	; 0x02
    2bae:	8b 83       	std	Y+3, r24	; 0x03
    2bb0:	9c 83       	std	Y+4, r25	; 0x04
    2bb2:	2d 83       	std	Y+5, r18	; 0x05
    2bb4:	3e 83       	std	Y+6, r19	; 0x06
    2bb6:	4f 83       	std	Y+7, r20	; 0x07
    2bb8:	58 87       	std	Y+8, r21	; 0x08
    2bba:	89 e0       	ldi	r24, 0x09	; 9
    2bbc:	e8 2e       	mov	r14, r24
    2bbe:	f1 2c       	mov	r15, r1
    2bc0:	ec 0e       	add	r14, r28
    2bc2:	fd 1e       	adc	r15, r29
    2bc4:	ce 01       	movw	r24, r28
    2bc6:	01 96       	adiw	r24, 0x01	; 1
    2bc8:	b7 01       	movw	r22, r14
    2bca:	0e 94 ae 18 	call	0x315c	; 0x315c <__unpack_f>
    2bce:	8e 01       	movw	r16, r28
    2bd0:	0f 5e       	subi	r16, 0xEF	; 239
    2bd2:	1f 4f       	sbci	r17, 0xFF	; 255
    2bd4:	ce 01       	movw	r24, r28
    2bd6:	05 96       	adiw	r24, 0x05	; 5
    2bd8:	b8 01       	movw	r22, r16
    2bda:	0e 94 ae 18 	call	0x315c	; 0x315c <__unpack_f>
    2bde:	89 85       	ldd	r24, Y+9	; 0x09
    2be0:	82 30       	cpi	r24, 0x02	; 2
    2be2:	40 f0       	brcs	.+16     	; 0x2bf4 <__eqsf2+0x56>
    2be4:	89 89       	ldd	r24, Y+17	; 0x11
    2be6:	82 30       	cpi	r24, 0x02	; 2
    2be8:	28 f0       	brcs	.+10     	; 0x2bf4 <__eqsf2+0x56>
    2bea:	c7 01       	movw	r24, r14
    2bec:	b8 01       	movw	r22, r16
    2bee:	0e 94 26 19 	call	0x324c	; 0x324c <__fpcmp_parts_f>
    2bf2:	01 c0       	rjmp	.+2      	; 0x2bf6 <__eqsf2+0x58>
    2bf4:	81 e0       	ldi	r24, 0x01	; 1
    2bf6:	68 96       	adiw	r28, 0x18	; 24
    2bf8:	e6 e0       	ldi	r30, 0x06	; 6
    2bfa:	0c 94 0f 1a 	jmp	0x341e	; 0x341e <__epilogue_restores__+0x18>

00002bfe <__gesf2>:
    2bfe:	a8 e1       	ldi	r26, 0x18	; 24
    2c00:	b0 e0       	ldi	r27, 0x00	; 0
    2c02:	e5 e0       	ldi	r30, 0x05	; 5
    2c04:	f6 e1       	ldi	r31, 0x16	; 22
    2c06:	0c 94 f3 19 	jmp	0x33e6	; 0x33e6 <__prologue_saves__+0x18>
    2c0a:	69 83       	std	Y+1, r22	; 0x01
    2c0c:	7a 83       	std	Y+2, r23	; 0x02
    2c0e:	8b 83       	std	Y+3, r24	; 0x03
    2c10:	9c 83       	std	Y+4, r25	; 0x04
    2c12:	2d 83       	std	Y+5, r18	; 0x05
    2c14:	3e 83       	std	Y+6, r19	; 0x06
    2c16:	4f 83       	std	Y+7, r20	; 0x07
    2c18:	58 87       	std	Y+8, r21	; 0x08
    2c1a:	89 e0       	ldi	r24, 0x09	; 9
    2c1c:	e8 2e       	mov	r14, r24
    2c1e:	f1 2c       	mov	r15, r1
    2c20:	ec 0e       	add	r14, r28
    2c22:	fd 1e       	adc	r15, r29
    2c24:	ce 01       	movw	r24, r28
    2c26:	01 96       	adiw	r24, 0x01	; 1
    2c28:	b7 01       	movw	r22, r14
    2c2a:	0e 94 ae 18 	call	0x315c	; 0x315c <__unpack_f>
    2c2e:	8e 01       	movw	r16, r28
    2c30:	0f 5e       	subi	r16, 0xEF	; 239
    2c32:	1f 4f       	sbci	r17, 0xFF	; 255
    2c34:	ce 01       	movw	r24, r28
    2c36:	05 96       	adiw	r24, 0x05	; 5
    2c38:	b8 01       	movw	r22, r16
    2c3a:	0e 94 ae 18 	call	0x315c	; 0x315c <__unpack_f>
    2c3e:	89 85       	ldd	r24, Y+9	; 0x09
    2c40:	82 30       	cpi	r24, 0x02	; 2
    2c42:	40 f0       	brcs	.+16     	; 0x2c54 <__gesf2+0x56>
    2c44:	89 89       	ldd	r24, Y+17	; 0x11
    2c46:	82 30       	cpi	r24, 0x02	; 2
    2c48:	28 f0       	brcs	.+10     	; 0x2c54 <__gesf2+0x56>
    2c4a:	c7 01       	movw	r24, r14
    2c4c:	b8 01       	movw	r22, r16
    2c4e:	0e 94 26 19 	call	0x324c	; 0x324c <__fpcmp_parts_f>
    2c52:	01 c0       	rjmp	.+2      	; 0x2c56 <__gesf2+0x58>
    2c54:	8f ef       	ldi	r24, 0xFF	; 255
    2c56:	68 96       	adiw	r28, 0x18	; 24
    2c58:	e6 e0       	ldi	r30, 0x06	; 6
    2c5a:	0c 94 0f 1a 	jmp	0x341e	; 0x341e <__epilogue_restores__+0x18>

00002c5e <__ltsf2>:
    2c5e:	a8 e1       	ldi	r26, 0x18	; 24
    2c60:	b0 e0       	ldi	r27, 0x00	; 0
    2c62:	e5 e3       	ldi	r30, 0x35	; 53
    2c64:	f6 e1       	ldi	r31, 0x16	; 22
    2c66:	0c 94 f3 19 	jmp	0x33e6	; 0x33e6 <__prologue_saves__+0x18>
    2c6a:	69 83       	std	Y+1, r22	; 0x01
    2c6c:	7a 83       	std	Y+2, r23	; 0x02
    2c6e:	8b 83       	std	Y+3, r24	; 0x03
    2c70:	9c 83       	std	Y+4, r25	; 0x04
    2c72:	2d 83       	std	Y+5, r18	; 0x05
    2c74:	3e 83       	std	Y+6, r19	; 0x06
    2c76:	4f 83       	std	Y+7, r20	; 0x07
    2c78:	58 87       	std	Y+8, r21	; 0x08
    2c7a:	89 e0       	ldi	r24, 0x09	; 9
    2c7c:	e8 2e       	mov	r14, r24
    2c7e:	f1 2c       	mov	r15, r1
    2c80:	ec 0e       	add	r14, r28
    2c82:	fd 1e       	adc	r15, r29
    2c84:	ce 01       	movw	r24, r28
    2c86:	01 96       	adiw	r24, 0x01	; 1
    2c88:	b7 01       	movw	r22, r14
    2c8a:	0e 94 ae 18 	call	0x315c	; 0x315c <__unpack_f>
    2c8e:	8e 01       	movw	r16, r28
    2c90:	0f 5e       	subi	r16, 0xEF	; 239
    2c92:	1f 4f       	sbci	r17, 0xFF	; 255
    2c94:	ce 01       	movw	r24, r28
    2c96:	05 96       	adiw	r24, 0x05	; 5
    2c98:	b8 01       	movw	r22, r16
    2c9a:	0e 94 ae 18 	call	0x315c	; 0x315c <__unpack_f>
    2c9e:	89 85       	ldd	r24, Y+9	; 0x09
    2ca0:	82 30       	cpi	r24, 0x02	; 2
    2ca2:	40 f0       	brcs	.+16     	; 0x2cb4 <__ltsf2+0x56>
    2ca4:	89 89       	ldd	r24, Y+17	; 0x11
    2ca6:	82 30       	cpi	r24, 0x02	; 2
    2ca8:	28 f0       	brcs	.+10     	; 0x2cb4 <__ltsf2+0x56>
    2caa:	c7 01       	movw	r24, r14
    2cac:	b8 01       	movw	r22, r16
    2cae:	0e 94 26 19 	call	0x324c	; 0x324c <__fpcmp_parts_f>
    2cb2:	01 c0       	rjmp	.+2      	; 0x2cb6 <__ltsf2+0x58>
    2cb4:	81 e0       	ldi	r24, 0x01	; 1
    2cb6:	68 96       	adiw	r28, 0x18	; 24
    2cb8:	e6 e0       	ldi	r30, 0x06	; 6
    2cba:	0c 94 0f 1a 	jmp	0x341e	; 0x341e <__epilogue_restores__+0x18>

00002cbe <__floatsisf>:
    2cbe:	a8 e0       	ldi	r26, 0x08	; 8
    2cc0:	b0 e0       	ldi	r27, 0x00	; 0
    2cc2:	e5 e6       	ldi	r30, 0x65	; 101
    2cc4:	f6 e1       	ldi	r31, 0x16	; 22
    2cc6:	0c 94 f0 19 	jmp	0x33e0	; 0x33e0 <__prologue_saves__+0x12>
    2cca:	9b 01       	movw	r18, r22
    2ccc:	ac 01       	movw	r20, r24
    2cce:	83 e0       	ldi	r24, 0x03	; 3
    2cd0:	89 83       	std	Y+1, r24	; 0x01
    2cd2:	da 01       	movw	r26, r20
    2cd4:	c9 01       	movw	r24, r18
    2cd6:	88 27       	eor	r24, r24
    2cd8:	b7 fd       	sbrc	r27, 7
    2cda:	83 95       	inc	r24
    2cdc:	99 27       	eor	r25, r25
    2cde:	aa 27       	eor	r26, r26
    2ce0:	bb 27       	eor	r27, r27
    2ce2:	b8 2e       	mov	r11, r24
    2ce4:	21 15       	cp	r18, r1
    2ce6:	31 05       	cpc	r19, r1
    2ce8:	41 05       	cpc	r20, r1
    2cea:	51 05       	cpc	r21, r1
    2cec:	19 f4       	brne	.+6      	; 0x2cf4 <__floatsisf+0x36>
    2cee:	82 e0       	ldi	r24, 0x02	; 2
    2cf0:	89 83       	std	Y+1, r24	; 0x01
    2cf2:	3a c0       	rjmp	.+116    	; 0x2d68 <__floatsisf+0xaa>
    2cf4:	88 23       	and	r24, r24
    2cf6:	a9 f0       	breq	.+42     	; 0x2d22 <__floatsisf+0x64>
    2cf8:	20 30       	cpi	r18, 0x00	; 0
    2cfa:	80 e0       	ldi	r24, 0x00	; 0
    2cfc:	38 07       	cpc	r19, r24
    2cfe:	80 e0       	ldi	r24, 0x00	; 0
    2d00:	48 07       	cpc	r20, r24
    2d02:	80 e8       	ldi	r24, 0x80	; 128
    2d04:	58 07       	cpc	r21, r24
    2d06:	29 f4       	brne	.+10     	; 0x2d12 <__floatsisf+0x54>
    2d08:	60 e0       	ldi	r22, 0x00	; 0
    2d0a:	70 e0       	ldi	r23, 0x00	; 0
    2d0c:	80 e0       	ldi	r24, 0x00	; 0
    2d0e:	9f ec       	ldi	r25, 0xCF	; 207
    2d10:	30 c0       	rjmp	.+96     	; 0x2d72 <__floatsisf+0xb4>
    2d12:	ee 24       	eor	r14, r14
    2d14:	ff 24       	eor	r15, r15
    2d16:	87 01       	movw	r16, r14
    2d18:	e2 1a       	sub	r14, r18
    2d1a:	f3 0a       	sbc	r15, r19
    2d1c:	04 0b       	sbc	r16, r20
    2d1e:	15 0b       	sbc	r17, r21
    2d20:	02 c0       	rjmp	.+4      	; 0x2d26 <__floatsisf+0x68>
    2d22:	79 01       	movw	r14, r18
    2d24:	8a 01       	movw	r16, r20
    2d26:	8e e1       	ldi	r24, 0x1E	; 30
    2d28:	c8 2e       	mov	r12, r24
    2d2a:	d1 2c       	mov	r13, r1
    2d2c:	dc 82       	std	Y+4, r13	; 0x04
    2d2e:	cb 82       	std	Y+3, r12	; 0x03
    2d30:	ed 82       	std	Y+5, r14	; 0x05
    2d32:	fe 82       	std	Y+6, r15	; 0x06
    2d34:	0f 83       	std	Y+7, r16	; 0x07
    2d36:	18 87       	std	Y+8, r17	; 0x08
    2d38:	c8 01       	movw	r24, r16
    2d3a:	b7 01       	movw	r22, r14
    2d3c:	0e 94 8a 17 	call	0x2f14	; 0x2f14 <__clzsi2>
    2d40:	01 97       	sbiw	r24, 0x01	; 1
    2d42:	18 16       	cp	r1, r24
    2d44:	19 06       	cpc	r1, r25
    2d46:	84 f4       	brge	.+32     	; 0x2d68 <__floatsisf+0xaa>
    2d48:	08 2e       	mov	r0, r24
    2d4a:	04 c0       	rjmp	.+8      	; 0x2d54 <__floatsisf+0x96>
    2d4c:	ee 0c       	add	r14, r14
    2d4e:	ff 1c       	adc	r15, r15
    2d50:	00 1f       	adc	r16, r16
    2d52:	11 1f       	adc	r17, r17
    2d54:	0a 94       	dec	r0
    2d56:	d2 f7       	brpl	.-12     	; 0x2d4c <__floatsisf+0x8e>
    2d58:	ed 82       	std	Y+5, r14	; 0x05
    2d5a:	fe 82       	std	Y+6, r15	; 0x06
    2d5c:	0f 83       	std	Y+7, r16	; 0x07
    2d5e:	18 87       	std	Y+8, r17	; 0x08
    2d60:	c8 1a       	sub	r12, r24
    2d62:	d9 0a       	sbc	r13, r25
    2d64:	dc 82       	std	Y+4, r13	; 0x04
    2d66:	cb 82       	std	Y+3, r12	; 0x03
    2d68:	ba 82       	std	Y+2, r11	; 0x02
    2d6a:	ce 01       	movw	r24, r28
    2d6c:	01 96       	adiw	r24, 0x01	; 1
    2d6e:	0e 94 d9 17 	call	0x2fb2	; 0x2fb2 <__pack_f>
    2d72:	28 96       	adiw	r28, 0x08	; 8
    2d74:	e9 e0       	ldi	r30, 0x09	; 9
    2d76:	0c 94 0c 1a 	jmp	0x3418	; 0x3418 <__epilogue_restores__+0x12>

00002d7a <__fixsfsi>:
    2d7a:	ac e0       	ldi	r26, 0x0C	; 12
    2d7c:	b0 e0       	ldi	r27, 0x00	; 0
    2d7e:	e3 ec       	ldi	r30, 0xC3	; 195
    2d80:	f6 e1       	ldi	r31, 0x16	; 22
    2d82:	0c 94 f7 19 	jmp	0x33ee	; 0x33ee <__prologue_saves__+0x20>
    2d86:	69 83       	std	Y+1, r22	; 0x01
    2d88:	7a 83       	std	Y+2, r23	; 0x02
    2d8a:	8b 83       	std	Y+3, r24	; 0x03
    2d8c:	9c 83       	std	Y+4, r25	; 0x04
    2d8e:	ce 01       	movw	r24, r28
    2d90:	01 96       	adiw	r24, 0x01	; 1
    2d92:	be 01       	movw	r22, r28
    2d94:	6b 5f       	subi	r22, 0xFB	; 251
    2d96:	7f 4f       	sbci	r23, 0xFF	; 255
    2d98:	0e 94 ae 18 	call	0x315c	; 0x315c <__unpack_f>
    2d9c:	8d 81       	ldd	r24, Y+5	; 0x05
    2d9e:	82 30       	cpi	r24, 0x02	; 2
    2da0:	61 f1       	breq	.+88     	; 0x2dfa <__fixsfsi+0x80>
    2da2:	82 30       	cpi	r24, 0x02	; 2
    2da4:	50 f1       	brcs	.+84     	; 0x2dfa <__fixsfsi+0x80>
    2da6:	84 30       	cpi	r24, 0x04	; 4
    2da8:	21 f4       	brne	.+8      	; 0x2db2 <__fixsfsi+0x38>
    2daa:	8e 81       	ldd	r24, Y+6	; 0x06
    2dac:	88 23       	and	r24, r24
    2dae:	51 f1       	breq	.+84     	; 0x2e04 <__fixsfsi+0x8a>
    2db0:	2e c0       	rjmp	.+92     	; 0x2e0e <__fixsfsi+0x94>
    2db2:	2f 81       	ldd	r18, Y+7	; 0x07
    2db4:	38 85       	ldd	r19, Y+8	; 0x08
    2db6:	37 fd       	sbrc	r19, 7
    2db8:	20 c0       	rjmp	.+64     	; 0x2dfa <__fixsfsi+0x80>
    2dba:	6e 81       	ldd	r22, Y+6	; 0x06
    2dbc:	2f 31       	cpi	r18, 0x1F	; 31
    2dbe:	31 05       	cpc	r19, r1
    2dc0:	1c f0       	brlt	.+6      	; 0x2dc8 <__fixsfsi+0x4e>
    2dc2:	66 23       	and	r22, r22
    2dc4:	f9 f0       	breq	.+62     	; 0x2e04 <__fixsfsi+0x8a>
    2dc6:	23 c0       	rjmp	.+70     	; 0x2e0e <__fixsfsi+0x94>
    2dc8:	8e e1       	ldi	r24, 0x1E	; 30
    2dca:	90 e0       	ldi	r25, 0x00	; 0
    2dcc:	82 1b       	sub	r24, r18
    2dce:	93 0b       	sbc	r25, r19
    2dd0:	29 85       	ldd	r18, Y+9	; 0x09
    2dd2:	3a 85       	ldd	r19, Y+10	; 0x0a
    2dd4:	4b 85       	ldd	r20, Y+11	; 0x0b
    2dd6:	5c 85       	ldd	r21, Y+12	; 0x0c
    2dd8:	04 c0       	rjmp	.+8      	; 0x2de2 <__fixsfsi+0x68>
    2dda:	56 95       	lsr	r21
    2ddc:	47 95       	ror	r20
    2dde:	37 95       	ror	r19
    2de0:	27 95       	ror	r18
    2de2:	8a 95       	dec	r24
    2de4:	d2 f7       	brpl	.-12     	; 0x2dda <__fixsfsi+0x60>
    2de6:	66 23       	and	r22, r22
    2de8:	b1 f0       	breq	.+44     	; 0x2e16 <__fixsfsi+0x9c>
    2dea:	50 95       	com	r21
    2dec:	40 95       	com	r20
    2dee:	30 95       	com	r19
    2df0:	21 95       	neg	r18
    2df2:	3f 4f       	sbci	r19, 0xFF	; 255
    2df4:	4f 4f       	sbci	r20, 0xFF	; 255
    2df6:	5f 4f       	sbci	r21, 0xFF	; 255
    2df8:	0e c0       	rjmp	.+28     	; 0x2e16 <__fixsfsi+0x9c>
    2dfa:	20 e0       	ldi	r18, 0x00	; 0
    2dfc:	30 e0       	ldi	r19, 0x00	; 0
    2dfe:	40 e0       	ldi	r20, 0x00	; 0
    2e00:	50 e0       	ldi	r21, 0x00	; 0
    2e02:	09 c0       	rjmp	.+18     	; 0x2e16 <__fixsfsi+0x9c>
    2e04:	2f ef       	ldi	r18, 0xFF	; 255
    2e06:	3f ef       	ldi	r19, 0xFF	; 255
    2e08:	4f ef       	ldi	r20, 0xFF	; 255
    2e0a:	5f e7       	ldi	r21, 0x7F	; 127
    2e0c:	04 c0       	rjmp	.+8      	; 0x2e16 <__fixsfsi+0x9c>
    2e0e:	20 e0       	ldi	r18, 0x00	; 0
    2e10:	30 e0       	ldi	r19, 0x00	; 0
    2e12:	40 e0       	ldi	r20, 0x00	; 0
    2e14:	50 e8       	ldi	r21, 0x80	; 128
    2e16:	b9 01       	movw	r22, r18
    2e18:	ca 01       	movw	r24, r20
    2e1a:	2c 96       	adiw	r28, 0x0c	; 12
    2e1c:	e2 e0       	ldi	r30, 0x02	; 2
    2e1e:	0c 94 13 1a 	jmp	0x3426	; 0x3426 <__epilogue_restores__+0x20>

00002e22 <__floatunsisf>:
    2e22:	a8 e0       	ldi	r26, 0x08	; 8
    2e24:	b0 e0       	ldi	r27, 0x00	; 0
    2e26:	e7 e1       	ldi	r30, 0x17	; 23
    2e28:	f7 e1       	ldi	r31, 0x17	; 23
    2e2a:	0c 94 ef 19 	jmp	0x33de	; 0x33de <__prologue_saves__+0x10>
    2e2e:	7b 01       	movw	r14, r22
    2e30:	8c 01       	movw	r16, r24
    2e32:	61 15       	cp	r22, r1
    2e34:	71 05       	cpc	r23, r1
    2e36:	81 05       	cpc	r24, r1
    2e38:	91 05       	cpc	r25, r1
    2e3a:	19 f4       	brne	.+6      	; 0x2e42 <__floatunsisf+0x20>
    2e3c:	82 e0       	ldi	r24, 0x02	; 2
    2e3e:	89 83       	std	Y+1, r24	; 0x01
    2e40:	60 c0       	rjmp	.+192    	; 0x2f02 <__floatunsisf+0xe0>
    2e42:	83 e0       	ldi	r24, 0x03	; 3
    2e44:	89 83       	std	Y+1, r24	; 0x01
    2e46:	8e e1       	ldi	r24, 0x1E	; 30
    2e48:	c8 2e       	mov	r12, r24
    2e4a:	d1 2c       	mov	r13, r1
    2e4c:	dc 82       	std	Y+4, r13	; 0x04
    2e4e:	cb 82       	std	Y+3, r12	; 0x03
    2e50:	ed 82       	std	Y+5, r14	; 0x05
    2e52:	fe 82       	std	Y+6, r15	; 0x06
    2e54:	0f 83       	std	Y+7, r16	; 0x07
    2e56:	18 87       	std	Y+8, r17	; 0x08
    2e58:	c8 01       	movw	r24, r16
    2e5a:	b7 01       	movw	r22, r14
    2e5c:	0e 94 8a 17 	call	0x2f14	; 0x2f14 <__clzsi2>
    2e60:	fc 01       	movw	r30, r24
    2e62:	31 97       	sbiw	r30, 0x01	; 1
    2e64:	f7 ff       	sbrs	r31, 7
    2e66:	3b c0       	rjmp	.+118    	; 0x2ede <__floatunsisf+0xbc>
    2e68:	22 27       	eor	r18, r18
    2e6a:	33 27       	eor	r19, r19
    2e6c:	2e 1b       	sub	r18, r30
    2e6e:	3f 0b       	sbc	r19, r31
    2e70:	57 01       	movw	r10, r14
    2e72:	68 01       	movw	r12, r16
    2e74:	02 2e       	mov	r0, r18
    2e76:	04 c0       	rjmp	.+8      	; 0x2e80 <__floatunsisf+0x5e>
    2e78:	d6 94       	lsr	r13
    2e7a:	c7 94       	ror	r12
    2e7c:	b7 94       	ror	r11
    2e7e:	a7 94       	ror	r10
    2e80:	0a 94       	dec	r0
    2e82:	d2 f7       	brpl	.-12     	; 0x2e78 <__floatunsisf+0x56>
    2e84:	40 e0       	ldi	r20, 0x00	; 0
    2e86:	50 e0       	ldi	r21, 0x00	; 0
    2e88:	60 e0       	ldi	r22, 0x00	; 0
    2e8a:	70 e0       	ldi	r23, 0x00	; 0
    2e8c:	81 e0       	ldi	r24, 0x01	; 1
    2e8e:	90 e0       	ldi	r25, 0x00	; 0
    2e90:	a0 e0       	ldi	r26, 0x00	; 0
    2e92:	b0 e0       	ldi	r27, 0x00	; 0
    2e94:	04 c0       	rjmp	.+8      	; 0x2e9e <__floatunsisf+0x7c>
    2e96:	88 0f       	add	r24, r24
    2e98:	99 1f       	adc	r25, r25
    2e9a:	aa 1f       	adc	r26, r26
    2e9c:	bb 1f       	adc	r27, r27
    2e9e:	2a 95       	dec	r18
    2ea0:	d2 f7       	brpl	.-12     	; 0x2e96 <__floatunsisf+0x74>
    2ea2:	01 97       	sbiw	r24, 0x01	; 1
    2ea4:	a1 09       	sbc	r26, r1
    2ea6:	b1 09       	sbc	r27, r1
    2ea8:	8e 21       	and	r24, r14
    2eaa:	9f 21       	and	r25, r15
    2eac:	a0 23       	and	r26, r16
    2eae:	b1 23       	and	r27, r17
    2eb0:	00 97       	sbiw	r24, 0x00	; 0
    2eb2:	a1 05       	cpc	r26, r1
    2eb4:	b1 05       	cpc	r27, r1
    2eb6:	21 f0       	breq	.+8      	; 0x2ec0 <__floatunsisf+0x9e>
    2eb8:	41 e0       	ldi	r20, 0x01	; 1
    2eba:	50 e0       	ldi	r21, 0x00	; 0
    2ebc:	60 e0       	ldi	r22, 0x00	; 0
    2ebe:	70 e0       	ldi	r23, 0x00	; 0
    2ec0:	4a 29       	or	r20, r10
    2ec2:	5b 29       	or	r21, r11
    2ec4:	6c 29       	or	r22, r12
    2ec6:	7d 29       	or	r23, r13
    2ec8:	4d 83       	std	Y+5, r20	; 0x05
    2eca:	5e 83       	std	Y+6, r21	; 0x06
    2ecc:	6f 83       	std	Y+7, r22	; 0x07
    2ece:	78 87       	std	Y+8, r23	; 0x08
    2ed0:	8e e1       	ldi	r24, 0x1E	; 30
    2ed2:	90 e0       	ldi	r25, 0x00	; 0
    2ed4:	8e 1b       	sub	r24, r30
    2ed6:	9f 0b       	sbc	r25, r31
    2ed8:	9c 83       	std	Y+4, r25	; 0x04
    2eda:	8b 83       	std	Y+3, r24	; 0x03
    2edc:	12 c0       	rjmp	.+36     	; 0x2f02 <__floatunsisf+0xe0>
    2ede:	30 97       	sbiw	r30, 0x00	; 0
    2ee0:	81 f0       	breq	.+32     	; 0x2f02 <__floatunsisf+0xe0>
    2ee2:	0e 2e       	mov	r0, r30
    2ee4:	04 c0       	rjmp	.+8      	; 0x2eee <__floatunsisf+0xcc>
    2ee6:	ee 0c       	add	r14, r14
    2ee8:	ff 1c       	adc	r15, r15
    2eea:	00 1f       	adc	r16, r16
    2eec:	11 1f       	adc	r17, r17
    2eee:	0a 94       	dec	r0
    2ef0:	d2 f7       	brpl	.-12     	; 0x2ee6 <__floatunsisf+0xc4>
    2ef2:	ed 82       	std	Y+5, r14	; 0x05
    2ef4:	fe 82       	std	Y+6, r15	; 0x06
    2ef6:	0f 83       	std	Y+7, r16	; 0x07
    2ef8:	18 87       	std	Y+8, r17	; 0x08
    2efa:	ce 1a       	sub	r12, r30
    2efc:	df 0a       	sbc	r13, r31
    2efe:	dc 82       	std	Y+4, r13	; 0x04
    2f00:	cb 82       	std	Y+3, r12	; 0x03
    2f02:	1a 82       	std	Y+2, r1	; 0x02
    2f04:	ce 01       	movw	r24, r28
    2f06:	01 96       	adiw	r24, 0x01	; 1
    2f08:	0e 94 d9 17 	call	0x2fb2	; 0x2fb2 <__pack_f>
    2f0c:	28 96       	adiw	r28, 0x08	; 8
    2f0e:	ea e0       	ldi	r30, 0x0A	; 10
    2f10:	0c 94 0b 1a 	jmp	0x3416	; 0x3416 <__epilogue_restores__+0x10>

00002f14 <__clzsi2>:
    2f14:	ef 92       	push	r14
    2f16:	ff 92       	push	r15
    2f18:	0f 93       	push	r16
    2f1a:	1f 93       	push	r17
    2f1c:	7b 01       	movw	r14, r22
    2f1e:	8c 01       	movw	r16, r24
    2f20:	80 e0       	ldi	r24, 0x00	; 0
    2f22:	e8 16       	cp	r14, r24
    2f24:	80 e0       	ldi	r24, 0x00	; 0
    2f26:	f8 06       	cpc	r15, r24
    2f28:	81 e0       	ldi	r24, 0x01	; 1
    2f2a:	08 07       	cpc	r16, r24
    2f2c:	80 e0       	ldi	r24, 0x00	; 0
    2f2e:	18 07       	cpc	r17, r24
    2f30:	88 f4       	brcc	.+34     	; 0x2f54 <__clzsi2+0x40>
    2f32:	8f ef       	ldi	r24, 0xFF	; 255
    2f34:	e8 16       	cp	r14, r24
    2f36:	f1 04       	cpc	r15, r1
    2f38:	01 05       	cpc	r16, r1
    2f3a:	11 05       	cpc	r17, r1
    2f3c:	31 f0       	breq	.+12     	; 0x2f4a <__clzsi2+0x36>
    2f3e:	28 f0       	brcs	.+10     	; 0x2f4a <__clzsi2+0x36>
    2f40:	88 e0       	ldi	r24, 0x08	; 8
    2f42:	90 e0       	ldi	r25, 0x00	; 0
    2f44:	a0 e0       	ldi	r26, 0x00	; 0
    2f46:	b0 e0       	ldi	r27, 0x00	; 0
    2f48:	17 c0       	rjmp	.+46     	; 0x2f78 <__clzsi2+0x64>
    2f4a:	80 e0       	ldi	r24, 0x00	; 0
    2f4c:	90 e0       	ldi	r25, 0x00	; 0
    2f4e:	a0 e0       	ldi	r26, 0x00	; 0
    2f50:	b0 e0       	ldi	r27, 0x00	; 0
    2f52:	12 c0       	rjmp	.+36     	; 0x2f78 <__clzsi2+0x64>
    2f54:	80 e0       	ldi	r24, 0x00	; 0
    2f56:	e8 16       	cp	r14, r24
    2f58:	80 e0       	ldi	r24, 0x00	; 0
    2f5a:	f8 06       	cpc	r15, r24
    2f5c:	80 e0       	ldi	r24, 0x00	; 0
    2f5e:	08 07       	cpc	r16, r24
    2f60:	81 e0       	ldi	r24, 0x01	; 1
    2f62:	18 07       	cpc	r17, r24
    2f64:	28 f0       	brcs	.+10     	; 0x2f70 <__clzsi2+0x5c>
    2f66:	88 e1       	ldi	r24, 0x18	; 24
    2f68:	90 e0       	ldi	r25, 0x00	; 0
    2f6a:	a0 e0       	ldi	r26, 0x00	; 0
    2f6c:	b0 e0       	ldi	r27, 0x00	; 0
    2f6e:	04 c0       	rjmp	.+8      	; 0x2f78 <__clzsi2+0x64>
    2f70:	80 e1       	ldi	r24, 0x10	; 16
    2f72:	90 e0       	ldi	r25, 0x00	; 0
    2f74:	a0 e0       	ldi	r26, 0x00	; 0
    2f76:	b0 e0       	ldi	r27, 0x00	; 0
    2f78:	20 e2       	ldi	r18, 0x20	; 32
    2f7a:	30 e0       	ldi	r19, 0x00	; 0
    2f7c:	40 e0       	ldi	r20, 0x00	; 0
    2f7e:	50 e0       	ldi	r21, 0x00	; 0
    2f80:	28 1b       	sub	r18, r24
    2f82:	39 0b       	sbc	r19, r25
    2f84:	4a 0b       	sbc	r20, r26
    2f86:	5b 0b       	sbc	r21, r27
    2f88:	04 c0       	rjmp	.+8      	; 0x2f92 <__clzsi2+0x7e>
    2f8a:	16 95       	lsr	r17
    2f8c:	07 95       	ror	r16
    2f8e:	f7 94       	ror	r15
    2f90:	e7 94       	ror	r14
    2f92:	8a 95       	dec	r24
    2f94:	d2 f7       	brpl	.-12     	; 0x2f8a <__clzsi2+0x76>
    2f96:	f7 01       	movw	r30, r14
    2f98:	e6 57       	subi	r30, 0x76	; 118
    2f9a:	fe 4f       	sbci	r31, 0xFE	; 254
    2f9c:	80 81       	ld	r24, Z
    2f9e:	28 1b       	sub	r18, r24
    2fa0:	31 09       	sbc	r19, r1
    2fa2:	41 09       	sbc	r20, r1
    2fa4:	51 09       	sbc	r21, r1
    2fa6:	c9 01       	movw	r24, r18
    2fa8:	1f 91       	pop	r17
    2faa:	0f 91       	pop	r16
    2fac:	ff 90       	pop	r15
    2fae:	ef 90       	pop	r14
    2fb0:	08 95       	ret

00002fb2 <__pack_f>:
    2fb2:	df 92       	push	r13
    2fb4:	ef 92       	push	r14
    2fb6:	ff 92       	push	r15
    2fb8:	0f 93       	push	r16
    2fba:	1f 93       	push	r17
    2fbc:	fc 01       	movw	r30, r24
    2fbe:	e4 80       	ldd	r14, Z+4	; 0x04
    2fc0:	f5 80       	ldd	r15, Z+5	; 0x05
    2fc2:	06 81       	ldd	r16, Z+6	; 0x06
    2fc4:	17 81       	ldd	r17, Z+7	; 0x07
    2fc6:	d1 80       	ldd	r13, Z+1	; 0x01
    2fc8:	80 81       	ld	r24, Z
    2fca:	82 30       	cpi	r24, 0x02	; 2
    2fcc:	48 f4       	brcc	.+18     	; 0x2fe0 <__pack_f+0x2e>
    2fce:	80 e0       	ldi	r24, 0x00	; 0
    2fd0:	90 e0       	ldi	r25, 0x00	; 0
    2fd2:	a0 e1       	ldi	r26, 0x10	; 16
    2fd4:	b0 e0       	ldi	r27, 0x00	; 0
    2fd6:	e8 2a       	or	r14, r24
    2fd8:	f9 2a       	or	r15, r25
    2fda:	0a 2b       	or	r16, r26
    2fdc:	1b 2b       	or	r17, r27
    2fde:	a5 c0       	rjmp	.+330    	; 0x312a <__pack_f+0x178>
    2fe0:	84 30       	cpi	r24, 0x04	; 4
    2fe2:	09 f4       	brne	.+2      	; 0x2fe6 <__pack_f+0x34>
    2fe4:	9f c0       	rjmp	.+318    	; 0x3124 <__pack_f+0x172>
    2fe6:	82 30       	cpi	r24, 0x02	; 2
    2fe8:	21 f4       	brne	.+8      	; 0x2ff2 <__pack_f+0x40>
    2fea:	ee 24       	eor	r14, r14
    2fec:	ff 24       	eor	r15, r15
    2fee:	87 01       	movw	r16, r14
    2ff0:	05 c0       	rjmp	.+10     	; 0x2ffc <__pack_f+0x4a>
    2ff2:	e1 14       	cp	r14, r1
    2ff4:	f1 04       	cpc	r15, r1
    2ff6:	01 05       	cpc	r16, r1
    2ff8:	11 05       	cpc	r17, r1
    2ffa:	19 f4       	brne	.+6      	; 0x3002 <__pack_f+0x50>
    2ffc:	e0 e0       	ldi	r30, 0x00	; 0
    2ffe:	f0 e0       	ldi	r31, 0x00	; 0
    3000:	96 c0       	rjmp	.+300    	; 0x312e <__pack_f+0x17c>
    3002:	62 81       	ldd	r22, Z+2	; 0x02
    3004:	73 81       	ldd	r23, Z+3	; 0x03
    3006:	9f ef       	ldi	r25, 0xFF	; 255
    3008:	62 38       	cpi	r22, 0x82	; 130
    300a:	79 07       	cpc	r23, r25
    300c:	0c f0       	brlt	.+2      	; 0x3010 <__pack_f+0x5e>
    300e:	5b c0       	rjmp	.+182    	; 0x30c6 <__pack_f+0x114>
    3010:	22 e8       	ldi	r18, 0x82	; 130
    3012:	3f ef       	ldi	r19, 0xFF	; 255
    3014:	26 1b       	sub	r18, r22
    3016:	37 0b       	sbc	r19, r23
    3018:	2a 31       	cpi	r18, 0x1A	; 26
    301a:	31 05       	cpc	r19, r1
    301c:	2c f0       	brlt	.+10     	; 0x3028 <__pack_f+0x76>
    301e:	20 e0       	ldi	r18, 0x00	; 0
    3020:	30 e0       	ldi	r19, 0x00	; 0
    3022:	40 e0       	ldi	r20, 0x00	; 0
    3024:	50 e0       	ldi	r21, 0x00	; 0
    3026:	2a c0       	rjmp	.+84     	; 0x307c <__pack_f+0xca>
    3028:	b8 01       	movw	r22, r16
    302a:	a7 01       	movw	r20, r14
    302c:	02 2e       	mov	r0, r18
    302e:	04 c0       	rjmp	.+8      	; 0x3038 <__pack_f+0x86>
    3030:	76 95       	lsr	r23
    3032:	67 95       	ror	r22
    3034:	57 95       	ror	r21
    3036:	47 95       	ror	r20
    3038:	0a 94       	dec	r0
    303a:	d2 f7       	brpl	.-12     	; 0x3030 <__pack_f+0x7e>
    303c:	81 e0       	ldi	r24, 0x01	; 1
    303e:	90 e0       	ldi	r25, 0x00	; 0
    3040:	a0 e0       	ldi	r26, 0x00	; 0
    3042:	b0 e0       	ldi	r27, 0x00	; 0
    3044:	04 c0       	rjmp	.+8      	; 0x304e <__pack_f+0x9c>
    3046:	88 0f       	add	r24, r24
    3048:	99 1f       	adc	r25, r25
    304a:	aa 1f       	adc	r26, r26
    304c:	bb 1f       	adc	r27, r27
    304e:	2a 95       	dec	r18
    3050:	d2 f7       	brpl	.-12     	; 0x3046 <__pack_f+0x94>
    3052:	01 97       	sbiw	r24, 0x01	; 1
    3054:	a1 09       	sbc	r26, r1
    3056:	b1 09       	sbc	r27, r1
    3058:	8e 21       	and	r24, r14
    305a:	9f 21       	and	r25, r15
    305c:	a0 23       	and	r26, r16
    305e:	b1 23       	and	r27, r17
    3060:	00 97       	sbiw	r24, 0x00	; 0
    3062:	a1 05       	cpc	r26, r1
    3064:	b1 05       	cpc	r27, r1
    3066:	21 f0       	breq	.+8      	; 0x3070 <__pack_f+0xbe>
    3068:	81 e0       	ldi	r24, 0x01	; 1
    306a:	90 e0       	ldi	r25, 0x00	; 0
    306c:	a0 e0       	ldi	r26, 0x00	; 0
    306e:	b0 e0       	ldi	r27, 0x00	; 0
    3070:	9a 01       	movw	r18, r20
    3072:	ab 01       	movw	r20, r22
    3074:	28 2b       	or	r18, r24
    3076:	39 2b       	or	r19, r25
    3078:	4a 2b       	or	r20, r26
    307a:	5b 2b       	or	r21, r27
    307c:	da 01       	movw	r26, r20
    307e:	c9 01       	movw	r24, r18
    3080:	8f 77       	andi	r24, 0x7F	; 127
    3082:	90 70       	andi	r25, 0x00	; 0
    3084:	a0 70       	andi	r26, 0x00	; 0
    3086:	b0 70       	andi	r27, 0x00	; 0
    3088:	80 34       	cpi	r24, 0x40	; 64
    308a:	91 05       	cpc	r25, r1
    308c:	a1 05       	cpc	r26, r1
    308e:	b1 05       	cpc	r27, r1
    3090:	39 f4       	brne	.+14     	; 0x30a0 <__pack_f+0xee>
    3092:	27 ff       	sbrs	r18, 7
    3094:	09 c0       	rjmp	.+18     	; 0x30a8 <__pack_f+0xf6>
    3096:	20 5c       	subi	r18, 0xC0	; 192
    3098:	3f 4f       	sbci	r19, 0xFF	; 255
    309a:	4f 4f       	sbci	r20, 0xFF	; 255
    309c:	5f 4f       	sbci	r21, 0xFF	; 255
    309e:	04 c0       	rjmp	.+8      	; 0x30a8 <__pack_f+0xf6>
    30a0:	21 5c       	subi	r18, 0xC1	; 193
    30a2:	3f 4f       	sbci	r19, 0xFF	; 255
    30a4:	4f 4f       	sbci	r20, 0xFF	; 255
    30a6:	5f 4f       	sbci	r21, 0xFF	; 255
    30a8:	e0 e0       	ldi	r30, 0x00	; 0
    30aa:	f0 e0       	ldi	r31, 0x00	; 0
    30ac:	20 30       	cpi	r18, 0x00	; 0
    30ae:	a0 e0       	ldi	r26, 0x00	; 0
    30b0:	3a 07       	cpc	r19, r26
    30b2:	a0 e0       	ldi	r26, 0x00	; 0
    30b4:	4a 07       	cpc	r20, r26
    30b6:	a0 e4       	ldi	r26, 0x40	; 64
    30b8:	5a 07       	cpc	r21, r26
    30ba:	10 f0       	brcs	.+4      	; 0x30c0 <__pack_f+0x10e>
    30bc:	e1 e0       	ldi	r30, 0x01	; 1
    30be:	f0 e0       	ldi	r31, 0x00	; 0
    30c0:	79 01       	movw	r14, r18
    30c2:	8a 01       	movw	r16, r20
    30c4:	27 c0       	rjmp	.+78     	; 0x3114 <__pack_f+0x162>
    30c6:	60 38       	cpi	r22, 0x80	; 128
    30c8:	71 05       	cpc	r23, r1
    30ca:	64 f5       	brge	.+88     	; 0x3124 <__pack_f+0x172>
    30cc:	fb 01       	movw	r30, r22
    30ce:	e1 58       	subi	r30, 0x81	; 129
    30d0:	ff 4f       	sbci	r31, 0xFF	; 255
    30d2:	d8 01       	movw	r26, r16
    30d4:	c7 01       	movw	r24, r14
    30d6:	8f 77       	andi	r24, 0x7F	; 127
    30d8:	90 70       	andi	r25, 0x00	; 0
    30da:	a0 70       	andi	r26, 0x00	; 0
    30dc:	b0 70       	andi	r27, 0x00	; 0
    30de:	80 34       	cpi	r24, 0x40	; 64
    30e0:	91 05       	cpc	r25, r1
    30e2:	a1 05       	cpc	r26, r1
    30e4:	b1 05       	cpc	r27, r1
    30e6:	39 f4       	brne	.+14     	; 0x30f6 <__pack_f+0x144>
    30e8:	e7 fe       	sbrs	r14, 7
    30ea:	0d c0       	rjmp	.+26     	; 0x3106 <__pack_f+0x154>
    30ec:	80 e4       	ldi	r24, 0x40	; 64
    30ee:	90 e0       	ldi	r25, 0x00	; 0
    30f0:	a0 e0       	ldi	r26, 0x00	; 0
    30f2:	b0 e0       	ldi	r27, 0x00	; 0
    30f4:	04 c0       	rjmp	.+8      	; 0x30fe <__pack_f+0x14c>
    30f6:	8f e3       	ldi	r24, 0x3F	; 63
    30f8:	90 e0       	ldi	r25, 0x00	; 0
    30fa:	a0 e0       	ldi	r26, 0x00	; 0
    30fc:	b0 e0       	ldi	r27, 0x00	; 0
    30fe:	e8 0e       	add	r14, r24
    3100:	f9 1e       	adc	r15, r25
    3102:	0a 1f       	adc	r16, r26
    3104:	1b 1f       	adc	r17, r27
    3106:	17 ff       	sbrs	r17, 7
    3108:	05 c0       	rjmp	.+10     	; 0x3114 <__pack_f+0x162>
    310a:	16 95       	lsr	r17
    310c:	07 95       	ror	r16
    310e:	f7 94       	ror	r15
    3110:	e7 94       	ror	r14
    3112:	31 96       	adiw	r30, 0x01	; 1
    3114:	87 e0       	ldi	r24, 0x07	; 7
    3116:	16 95       	lsr	r17
    3118:	07 95       	ror	r16
    311a:	f7 94       	ror	r15
    311c:	e7 94       	ror	r14
    311e:	8a 95       	dec	r24
    3120:	d1 f7       	brne	.-12     	; 0x3116 <__pack_f+0x164>
    3122:	05 c0       	rjmp	.+10     	; 0x312e <__pack_f+0x17c>
    3124:	ee 24       	eor	r14, r14
    3126:	ff 24       	eor	r15, r15
    3128:	87 01       	movw	r16, r14
    312a:	ef ef       	ldi	r30, 0xFF	; 255
    312c:	f0 e0       	ldi	r31, 0x00	; 0
    312e:	6e 2f       	mov	r22, r30
    3130:	67 95       	ror	r22
    3132:	66 27       	eor	r22, r22
    3134:	67 95       	ror	r22
    3136:	90 2f       	mov	r25, r16
    3138:	9f 77       	andi	r25, 0x7F	; 127
    313a:	d7 94       	ror	r13
    313c:	dd 24       	eor	r13, r13
    313e:	d7 94       	ror	r13
    3140:	8e 2f       	mov	r24, r30
    3142:	86 95       	lsr	r24
    3144:	49 2f       	mov	r20, r25
    3146:	46 2b       	or	r20, r22
    3148:	58 2f       	mov	r21, r24
    314a:	5d 29       	or	r21, r13
    314c:	b7 01       	movw	r22, r14
    314e:	ca 01       	movw	r24, r20
    3150:	1f 91       	pop	r17
    3152:	0f 91       	pop	r16
    3154:	ff 90       	pop	r15
    3156:	ef 90       	pop	r14
    3158:	df 90       	pop	r13
    315a:	08 95       	ret

0000315c <__unpack_f>:
    315c:	fc 01       	movw	r30, r24
    315e:	db 01       	movw	r26, r22
    3160:	40 81       	ld	r20, Z
    3162:	51 81       	ldd	r21, Z+1	; 0x01
    3164:	22 81       	ldd	r18, Z+2	; 0x02
    3166:	62 2f       	mov	r22, r18
    3168:	6f 77       	andi	r22, 0x7F	; 127
    316a:	70 e0       	ldi	r23, 0x00	; 0
    316c:	22 1f       	adc	r18, r18
    316e:	22 27       	eor	r18, r18
    3170:	22 1f       	adc	r18, r18
    3172:	93 81       	ldd	r25, Z+3	; 0x03
    3174:	89 2f       	mov	r24, r25
    3176:	88 0f       	add	r24, r24
    3178:	82 2b       	or	r24, r18
    317a:	28 2f       	mov	r18, r24
    317c:	30 e0       	ldi	r19, 0x00	; 0
    317e:	99 1f       	adc	r25, r25
    3180:	99 27       	eor	r25, r25
    3182:	99 1f       	adc	r25, r25
    3184:	11 96       	adiw	r26, 0x01	; 1
    3186:	9c 93       	st	X, r25
    3188:	11 97       	sbiw	r26, 0x01	; 1
    318a:	21 15       	cp	r18, r1
    318c:	31 05       	cpc	r19, r1
    318e:	a9 f5       	brne	.+106    	; 0x31fa <__unpack_f+0x9e>
    3190:	41 15       	cp	r20, r1
    3192:	51 05       	cpc	r21, r1
    3194:	61 05       	cpc	r22, r1
    3196:	71 05       	cpc	r23, r1
    3198:	11 f4       	brne	.+4      	; 0x319e <__unpack_f+0x42>
    319a:	82 e0       	ldi	r24, 0x02	; 2
    319c:	37 c0       	rjmp	.+110    	; 0x320c <__unpack_f+0xb0>
    319e:	82 e8       	ldi	r24, 0x82	; 130
    31a0:	9f ef       	ldi	r25, 0xFF	; 255
    31a2:	13 96       	adiw	r26, 0x03	; 3
    31a4:	9c 93       	st	X, r25
    31a6:	8e 93       	st	-X, r24
    31a8:	12 97       	sbiw	r26, 0x02	; 2
    31aa:	9a 01       	movw	r18, r20
    31ac:	ab 01       	movw	r20, r22
    31ae:	67 e0       	ldi	r22, 0x07	; 7
    31b0:	22 0f       	add	r18, r18
    31b2:	33 1f       	adc	r19, r19
    31b4:	44 1f       	adc	r20, r20
    31b6:	55 1f       	adc	r21, r21
    31b8:	6a 95       	dec	r22
    31ba:	d1 f7       	brne	.-12     	; 0x31b0 <__unpack_f+0x54>
    31bc:	83 e0       	ldi	r24, 0x03	; 3
    31be:	8c 93       	st	X, r24
    31c0:	0d c0       	rjmp	.+26     	; 0x31dc <__unpack_f+0x80>
    31c2:	22 0f       	add	r18, r18
    31c4:	33 1f       	adc	r19, r19
    31c6:	44 1f       	adc	r20, r20
    31c8:	55 1f       	adc	r21, r21
    31ca:	12 96       	adiw	r26, 0x02	; 2
    31cc:	8d 91       	ld	r24, X+
    31ce:	9c 91       	ld	r25, X
    31d0:	13 97       	sbiw	r26, 0x03	; 3
    31d2:	01 97       	sbiw	r24, 0x01	; 1
    31d4:	13 96       	adiw	r26, 0x03	; 3
    31d6:	9c 93       	st	X, r25
    31d8:	8e 93       	st	-X, r24
    31da:	12 97       	sbiw	r26, 0x02	; 2
    31dc:	20 30       	cpi	r18, 0x00	; 0
    31de:	80 e0       	ldi	r24, 0x00	; 0
    31e0:	38 07       	cpc	r19, r24
    31e2:	80 e0       	ldi	r24, 0x00	; 0
    31e4:	48 07       	cpc	r20, r24
    31e6:	80 e4       	ldi	r24, 0x40	; 64
    31e8:	58 07       	cpc	r21, r24
    31ea:	58 f3       	brcs	.-42     	; 0x31c2 <__unpack_f+0x66>
    31ec:	14 96       	adiw	r26, 0x04	; 4
    31ee:	2d 93       	st	X+, r18
    31f0:	3d 93       	st	X+, r19
    31f2:	4d 93       	st	X+, r20
    31f4:	5c 93       	st	X, r21
    31f6:	17 97       	sbiw	r26, 0x07	; 7
    31f8:	08 95       	ret
    31fa:	2f 3f       	cpi	r18, 0xFF	; 255
    31fc:	31 05       	cpc	r19, r1
    31fe:	79 f4       	brne	.+30     	; 0x321e <__unpack_f+0xc2>
    3200:	41 15       	cp	r20, r1
    3202:	51 05       	cpc	r21, r1
    3204:	61 05       	cpc	r22, r1
    3206:	71 05       	cpc	r23, r1
    3208:	19 f4       	brne	.+6      	; 0x3210 <__unpack_f+0xb4>
    320a:	84 e0       	ldi	r24, 0x04	; 4
    320c:	8c 93       	st	X, r24
    320e:	08 95       	ret
    3210:	64 ff       	sbrs	r22, 4
    3212:	03 c0       	rjmp	.+6      	; 0x321a <__unpack_f+0xbe>
    3214:	81 e0       	ldi	r24, 0x01	; 1
    3216:	8c 93       	st	X, r24
    3218:	12 c0       	rjmp	.+36     	; 0x323e <__unpack_f+0xe2>
    321a:	1c 92       	st	X, r1
    321c:	10 c0       	rjmp	.+32     	; 0x323e <__unpack_f+0xe2>
    321e:	2f 57       	subi	r18, 0x7F	; 127
    3220:	30 40       	sbci	r19, 0x00	; 0
    3222:	13 96       	adiw	r26, 0x03	; 3
    3224:	3c 93       	st	X, r19
    3226:	2e 93       	st	-X, r18
    3228:	12 97       	sbiw	r26, 0x02	; 2
    322a:	83 e0       	ldi	r24, 0x03	; 3
    322c:	8c 93       	st	X, r24
    322e:	87 e0       	ldi	r24, 0x07	; 7
    3230:	44 0f       	add	r20, r20
    3232:	55 1f       	adc	r21, r21
    3234:	66 1f       	adc	r22, r22
    3236:	77 1f       	adc	r23, r23
    3238:	8a 95       	dec	r24
    323a:	d1 f7       	brne	.-12     	; 0x3230 <__unpack_f+0xd4>
    323c:	70 64       	ori	r23, 0x40	; 64
    323e:	14 96       	adiw	r26, 0x04	; 4
    3240:	4d 93       	st	X+, r20
    3242:	5d 93       	st	X+, r21
    3244:	6d 93       	st	X+, r22
    3246:	7c 93       	st	X, r23
    3248:	17 97       	sbiw	r26, 0x07	; 7
    324a:	08 95       	ret

0000324c <__fpcmp_parts_f>:
    324c:	1f 93       	push	r17
    324e:	dc 01       	movw	r26, r24
    3250:	fb 01       	movw	r30, r22
    3252:	9c 91       	ld	r25, X
    3254:	92 30       	cpi	r25, 0x02	; 2
    3256:	08 f4       	brcc	.+2      	; 0x325a <__fpcmp_parts_f+0xe>
    3258:	47 c0       	rjmp	.+142    	; 0x32e8 <__fpcmp_parts_f+0x9c>
    325a:	80 81       	ld	r24, Z
    325c:	82 30       	cpi	r24, 0x02	; 2
    325e:	08 f4       	brcc	.+2      	; 0x3262 <__fpcmp_parts_f+0x16>
    3260:	43 c0       	rjmp	.+134    	; 0x32e8 <__fpcmp_parts_f+0x9c>
    3262:	94 30       	cpi	r25, 0x04	; 4
    3264:	51 f4       	brne	.+20     	; 0x327a <__fpcmp_parts_f+0x2e>
    3266:	11 96       	adiw	r26, 0x01	; 1
    3268:	1c 91       	ld	r17, X
    326a:	84 30       	cpi	r24, 0x04	; 4
    326c:	99 f5       	brne	.+102    	; 0x32d4 <__fpcmp_parts_f+0x88>
    326e:	81 81       	ldd	r24, Z+1	; 0x01
    3270:	68 2f       	mov	r22, r24
    3272:	70 e0       	ldi	r23, 0x00	; 0
    3274:	61 1b       	sub	r22, r17
    3276:	71 09       	sbc	r23, r1
    3278:	3f c0       	rjmp	.+126    	; 0x32f8 <__fpcmp_parts_f+0xac>
    327a:	84 30       	cpi	r24, 0x04	; 4
    327c:	21 f0       	breq	.+8      	; 0x3286 <__fpcmp_parts_f+0x3a>
    327e:	92 30       	cpi	r25, 0x02	; 2
    3280:	31 f4       	brne	.+12     	; 0x328e <__fpcmp_parts_f+0x42>
    3282:	82 30       	cpi	r24, 0x02	; 2
    3284:	b9 f1       	breq	.+110    	; 0x32f4 <__fpcmp_parts_f+0xa8>
    3286:	81 81       	ldd	r24, Z+1	; 0x01
    3288:	88 23       	and	r24, r24
    328a:	89 f1       	breq	.+98     	; 0x32ee <__fpcmp_parts_f+0xa2>
    328c:	2d c0       	rjmp	.+90     	; 0x32e8 <__fpcmp_parts_f+0x9c>
    328e:	11 96       	adiw	r26, 0x01	; 1
    3290:	1c 91       	ld	r17, X
    3292:	11 97       	sbiw	r26, 0x01	; 1
    3294:	82 30       	cpi	r24, 0x02	; 2
    3296:	f1 f0       	breq	.+60     	; 0x32d4 <__fpcmp_parts_f+0x88>
    3298:	81 81       	ldd	r24, Z+1	; 0x01
    329a:	18 17       	cp	r17, r24
    329c:	d9 f4       	brne	.+54     	; 0x32d4 <__fpcmp_parts_f+0x88>
    329e:	12 96       	adiw	r26, 0x02	; 2
    32a0:	2d 91       	ld	r18, X+
    32a2:	3c 91       	ld	r19, X
    32a4:	13 97       	sbiw	r26, 0x03	; 3
    32a6:	82 81       	ldd	r24, Z+2	; 0x02
    32a8:	93 81       	ldd	r25, Z+3	; 0x03
    32aa:	82 17       	cp	r24, r18
    32ac:	93 07       	cpc	r25, r19
    32ae:	94 f0       	brlt	.+36     	; 0x32d4 <__fpcmp_parts_f+0x88>
    32b0:	28 17       	cp	r18, r24
    32b2:	39 07       	cpc	r19, r25
    32b4:	bc f0       	brlt	.+46     	; 0x32e4 <__fpcmp_parts_f+0x98>
    32b6:	14 96       	adiw	r26, 0x04	; 4
    32b8:	8d 91       	ld	r24, X+
    32ba:	9d 91       	ld	r25, X+
    32bc:	0d 90       	ld	r0, X+
    32be:	bc 91       	ld	r27, X
    32c0:	a0 2d       	mov	r26, r0
    32c2:	24 81       	ldd	r18, Z+4	; 0x04
    32c4:	35 81       	ldd	r19, Z+5	; 0x05
    32c6:	46 81       	ldd	r20, Z+6	; 0x06
    32c8:	57 81       	ldd	r21, Z+7	; 0x07
    32ca:	28 17       	cp	r18, r24
    32cc:	39 07       	cpc	r19, r25
    32ce:	4a 07       	cpc	r20, r26
    32d0:	5b 07       	cpc	r21, r27
    32d2:	18 f4       	brcc	.+6      	; 0x32da <__fpcmp_parts_f+0x8e>
    32d4:	11 23       	and	r17, r17
    32d6:	41 f0       	breq	.+16     	; 0x32e8 <__fpcmp_parts_f+0x9c>
    32d8:	0a c0       	rjmp	.+20     	; 0x32ee <__fpcmp_parts_f+0xa2>
    32da:	82 17       	cp	r24, r18
    32dc:	93 07       	cpc	r25, r19
    32de:	a4 07       	cpc	r26, r20
    32e0:	b5 07       	cpc	r27, r21
    32e2:	40 f4       	brcc	.+16     	; 0x32f4 <__fpcmp_parts_f+0xa8>
    32e4:	11 23       	and	r17, r17
    32e6:	19 f0       	breq	.+6      	; 0x32ee <__fpcmp_parts_f+0xa2>
    32e8:	61 e0       	ldi	r22, 0x01	; 1
    32ea:	70 e0       	ldi	r23, 0x00	; 0
    32ec:	05 c0       	rjmp	.+10     	; 0x32f8 <__fpcmp_parts_f+0xac>
    32ee:	6f ef       	ldi	r22, 0xFF	; 255
    32f0:	7f ef       	ldi	r23, 0xFF	; 255
    32f2:	02 c0       	rjmp	.+4      	; 0x32f8 <__fpcmp_parts_f+0xac>
    32f4:	60 e0       	ldi	r22, 0x00	; 0
    32f6:	70 e0       	ldi	r23, 0x00	; 0
    32f8:	cb 01       	movw	r24, r22
    32fa:	1f 91       	pop	r17
    32fc:	08 95       	ret

000032fe <__mulsi3>:
    32fe:	62 9f       	mul	r22, r18
    3300:	d0 01       	movw	r26, r0
    3302:	73 9f       	mul	r23, r19
    3304:	f0 01       	movw	r30, r0
    3306:	82 9f       	mul	r24, r18
    3308:	e0 0d       	add	r30, r0
    330a:	f1 1d       	adc	r31, r1
    330c:	64 9f       	mul	r22, r20
    330e:	e0 0d       	add	r30, r0
    3310:	f1 1d       	adc	r31, r1
    3312:	92 9f       	mul	r25, r18
    3314:	f0 0d       	add	r31, r0
    3316:	83 9f       	mul	r24, r19
    3318:	f0 0d       	add	r31, r0
    331a:	74 9f       	mul	r23, r20
    331c:	f0 0d       	add	r31, r0
    331e:	65 9f       	mul	r22, r21
    3320:	f0 0d       	add	r31, r0
    3322:	99 27       	eor	r25, r25
    3324:	72 9f       	mul	r23, r18
    3326:	b0 0d       	add	r27, r0
    3328:	e1 1d       	adc	r30, r1
    332a:	f9 1f       	adc	r31, r25
    332c:	63 9f       	mul	r22, r19
    332e:	b0 0d       	add	r27, r0
    3330:	e1 1d       	adc	r30, r1
    3332:	f9 1f       	adc	r31, r25
    3334:	bd 01       	movw	r22, r26
    3336:	cf 01       	movw	r24, r30
    3338:	11 24       	eor	r1, r1
    333a:	08 95       	ret

0000333c <__divmodhi4>:
    333c:	97 fb       	bst	r25, 7
    333e:	09 2e       	mov	r0, r25
    3340:	07 26       	eor	r0, r23
    3342:	0a d0       	rcall	.+20     	; 0x3358 <__divmodhi4_neg1>
    3344:	77 fd       	sbrc	r23, 7
    3346:	04 d0       	rcall	.+8      	; 0x3350 <__divmodhi4_neg2>
    3348:	2e d0       	rcall	.+92     	; 0x33a6 <__udivmodhi4>
    334a:	06 d0       	rcall	.+12     	; 0x3358 <__divmodhi4_neg1>
    334c:	00 20       	and	r0, r0
    334e:	1a f4       	brpl	.+6      	; 0x3356 <__divmodhi4_exit>

00003350 <__divmodhi4_neg2>:
    3350:	70 95       	com	r23
    3352:	61 95       	neg	r22
    3354:	7f 4f       	sbci	r23, 0xFF	; 255

00003356 <__divmodhi4_exit>:
    3356:	08 95       	ret

00003358 <__divmodhi4_neg1>:
    3358:	f6 f7       	brtc	.-4      	; 0x3356 <__divmodhi4_exit>
    335a:	90 95       	com	r25
    335c:	81 95       	neg	r24
    335e:	9f 4f       	sbci	r25, 0xFF	; 255
    3360:	08 95       	ret

00003362 <__udivmodsi4>:
    3362:	a1 e2       	ldi	r26, 0x21	; 33
    3364:	1a 2e       	mov	r1, r26
    3366:	aa 1b       	sub	r26, r26
    3368:	bb 1b       	sub	r27, r27
    336a:	fd 01       	movw	r30, r26
    336c:	0d c0       	rjmp	.+26     	; 0x3388 <__udivmodsi4_ep>

0000336e <__udivmodsi4_loop>:
    336e:	aa 1f       	adc	r26, r26
    3370:	bb 1f       	adc	r27, r27
    3372:	ee 1f       	adc	r30, r30
    3374:	ff 1f       	adc	r31, r31
    3376:	a2 17       	cp	r26, r18
    3378:	b3 07       	cpc	r27, r19
    337a:	e4 07       	cpc	r30, r20
    337c:	f5 07       	cpc	r31, r21
    337e:	20 f0       	brcs	.+8      	; 0x3388 <__udivmodsi4_ep>
    3380:	a2 1b       	sub	r26, r18
    3382:	b3 0b       	sbc	r27, r19
    3384:	e4 0b       	sbc	r30, r20
    3386:	f5 0b       	sbc	r31, r21

00003388 <__udivmodsi4_ep>:
    3388:	66 1f       	adc	r22, r22
    338a:	77 1f       	adc	r23, r23
    338c:	88 1f       	adc	r24, r24
    338e:	99 1f       	adc	r25, r25
    3390:	1a 94       	dec	r1
    3392:	69 f7       	brne	.-38     	; 0x336e <__udivmodsi4_loop>
    3394:	60 95       	com	r22
    3396:	70 95       	com	r23
    3398:	80 95       	com	r24
    339a:	90 95       	com	r25
    339c:	9b 01       	movw	r18, r22
    339e:	ac 01       	movw	r20, r24
    33a0:	bd 01       	movw	r22, r26
    33a2:	cf 01       	movw	r24, r30
    33a4:	08 95       	ret

000033a6 <__udivmodhi4>:
    33a6:	aa 1b       	sub	r26, r26
    33a8:	bb 1b       	sub	r27, r27
    33aa:	51 e1       	ldi	r21, 0x11	; 17
    33ac:	07 c0       	rjmp	.+14     	; 0x33bc <__udivmodhi4_ep>

000033ae <__udivmodhi4_loop>:
    33ae:	aa 1f       	adc	r26, r26
    33b0:	bb 1f       	adc	r27, r27
    33b2:	a6 17       	cp	r26, r22
    33b4:	b7 07       	cpc	r27, r23
    33b6:	10 f0       	brcs	.+4      	; 0x33bc <__udivmodhi4_ep>
    33b8:	a6 1b       	sub	r26, r22
    33ba:	b7 0b       	sbc	r27, r23

000033bc <__udivmodhi4_ep>:
    33bc:	88 1f       	adc	r24, r24
    33be:	99 1f       	adc	r25, r25
    33c0:	5a 95       	dec	r21
    33c2:	a9 f7       	brne	.-22     	; 0x33ae <__udivmodhi4_loop>
    33c4:	80 95       	com	r24
    33c6:	90 95       	com	r25
    33c8:	bc 01       	movw	r22, r24
    33ca:	cd 01       	movw	r24, r26
    33cc:	08 95       	ret

000033ce <__prologue_saves__>:
    33ce:	2f 92       	push	r2
    33d0:	3f 92       	push	r3
    33d2:	4f 92       	push	r4
    33d4:	5f 92       	push	r5
    33d6:	6f 92       	push	r6
    33d8:	7f 92       	push	r7
    33da:	8f 92       	push	r8
    33dc:	9f 92       	push	r9
    33de:	af 92       	push	r10
    33e0:	bf 92       	push	r11
    33e2:	cf 92       	push	r12
    33e4:	df 92       	push	r13
    33e6:	ef 92       	push	r14
    33e8:	ff 92       	push	r15
    33ea:	0f 93       	push	r16
    33ec:	1f 93       	push	r17
    33ee:	cf 93       	push	r28
    33f0:	df 93       	push	r29
    33f2:	cd b7       	in	r28, 0x3d	; 61
    33f4:	de b7       	in	r29, 0x3e	; 62
    33f6:	ca 1b       	sub	r28, r26
    33f8:	db 0b       	sbc	r29, r27
    33fa:	0f b6       	in	r0, 0x3f	; 63
    33fc:	f8 94       	cli
    33fe:	de bf       	out	0x3e, r29	; 62
    3400:	0f be       	out	0x3f, r0	; 63
    3402:	cd bf       	out	0x3d, r28	; 61
    3404:	09 94       	ijmp

00003406 <__epilogue_restores__>:
    3406:	2a 88       	ldd	r2, Y+18	; 0x12
    3408:	39 88       	ldd	r3, Y+17	; 0x11
    340a:	48 88       	ldd	r4, Y+16	; 0x10
    340c:	5f 84       	ldd	r5, Y+15	; 0x0f
    340e:	6e 84       	ldd	r6, Y+14	; 0x0e
    3410:	7d 84       	ldd	r7, Y+13	; 0x0d
    3412:	8c 84       	ldd	r8, Y+12	; 0x0c
    3414:	9b 84       	ldd	r9, Y+11	; 0x0b
    3416:	aa 84       	ldd	r10, Y+10	; 0x0a
    3418:	b9 84       	ldd	r11, Y+9	; 0x09
    341a:	c8 84       	ldd	r12, Y+8	; 0x08
    341c:	df 80       	ldd	r13, Y+7	; 0x07
    341e:	ee 80       	ldd	r14, Y+6	; 0x06
    3420:	fd 80       	ldd	r15, Y+5	; 0x05
    3422:	0c 81       	ldd	r16, Y+4	; 0x04
    3424:	1b 81       	ldd	r17, Y+3	; 0x03
    3426:	aa 81       	ldd	r26, Y+2	; 0x02
    3428:	b9 81       	ldd	r27, Y+1	; 0x01
    342a:	ce 0f       	add	r28, r30
    342c:	d1 1d       	adc	r29, r1
    342e:	0f b6       	in	r0, 0x3f	; 63
    3430:	f8 94       	cli
    3432:	de bf       	out	0x3e, r29	; 62
    3434:	0f be       	out	0x3f, r0	; 63
    3436:	cd bf       	out	0x3d, r28	; 61
    3438:	ed 01       	movw	r28, r26
    343a:	08 95       	ret

0000343c <__tablejump2__>:
    343c:	ee 0f       	add	r30, r30
    343e:	ff 1f       	adc	r31, r31

00003440 <__tablejump__>:
    3440:	05 90       	lpm	r0, Z+
    3442:	f4 91       	lpm	r31, Z+
    3444:	e0 2d       	mov	r30, r0
    3446:	09 94       	ijmp

00003448 <malloc>:
    3448:	cf 93       	push	r28
    344a:	df 93       	push	r29
    344c:	bc 01       	movw	r22, r24
    344e:	82 30       	cpi	r24, 0x02	; 2
    3450:	91 05       	cpc	r25, r1
    3452:	10 f4       	brcc	.+4      	; 0x3458 <malloc+0x10>
    3454:	62 e0       	ldi	r22, 0x02	; 2
    3456:	70 e0       	ldi	r23, 0x00	; 0
    3458:	a0 91 43 03 	lds	r26, 0x0343
    345c:	b0 91 44 03 	lds	r27, 0x0344
    3460:	ed 01       	movw	r28, r26
    3462:	e0 e0       	ldi	r30, 0x00	; 0
    3464:	f0 e0       	ldi	r31, 0x00	; 0
    3466:	40 e0       	ldi	r20, 0x00	; 0
    3468:	50 e0       	ldi	r21, 0x00	; 0
    346a:	21 c0       	rjmp	.+66     	; 0x34ae <malloc+0x66>
    346c:	88 81       	ld	r24, Y
    346e:	99 81       	ldd	r25, Y+1	; 0x01
    3470:	86 17       	cp	r24, r22
    3472:	97 07       	cpc	r25, r23
    3474:	69 f4       	brne	.+26     	; 0x3490 <malloc+0x48>
    3476:	8a 81       	ldd	r24, Y+2	; 0x02
    3478:	9b 81       	ldd	r25, Y+3	; 0x03
    347a:	30 97       	sbiw	r30, 0x00	; 0
    347c:	19 f0       	breq	.+6      	; 0x3484 <malloc+0x3c>
    347e:	93 83       	std	Z+3, r25	; 0x03
    3480:	82 83       	std	Z+2, r24	; 0x02
    3482:	04 c0       	rjmp	.+8      	; 0x348c <malloc+0x44>
    3484:	90 93 44 03 	sts	0x0344, r25
    3488:	80 93 43 03 	sts	0x0343, r24
    348c:	fe 01       	movw	r30, r28
    348e:	34 c0       	rjmp	.+104    	; 0x34f8 <malloc+0xb0>
    3490:	68 17       	cp	r22, r24
    3492:	79 07       	cpc	r23, r25
    3494:	38 f4       	brcc	.+14     	; 0x34a4 <malloc+0x5c>
    3496:	41 15       	cp	r20, r1
    3498:	51 05       	cpc	r21, r1
    349a:	19 f0       	breq	.+6      	; 0x34a2 <malloc+0x5a>
    349c:	84 17       	cp	r24, r20
    349e:	95 07       	cpc	r25, r21
    34a0:	08 f4       	brcc	.+2      	; 0x34a4 <malloc+0x5c>
    34a2:	ac 01       	movw	r20, r24
    34a4:	fe 01       	movw	r30, r28
    34a6:	8a 81       	ldd	r24, Y+2	; 0x02
    34a8:	9b 81       	ldd	r25, Y+3	; 0x03
    34aa:	9c 01       	movw	r18, r24
    34ac:	e9 01       	movw	r28, r18
    34ae:	20 97       	sbiw	r28, 0x00	; 0
    34b0:	e9 f6       	brne	.-70     	; 0x346c <malloc+0x24>
    34b2:	41 15       	cp	r20, r1
    34b4:	51 05       	cpc	r21, r1
    34b6:	a9 f1       	breq	.+106    	; 0x3522 <malloc+0xda>
    34b8:	ca 01       	movw	r24, r20
    34ba:	86 1b       	sub	r24, r22
    34bc:	97 0b       	sbc	r25, r23
    34be:	04 97       	sbiw	r24, 0x04	; 4
    34c0:	08 f4       	brcc	.+2      	; 0x34c4 <malloc+0x7c>
    34c2:	ba 01       	movw	r22, r20
    34c4:	e0 e0       	ldi	r30, 0x00	; 0
    34c6:	f0 e0       	ldi	r31, 0x00	; 0
    34c8:	2a c0       	rjmp	.+84     	; 0x351e <malloc+0xd6>
    34ca:	8d 91       	ld	r24, X+
    34cc:	9c 91       	ld	r25, X
    34ce:	11 97       	sbiw	r26, 0x01	; 1
    34d0:	84 17       	cp	r24, r20
    34d2:	95 07       	cpc	r25, r21
    34d4:	f9 f4       	brne	.+62     	; 0x3514 <malloc+0xcc>
    34d6:	64 17       	cp	r22, r20
    34d8:	75 07       	cpc	r23, r21
    34da:	81 f4       	brne	.+32     	; 0x34fc <malloc+0xb4>
    34dc:	12 96       	adiw	r26, 0x02	; 2
    34de:	8d 91       	ld	r24, X+
    34e0:	9c 91       	ld	r25, X
    34e2:	13 97       	sbiw	r26, 0x03	; 3
    34e4:	30 97       	sbiw	r30, 0x00	; 0
    34e6:	19 f0       	breq	.+6      	; 0x34ee <malloc+0xa6>
    34e8:	93 83       	std	Z+3, r25	; 0x03
    34ea:	82 83       	std	Z+2, r24	; 0x02
    34ec:	04 c0       	rjmp	.+8      	; 0x34f6 <malloc+0xae>
    34ee:	90 93 44 03 	sts	0x0344, r25
    34f2:	80 93 43 03 	sts	0x0343, r24
    34f6:	fd 01       	movw	r30, r26
    34f8:	32 96       	adiw	r30, 0x02	; 2
    34fa:	4f c0       	rjmp	.+158    	; 0x359a <malloc+0x152>
    34fc:	ca 01       	movw	r24, r20
    34fe:	86 1b       	sub	r24, r22
    3500:	97 0b       	sbc	r25, r23
    3502:	fd 01       	movw	r30, r26
    3504:	e8 0f       	add	r30, r24
    3506:	f9 1f       	adc	r31, r25
    3508:	61 93       	st	Z+, r22
    350a:	71 93       	st	Z+, r23
    350c:	02 97       	sbiw	r24, 0x02	; 2
    350e:	8d 93       	st	X+, r24
    3510:	9c 93       	st	X, r25
    3512:	43 c0       	rjmp	.+134    	; 0x359a <malloc+0x152>
    3514:	fd 01       	movw	r30, r26
    3516:	82 81       	ldd	r24, Z+2	; 0x02
    3518:	93 81       	ldd	r25, Z+3	; 0x03
    351a:	9c 01       	movw	r18, r24
    351c:	d9 01       	movw	r26, r18
    351e:	10 97       	sbiw	r26, 0x00	; 0
    3520:	a1 f6       	brne	.-88     	; 0x34ca <malloc+0x82>
    3522:	80 91 41 03 	lds	r24, 0x0341
    3526:	90 91 42 03 	lds	r25, 0x0342
    352a:	89 2b       	or	r24, r25
    352c:	41 f4       	brne	.+16     	; 0x353e <malloc+0xf6>
    352e:	80 91 8c 02 	lds	r24, 0x028C
    3532:	90 91 8d 02 	lds	r25, 0x028D
    3536:	90 93 42 03 	sts	0x0342, r25
    353a:	80 93 41 03 	sts	0x0341, r24
    353e:	40 91 8e 02 	lds	r20, 0x028E
    3542:	50 91 8f 02 	lds	r21, 0x028F
    3546:	41 15       	cp	r20, r1
    3548:	51 05       	cpc	r21, r1
    354a:	41 f4       	brne	.+16     	; 0x355c <malloc+0x114>
    354c:	4d b7       	in	r20, 0x3d	; 61
    354e:	5e b7       	in	r21, 0x3e	; 62
    3550:	80 91 8a 02 	lds	r24, 0x028A
    3554:	90 91 8b 02 	lds	r25, 0x028B
    3558:	48 1b       	sub	r20, r24
    355a:	59 0b       	sbc	r21, r25
    355c:	20 91 41 03 	lds	r18, 0x0341
    3560:	30 91 42 03 	lds	r19, 0x0342
    3564:	24 17       	cp	r18, r20
    3566:	35 07       	cpc	r19, r21
    3568:	b0 f4       	brcc	.+44     	; 0x3596 <malloc+0x14e>
    356a:	ca 01       	movw	r24, r20
    356c:	82 1b       	sub	r24, r18
    356e:	93 0b       	sbc	r25, r19
    3570:	86 17       	cp	r24, r22
    3572:	97 07       	cpc	r25, r23
    3574:	80 f0       	brcs	.+32     	; 0x3596 <malloc+0x14e>
    3576:	ab 01       	movw	r20, r22
    3578:	4e 5f       	subi	r20, 0xFE	; 254
    357a:	5f 4f       	sbci	r21, 0xFF	; 255
    357c:	84 17       	cp	r24, r20
    357e:	95 07       	cpc	r25, r21
    3580:	50 f0       	brcs	.+20     	; 0x3596 <malloc+0x14e>
    3582:	42 0f       	add	r20, r18
    3584:	53 1f       	adc	r21, r19
    3586:	50 93 42 03 	sts	0x0342, r21
    358a:	40 93 41 03 	sts	0x0341, r20
    358e:	f9 01       	movw	r30, r18
    3590:	61 93       	st	Z+, r22
    3592:	71 93       	st	Z+, r23
    3594:	02 c0       	rjmp	.+4      	; 0x359a <malloc+0x152>
    3596:	e0 e0       	ldi	r30, 0x00	; 0
    3598:	f0 e0       	ldi	r31, 0x00	; 0
    359a:	cf 01       	movw	r24, r30
    359c:	df 91       	pop	r29
    359e:	cf 91       	pop	r28
    35a0:	08 95       	ret

000035a2 <free>:
    35a2:	cf 93       	push	r28
    35a4:	df 93       	push	r29
    35a6:	00 97       	sbiw	r24, 0x00	; 0
    35a8:	09 f4       	brne	.+2      	; 0x35ac <free+0xa>
    35aa:	50 c0       	rjmp	.+160    	; 0x364c <free+0xaa>
    35ac:	ec 01       	movw	r28, r24
    35ae:	22 97       	sbiw	r28, 0x02	; 2
    35b0:	1b 82       	std	Y+3, r1	; 0x03
    35b2:	1a 82       	std	Y+2, r1	; 0x02
    35b4:	a0 91 43 03 	lds	r26, 0x0343
    35b8:	b0 91 44 03 	lds	r27, 0x0344
    35bc:	10 97       	sbiw	r26, 0x00	; 0
    35be:	09 f1       	breq	.+66     	; 0x3602 <free+0x60>
    35c0:	40 e0       	ldi	r20, 0x00	; 0
    35c2:	50 e0       	ldi	r21, 0x00	; 0
    35c4:	ac 17       	cp	r26, r28
    35c6:	bd 07       	cpc	r27, r29
    35c8:	08 f1       	brcs	.+66     	; 0x360c <free+0x6a>
    35ca:	bb 83       	std	Y+3, r27	; 0x03
    35cc:	aa 83       	std	Y+2, r26	; 0x02
    35ce:	fe 01       	movw	r30, r28
    35d0:	21 91       	ld	r18, Z+
    35d2:	31 91       	ld	r19, Z+
    35d4:	e2 0f       	add	r30, r18
    35d6:	f3 1f       	adc	r31, r19
    35d8:	ae 17       	cp	r26, r30
    35da:	bf 07       	cpc	r27, r31
    35dc:	79 f4       	brne	.+30     	; 0x35fc <free+0x5a>
    35de:	8d 91       	ld	r24, X+
    35e0:	9c 91       	ld	r25, X
    35e2:	11 97       	sbiw	r26, 0x01	; 1
    35e4:	28 0f       	add	r18, r24
    35e6:	39 1f       	adc	r19, r25
    35e8:	2e 5f       	subi	r18, 0xFE	; 254
    35ea:	3f 4f       	sbci	r19, 0xFF	; 255
    35ec:	39 83       	std	Y+1, r19	; 0x01
    35ee:	28 83       	st	Y, r18
    35f0:	12 96       	adiw	r26, 0x02	; 2
    35f2:	8d 91       	ld	r24, X+
    35f4:	9c 91       	ld	r25, X
    35f6:	13 97       	sbiw	r26, 0x03	; 3
    35f8:	9b 83       	std	Y+3, r25	; 0x03
    35fa:	8a 83       	std	Y+2, r24	; 0x02
    35fc:	41 15       	cp	r20, r1
    35fe:	51 05       	cpc	r21, r1
    3600:	71 f4       	brne	.+28     	; 0x361e <free+0x7c>
    3602:	d0 93 44 03 	sts	0x0344, r29
    3606:	c0 93 43 03 	sts	0x0343, r28
    360a:	20 c0       	rjmp	.+64     	; 0x364c <free+0xaa>
    360c:	12 96       	adiw	r26, 0x02	; 2
    360e:	8d 91       	ld	r24, X+
    3610:	9c 91       	ld	r25, X
    3612:	13 97       	sbiw	r26, 0x03	; 3
    3614:	ad 01       	movw	r20, r26
    3616:	00 97       	sbiw	r24, 0x00	; 0
    3618:	11 f0       	breq	.+4      	; 0x361e <free+0x7c>
    361a:	dc 01       	movw	r26, r24
    361c:	d3 cf       	rjmp	.-90     	; 0x35c4 <free+0x22>
    361e:	fa 01       	movw	r30, r20
    3620:	d3 83       	std	Z+3, r29	; 0x03
    3622:	c2 83       	std	Z+2, r28	; 0x02
    3624:	21 91       	ld	r18, Z+
    3626:	31 91       	ld	r19, Z+
    3628:	e2 0f       	add	r30, r18
    362a:	f3 1f       	adc	r31, r19
    362c:	ce 17       	cp	r28, r30
    362e:	df 07       	cpc	r29, r31
    3630:	69 f4       	brne	.+26     	; 0x364c <free+0xaa>
    3632:	88 81       	ld	r24, Y
    3634:	99 81       	ldd	r25, Y+1	; 0x01
    3636:	28 0f       	add	r18, r24
    3638:	39 1f       	adc	r19, r25
    363a:	2e 5f       	subi	r18, 0xFE	; 254
    363c:	3f 4f       	sbci	r19, 0xFF	; 255
    363e:	fa 01       	movw	r30, r20
    3640:	31 83       	std	Z+1, r19	; 0x01
    3642:	20 83       	st	Z, r18
    3644:	8a 81       	ldd	r24, Y+2	; 0x02
    3646:	9b 81       	ldd	r25, Y+3	; 0x03
    3648:	93 83       	std	Z+3, r25	; 0x03
    364a:	82 83       	std	Z+2, r24	; 0x02
    364c:	df 91       	pop	r29
    364e:	cf 91       	pop	r28
    3650:	08 95       	ret

00003652 <realloc>:
    3652:	a0 e0       	ldi	r26, 0x00	; 0
    3654:	b0 e0       	ldi	r27, 0x00	; 0
    3656:	ef e2       	ldi	r30, 0x2F	; 47
    3658:	fb e1       	ldi	r31, 0x1B	; 27
    365a:	0c 94 ed 19 	jmp	0x33da	; 0x33da <__prologue_saves__+0xc>
    365e:	8c 01       	movw	r16, r24
    3660:	00 97       	sbiw	r24, 0x00	; 0
    3662:	29 f4       	brne	.+10     	; 0x366e <realloc+0x1c>
    3664:	cb 01       	movw	r24, r22
    3666:	0e 94 24 1a 	call	0x3448	; 0x3448 <malloc>
    366a:	8c 01       	movw	r16, r24
    366c:	ba c0       	rjmp	.+372    	; 0x37e2 <realloc+0x190>
    366e:	9e ef       	ldi	r25, 0xFE	; 254
    3670:	e9 2e       	mov	r14, r25
    3672:	9f ef       	ldi	r25, 0xFF	; 255
    3674:	f9 2e       	mov	r15, r25
    3676:	e0 0e       	add	r14, r16
    3678:	f1 1e       	adc	r15, r17
    367a:	58 01       	movw	r10, r16
    367c:	a6 0e       	add	r10, r22
    367e:	b7 1e       	adc	r11, r23
    3680:	ae 14       	cp	r10, r14
    3682:	bf 04       	cpc	r11, r15
    3684:	08 f4       	brcc	.+2      	; 0x3688 <realloc+0x36>
    3686:	ab c0       	rjmp	.+342    	; 0x37de <realloc+0x18c>
    3688:	8e ef       	ldi	r24, 0xFE	; 254
    368a:	88 2e       	mov	r8, r24
    368c:	8f ef       	ldi	r24, 0xFF	; 255
    368e:	98 2e       	mov	r9, r24
    3690:	8a 0c       	add	r8, r10
    3692:	9b 1c       	adc	r9, r11
    3694:	e7 01       	movw	r28, r14
    3696:	48 81       	ld	r20, Y
    3698:	59 81       	ldd	r21, Y+1	; 0x01
    369a:	46 17       	cp	r20, r22
    369c:	57 07       	cpc	r21, r23
    369e:	b8 f0       	brcs	.+46     	; 0x36ce <realloc+0x7c>
    36a0:	45 30       	cpi	r20, 0x05	; 5
    36a2:	51 05       	cpc	r21, r1
    36a4:	08 f4       	brcc	.+2      	; 0x36a8 <realloc+0x56>
    36a6:	9d c0       	rjmp	.+314    	; 0x37e2 <realloc+0x190>
    36a8:	ca 01       	movw	r24, r20
    36aa:	04 97       	sbiw	r24, 0x04	; 4
    36ac:	86 17       	cp	r24, r22
    36ae:	97 07       	cpc	r25, r23
    36b0:	08 f4       	brcc	.+2      	; 0x36b4 <realloc+0x62>
    36b2:	97 c0       	rjmp	.+302    	; 0x37e2 <realloc+0x190>
    36b4:	42 50       	subi	r20, 0x02	; 2
    36b6:	50 40       	sbci	r21, 0x00	; 0
    36b8:	46 1b       	sub	r20, r22
    36ba:	57 0b       	sbc	r21, r23
    36bc:	f4 01       	movw	r30, r8
    36be:	51 83       	std	Z+1, r21	; 0x01
    36c0:	40 83       	st	Z, r20
    36c2:	79 83       	std	Y+1, r23	; 0x01
    36c4:	68 83       	st	Y, r22
    36c6:	c5 01       	movw	r24, r10
    36c8:	0e 94 d1 1a 	call	0x35a2	; 0x35a2 <free>
    36cc:	8a c0       	rjmp	.+276    	; 0x37e2 <realloc+0x190>
    36ce:	6b 01       	movw	r12, r22
    36d0:	c4 1a       	sub	r12, r20
    36d2:	d5 0a       	sbc	r13, r21
    36d4:	e0 91 43 03 	lds	r30, 0x0343
    36d8:	f0 91 44 03 	lds	r31, 0x0344
    36dc:	a0 e0       	ldi	r26, 0x00	; 0
    36de:	b0 e0       	ldi	r27, 0x00	; 0
    36e0:	c0 e0       	ldi	r28, 0x00	; 0
    36e2:	d0 e0       	ldi	r29, 0x00	; 0
    36e4:	42 c0       	rjmp	.+132    	; 0x376a <realloc+0x118>
    36e6:	e8 15       	cp	r30, r8
    36e8:	f9 05       	cpc	r31, r9
    36ea:	a1 f5       	brne	.+104    	; 0x3754 <realloc+0x102>
    36ec:	20 81       	ld	r18, Z
    36ee:	31 81       	ldd	r19, Z+1	; 0x01
    36f0:	2c 15       	cp	r18, r12
    36f2:	3d 05       	cpc	r19, r13
    36f4:	78 f1       	brcs	.+94     	; 0x3754 <realloc+0x102>
    36f6:	c9 01       	movw	r24, r18
    36f8:	02 96       	adiw	r24, 0x02	; 2
    36fa:	8c 15       	cp	r24, r12
    36fc:	9d 05       	cpc	r25, r13
    36fe:	a8 f0       	brcs	.+42     	; 0x372a <realloc+0xd8>
    3700:	4e 5f       	subi	r20, 0xFE	; 254
    3702:	5f 4f       	sbci	r21, 0xFF	; 255
    3704:	42 0f       	add	r20, r18
    3706:	53 1f       	adc	r21, r19
    3708:	e7 01       	movw	r28, r14
    370a:	59 83       	std	Y+1, r21	; 0x01
    370c:	48 83       	st	Y, r20
    370e:	22 81       	ldd	r18, Z+2	; 0x02
    3710:	33 81       	ldd	r19, Z+3	; 0x03
    3712:	10 97       	sbiw	r26, 0x00	; 0
    3714:	29 f0       	breq	.+10     	; 0x3720 <realloc+0xce>
    3716:	13 96       	adiw	r26, 0x03	; 3
    3718:	3c 93       	st	X, r19
    371a:	2e 93       	st	-X, r18
    371c:	12 97       	sbiw	r26, 0x02	; 2
    371e:	61 c0       	rjmp	.+194    	; 0x37e2 <realloc+0x190>
    3720:	30 93 44 03 	sts	0x0344, r19
    3724:	20 93 43 03 	sts	0x0343, r18
    3728:	5c c0       	rjmp	.+184    	; 0x37e2 <realloc+0x190>
    372a:	22 50       	subi	r18, 0x02	; 2
    372c:	30 40       	sbci	r19, 0x00	; 0
    372e:	2c 19       	sub	r18, r12
    3730:	3d 09       	sbc	r19, r13
    3732:	31 83       	std	Z+1, r19	; 0x01
    3734:	20 83       	st	Z, r18
    3736:	10 97       	sbiw	r26, 0x00	; 0
    3738:	29 f0       	breq	.+10     	; 0x3744 <realloc+0xf2>
    373a:	13 96       	adiw	r26, 0x03	; 3
    373c:	fc 93       	st	X, r31
    373e:	ee 93       	st	-X, r30
    3740:	12 97       	sbiw	r26, 0x02	; 2
    3742:	04 c0       	rjmp	.+8      	; 0x374c <realloc+0xfa>
    3744:	f0 93 44 03 	sts	0x0344, r31
    3748:	e0 93 43 03 	sts	0x0343, r30
    374c:	f7 01       	movw	r30, r14
    374e:	71 83       	std	Z+1, r23	; 0x01
    3750:	60 83       	st	Z, r22
    3752:	47 c0       	rjmp	.+142    	; 0x37e2 <realloc+0x190>
    3754:	80 81       	ld	r24, Z
    3756:	91 81       	ldd	r25, Z+1	; 0x01
    3758:	c8 17       	cp	r28, r24
    375a:	d9 07       	cpc	r29, r25
    375c:	08 f4       	brcc	.+2      	; 0x3760 <realloc+0x10e>
    375e:	ec 01       	movw	r28, r24
    3760:	df 01       	movw	r26, r30
    3762:	82 81       	ldd	r24, Z+2	; 0x02
    3764:	93 81       	ldd	r25, Z+3	; 0x03
    3766:	9c 01       	movw	r18, r24
    3768:	f9 01       	movw	r30, r18
    376a:	30 97       	sbiw	r30, 0x00	; 0
    376c:	09 f0       	breq	.+2      	; 0x3770 <realloc+0x11e>
    376e:	bb cf       	rjmp	.-138    	; 0x36e6 <realloc+0x94>
    3770:	40 0f       	add	r20, r16
    3772:	51 1f       	adc	r21, r17
    3774:	80 91 41 03 	lds	r24, 0x0341
    3778:	90 91 42 03 	lds	r25, 0x0342
    377c:	84 17       	cp	r24, r20
    377e:	95 07       	cpc	r25, r21
    3780:	e9 f4       	brne	.+58     	; 0x37bc <realloc+0x16a>
    3782:	c6 17       	cp	r28, r22
    3784:	d7 07       	cpc	r29, r23
    3786:	d0 f4       	brcc	.+52     	; 0x37bc <realloc+0x16a>
    3788:	20 91 8e 02 	lds	r18, 0x028E
    378c:	30 91 8f 02 	lds	r19, 0x028F
    3790:	21 15       	cp	r18, r1
    3792:	31 05       	cpc	r19, r1
    3794:	41 f4       	brne	.+16     	; 0x37a6 <realloc+0x154>
    3796:	2d b7       	in	r18, 0x3d	; 61
    3798:	3e b7       	in	r19, 0x3e	; 62
    379a:	80 91 8a 02 	lds	r24, 0x028A
    379e:	90 91 8b 02 	lds	r25, 0x028B
    37a2:	28 1b       	sub	r18, r24
    37a4:	39 0b       	sbc	r19, r25
    37a6:	a2 16       	cp	r10, r18
    37a8:	b3 06       	cpc	r11, r19
    37aa:	c8 f4       	brcc	.+50     	; 0x37de <realloc+0x18c>
    37ac:	b0 92 42 03 	sts	0x0342, r11
    37b0:	a0 92 41 03 	sts	0x0341, r10
    37b4:	e7 01       	movw	r28, r14
    37b6:	79 83       	std	Y+1, r23	; 0x01
    37b8:	68 83       	st	Y, r22
    37ba:	13 c0       	rjmp	.+38     	; 0x37e2 <realloc+0x190>
    37bc:	cb 01       	movw	r24, r22
    37be:	0e 94 24 1a 	call	0x3448	; 0x3448 <malloc>
    37c2:	ec 01       	movw	r28, r24
    37c4:	00 97       	sbiw	r24, 0x00	; 0
    37c6:	59 f0       	breq	.+22     	; 0x37de <realloc+0x18c>
    37c8:	f7 01       	movw	r30, r14
    37ca:	40 81       	ld	r20, Z
    37cc:	51 81       	ldd	r21, Z+1	; 0x01
    37ce:	b8 01       	movw	r22, r16
    37d0:	0e 94 36 1c 	call	0x386c	; 0x386c <memcpy>
    37d4:	c8 01       	movw	r24, r16
    37d6:	0e 94 d1 1a 	call	0x35a2	; 0x35a2 <free>
    37da:	8e 01       	movw	r16, r28
    37dc:	02 c0       	rjmp	.+4      	; 0x37e2 <realloc+0x190>
    37de:	00 e0       	ldi	r16, 0x00	; 0
    37e0:	10 e0       	ldi	r17, 0x00	; 0
    37e2:	c8 01       	movw	r24, r16
    37e4:	cd b7       	in	r28, 0x3d	; 61
    37e6:	de b7       	in	r29, 0x3e	; 62
    37e8:	ec e0       	ldi	r30, 0x0C	; 12
    37ea:	0c 94 09 1a 	jmp	0x3412	; 0x3412 <__epilogue_restores__+0xc>

000037ee <atol>:
    37ee:	1f 93       	push	r17
    37f0:	fc 01       	movw	r30, r24
    37f2:	99 27       	eor	r25, r25
    37f4:	88 27       	eor	r24, r24
    37f6:	bc 01       	movw	r22, r24
    37f8:	e8 94       	clt
    37fa:	11 91       	ld	r17, Z+
    37fc:	10 32       	cpi	r17, 0x20	; 32
    37fe:	e9 f3       	breq	.-6      	; 0x37fa <atol+0xc>
    3800:	19 30       	cpi	r17, 0x09	; 9
    3802:	10 f0       	brcs	.+4      	; 0x3808 <atol+0x1a>
    3804:	1e 30       	cpi	r17, 0x0E	; 14
    3806:	c8 f3       	brcs	.-14     	; 0x37fa <atol+0xc>
    3808:	1b 32       	cpi	r17, 0x2B	; 43
    380a:	51 f0       	breq	.+20     	; 0x3820 <atol+0x32>
    380c:	1d 32       	cpi	r17, 0x2D	; 45
    380e:	49 f4       	brne	.+18     	; 0x3822 <atol+0x34>
    3810:	68 94       	set
    3812:	06 c0       	rjmp	.+12     	; 0x3820 <atol+0x32>
    3814:	0e 94 03 1d 	call	0x3a06	; 0x3a06 <__mulsi_const_10>
    3818:	61 0f       	add	r22, r17
    381a:	71 1d       	adc	r23, r1
    381c:	81 1d       	adc	r24, r1
    381e:	91 1d       	adc	r25, r1
    3820:	11 91       	ld	r17, Z+
    3822:	10 53       	subi	r17, 0x30	; 48
    3824:	1a 30       	cpi	r17, 0x0A	; 10
    3826:	b0 f3       	brcs	.-20     	; 0x3814 <atol+0x26>
    3828:	3e f4       	brtc	.+14     	; 0x3838 <atol+0x4a>
    382a:	90 95       	com	r25
    382c:	80 95       	com	r24
    382e:	70 95       	com	r23
    3830:	61 95       	neg	r22
    3832:	7f 4f       	sbci	r23, 0xFF	; 255
    3834:	8f 4f       	sbci	r24, 0xFF	; 255
    3836:	9f 4f       	sbci	r25, 0xFF	; 255
    3838:	1f 91       	pop	r17
    383a:	08 95       	ret

0000383c <isspace>:
    383c:	91 11       	cpse	r25, r1
    383e:	33 c1       	rjmp	.+614    	; 0x3aa6 <__ctype_isfalse>
    3840:	80 32       	cpi	r24, 0x20	; 32
    3842:	19 f0       	breq	.+6      	; 0x384a <isspace+0xe>
    3844:	89 50       	subi	r24, 0x09	; 9
    3846:	85 50       	subi	r24, 0x05	; 5
    3848:	d0 f7       	brcc	.-12     	; 0x383e <isspace+0x2>
    384a:	08 95       	ret

0000384c <tolower>:
    384c:	91 11       	cpse	r25, r1
    384e:	08 95       	ret
    3850:	81 54       	subi	r24, 0x41	; 65
    3852:	8a 51       	subi	r24, 0x1A	; 26
    3854:	08 f4       	brcc	.+2      	; 0x3858 <tolower+0xc>
    3856:	80 5e       	subi	r24, 0xE0	; 224
    3858:	85 5a       	subi	r24, 0xA5	; 165
    385a:	08 95       	ret

0000385c <toupper>:
    385c:	91 11       	cpse	r25, r1
    385e:	08 95       	ret
    3860:	81 56       	subi	r24, 0x61	; 97
    3862:	8a 51       	subi	r24, 0x1A	; 26
    3864:	08 f4       	brcc	.+2      	; 0x3868 <toupper+0xc>
    3866:	80 52       	subi	r24, 0x20	; 32
    3868:	85 58       	subi	r24, 0x85	; 133
    386a:	08 95       	ret

0000386c <memcpy>:
    386c:	fb 01       	movw	r30, r22
    386e:	dc 01       	movw	r26, r24
    3870:	02 c0       	rjmp	.+4      	; 0x3876 <memcpy+0xa>
    3872:	01 90       	ld	r0, Z+
    3874:	0d 92       	st	X+, r0
    3876:	41 50       	subi	r20, 0x01	; 1
    3878:	50 40       	sbci	r21, 0x00	; 0
    387a:	d8 f7       	brcc	.-10     	; 0x3872 <memcpy+0x6>
    387c:	08 95       	ret

0000387e <memmove>:
    387e:	68 17       	cp	r22, r24
    3880:	79 07       	cpc	r23, r25
    3882:	68 f4       	brcc	.+26     	; 0x389e <memmove+0x20>
    3884:	fb 01       	movw	r30, r22
    3886:	dc 01       	movw	r26, r24
    3888:	e4 0f       	add	r30, r20
    388a:	f5 1f       	adc	r31, r21
    388c:	a4 0f       	add	r26, r20
    388e:	b5 1f       	adc	r27, r21
    3890:	02 c0       	rjmp	.+4      	; 0x3896 <memmove+0x18>
    3892:	02 90       	ld	r0, -Z
    3894:	0e 92       	st	-X, r0
    3896:	41 50       	subi	r20, 0x01	; 1
    3898:	50 40       	sbci	r21, 0x00	; 0
    389a:	d8 f7       	brcc	.-10     	; 0x3892 <memmove+0x14>
    389c:	08 95       	ret
    389e:	0c 94 36 1c 	jmp	0x386c	; 0x386c <memcpy>

000038a2 <strchr>:
    38a2:	fc 01       	movw	r30, r24
    38a4:	81 91       	ld	r24, Z+
    38a6:	86 17       	cp	r24, r22
    38a8:	21 f0       	breq	.+8      	; 0x38b2 <strchr+0x10>
    38aa:	88 23       	and	r24, r24
    38ac:	d9 f7       	brne	.-10     	; 0x38a4 <strchr+0x2>
    38ae:	99 27       	eor	r25, r25
    38b0:	08 95       	ret
    38b2:	31 97       	sbiw	r30, 0x01	; 1
    38b4:	cf 01       	movw	r24, r30
    38b6:	08 95       	ret

000038b8 <strcmp>:
    38b8:	fb 01       	movw	r30, r22
    38ba:	dc 01       	movw	r26, r24
    38bc:	8d 91       	ld	r24, X+
    38be:	01 90       	ld	r0, Z+
    38c0:	80 19       	sub	r24, r0
    38c2:	01 10       	cpse	r0, r1
    38c4:	d9 f3       	breq	.-10     	; 0x38bc <strcmp+0x4>
    38c6:	99 0b       	sbc	r25, r25
    38c8:	08 95       	ret

000038ca <strcpy>:
    38ca:	fb 01       	movw	r30, r22
    38cc:	dc 01       	movw	r26, r24
    38ce:	01 90       	ld	r0, Z+
    38d0:	0d 92       	st	X+, r0
    38d2:	00 20       	and	r0, r0
    38d4:	e1 f7       	brne	.-8      	; 0x38ce <strcpy+0x4>
    38d6:	08 95       	ret

000038d8 <strncmp>:
    38d8:	fb 01       	movw	r30, r22
    38da:	dc 01       	movw	r26, r24
    38dc:	41 50       	subi	r20, 0x01	; 1
    38de:	50 40       	sbci	r21, 0x00	; 0
    38e0:	30 f0       	brcs	.+12     	; 0x38ee <strncmp+0x16>
    38e2:	8d 91       	ld	r24, X+
    38e4:	01 90       	ld	r0, Z+
    38e6:	80 19       	sub	r24, r0
    38e8:	19 f4       	brne	.+6      	; 0x38f0 <strncmp+0x18>
    38ea:	00 20       	and	r0, r0
    38ec:	b9 f7       	brne	.-18     	; 0x38dc <strncmp+0x4>
    38ee:	88 1b       	sub	r24, r24
    38f0:	99 0b       	sbc	r25, r25
    38f2:	08 95       	ret

000038f4 <strncpy>:
    38f4:	fb 01       	movw	r30, r22
    38f6:	dc 01       	movw	r26, r24
    38f8:	41 50       	subi	r20, 0x01	; 1
    38fa:	50 40       	sbci	r21, 0x00	; 0
    38fc:	48 f0       	brcs	.+18     	; 0x3910 <strncpy+0x1c>
    38fe:	01 90       	ld	r0, Z+
    3900:	0d 92       	st	X+, r0
    3902:	00 20       	and	r0, r0
    3904:	c9 f7       	brne	.-14     	; 0x38f8 <strncpy+0x4>
    3906:	01 c0       	rjmp	.+2      	; 0x390a <strncpy+0x16>
    3908:	1d 92       	st	X+, r1
    390a:	41 50       	subi	r20, 0x01	; 1
    390c:	50 40       	sbci	r21, 0x00	; 0
    390e:	e0 f7       	brcc	.-8      	; 0x3908 <strncpy+0x14>
    3910:	08 95       	ret

00003912 <strrchr>:
    3912:	fc 01       	movw	r30, r24
    3914:	81 e0       	ldi	r24, 0x01	; 1
    3916:	90 e0       	ldi	r25, 0x00	; 0
    3918:	01 90       	ld	r0, Z+
    391a:	06 16       	cp	r0, r22
    391c:	09 f4       	brne	.+2      	; 0x3920 <strrchr+0xe>
    391e:	cf 01       	movw	r24, r30
    3920:	00 20       	and	r0, r0
    3922:	d1 f7       	brne	.-12     	; 0x3918 <strrchr+0x6>
    3924:	01 97       	sbiw	r24, 0x01	; 1
    3926:	08 95       	ret

00003928 <strstr>:
    3928:	fb 01       	movw	r30, r22
    392a:	51 91       	ld	r21, Z+
    392c:	55 23       	and	r21, r21
    392e:	a9 f0       	breq	.+42     	; 0x395a <strstr+0x32>
    3930:	bf 01       	movw	r22, r30
    3932:	dc 01       	movw	r26, r24
    3934:	4d 91       	ld	r20, X+
    3936:	45 17       	cp	r20, r21
    3938:	41 11       	cpse	r20, r1
    393a:	e1 f7       	brne	.-8      	; 0x3934 <strstr+0xc>
    393c:	59 f4       	brne	.+22     	; 0x3954 <strstr+0x2c>
    393e:	cd 01       	movw	r24, r26
    3940:	01 90       	ld	r0, Z+
    3942:	00 20       	and	r0, r0
    3944:	49 f0       	breq	.+18     	; 0x3958 <strstr+0x30>
    3946:	4d 91       	ld	r20, X+
    3948:	40 15       	cp	r20, r0
    394a:	41 11       	cpse	r20, r1
    394c:	c9 f3       	breq	.-14     	; 0x3940 <strstr+0x18>
    394e:	fb 01       	movw	r30, r22
    3950:	41 11       	cpse	r20, r1
    3952:	ef cf       	rjmp	.-34     	; 0x3932 <strstr+0xa>
    3954:	81 e0       	ldi	r24, 0x01	; 1
    3956:	90 e0       	ldi	r25, 0x00	; 0
    3958:	01 97       	sbiw	r24, 0x01	; 1
    395a:	08 95       	ret

0000395c <itoa>:
    395c:	fb 01       	movw	r30, r22
    395e:	9f 01       	movw	r18, r30
    3960:	e8 94       	clt
    3962:	42 30       	cpi	r20, 0x02	; 2
    3964:	c4 f0       	brlt	.+48     	; 0x3996 <itoa+0x3a>
    3966:	45 32       	cpi	r20, 0x25	; 37
    3968:	b4 f4       	brge	.+44     	; 0x3996 <itoa+0x3a>
    396a:	4a 30       	cpi	r20, 0x0A	; 10
    396c:	29 f4       	brne	.+10     	; 0x3978 <itoa+0x1c>
    396e:	97 fb       	bst	r25, 7
    3970:	1e f4       	brtc	.+6      	; 0x3978 <itoa+0x1c>
    3972:	90 95       	com	r25
    3974:	81 95       	neg	r24
    3976:	9f 4f       	sbci	r25, 0xFF	; 255
    3978:	64 2f       	mov	r22, r20
    397a:	77 27       	eor	r23, r23
    397c:	0e 94 d3 19 	call	0x33a6	; 0x33a6 <__udivmodhi4>
    3980:	80 5d       	subi	r24, 0xD0	; 208
    3982:	8a 33       	cpi	r24, 0x3A	; 58
    3984:	0c f0       	brlt	.+2      	; 0x3988 <itoa+0x2c>
    3986:	89 5d       	subi	r24, 0xD9	; 217
    3988:	81 93       	st	Z+, r24
    398a:	cb 01       	movw	r24, r22
    398c:	00 97       	sbiw	r24, 0x00	; 0
    398e:	a1 f7       	brne	.-24     	; 0x3978 <itoa+0x1c>
    3990:	16 f4       	brtc	.+4      	; 0x3996 <itoa+0x3a>
    3992:	5d e2       	ldi	r21, 0x2D	; 45
    3994:	51 93       	st	Z+, r21
    3996:	10 82       	st	Z, r1
    3998:	c9 01       	movw	r24, r18
    399a:	0c 94 56 1d 	jmp	0x3aac	; 0x3aac <strrev>

0000399e <ltoa>:
    399e:	fa 01       	movw	r30, r20
    39a0:	cf 93       	push	r28
    39a2:	ff 93       	push	r31
    39a4:	ef 93       	push	r30
    39a6:	22 30       	cpi	r18, 0x02	; 2
    39a8:	44 f1       	brlt	.+80     	; 0x39fa <ltoa+0x5c>
    39aa:	25 32       	cpi	r18, 0x25	; 37
    39ac:	34 f5       	brge	.+76     	; 0x39fa <ltoa+0x5c>
    39ae:	c2 2f       	mov	r28, r18
    39b0:	e8 94       	clt
    39b2:	ca 30       	cpi	r28, 0x0A	; 10
    39b4:	49 f4       	brne	.+18     	; 0x39c8 <ltoa+0x2a>
    39b6:	97 fb       	bst	r25, 7
    39b8:	3e f4       	brtc	.+14     	; 0x39c8 <ltoa+0x2a>
    39ba:	90 95       	com	r25
    39bc:	80 95       	com	r24
    39be:	70 95       	com	r23
    39c0:	61 95       	neg	r22
    39c2:	7f 4f       	sbci	r23, 0xFF	; 255
    39c4:	8f 4f       	sbci	r24, 0xFF	; 255
    39c6:	9f 4f       	sbci	r25, 0xFF	; 255
    39c8:	2c 2f       	mov	r18, r28
    39ca:	33 27       	eor	r19, r19
    39cc:	44 27       	eor	r20, r20
    39ce:	55 27       	eor	r21, r21
    39d0:	ff 93       	push	r31
    39d2:	ef 93       	push	r30
    39d4:	0e 94 b1 19 	call	0x3362	; 0x3362 <__udivmodsi4>
    39d8:	ef 91       	pop	r30
    39da:	ff 91       	pop	r31
    39dc:	60 5d       	subi	r22, 0xD0	; 208
    39de:	6a 33       	cpi	r22, 0x3A	; 58
    39e0:	0c f0       	brlt	.+2      	; 0x39e4 <ltoa+0x46>
    39e2:	69 5d       	subi	r22, 0xD9	; 217
    39e4:	61 93       	st	Z+, r22
    39e6:	b9 01       	movw	r22, r18
    39e8:	ca 01       	movw	r24, r20
    39ea:	60 50       	subi	r22, 0x00	; 0
    39ec:	70 40       	sbci	r23, 0x00	; 0
    39ee:	80 40       	sbci	r24, 0x00	; 0
    39f0:	90 40       	sbci	r25, 0x00	; 0
    39f2:	51 f7       	brne	.-44     	; 0x39c8 <ltoa+0x2a>
    39f4:	16 f4       	brtc	.+4      	; 0x39fa <ltoa+0x5c>
    39f6:	cd e2       	ldi	r28, 0x2D	; 45
    39f8:	c1 93       	st	Z+, r28
    39fa:	10 82       	st	Z, r1
    39fc:	8f 91       	pop	r24
    39fe:	9f 91       	pop	r25
    3a00:	cf 91       	pop	r28
    3a02:	0c 94 56 1d 	jmp	0x3aac	; 0x3aac <strrev>

00003a06 <__mulsi_const_10>:
    3a06:	59 2f       	mov	r21, r25
    3a08:	48 2f       	mov	r20, r24
    3a0a:	37 2f       	mov	r19, r23
    3a0c:	26 2f       	mov	r18, r22
    3a0e:	66 0f       	add	r22, r22
    3a10:	77 1f       	adc	r23, r23
    3a12:	88 1f       	adc	r24, r24
    3a14:	99 1f       	adc	r25, r25
    3a16:	66 0f       	add	r22, r22
    3a18:	77 1f       	adc	r23, r23
    3a1a:	88 1f       	adc	r24, r24
    3a1c:	99 1f       	adc	r25, r25
    3a1e:	62 0f       	add	r22, r18
    3a20:	73 1f       	adc	r23, r19
    3a22:	84 1f       	adc	r24, r20
    3a24:	95 1f       	adc	r25, r21
    3a26:	66 0f       	add	r22, r22
    3a28:	77 1f       	adc	r23, r23
    3a2a:	88 1f       	adc	r24, r24
    3a2c:	99 1f       	adc	r25, r25
    3a2e:	08 95       	ret

00003a30 <ultoa>:
    3a30:	fa 01       	movw	r30, r20
    3a32:	cf 93       	push	r28
    3a34:	ff 93       	push	r31
    3a36:	ef 93       	push	r30
    3a38:	22 30       	cpi	r18, 0x02	; 2
    3a3a:	cc f0       	brlt	.+50     	; 0x3a6e <ultoa+0x3e>
    3a3c:	25 32       	cpi	r18, 0x25	; 37
    3a3e:	bc f4       	brge	.+46     	; 0x3a6e <ultoa+0x3e>
    3a40:	c2 2f       	mov	r28, r18
    3a42:	2c 2f       	mov	r18, r28
    3a44:	33 27       	eor	r19, r19
    3a46:	44 27       	eor	r20, r20
    3a48:	55 27       	eor	r21, r21
    3a4a:	ff 93       	push	r31
    3a4c:	ef 93       	push	r30
    3a4e:	0e 94 b1 19 	call	0x3362	; 0x3362 <__udivmodsi4>
    3a52:	ef 91       	pop	r30
    3a54:	ff 91       	pop	r31
    3a56:	60 5d       	subi	r22, 0xD0	; 208
    3a58:	6a 33       	cpi	r22, 0x3A	; 58
    3a5a:	0c f0       	brlt	.+2      	; 0x3a5e <ultoa+0x2e>
    3a5c:	69 5d       	subi	r22, 0xD9	; 217
    3a5e:	61 93       	st	Z+, r22
    3a60:	b9 01       	movw	r22, r18
    3a62:	ca 01       	movw	r24, r20
    3a64:	60 50       	subi	r22, 0x00	; 0
    3a66:	70 40       	sbci	r23, 0x00	; 0
    3a68:	80 40       	sbci	r24, 0x00	; 0
    3a6a:	90 40       	sbci	r25, 0x00	; 0
    3a6c:	51 f7       	brne	.-44     	; 0x3a42 <ultoa+0x12>
    3a6e:	10 82       	st	Z, r1
    3a70:	8f 91       	pop	r24
    3a72:	9f 91       	pop	r25
    3a74:	cf 91       	pop	r28
    3a76:	0c 94 56 1d 	jmp	0x3aac	; 0x3aac <strrev>

00003a7a <utoa>:
    3a7a:	fb 01       	movw	r30, r22
    3a7c:	9f 01       	movw	r18, r30
    3a7e:	42 30       	cpi	r20, 0x02	; 2
    3a80:	74 f0       	brlt	.+28     	; 0x3a9e <utoa+0x24>
    3a82:	45 32       	cpi	r20, 0x25	; 37
    3a84:	64 f4       	brge	.+24     	; 0x3a9e <utoa+0x24>
    3a86:	64 2f       	mov	r22, r20
    3a88:	77 27       	eor	r23, r23
    3a8a:	0e 94 d3 19 	call	0x33a6	; 0x33a6 <__udivmodhi4>
    3a8e:	80 5d       	subi	r24, 0xD0	; 208
    3a90:	8a 33       	cpi	r24, 0x3A	; 58
    3a92:	0c f0       	brlt	.+2      	; 0x3a96 <utoa+0x1c>
    3a94:	89 5d       	subi	r24, 0xD9	; 217
    3a96:	81 93       	st	Z+, r24
    3a98:	cb 01       	movw	r24, r22
    3a9a:	00 97       	sbiw	r24, 0x00	; 0
    3a9c:	a1 f7       	brne	.-24     	; 0x3a86 <utoa+0xc>
    3a9e:	10 82       	st	Z, r1
    3aa0:	c9 01       	movw	r24, r18
    3aa2:	0c 94 56 1d 	jmp	0x3aac	; 0x3aac <strrev>

00003aa6 <__ctype_isfalse>:
    3aa6:	99 27       	eor	r25, r25
    3aa8:	88 27       	eor	r24, r24

00003aaa <__ctype_istrue>:
    3aaa:	08 95       	ret

00003aac <strrev>:
    3aac:	dc 01       	movw	r26, r24
    3aae:	fc 01       	movw	r30, r24
    3ab0:	67 2f       	mov	r22, r23
    3ab2:	71 91       	ld	r23, Z+
    3ab4:	77 23       	and	r23, r23
    3ab6:	e1 f7       	brne	.-8      	; 0x3ab0 <strrev+0x4>
    3ab8:	32 97       	sbiw	r30, 0x02	; 2
    3aba:	04 c0       	rjmp	.+8      	; 0x3ac4 <strrev+0x18>
    3abc:	7c 91       	ld	r23, X
    3abe:	6d 93       	st	X+, r22
    3ac0:	70 83       	st	Z, r23
    3ac2:	62 91       	ld	r22, -Z
    3ac4:	ae 17       	cp	r26, r30
    3ac6:	bf 07       	cpc	r27, r31
    3ac8:	c8 f3       	brcs	.-14     	; 0x3abc <strrev+0x10>
    3aca:	08 95       	ret

00003acc <_exit>:
    3acc:	f8 94       	cli

00003ace <__stop_program>:
    3ace:	ff cf       	rjmp	.-2      	; 0x3ace <__stop_program>
