###############################################################################
#                                                                             #
# IAR ELF Linker V6.40.2.53884/W32 for ARM              19/Sep/2012  16:16:30 #
# Copyright 2007-2012 IAR Systems AB.                                         #
#                                                                             #
#    Output file  =  \\psf\Home\Documents\Eclipse\Workspace\ARM\STM32_USB-Hos #
#                    t-Device_Lib_V2.1.0\Project\USB_Device_Examples\DFU\EWAR #
#                    M\STM324xG-EVAL_USBD-FS\Exe\STM324xG-EVAL_USBD-FS.out    #
#    Map file     =  \\psf\Home\Documents\Eclipse\Workspace\ARM\STM32_USB-Hos #
#                    t-Device_Lib_V2.1.0\Project\USB_Device_Examples\DFU\EWAR #
#                    M\STM324xG-EVAL_USBD-FS\List\STM324xG-EVAL_USBD-FS.map   #
#    Command line =  \\psf\Home\Documents\Eclipse\Workspace\ARM\STM32_USB-Hos #
#                    t-Device_Lib_V2.1.0\Project\USB_Device_Examples\DFU\EWAR #
#                    M\STM324xG-EVAL_USBD-FS\Obj\app.o                        #
#                    \\psf\Home\Documents\Eclipse\Workspace\ARM\STM32_USB-Hos #
#                    t-Device_Lib_V2.1.0\Project\USB_Device_Examples\DFU\EWAR #
#                    M\STM324xG-EVAL_USBD-FS\Obj\lcd_log.o                    #
#                    \\psf\Home\Documents\Eclipse\Workspace\ARM\STM32_USB-Hos #
#                    t-Device_Lib_V2.1.0\Project\USB_Device_Examples\DFU\EWAR #
#                    M\STM324xG-EVAL_USBD-FS\Obj\misc.o                       #
#                    \\psf\Home\Documents\Eclipse\Workspace\ARM\STM32_USB-Hos #
#                    t-Device_Lib_V2.1.0\Project\USB_Device_Examples\DFU\EWAR #
#                    M\STM324xG-EVAL_USBD-FS\Obj\startup_stm32f4xx.o          #
#                    \\psf\Home\Documents\Eclipse\Workspace\ARM\STM32_USB-Hos #
#                    t-Device_Lib_V2.1.0\Project\USB_Device_Examples\DFU\EWAR #
#                    M\STM324xG-EVAL_USBD-FS\Obj\stm324xg_eval.o              #
#                    \\psf\Home\Documents\Eclipse\Workspace\ARM\STM32_USB-Hos #
#                    t-Device_Lib_V2.1.0\Project\USB_Device_Examples\DFU\EWAR #
#                    M\STM324xG-EVAL_USBD-FS\Obj\stm324xg_eval_lcd.o          #
#                    \\psf\Home\Documents\Eclipse\Workspace\ARM\STM32_USB-Hos #
#                    t-Device_Lib_V2.1.0\Project\USB_Device_Examples\DFU\EWAR #
#                    M\STM324xG-EVAL_USBD-FS\Obj\stm32f4xx_dma.o              #
#                    \\psf\Home\Documents\Eclipse\Workspace\ARM\STM32_USB-Hos #
#                    t-Device_Lib_V2.1.0\Project\USB_Device_Examples\DFU\EWAR #
#                    M\STM324xG-EVAL_USBD-FS\Obj\stm32f4xx_exti.o             #
#                    \\psf\Home\Documents\Eclipse\Workspace\ARM\STM32_USB-Hos #
#                    t-Device_Lib_V2.1.0\Project\USB_Device_Examples\DFU\EWAR #
#                    M\STM324xG-EVAL_USBD-FS\Obj\stm32f4xx_flash.o            #
#                    \\psf\Home\Documents\Eclipse\Workspace\ARM\STM32_USB-Hos #
#                    t-Device_Lib_V2.1.0\Project\USB_Device_Examples\DFU\EWAR #
#                    M\STM324xG-EVAL_USBD-FS\Obj\stm32f4xx_fsmc.o             #
#                    \\psf\Home\Documents\Eclipse\Workspace\ARM\STM32_USB-Hos #
#                    t-Device_Lib_V2.1.0\Project\USB_Device_Examples\DFU\EWAR #
#                    M\STM324xG-EVAL_USBD-FS\Obj\stm32f4xx_gpio.o             #
#                    \\psf\Home\Documents\Eclipse\Workspace\ARM\STM32_USB-Hos #
#                    t-Device_Lib_V2.1.0\Project\USB_Device_Examples\DFU\EWAR #
#                    M\STM324xG-EVAL_USBD-FS\Obj\stm32f4xx_i2c.o              #
#                    \\psf\Home\Documents\Eclipse\Workspace\ARM\STM32_USB-Hos #
#                    t-Device_Lib_V2.1.0\Project\USB_Device_Examples\DFU\EWAR #
#                    M\STM324xG-EVAL_USBD-FS\Obj\stm32f4xx_pwr.o              #
#                    \\psf\Home\Documents\Eclipse\Workspace\ARM\STM32_USB-Hos #
#                    t-Device_Lib_V2.1.0\Project\USB_Device_Examples\DFU\EWAR #
#                    M\STM324xG-EVAL_USBD-FS\Obj\stm32f4xx_rcc.o              #
#                    \\psf\Home\Documents\Eclipse\Workspace\ARM\STM32_USB-Hos #
#                    t-Device_Lib_V2.1.0\Project\USB_Device_Examples\DFU\EWAR #
#                    M\STM324xG-EVAL_USBD-FS\Obj\stm32f4xx_syscfg.o           #
#                    \\psf\Home\Documents\Eclipse\Workspace\ARM\STM32_USB-Hos #
#                    t-Device_Lib_V2.1.0\Project\USB_Device_Examples\DFU\EWAR #
#                    M\STM324xG-EVAL_USBD-FS\Obj\stm32fxxx_it.o               #
#                    \\psf\Home\Documents\Eclipse\Workspace\ARM\STM32_USB-Hos #
#                    t-Device_Lib_V2.1.0\Project\USB_Device_Examples\DFU\EWAR #
#                    M\STM324xG-EVAL_USBD-FS\Obj\system_stm32f4xx.o           #
#                    \\psf\Home\Documents\Eclipse\Workspace\ARM\STM32_USB-Hos #
#                    t-Device_Lib_V2.1.0\Project\USB_Device_Examples\DFU\EWAR #
#                    M\STM324xG-EVAL_USBD-FS\Obj\usb_bsp.o                    #
#                    \\psf\Home\Documents\Eclipse\Workspace\ARM\STM32_USB-Hos #
#                    t-Device_Lib_V2.1.0\Project\USB_Device_Examples\DFU\EWAR #
#                    M\STM324xG-EVAL_USBD-FS\Obj\usb_core.o                   #
#                    \\psf\Home\Documents\Eclipse\Workspace\ARM\STM32_USB-Hos #
#                    t-Device_Lib_V2.1.0\Project\USB_Device_Examples\DFU\EWAR #
#                    M\STM324xG-EVAL_USBD-FS\Obj\usb_dcd.o                    #
#                    \\psf\Home\Documents\Eclipse\Workspace\ARM\STM32_USB-Hos #
#                    t-Device_Lib_V2.1.0\Project\USB_Device_Examples\DFU\EWAR #
#                    M\STM324xG-EVAL_USBD-FS\Obj\usb_dcd_int.o                #
#                    \\psf\Home\Documents\Eclipse\Workspace\ARM\STM32_USB-Hos #
#                    t-Device_Lib_V2.1.0\Project\USB_Device_Examples\DFU\EWAR #
#                    M\STM324xG-EVAL_USBD-FS\Obj\usbd_core.o                  #
#                    \\psf\Home\Documents\Eclipse\Workspace\ARM\STM32_USB-Hos #
#                    t-Device_Lib_V2.1.0\Project\USB_Device_Examples\DFU\EWAR #
#                    M\STM324xG-EVAL_USBD-FS\Obj\usbd_desc.o                  #
#                    \\psf\Home\Documents\Eclipse\Workspace\ARM\STM32_USB-Hos #
#                    t-Device_Lib_V2.1.0\Project\USB_Device_Examples\DFU\EWAR #
#                    M\STM324xG-EVAL_USBD-FS\Obj\usbd_dfu_core.o              #
#                    \\psf\Home\Documents\Eclipse\Workspace\ARM\STM32_USB-Hos #
#                    t-Device_Lib_V2.1.0\Project\USB_Device_Examples\DFU\EWAR #
#                    M\STM324xG-EVAL_USBD-FS\Obj\usbd_dfu_mal.o               #
#                    \\psf\Home\Documents\Eclipse\Workspace\ARM\STM32_USB-Hos #
#                    t-Device_Lib_V2.1.0\Project\USB_Device_Examples\DFU\EWAR #
#                    M\STM324xG-EVAL_USBD-FS\Obj\usbd_flash_if.o              #
#                    \\psf\Home\Documents\Eclipse\Workspace\ARM\STM32_USB-Hos #
#                    t-Device_Lib_V2.1.0\Project\USB_Device_Examples\DFU\EWAR #
#                    M\STM324xG-EVAL_USBD-FS\Obj\usbd_ioreq.o                 #
#                    \\psf\Home\Documents\Eclipse\Workspace\ARM\STM32_USB-Hos #
#                    t-Device_Lib_V2.1.0\Project\USB_Device_Examples\DFU\EWAR #
#                    M\STM324xG-EVAL_USBD-FS\Obj\usbd_otp_if.o                #
#                    \\psf\Home\Documents\Eclipse\Workspace\ARM\STM32_USB-Hos #
#                    t-Device_Lib_V2.1.0\Project\USB_Device_Examples\DFU\EWAR #
#                    M\STM324xG-EVAL_USBD-FS\Obj\usbd_req.o                   #
#                    \\psf\Home\Documents\Eclipse\Workspace\ARM\STM32_USB-Hos #
#                    t-Device_Lib_V2.1.0\Project\USB_Device_Examples\DFU\EWAR #
#                    M\STM324xG-EVAL_USBD-FS\Obj\usbd_usr.o --redirect        #
#                    _Printf=_PrintfTiny --redirect _Scanf=_ScanfSmall -o     #
#                    \\psf\Home\Documents\Eclipse\Workspace\ARM\STM32_USB-Hos #
#                    t-Device_Lib_V2.1.0\Project\USB_Device_Examples\DFU\EWAR #
#                    M\STM324xG-EVAL_USBD-FS\Exe\STM324xG-EVAL_USBD-FS.out    #
#                    --map \\psf\Home\Documents\Eclipse\Workspace\ARM\STM32_U #
#                    SB-Host-Device_Lib_V2.1.0\Project\USB_Device_Examples\DF #
#                    U\EWARM\STM324xG-EVAL_USBD-FS\List\STM324xG-EVAL_USBD-FS #
#                    .map --config \\psf\Home\Documents\Eclipse\Workspace\ARM #
#                    \STM32_USB-Host-Device_Lib_V2.1.0\Project\USB_Device_Exa #
#                    mples\DFU\EWARM\stm32f4xx_flash.icf --semihosting        #
#                    --entry __iar_program_start --vfe                        #
#                                                                             #
#                                                                             #
###############################################################################

*******************************************************************************
*** RUNTIME MODEL ATTRIBUTES
***

CppFlavor       = *
__SystemLibrary = DLib


*******************************************************************************
*** PLACEMENT SUMMARY
***

"A1":  place at 0x08000000 { ro section .intvec };
"P1":  place in [from 0x08000000 to 0x080fffff] { ro };
"P2":  place in [from 0x20000000 to 0x2001ffff] { rw, block CSTACK, block HEAP };

  Section            Kind        Address    Size  Object
  -------            ----        -------    ----  ------
"A1":                                      0x188
  .intvec            ro code  0x08000000   0x188  startup_stm32f4xx.o [1]
                            - 0x08000188   0x188

"P1":                                     0x5d30
  .rodata            const    0x08000188  0x11d0  stm324xg_eval_lcd.o [1]
  .rodata            const    0x08001358   0x900  stm324xg_eval_lcd.o [1]
  .rodata            const    0x08001c58   0x900  stm324xg_eval_lcd.o [1]
  .text              ro code  0x08002558   0x75c  usb_core.o [1]
  .text              ro code  0x08002cb4    0xf4  usb_bsp.o [1]
  .text              ro code  0x08002da8    0x58  stm32f4xx_rcc.o [1]
  .text              ro code  0x08002e00    0xa2  stm32f4xx_gpio.o [1]
  .text              ro code  0x08002ea2    0x22  zero_init3.o [5]
  .text              ro code  0x08002ec4    0x78  misc.o [1]
  .text              ro code  0x08002f3c   0x66c  stm324xg_eval_lcd.o [1]
  .text              ro code  0x080035a8    0xd8  stm32f4xx_fsmc.o [1]
  .text              ro code  0x08003680   0x484  usb_dcd_int.o [1]
  .text              ro code  0x08003b04   0x3dc  usbd_dfu_core.o [1]
  .text              ro code  0x08003ee0   0x138  usbd_dfu_mal.o [1]
  .text              ro code  0x08004018    0x7a  usbd_ioreq.o [1]
  .text              ro code  0x08004092   0x1a8  usb_dcd.o [1]
  .text              ro code  0x0800423c   0x3dc  usbd_req.o [1]
  .text              ro code  0x08004618   0x292  usbd_core.o [1]
  .text              ro code  0x080048ac   0x274  lcd_log.o [1]
  .text              ro code  0x08004b20    0x3a  ABImemset48.o [5]
  .text              ro code  0x08004b5c   0x12e  stm32f4xx_flash.o [1]
  .text              ro code  0x08004c8c   0x12e  usbd_flash_if.o [1]
  .text              ro code  0x08004dbc    0x66  ABImemset.o [5]
  .text              ro code  0x08004e24   0x124  stm324xg_eval.o [1]
  .text              ro code  0x08004f48    0x28  stm32f4xx_syscfg.o [1]
  .text              ro code  0x08004f70    0x78  stm32f4xx_exti.o [1]
  .text              ro code  0x08004fe8   0x11a  xprintftiny.o [3]
  .text              ro code  0x08005104    0x36  strlen.o [5]
  .text              ro code  0x0800513c   0x100  usbd_usr.o [1]
  .text              ro code  0x0800523c    0x24  printf.o [3]
  .text              ro code  0x08005260    0xe0  system_stm32f4xx.o [1]
  .text              ro code  0x08005340    0xc0  app.o [1]
  .text              ro code  0x08005400    0xa6  packbits_init3.o [5]
  .text              ro code  0x080054a8    0x80  usbd_desc.o [1]
  .rodata            const    0x08005528    0x7c  usbd_usr.o [1]
  .text              ro code  0x080055a4    0x74  stm32fxxx_it.o [1]
  .rodata            const    0x08005618    0x6c  usbd_usr.o [1]
  .text              ro code  0x08005684    0x56  usbd_otp_if.o [1]
  .rodata            const    0x080056dc    0x44  usbd_dfu_mal.o [1]
  .rodata            const    0x08005720    0x44  usbd_flash_if.o [1]
  .rodata            const    0x08005764    0x3c  usbd_usr.o [1]
  .rodata            const    0x080057a0    0x34  stm324xg_eval.o [1]
  .rodata            const    0x080057d4    0x2c  usbd_dfu_mal.o [1]
  .rodata            const    0x08005800    0x2c  usbd_otp_if.o [1]
  .text              ro code  0x0800582c    0x28  data_init3.o [5]
  .rodata            const    0x08005854    0x24  stm32fxxx_it.o [1]
  .rodata            const    0x08005878    0x24  stm32fxxx_it.o [1]
  .rodata            const    0x0800589c    0x24  stm32fxxx_it.o [1]
  .rodata            const    0x080058c0    0x24  stm32fxxx_it.o [1]
  .rodata            const    0x080058e4    0x24  stm32fxxx_it.o [1]
  .rodata            const    0x08005908    0x24  stm32fxxx_it.o [1]
  .rodata            const    0x0800592c    0x24  stm32fxxx_it.o [1]
  .rodata            const    0x08005950    0x24  stm32fxxx_it.o [1]
  .rodata            const    0x08005974    0x24  stm32fxxx_it.o [1]
  .rodata            const    0x08005998    0x24  stm32fxxx_it.o [1]
  .rodata            const    0x080059bc    0x24  stm32fxxx_it.o [1]
  .iar.init_table    const    0x080059e0    0x2c  - Linker created -
  .rodata            const    0x08005a0c    0x20  usbd_desc.o [1]
  .rodata            const    0x08005a2c    0x20  usbd_desc.o [1]
  .rodata            const    0x08005a4c    0x20  usbd_usr.o [1]
  .rodata            const    0x08005a6c    0x1c  usbd_usr.o [1]
  .rodata            const    0x08005a88    0x1c  usbd_usr.o [1]
  .rodata            const    0x08005aa4    0x1c  usbd_usr.o [1]
  .rodata            const    0x08005ac0    0x18  stm324xg_eval.o [1]
  .text              ro code  0x08005ad8    0x16  cmain.o [5]
  .text              ro code  0x08005aee     0x4  low_level_init.o [3]
  .text              ro code  0x08005af2     0x4  exit.o [3]
  .text              ro code  0x08005af8     0xa  cexit.o [5]
  .text              ro code  0x08005b04    0x14  exit.o [6]
  .text              ro code  0x08005b18    0x16  xprout.o [3]
  .text              ro code  0x08005b30     0xc  putchar.o [3]
  .rodata            const    0x08005b3c    0x14  usbd_desc.o [1]
  .rodata            const    0x08005b50    0x10  usbd_desc.o [1]
  .text              ro code  0x08005b60    0x10  startup_stm32f4xx.o [1]
  .rodata            const    0x08005b70     0xc  usbd_desc.o [1]
  .text              ro code  0x08005b7c     0xc  cstartup_M.o [5]
  .text              ro code  0x08005b88     0x4  startup_stm32f4xx.o [1]
  .text              ro code  0x08005b8c     0x4  startup_stm32f4xx.o [1]
  .text              ro code  0x08005b90     0x4  startup_stm32f4xx.o [1]
  .text              ro code  0x08005b94     0x4  startup_stm32f4xx.o [1]
  .text              ro code  0x08005b98     0x4  startup_stm32f4xx.o [1]
  .text              ro code  0x08005b9c     0x4  startup_stm32f4xx.o [1]
  .text              ro code  0x08005ba0     0x4  startup_stm32f4xx.o [1]
  .text              ro code  0x08005ba4     0x4  startup_stm32f4xx.o [1]
  .text              ro code  0x08005ba8     0x4  startup_stm32f4xx.o [1]
  .text              ro code  0x08005bac     0x4  startup_stm32f4xx.o [1]
  .text              ro code  0x08005bb0     0x4  startup_stm32f4xx.o [1]
  .text              ro code  0x08005bb4     0x4  startup_stm32f4xx.o [1]
  .text              ro code  0x08005bb8     0x4  startup_stm32f4xx.o [1]
  .text              ro code  0x08005bbc     0x4  startup_stm32f4xx.o [1]
  .text              ro code  0x08005bc0     0x4  startup_stm32f4xx.o [1]
  .text              ro code  0x08005bc4     0x4  startup_stm32f4xx.o [1]
  .text              ro code  0x08005bc8     0x4  startup_stm32f4xx.o [1]
  .text              ro code  0x08005bcc     0x4  startup_stm32f4xx.o [1]
  .text              ro code  0x08005bd0     0x4  startup_stm32f4xx.o [1]
  .text              ro code  0x08005bd4     0x4  startup_stm32f4xx.o [1]
  .text              ro code  0x08005bd8     0x4  startup_stm32f4xx.o [1]
  .text              ro code  0x08005bdc     0x4  startup_stm32f4xx.o [1]
  .text              ro code  0x08005be0     0x4  startup_stm32f4xx.o [1]
  .text              ro code  0x08005be4     0x4  startup_stm32f4xx.o [1]
  .text              ro code  0x08005be8     0x4  startup_stm32f4xx.o [1]
  .text              ro code  0x08005bec     0x4  startup_stm32f4xx.o [1]
  .text              ro code  0x08005bf0     0x4  startup_stm32f4xx.o [1]
  .text              ro code  0x08005bf4     0x4  startup_stm32f4xx.o [1]
  .text              ro code  0x08005bf8     0x4  startup_stm32f4xx.o [1]
  .text              ro code  0x08005bfc     0x4  startup_stm32f4xx.o [1]
  .text              ro code  0x08005c00     0x4  startup_stm32f4xx.o [1]
  .text              ro code  0x08005c04     0x4  startup_stm32f4xx.o [1]
  .text              ro code  0x08005c08     0x4  startup_stm32f4xx.o [1]
  .text              ro code  0x08005c0c     0x4  startup_stm32f4xx.o [1]
  .text              ro code  0x08005c10     0x4  startup_stm32f4xx.o [1]
  .text              ro code  0x08005c14     0x4  startup_stm32f4xx.o [1]
  .text              ro code  0x08005c18     0x4  startup_stm32f4xx.o [1]
  .text              ro code  0x08005c1c     0x4  startup_stm32f4xx.o [1]
  .text              ro code  0x08005c20     0x4  startup_stm32f4xx.o [1]
  .text              ro code  0x08005c24     0x4  startup_stm32f4xx.o [1]
  .text              ro code  0x08005c28     0x4  startup_stm32f4xx.o [1]
  .text              ro code  0x08005c2c     0x4  startup_stm32f4xx.o [1]
  .text              ro code  0x08005c30     0x4  startup_stm32f4xx.o [1]
  .text              ro code  0x08005c34     0x4  startup_stm32f4xx.o [1]
  .text              ro code  0x08005c38     0x4  startup_stm32f4xx.o [1]
  .text              ro code  0x08005c3c     0x4  startup_stm32f4xx.o [1]
  .text              ro code  0x08005c40     0x4  startup_stm32f4xx.o [1]
  .text              ro code  0x08005c44     0x4  startup_stm32f4xx.o [1]
  .text              ro code  0x08005c48     0x4  startup_stm32f4xx.o [1]
  .text              ro code  0x08005c4c     0x4  startup_stm32f4xx.o [1]
  .text              ro code  0x08005c50     0x4  startup_stm32f4xx.o [1]
  .text              ro code  0x08005c54     0x4  startup_stm32f4xx.o [1]
  .text              ro code  0x08005c58     0x4  startup_stm32f4xx.o [1]
  .text              ro code  0x08005c5c     0x4  startup_stm32f4xx.o [1]
  .text              ro code  0x08005c60     0x4  startup_stm32f4xx.o [1]
  .text              ro code  0x08005c64     0x4  startup_stm32f4xx.o [1]
  .text              ro code  0x08005c68     0x4  startup_stm32f4xx.o [1]
  .text              ro code  0x08005c6c     0x4  startup_stm32f4xx.o [1]
  .text              ro code  0x08005c70     0x4  startup_stm32f4xx.o [1]
  .text              ro code  0x08005c74     0x4  startup_stm32f4xx.o [1]
  .text              ro code  0x08005c78     0x4  startup_stm32f4xx.o [1]
  .text              ro code  0x08005c7c     0x4  startup_stm32f4xx.o [1]
  .text              ro code  0x08005c80     0x4  startup_stm32f4xx.o [1]
  .text              ro code  0x08005c84     0x4  startup_stm32f4xx.o [1]
  .text              ro code  0x08005c88     0x4  startup_stm32f4xx.o [1]
  .text              ro code  0x08005c8c     0x4  startup_stm32f4xx.o [1]
  .text              ro code  0x08005c90     0x4  startup_stm32f4xx.o [1]
  .text              ro code  0x08005c94     0x4  startup_stm32f4xx.o [1]
  .text              ro code  0x08005c98     0x4  startup_stm32f4xx.o [1]
  .text              ro code  0x08005c9c     0x4  startup_stm32f4xx.o [1]
  .text              ro code  0x08005ca0     0x4  startup_stm32f4xx.o [1]
  .text              ro code  0x08005ca4     0x4  startup_stm32f4xx.o [1]
  .text              ro code  0x08005ca8     0x4  startup_stm32f4xx.o [1]
  .text              ro code  0x08005cac     0x4  startup_stm32f4xx.o [1]
  .text              ro code  0x08005cb0     0x4  startup_stm32f4xx.o [1]
  .text              ro code  0x08005cb4     0x4  startup_stm32f4xx.o [1]
  .text              ro code  0x08005cb8     0x4  startup_stm32f4xx.o [1]
  .text              ro code  0x08005cbc     0x4  startup_stm32f4xx.o [1]
  .text              ro code  0x08005cc0     0x4  startup_stm32f4xx.o [1]
  .text              ro code  0x08005cc4     0x4  startup_stm32f4xx.o [1]
  .text              ro code  0x08005cc8     0x4  startup_stm32f4xx.o [1]
  .text              ro code  0x08005ccc     0x4  startup_stm32f4xx.o [1]
  .text              ro code  0x08005cd0     0x4  startup_stm32f4xx.o [1]
  .text              ro code  0x08005cd4     0x4  startup_stm32f4xx.o [1]
  .text              ro code  0x08005cd8     0x4  startup_stm32f4xx.o [1]
  .text              ro code  0x08005cdc     0x4  startup_stm32f4xx.o [1]
  .text              ro code  0x08005ce0     0x4  startup_stm32f4xx.o [1]
  .text              ro code  0x08005ce4     0x4  startup_stm32f4xx.o [1]
  .text              ro code  0x08005ce8     0x4  startup_stm32f4xx.o [1]
  .text              ro code  0x08005cec     0x4  startup_stm32f4xx.o [1]
  .text              ro code  0x08005cf0     0x4  startup_stm32f4xx.o [1]
  .rodata            const    0x08005cf4     0x0  zero_init3.o [5]
  .rodata            const    0x08005cf4     0x0  packbits_init3.o [5]
  Initializer bytes  ro data  0x08005cf4   0x1c4  <for P2 s0>
                            - 0x08005eb8  0x5d30

"P2", part 1 of 3:                         0x608
  P2 s0                       0x20000000   0x608  <Init block>
    .data            inited   0x20000000   0x408  usbd_dfu_mal.o [1]
    .data            inited   0x20000408    0x40  xfiles.o [3]
    .data            inited   0x20000448    0x30  usbd_dfu_core.o [1]
    .data            inited   0x20000478    0x2c  stm32fxxx_it.o [1]
    .data            inited   0x200004a4    0x2c  usbd_core.o [1]
    .data            inited   0x200004d0    0x24  usbd_dfu_core.o [1]
    .data            inited   0x200004f4    0x24  usbd_flash_if.o [1]
    .data            inited   0x20000518    0x24  usbd_otp_if.o [1]
    .data            inited   0x2000053c    0x20  usbd_dfu_core.o [1]
    .data            inited   0x2000055c    0x1c  usbd_desc.o [1]
    .data            inited   0x20000578    0x1c  usbd_usr.o [1]
    .data            inited   0x20000594    0x14  system_stm32f4xx.o [1]
    .data            inited   0x200005a8    0x14  usbd_desc.o [1]
    .data            inited   0x200005bc    0x10  stm324xg_eval.o [1]
    .data            inited   0x200005cc    0x10  stm324xg_eval_lcd.o [1]
    .data            inited   0x200005dc     0xc  stm324xg_eval.o [1]
    .data            inited   0x200005e8     0x8  stm324xg_eval_lcd.o [1]
    .data            inited   0x200005f0     0x8  stm324xg_eval_lcd.o [1]
    .data            inited   0x200005f8     0x8  usbd_dfu_mal.o [1]
    .data            inited   0x20000600     0x4  usbd_core.o [1]
    .data            inited   0x20000604     0x4  usbd_desc.o [1]
                            - 0x20000608   0x608

"P2", part 2 of 3:                         0x910
  .bss               zero     0x20000608   0x5fc  app.o [1]
  .bss               zero     0x20000c04   0x1d4  lcd_log.o [1]
  .bss               zero     0x20000dd8    0xc8  usbd_req.o [1]
  .bss               zero     0x20000ea0    0x50  xfiles.o [3]
  .bss               zero     0x20000ef0    0x12  lcd_log.o [1]
  .bss               zero     0x20000f02     0x1  usbd_usr.o [1]
  .bss               zero     0x20000f04     0xc  usbd_req.o [1]
  .bss               zero     0x20000f10     0x4  usbd_core.o [1]
  .bss               zero     0x20000f14     0x4  usbd_req.o [1]
                            - 0x20000f18   0x910

"P2", part 3 of 3:                         0x800
  CSTACK                      0x20000f18   0x800  <Block>
    CSTACK           uninit   0x20000f18   0x800  <Block tail>
                            - 0x20001718   0x800


*******************************************************************************
*** INIT TABLE
***

          Address     Size
          -------     ----
Zero (__iar_zero_init3)
    1 destination range, total size 0x910:
          0x20000608  0x910

Copy/packbits (__iar_packbits_init3)
    1 source range, total size 0x1c4 (29% of destination):
          0x08005cf4  0x1c4
    1 destination range, total size 0x608:
          0x20000000  0x608



*******************************************************************************
*** MODULE SUMMARY
***

    Module               ro code  ro data  rw data
    ------               -------  -------  -------
\\psf\Home\Documents\Eclipse\Workspace\ARM\STM32_USB-Host-Device_Lib_V2.1.0\Project\USB_Device_Examples\DFU\EWARM\STM324xG-EVAL_USBD-FS\Obj: [1]
    app.o                    192             1 532
    lcd_log.o                628               486
    misc.o                   120
    startup_stm32f4xx.o      772
    stm324xg_eval.o          292       84       28
    stm324xg_eval_lcd.o    1 644    9 178       32
    stm32f4xx_exti.o         120
    stm32f4xx_flash.o        302
    stm32f4xx_fsmc.o         216
    stm32f4xx_gpio.o         162
    stm32f4xx_rcc.o           88
    stm32f4xx_syscfg.o        40
    stm32fxxx_it.o           116      409       44
    system_stm32f4xx.o       224        5       20
    usb_bsp.o                244
    usb_core.o             1 884
    usb_dcd.o                424
    usb_dcd_int.o          1 156
    usbd_core.o              658       14       52
    usbd_desc.o              128      128       52
    usbd_dfu_core.o          988       34      116
    usbd_dfu_mal.o           312      416    1 040
    usbd_flash_if.o          302       78       36
    usbd_ioreq.o             122
    usbd_otp_if.o             86       55       36
    usbd_req.o               988               216
    usbd_usr.o               256      417       29
    ----------------------------------------------
    Total:                12 464   10 818    3 719

command line: [2]
    ----------------------------------------------
    Total:

dl7M_tlf.a: [3]
    exit.o                     4
    low_level_init.o           4
    printf.o                  36
    putchar.o                 12
    xfiles.o                           18      144
    xprintftiny.o            282
    xprout.o                  22
    ----------------------------------------------
    Total:                   360       18      144

m7M_tl.a: [4]
    ----------------------------------------------
    Total:

rt7M_tl.a: [5]
    ABImemset.o              102
    ABImemset48.o             58
    cexit.o                   10
    cmain.o                   22
    cstartup_M.o              12
    data_init3.o              40
    packbits_init3.o         166
    strlen.o                  54
    zero_init3.o              34
    ----------------------------------------------
    Total:                   498

shb_l.a: [6]
    exit.o                    20
    ----------------------------------------------
    Total:                    20

    Gaps                      24        2        1
    Linker created                     44    2 048
--------------------------------------------------
    Grand Total:          13 366   10 882    5 912


*******************************************************************************
*** ENTRY LIST
***

Entry                      Address    Size  Type      Object
-----                      -------    ----  ----      ------
?main                   0x08005ad9          Code  Gb  cmain.o [5]
ADC_IRQHandler          0x08005bf5          Code  Wk  startup_stm32f4xx.o [1]
AHBPrescTable           0x20000594    0x10  Data  Gb  system_stm32f4xx.o [1]
ASCII12x12_Table        0x08001358   0x900  Data  Gb  stm324xg_eval_lcd.o [1]
ASCII16x24_Table        0x08000188  0x11d0  Data  Gb  stm324xg_eval_lcd.o [1]
ASCII8x12_Table         0x08001c58   0x900  Data  Gb  stm324xg_eval_lcd.o [1]
BUTTON_CLK              0x080057c8     0xc  Data  Gb  stm324xg_eval.o [1]
BUTTON_EXTI_LINE        0x080057a8     0x8  Data  Gb  stm324xg_eval.o [1]
BUTTON_IRQn             0x080057c0     0x8  Data  Gb  stm324xg_eval.o [1]
BUTTON_PIN              0x080057a0     0x8  Data  Gb  stm324xg_eval.o [1]
BUTTON_PIN_SOURCE       0x080057b8     0x8  Data  Gb  stm324xg_eval.o [1]
BUTTON_PORT             0x200005dc     0xc  Data  Gb  stm324xg_eval.o [1]
BUTTON_PORT_SOURCE      0x080057b0     0x8  Data  Gb  stm324xg_eval.o [1]
BackColor               0x200005ce     0x2  Data  Gb  stm324xg_eval_lcd.o [1]
BusFault_Handler        0x080055ab     0x2  Code  Gb  stm32fxxx_it.o [1]
CAN1_RX0_IRQHandler     0x08005bfd          Code  Wk  startup_stm32f4xx.o [1]
CAN1_RX1_IRQHandler     0x08005c01          Code  Wk  startup_stm32f4xx.o [1]
CAN1_SCE_IRQHandler     0x08005c05          Code  Wk  startup_stm32f4xx.o [1]
CAN1_TX_IRQHandler      0x08005bf9          Code  Wk  startup_stm32f4xx.o [1]
CAN2_RX0_IRQHandler     0x08005cad          Code  Wk  startup_stm32f4xx.o [1]
CAN2_RX1_IRQHandler     0x08005cb1          Code  Wk  startup_stm32f4xx.o [1]
CAN2_SCE_IRQHandler     0x08005cb5          Code  Wk  startup_stm32f4xx.o [1]
CAN2_TX_IRQHandler      0x08005ca9          Code  Wk  startup_stm32f4xx.o [1]
CRYP_IRQHandler         0x08005ce9          Code  Wk  startup_stm32f4xx.o [1]
CSTACK$$Base            0x20000f18           --   Gb  - Linker created -
CSTACK$$Limit           0x20001718           --   Gb  - Linker created -
DCD_DevConnect          0x08004221     0xa  Code  Gb  usb_dcd.o [1]
DCD_DevDisconnect       0x0800422b     0x8  Code  Gb  usb_dcd.o [1]
DCD_EP_ClrStall         0x080041dd    0x14  Code  Gb  usb_dcd.o [1]
DCD_EP_Open             0x0800411b    0x3a  Code  Gb  usb_dcd.o [1]
DCD_EP_PrepareRx        0x08004155    0x24  Code  Gb  usb_dcd.o [1]
DCD_EP_SetAddress       0x08004211    0x10  Code  Gb  usb_dcd.o [1]
DCD_EP_Stall            0x080041b9    0x14  Code  Gb  usb_dcd.o [1]
DCD_EP_Tx               0x08004185    0x1e  Code  Gb  usb_dcd.o [1]
DCD_HandleInEP_ISR      0x0800384b    0xc6  Code  Lc  usb_dcd_int.o [1]
DCD_HandleOutEP_ISR     0x08003911    0xa0  Code  Lc  usb_dcd_int.o [1]
DCD_HandleRxStatusQueueLevel_ISR
                        0x080039b7    0x6c  Code  Lc  usb_dcd_int.o [1]
DCD_HandleUsbReset_ISR  0x08003a8d    0x70  Code  Lc  usb_dcd_int.o [1]
DCD_Init                0x08004093    0x78  Code  Gb  usb_dcd.o [1]
DCD_WriteEmptyTxFifo    0x08003a23    0x6a  Code  Lc  usb_dcd_int.o [1]
DCMI_IRQHandler         0x08005ce5          Code  Wk  startup_stm32f4xx.o [1]
DFU_Flash_cb            0x200004f4    0x24  Data  Gb  usbd_flash_if.o [1]
DFU_Otp_cb              0x20000518    0x24  Data  Gb  usbd_otp_if.o [1]
DFU_Req_UPLOAD          0x08003dfb    0x9e  Code  Lc  usbd_dfu_core.o [1]
DFU_cb                  0x20000448    0x30  Data  Gb  usbd_dfu_core.o [1]
DMA1_Stream0_IRQHandler
                        0x08005bd9          Code  Wk  startup_stm32f4xx.o [1]
DMA1_Stream1_IRQHandler
                        0x08005bdd          Code  Wk  startup_stm32f4xx.o [1]
DMA1_Stream2_IRQHandler
                        0x08005be1          Code  Wk  startup_stm32f4xx.o [1]
DMA1_Stream3_IRQHandler
                        0x08005be5          Code  Wk  startup_stm32f4xx.o [1]
DMA1_Stream4_IRQHandler
                        0x08005be9          Code  Wk  startup_stm32f4xx.o [1]
DMA1_Stream5_IRQHandler
                        0x08005bed          Code  Wk  startup_stm32f4xx.o [1]
DMA1_Stream6_IRQHandler
                        0x08005bf1          Code  Wk  startup_stm32f4xx.o [1]
DMA1_Stream7_IRQHandler
                        0x08005c69          Code  Wk  startup_stm32f4xx.o [1]
DMA2_Stream0_IRQHandler
                        0x08005c8d          Code  Wk  startup_stm32f4xx.o [1]
DMA2_Stream1_IRQHandler
                        0x08005c91          Code  Wk  startup_stm32f4xx.o [1]
DMA2_Stream2_IRQHandler
                        0x08005c95          Code  Wk  startup_stm32f4xx.o [1]
DMA2_Stream3_IRQHandler
                        0x08005c99          Code  Wk  startup_stm32f4xx.o [1]
DMA2_Stream4_IRQHandler
                        0x08005c9d          Code  Wk  startup_stm32f4xx.o [1]
DMA2_Stream5_IRQHandler
                        0x08005cbd          Code  Wk  startup_stm32f4xx.o [1]
DMA2_Stream6_IRQHandler
                        0x08005cc1          Code  Wk  startup_stm32f4xx.o [1]
DMA2_Stream7_IRQHandler
                        0x08005cc5          Code  Wk  startup_stm32f4xx.o [1]
DebugMon_Handler        0x080055b1     0x2  Code  Gb  stm32fxxx_it.o [1]
DeviceState             0x20000544     0x1  Data  Gb  usbd_dfu_core.o [1]
DeviceStatus            0x2000053c     0x8  Data  Gb  usbd_dfu_core.o [1]
EP0_RxReady             0x08003df7     0x4  Code  Lc  usbd_dfu_core.o [1]
EP0_TxSent              0x08003d13    0xe4  Code  Lc  usbd_dfu_core.o [1]
ETH_IRQHandler          0x08005ca1          Code  Wk  startup_stm32f4xx.o [1]
ETH_WKUP_IRQHandler     0x08005ca5          Code  Wk  startup_stm32f4xx.o [1]
EXTI0_IRQHandler        0x08005bc5          Code  Wk  startup_stm32f4xx.o [1]
EXTI15_10_IRQHandler    0x08005c4d          Code  Wk  startup_stm32f4xx.o [1]
EXTI1_IRQHandler        0x08005bc9          Code  Wk  startup_stm32f4xx.o [1]
EXTI2_IRQHandler        0x08005bcd          Code  Wk  startup_stm32f4xx.o [1]
EXTI3_IRQHandler        0x08005bd1          Code  Wk  startup_stm32f4xx.o [1]
EXTI4_IRQHandler        0x08005bd5          Code  Wk  startup_stm32f4xx.o [1]
EXTI9_5_IRQHandler      0x08005c09          Code  Wk  startup_stm32f4xx.o [1]
EXTI_ClearITPendingBit  0x08004fd7     0x2  Code  Gb  stm32f4xx_exti.o [1]
EXTI_Init               0x08004f71    0x66  Code  Gb  stm32f4xx_exti.o [1]
FLASH_EraseSector       0x08004b7b    0x66  Code  Gb  stm32f4xx_flash.o [1]
FLASH_GetStatus         0x08004c27    0x2e  Code  Gb  stm32f4xx_flash.o [1]
FLASH_IRQHandler        0x08005bbd          Code  Wk  startup_stm32f4xx.o [1]
FLASH_If_CheckAdd       0x08004dab    0x10  Code  Gb  usbd_flash_if.o [1]
FLASH_If_DeInit         0x08004c97     0xa  Code  Gb  usbd_flash_if.o [1]
FLASH_If_Erase          0x08004ca1    0x9c  Code  Gb  usbd_flash_if.o [1]
FLASH_If_Init           0x08004c8d     0xa  Code  Gb  usbd_flash_if.o [1]
FLASH_If_Read           0x08004da9     0x2  Code  Gb  usbd_flash_if.o [1]
FLASH_If_Write          0x08004d3d    0x3c  Code  Gb  usbd_flash_if.o [1]
FLASH_Lock              0x08004b6f     0xc  Code  Gb  stm32f4xx_flash.o [1]
FLASH_ProgramWord       0x08004be1    0x26  Code  Gb  stm32f4xx_flash.o [1]
FLASH_Unlock            0x08004b5d    0x12  Code  Gb  stm32f4xx_flash.o [1]
FLASH_WaitForLastOperation
                        0x08004c6d    0x1e  Code  Gb  stm32f4xx_flash.o [1]
FPU_IRQHandler          0x08005cf1          Code  Wk  startup_stm32f4xx.o [1]
FSMC_IRQHandler         0x08005c6d          Code  Wk  startup_stm32f4xx.o [1]
FSMC_NORSRAMCmd         0x0800365f    0x14  Code  Gb  stm32f4xx_fsmc.o [1]
FSMC_NORSRAMInit        0x080035a9    0xb6  Code  Gb  stm32f4xx_fsmc.o [1]
Font12x12               0x200005e8     0x8  Data  Gb  stm324xg_eval_lcd.o [1]
Font16x24               0x200005d4     0x8  Data  Gb  stm324xg_eval_lcd.o [1]
Font8x12                0x200005f0     0x8  Data  Gb  stm324xg_eval_lcd.o [1]
GPIO_CLK                0x08005ac8    0x10  Data  Gb  stm324xg_eval.o [1]
GPIO_Init               0x08002e01    0x70  Code  Gb  stm32f4xx_gpio.o [1]
GPIO_PIN                0x08005ac0     0x8  Data  Gb  stm324xg_eval.o [1]
GPIO_PORT               0x200005bc    0x10  Data  Gb  stm324xg_eval.o [1]
GPIO_PinAFConfig        0x08002e7f    0x24  Code  Gb  stm32f4xx_gpio.o [1]
GPIO_ReadInputDataBit   0x08002e71     0xe  Code  Gb  stm32f4xx_gpio.o [1]
HASH_RNG_IRQHandler     0x08005ced          Code  Wk  startup_stm32f4xx.o [1]
HardFault_Handler       0x080055a7     0x2  Code  Gb  stm32fxxx_it.o [1]
I2C1_ER_IRQHandler      0x08005c2d          Code  Wk  startup_stm32f4xx.o [1]
I2C1_EV_IRQHandler      0x08005c29          Code  Wk  startup_stm32f4xx.o [1]
I2C2_ER_IRQHandler      0x08005c35          Code  Wk  startup_stm32f4xx.o [1]
I2C2_EV_IRQHandler      0x08005c31          Code  Wk  startup_stm32f4xx.o [1]
I2C3_ER_IRQHandler      0x08005cd1          Code  Wk  startup_stm32f4xx.o [1]
I2C3_EV_IRQHandler      0x08005ccd          Code  Wk  startup_stm32f4xx.o [1]
JumpAddress             0x2000060c     0x4  Data  Gb  app.o [1]
Jump_To_Application     0x20000608     0x4  Data  Gb  app.o [1]
LCD_CacheBuffer         0x20000c04   0x1d4  Data  Gb  lcd_log.o [1]
LCD_CacheBuffer_xptr    0x20000ef6     0x2  Data  Gb  lcd_log.o [1]
LCD_CacheBuffer_yptr_bottom
                        0x20000efa     0x2  Data  Gb  lcd_log.o [1]
LCD_CacheBuffer_yptr_bottom_bak
                        0x20000efe     0x2  Data  Gb  lcd_log.o [1]
LCD_CacheBuffer_yptr_invert
                        0x20000ef0     0x1  Data  Gb  lcd_log.o [1]
LCD_CacheBuffer_yptr_top
                        0x20000ef8     0x2  Data  Gb  lcd_log.o [1]
LCD_CacheBuffer_yptr_top_bak
                        0x20000efc     0x2  Data  Gb  lcd_log.o [1]
LCD_Clear               0x080032ef    0x22  Code  Gb  stm324xg_eval_lcd.o [1]
LCD_ClearLine           0x080032c1    0x2e  Code  Gb  stm324xg_eval_lcd.o [1]
LCD_CtrlLinesConfig     0x08003405    0xb4  Code  Gb  stm324xg_eval_lcd.o [1]
LCD_Currentfonts        0x200005d0     0x4  Data  Lc  stm324xg_eval_lcd.o [1]
LCD_DisplayChar         0x08003399    0x1c  Code  Gb  stm324xg_eval_lcd.o [1]
LCD_DisplayStringLine   0x080033b5    0x36  Code  Gb  stm324xg_eval_lcd.o [1]
LCD_DrawChar            0x0800331f    0x7a  Code  Gb  stm324xg_eval_lcd.o [1]
LCD_FSMCConfig          0x08003513    0x62  Code  Gb  stm324xg_eval_lcd.o [1]
LCD_GetFont             0x080032b9     0x8  Code  Gb  stm324xg_eval_lcd.o [1]
LCD_LOG_DeInit          0x080048bd    0x24  Code  Gb  lcd_log.o [1]
LCD_LOG_Init            0x080048ad    0x10  Code  Gb  lcd_log.o [1]
LCD_LOG_SetFooter       0x08004965    0x60  Code  Gb  lcd_log.o [1]
LCD_LOG_SetHeader       0x080048e1    0x84  Code  Gb  lcd_log.o [1]
LCD_LOG_UpdateDisplay   0x08004a8b    0x84  Code  Lc  lcd_log.o [1]
LCD_LineColor           0x20000ef4     0x2  Data  Gb  lcd_log.o [1]
LCD_Lock                0x20000ef2     0x1  Data  Gb  lcd_log.o [1]
LCD_ScrollActive        0x20000ef1     0x1  Data  Gb  lcd_log.o [1]
LCD_ScrollBackStep      0x20000f00     0x2  Data  Gb  lcd_log.o [1]
LCD_Scrolled            0x20000ef3     0x1  Data  Gb  lcd_log.o [1]
LCD_SetBackColor        0x080032a1    0x10  Code  Gb  stm324xg_eval_lcd.o [1]
LCD_SetCursor           0x08003311     0xe  Code  Gb  stm324xg_eval_lcd.o [1]
LCD_SetFont             0x080032b1     0x8  Code  Gb  stm324xg_eval_lcd.o [1]
LCD_SetTextColor        0x08003291    0x10  Code  Gb  stm324xg_eval_lcd.o [1]
MAL_Buffer              0x20000008   0x400  Data  Gb  usbd_dfu_mal.o [1]
MAL_CheckAdd            0x08003ff1    0x22  Code  Lc  usbd_dfu_mal.o [1]
MAL_DeInit              0x08003efd    0x1c  Code  Gb  usbd_dfu_mal.o [1]
MAL_Erase               0x08003f19    0x2e  Code  Gb  usbd_dfu_mal.o [1]
MAL_GetStatus           0x08003fa3    0x4e  Code  Gb  usbd_dfu_mal.o [1]
MAL_Init                0x08003ee1    0x1c  Code  Gb  usbd_dfu_mal.o [1]
MAL_Read                0x08003f79    0x2a  Code  Gb  usbd_dfu_mal.o [1]
MAL_Write               0x08003f47    0x32  Code  Gb  usbd_dfu_mal.o [1]
Manifest_State          0x20000548     0x4  Data  Gb  usbd_dfu_core.o [1]
MemManage_Handler       0x080055a9     0x2  Code  Gb  stm32fxxx_it.o [1]
NMI_Handler             0x080055a5     0x2  Code  Gb  stm32fxxx_it.o [1]
NVIC_Init               0x08002ecf    0x58  Code  Gb  misc.o [1]
NVIC_PriorityGroupConfig
                        0x08002ec5     0xa  Code  Gb  misc.o [1]
OTG_FS_IRQHandler       0x08005603     0x6  Code  Gb  stm32fxxx_it.o [1]
OTG_FS_WKUP_IRQHandler  0x080055db    0x28  Code  Gb  stm32fxxx_it.o [1]
OTG_HS_EP1_IN_IRQHandler
                        0x08005cd9          Code  Wk  startup_stm32f4xx.o [1]
OTG_HS_EP1_OUT_IRQHandler
                        0x08005cd5          Code  Wk  startup_stm32f4xx.o [1]
OTG_HS_IRQHandler       0x08005ce1          Code  Wk  startup_stm32f4xx.o [1]
OTG_HS_WKUP_IRQHandler  0x08005cdd          Code  Wk  startup_stm32f4xx.o [1]
OTP_If_CheckAdd         0x080056c7    0x14  Code  Gb  usbd_otp_if.o [1]
OTP_If_Read             0x080056c5     0x2  Code  Gb  usbd_otp_if.o [1]
OTP_If_Write            0x08005685    0x3c  Code  Gb  usbd_otp_if.o [1]
PVD_IRQHandler          0x08005bb1          Code  Wk  startup_stm32f4xx.o [1]
PendSV_Handler          0x080055b3     0x2  Code  Gb  stm32fxxx_it.o [1]
Pointer                 0x20000554     0x4  Data  Lc  usbd_dfu_core.o [1]
RCC_AHB1PeriphClockCmd  0x08002da9    0x12  Code  Gb  stm32f4xx_rcc.o [1]
RCC_AHB2PeriphClockCmd  0x08002dbb    0x12  Code  Gb  stm32f4xx_rcc.o [1]
RCC_AHB3PeriphClockCmd  0x08002dcd    0x12  Code  Gb  stm32f4xx_rcc.o [1]
RCC_APB2PeriphClockCmd  0x08002ddf    0x12  Code  Gb  stm32f4xx_rcc.o [1]
RCC_IRQHandler          0x08005bc1          Code  Wk  startup_stm32f4xx.o [1]
RTC_Alarm_IRQHandler    0x08005c51          Code  Wk  startup_stm32f4xx.o [1]
RTC_WKUP_IRQHandler     0x08005bb9          Code  Wk  startup_stm32f4xx.o [1]
Region$$Table$$Base     0x080059e0           --   Gb  - Linker created -
Region$$Table$$Limit    0x08005a0c           --   Gb  - Linker created -
Reset_Handler           0x08005b61          Code  Wk  startup_stm32f4xx.o [1]
SDIO_IRQHandler         0x08005c71          Code  Wk  startup_stm32f4xx.o [1]
SET_TEST_MODE           0x20000f10     0x4  Data  Gb  usbd_core.o [1]
SPI1_IRQHandler         0x08005c39          Code  Wk  startup_stm32f4xx.o [1]
SPI2_IRQHandler         0x08005c3d          Code  Wk  startup_stm32f4xx.o [1]
SPI3_IRQHandler         0x08005c79          Code  Wk  startup_stm32f4xx.o [1]
STM324xG_LCD_Init       0x08002f3d   0x2ce  Code  Gb  stm324xg_eval_lcd.o [1]
STM_EVAL_LEDInit        0x08004e25    0x36  Code  Gb  stm324xg_eval.o [1]
STM_EVAL_LEDToggle      0x08004e5b    0x18  Code  Gb  stm324xg_eval.o [1]
STM_EVAL_PBGetState     0x08004f05    0x14  Code  Gb  stm324xg_eval.o [1]
STM_EVAL_PBInit         0x08004e73    0x92  Code  Gb  stm324xg_eval.o [1]
SVC_Handler             0x080055af     0x2  Code  Gb  stm32fxxx_it.o [1]
SYSCFG_EXTILineConfig   0x08004f49    0x22  Code  Gb  stm32f4xx_syscfg.o [1]
State                   0x20000f02     0x1  Data  Gb  usbd_usr.o [1]
SysTick_Handler         0x080055b5    0x26  Code  Gb  stm32fxxx_it.o [1]
SystemCoreClock         0x200005a4     0x4  Data  Gb  system_stm32f4xx.o [1]
SystemInit              0x08005261    0xc4  Code  Gb  system_stm32f4xx.o [1]
TAMP_STAMP_IRQHandler   0x08005bb5          Code  Wk  startup_stm32f4xx.o [1]
TIM1_BRK_TIM9_IRQHandler
                        0x08005c0d          Code  Wk  startup_stm32f4xx.o [1]
TIM1_CC_IRQHandler      0x08005c19          Code  Wk  startup_stm32f4xx.o [1]
TIM1_TRG_COM_TIM11_IRQHandler
                        0x08005c15          Code  Wk  startup_stm32f4xx.o [1]
TIM1_UP_TIM10_IRQHandler
                        0x08005c11          Code  Wk  startup_stm32f4xx.o [1]
TIM2_IRQHandler         0x08005c1d          Code  Wk  startup_stm32f4xx.o [1]
TIM3_IRQHandler         0x08005c21          Code  Wk  startup_stm32f4xx.o [1]
TIM4_IRQHandler         0x08005c25          Code  Wk  startup_stm32f4xx.o [1]
TIM5_IRQHandler         0x08005c75          Code  Wk  startup_stm32f4xx.o [1]
TIM6_DAC_IRQHandler     0x08005c85          Code  Wk  startup_stm32f4xx.o [1]
TIM7_IRQHandler         0x08005c89          Code  Wk  startup_stm32f4xx.o [1]
TIM8_BRK_TIM12_IRQHandler
                        0x08005c59          Code  Wk  startup_stm32f4xx.o [1]
TIM8_CC_IRQHandler      0x08005c65          Code  Wk  startup_stm32f4xx.o [1]
TIM8_TRG_COM_TIM14_IRQHandler
                        0x08005c61          Code  Wk  startup_stm32f4xx.o [1]
TIM8_UP_TIM13_IRQHandler
                        0x08005c5d          Code  Wk  startup_stm32f4xx.o [1]
TextColor               0x200005cc     0x2  Data  Gb  stm324xg_eval_lcd.o [1]
UART4_IRQHandler        0x08005c7d          Code  Wk  startup_stm32f4xx.o [1]
UART5_IRQHandler        0x08005c81          Code  Wk  startup_stm32f4xx.o [1]
USART1_IRQHandler       0x08005c41          Code  Wk  startup_stm32f4xx.o [1]
USART2_IRQHandler       0x08005c45          Code  Wk  startup_stm32f4xx.o [1]
USART3_IRQHandler       0x08005c49          Code  Wk  startup_stm32f4xx.o [1]
USART6_IRQHandler       0x08005cc9          Code  Wk  startup_stm32f4xx.o [1]
USBD_ClrCfg             0x0800484b     0xe  Code  Gb  usbd_core.o [1]
USBD_CtlContinueRx      0x0800404d     0x2  Code  Gb  usbd_ioreq.o [1]
USBD_CtlContinueSendData
                        0x0800402b     0x2  Code  Gb  usbd_ioreq.o [1]
USBD_CtlError           0x080045bb    0x1a  Code  Gb  usbd_req.o [1]
USBD_CtlPrepareRx       0x0800403b    0x12  Code  Gb  usbd_ioreq.o [1]
USBD_CtlReceiveStatus   0x0800406d     0xe  Code  Gb  usbd_ioreq.o [1]
USBD_CtlSendData        0x08004019    0x12  Code  Gb  usbd_ioreq.o [1]
USBD_CtlSendStatus      0x0800405d    0x10  Code  Gb  usbd_ioreq.o [1]
USBD_DCD_INT_cb         0x200004a4    0x2c  Data  Gb  usbd_core.o [1]
USBD_DCD_INT_fops       0x20000600     0x4  Data  Gb  usbd_core.o [1]
USBD_DFU_GetCfgDesc     0x08003e99     0x8  Code  Lc  usbd_dfu_core.o [1]
USBD_DFU_GetUsrStringDesc
                        0x08003ea1    0x22  Code  Lc  usbd_dfu_core.o [1]
USBD_DataInStage        0x0800470d    0xa6  Code  Lc  usbd_core.o [1]
USBD_DataOutStage       0x0800469b    0x72  Code  Lc  usbd_core.o [1]
USBD_DevConnected       0x08004875    0x16  Code  Lc  usbd_core.o [1]
USBD_DevDisconnected    0x0800488b    0x20  Code  Lc  usbd_core.o [1]
USBD_DeviceDesc         0x200005a8    0x14  Data  Gb  usbd_desc.o [1]
USBD_GetDescriptor      0x08004499    0xe0  Code  Lc  usbd_req.o [1]
USBD_GetString          0x080045d5    0x44  Code  Gb  usbd_req.o [1]
USBD_Init               0x08004619    0x36  Code  Gb  usbd_core.o [1]
USBD_IsoINIncomplete    0x08004859     0xe  Code  Lc  usbd_core.o [1]
USBD_IsoOUTIncomplete   0x08004867     0xe  Code  Lc  usbd_core.o [1]
USBD_LangIDDesc         0x20000604     0x4  Data  Gb  usbd_desc.o [1]
USBD_OTG_ISR_Handler    0x08003681   0x1ca  Code  Gb  usb_dcd_int.o [1]
USBD_ParseSetupRequest  0x0800457f    0x3c  Code  Gb  usbd_req.o [1]
USBD_Reset              0x080047b9    0x2e  Code  Lc  usbd_core.o [1]
USBD_Resume             0x080047e7    0x1e  Code  Lc  usbd_core.o [1]
USBD_SOF                0x08004821    0x12  Code  Lc  usbd_core.o [1]
USBD_SetCfg             0x08004833    0x18  Code  Gb  usbd_core.o [1]
USBD_SetupStage         0x0800464f    0x4c  Code  Lc  usbd_core.o [1]
USBD_StdDevReq          0x0800423d   0x158  Code  Gb  usbd_req.o [1]
USBD_StdEPReq           0x080043c9    0xbc  Code  Gb  usbd_req.o [1]
USBD_StdItfReq          0x08004395    0x34  Code  Gb  usbd_req.o [1]
USBD_StrDesc            0x20000dd8    0xc8  Data  Gb  usbd_req.o [1]
USBD_Suspend            0x08004805    0x1c  Code  Lc  usbd_core.o [1]
USBD_USR_ConfigStrDescriptor
                        0x080054ed     0x6  Code  Gb  usbd_desc.o [1]
USBD_USR_DeviceConfigured
                        0x080051b7    0x28  Code  Gb  usbd_usr.o [1]
USBD_USR_DeviceConnected
                        0x080051fb     0xe  Code  Gb  usbd_usr.o [1]
USBD_USR_DeviceDescriptor
                        0x080054a9     0x8  Code  Gb  usbd_desc.o [1]
USBD_USR_DeviceDisconnected
                        0x08005209     0xe  Code  Gb  usbd_usr.o [1]
USBD_USR_DeviceReset    0x0800519b    0x1c  Code  Gb  usbd_usr.o [1]
USBD_USR_DeviceResumed  0x080051ed     0xe  Code  Gb  usbd_usr.o [1]
USBD_USR_DeviceSuspended
                        0x080051df     0xe  Code  Gb  usbd_usr.o [1]
USBD_USR_Init           0x0800513d    0x5e  Code  Gb  usbd_usr.o [1]
USBD_USR_InterfaceStrDescriptor
                        0x080054ff     0x8  Code  Gb  usbd_desc.o [1]
USBD_USR_LangIDStrDescriptor
                        0x080054b1     0x8  Code  Gb  usbd_desc.o [1]
USBD_USR_ManufacturerStrDescriptor
                        0x080054cf     0x8  Code  Gb  usbd_desc.o [1]
USBD_USR_ProductStrDescriptor
                        0x080054b9    0x16  Code  Gb  usbd_desc.o [1]
USBD_USR_SerialStrDescriptor
                        0x080054d7    0x16  Code  Gb  usbd_desc.o [1]
USBD_cfg_status         0x20000f08     0x4  Data  Gb  usbd_req.o [1]
USBD_default_cfg        0x20000f0c     0x4  Data  Gb  usbd_req.o [1]
USBD_ep_status          0x20000f14     0x4  Data  Gb  usbd_req.o [1]
USB_OTG_BSP_EnableInterrupt
                        0x08002d63    0x2a  Code  Gb  usb_bsp.o [1]
USB_OTG_BSP_Init        0x08002cb5    0x9a  Code  Gb  usb_bsp.o [1]
USB_OTG_BSP_mDelay      0x08002da1     0x8  Code  Gb  usb_bsp.o [1]
USB_OTG_BSP_uDelay      0x08002d8d    0x14  Code  Gb  usb_bsp.o [1]
USB_OTG_CoreInit        0x080026ad    0x76  Code  Gb  usb_core.o [1]
USB_OTG_CoreInitDev     0x080027f9    0xfc  Code  Gb  usb_core.o [1]
USB_OTG_CoreReset       0x08002559    0x4a  Code  Lc  usb_core.o [1]
USB_OTG_DisableGlobalInt
                        0x0800272d     0x8  Code  Gb  usb_core.o [1]
USB_OTG_EP0Activate     0x08002951    0x34  Code  Gb  usb_core.o [1]
USB_OTG_EP0StartXfer    0x08002b07    0xd0  Code  Gb  usb_core.o [1]
USB_OTG_EP0_OutStart    0x08002c4f    0x20  Code  Gb  usb_core.o [1]
USB_OTG_EPActivate      0x08002985    0x60  Code  Gb  usb_core.o [1]
USB_OTG_EPClearStall    0x08002bff    0x28  Code  Gb  usb_core.o [1]
USB_OTG_EPSetStall      0x08002bd7    0x28  Code  Gb  usb_core.o [1]
USB_OTG_EPStartXfer     0x080029e5   0x122  Code  Gb  usb_core.o [1]
USB_OTG_EnableDevInt    0x080028f5    0x34  Code  Gb  usb_core.o [1]
USB_OTG_EnableGlobalInt
                        0x08002723     0xa  Code  Gb  usb_core.o [1]
USB_OTG_FlushRxFifo     0x08002765    0x20  Code  Gb  usb_core.o [1]
USB_OTG_FlushTxFifo     0x0800273b    0x2a  Code  Gb  usb_core.o [1]
USB_OTG_GetDeviceSpeed  0x08002929    0x28  Code  Gb  usb_core.o [1]
USB_OTG_GetMode         0x080027c1     0xa  Code  Gb  usb_core.o [1]
USB_OTG_InitDevSpeed    0x080027e7    0x12  Code  Gb  usb_core.o [1]
USB_OTG_IsDeviceMode    0x080027cb    0x12  Code  Gb  usb_core.o [1]
USB_OTG_ReadCoreItr     0x080027dd     0xa  Code  Gb  usb_core.o [1]
USB_OTG_ReadDevAllInEPItr
                        0x08002c43     0xc  Code  Gb  usb_core.o [1]
USB_OTG_ReadDevAllOutEp_itr
                        0x08002c27     0xc  Code  Gb  usb_core.o [1]
USB_OTG_ReadDevOutEP_itr
                        0x08002c33    0x10  Code  Gb  usb_core.o [1]
USB_OTG_ReadPacket      0x080025cd    0x24  Code  Gb  usb_core.o [1]
USB_OTG_SelectCore      0x080025f1    0xbc  Code  Gb  usb_core.o [1]
USB_OTG_SetCurrentMode  0x0800279b    0x26  Code  Gb  usb_core.o [1]
USB_OTG_UngateClock     0x08002c99    0x1c  Code  Gb  usb_core.o [1]
USB_OTG_WritePacket     0x080025a3    0x2a  Code  Gb  usb_core.o [1]
USB_OTG_dev             0x20000610   0x5f4  Data  Gb  app.o [1]
USER_INFORMATION        0x20000478    0x2c  Data  Gb  stm32fxxx_it.o [1]
USR_cb                  0x20000578    0x1c  Data  Gb  usbd_usr.o [1]
USR_desc                0x2000055c    0x1c  Data  Gb  usbd_desc.o [1]
UsageFault_Handler      0x080055ad     0x2  Code  Gb  stm32fxxx_it.o [1]
WWDG_IRQHandler         0x08005bad          Code  Wk  startup_stm32f4xx.o [1]
_PrintfTiny             0x08004fe9   0x11a  Code  Gb  xprintftiny.o [3]
_Prout                  0x08005b19    0x16  Code  Gb  xprout.o [3]
__aeabi_memset          0x08004dbd          Code  Gb  ABImemset.o [5]
__aeabi_memset4         0x08004b21          Code  Gb  ABImemset48.o [5]
__aeabi_memset8         0x08004b21          Code  Gb  ABImemset48.o [5]
__cmain                 0x08005ad9          Code  Gb  cmain.o [5]
__exit                  0x08005b05    0x14  Code  Gb  exit.o [6]
__iar_Memset            0x08004dbd          Code  Gb  ABImemset.o [5]
__iar_Memset4_word      0x08004b29          Code  Gb  ABImemset48.o [5]
__iar_Memset8_word      0x08004b29          Code  Gb  ABImemset48.o [5]
__iar_Memset_word       0x08004dc5          Code  Gb  ABImemset.o [5]
__iar_Stdout            0x20000408    0x40  Data  Gb  xfiles.o [3]
__iar_data_init3        0x0800582d    0x28  Code  Gb  data_init3.o [5]
__iar_packbits_init3    0x08005401    0xa6  Code  Gb  packbits_init3.o [5]
__iar_program_start     0x08005b7d          Code  Gb  cstartup_M.o [5]
__iar_zero_init3        0x08002ea3    0x22  Code  Gb  zero_init3.o [5]
__low_level_init        0x08005aef     0x4  Code  Gb  low_level_init.o [3]
__vector_table          0x08000000          Data  Gb  startup_stm32f4xx.o [1]
_call_main              0x08005ae5          Code  Gb  cmain.o [5]
_exit                   0x08005af9          Code  Gb  cexit.o [5]
_main                   0x08005aeb          Code  Gb  cmain.o [5]
delay                   0x08003575    0x20  Code  Lc  stm324xg_eval_lcd.o [1]
exit                    0x08005af3     0x4  Code  Gb  exit.o [3]
fputc                   0x080049c5    0xc6  Code  Gb  lcd_log.o [1]
main                    0x08005341    0xc0  Code  Gb  app.o [1]
obuf                    0x20000ea0    0x50  Data  Lc  xfiles.o [3]
printf                  0x0800523d    0x24  Code  Gb  printf.o [3]
putchar                 0x08005b31     0xc  Code  Gb  putchar.o [3]
strlen                  0x08005105          Code  Gb  strlen.o [5]
tMALTab                 0x20000000     0x8  Data  Gb  usbd_dfu_mal.o [1]
usbd_dfu_AltSet         0x20000558     0x4  Data  Lc  usbd_dfu_core.o [1]
usbd_dfu_CfgDesc        0x200004d0    0x24  Data  Gb  usbd_dfu_core.o [1]
usbd_dfu_DeInit         0x08003b1f    0x20  Code  Lc  usbd_dfu_core.o [1]
usbd_dfu_Init           0x08003b05    0x1a  Code  Lc  usbd_dfu_core.o [1]
usbd_dfu_Setup          0x08003b41   0x1d2  Code  Lc  usbd_dfu_core.o [1]
usbd_dfu_StringDesc     0x200005f8     0x8  Data  Gb  usbd_dfu_mal.o [1]
wBlockNum               0x2000054c     0x4  Data  Lc  usbd_dfu_core.o [1]
wlength                 0x20000550     0x4  Data  Lc  usbd_dfu_core.o [1]


[1] = \\psf\Home\Documents\Eclipse\Workspace\ARM\STM32_USB-Host-Device_Lib_V2.1.0\Project\USB_Device_Examples\DFU\EWARM\STM324xG-EVAL_USBD-FS\Obj
[2] = command line
[3] = dl7M_tlf.a
[4] = m7M_tl.a
[5] = rt7M_tl.a
[6] = shb_l.a

  13 366 bytes of readonly  code memory
  10 882 bytes of readonly  data memory
   5 912 bytes of readwrite data memory

Errors: none
Warnings: none
