In archive libArduino_libraries.a:

twi.o:     file format elf32-avr

Sections:
Idx Name          Size      VMA       LMA       File off  Algn
  0 .text         000004a2  00000000  00000000  00000034  2**0
                  CONTENTS, ALLOC, LOAD, RELOC, READONLY, CODE
  1 .data         00000000  00000000  00000000  000004d6  2**0
                  CONTENTS, ALLOC, LOAD, DATA
  2 .bss          0000009e  00000000  00000000  000004d6  2**0
                  ALLOC

Disassembly of section .text:

00000000 <twi_init>:
   0:	10 92 00 00 	sts	0x0000, r1
   4:	81 e0       	ldi	r24, 0x01	; 1
   6:	80 93 00 00 	sts	0x0000, r24
   a:	10 92 00 00 	sts	0x0000, r1
   e:	82 e1       	ldi	r24, 0x12	; 18
  10:	61 e0       	ldi	r22, 0x01	; 1
  12:	0e 94 00 00 	call	0	; 0x0 <twi_init>
  16:	83 e1       	ldi	r24, 0x13	; 19
  18:	61 e0       	ldi	r22, 0x01	; 1
  1a:	0e 94 00 00 	call	0	; 0x0 <twi_init>
  1e:	e9 eb       	ldi	r30, 0xB9	; 185
  20:	f0 e0       	ldi	r31, 0x00	; 0
  22:	80 81       	ld	r24, Z
  24:	8e 7f       	andi	r24, 0xFE	; 254
  26:	80 83       	st	Z, r24
  28:	80 81       	ld	r24, Z
  2a:	8d 7f       	andi	r24, 0xFD	; 253
  2c:	80 83       	st	Z, r24
  2e:	88 e4       	ldi	r24, 0x48	; 72
  30:	80 93 b8 00 	sts	0x00B8, r24
  34:	85 e4       	ldi	r24, 0x45	; 69
  36:	80 93 bc 00 	sts	0x00BC, r24
  3a:	08 95       	ret

0000003c <twi_setAddress>:
  3c:	88 0f       	add	r24, r24
  3e:	80 93 ba 00 	sts	0x00BA, r24
  42:	08 95       	ret

00000044 <twi_readFrom>:
  44:	41 33       	cpi	r20, 0x31	; 49
  46:	00 f4       	brcc	.+0      	; 0x48 <twi_readFrom+0x4>
  48:	90 91 00 00 	lds	r25, 0x0000
  4c:	99 23       	and	r25, r25
  4e:	01 f4       	brne	.+0      	; 0x50 <twi_readFrom+0xc>
  50:	91 e0       	ldi	r25, 0x01	; 1
  52:	90 93 00 00 	sts	0x0000, r25
  56:	20 93 00 00 	sts	0x0000, r18
  5a:	2f ef       	ldi	r18, 0xFF	; 255
  5c:	20 93 00 00 	sts	0x0000, r18
  60:	10 92 00 00 	sts	0x0000, r1
  64:	24 2f       	mov	r18, r20
  66:	21 50       	subi	r18, 0x01	; 1
  68:	20 93 00 00 	sts	0x0000, r18
  6c:	90 93 00 00 	sts	0x0000, r25
  70:	90 91 00 00 	lds	r25, 0x0000
  74:	88 0f       	add	r24, r24
  76:	89 2b       	or	r24, r25
  78:	80 93 00 00 	sts	0x0000, r24
  7c:	80 91 00 00 	lds	r24, 0x0000
  80:	81 30       	cpi	r24, 0x01	; 1
  82:	01 f4       	brne	.+0      	; 0x84 <twi_readFrom+0x40>
  84:	10 92 00 00 	sts	0x0000, r1
  88:	80 91 00 00 	lds	r24, 0x0000
  8c:	80 93 bb 00 	sts	0x00BB, r24
  90:	85 ec       	ldi	r24, 0xC5	; 197
  92:	00 c0       	rjmp	.+0      	; 0x94 <twi_readFrom+0x50>
  94:	85 ee       	ldi	r24, 0xE5	; 229
  96:	80 93 bc 00 	sts	0x00BC, r24
  9a:	80 91 00 00 	lds	r24, 0x0000
  9e:	81 30       	cpi	r24, 0x01	; 1
  a0:	01 f0       	breq	.+0      	; 0xa2 <twi_readFrom+0x5e>
  a2:	80 91 00 00 	lds	r24, 0x0000
  a6:	84 17       	cp	r24, r20
  a8:	00 f4       	brcc	.+0      	; 0xaa <twi_readFrom+0x66>
  aa:	40 91 00 00 	lds	r20, 0x0000
  ae:	a0 e0       	ldi	r26, 0x00	; 0
  b0:	b0 e0       	ldi	r27, 0x00	; 0
  b2:	fb 01       	movw	r30, r22
  b4:	00 c0       	rjmp	.+0      	; 0xb6 <twi_readFrom+0x72>
  b6:	8d 91       	ld	r24, X+
  b8:	81 93       	st	Z+, r24
  ba:	8e 2f       	mov	r24, r30
  bc:	86 1b       	sub	r24, r22
  be:	84 17       	cp	r24, r20
  c0:	00 f0       	brcs	.+0      	; 0xc2 <twi_readFrom+0x7e>
  c2:	00 c0       	rjmp	.+0      	; 0xc4 <twi_readFrom+0x80>
  c4:	40 e0       	ldi	r20, 0x00	; 0
  c6:	84 2f       	mov	r24, r20
  c8:	08 95       	ret

000000ca <twi_writeTo>:
  ca:	0f 93       	push	r16
  cc:	41 33       	cpi	r20, 0x31	; 49
  ce:	00 f0       	brcs	.+0      	; 0xd0 <twi_writeTo+0x6>
  d0:	00 c0       	rjmp	.+0      	; 0xd2 <twi_writeTo+0x8>
  d2:	90 91 00 00 	lds	r25, 0x0000
  d6:	99 23       	and	r25, r25
  d8:	01 f4       	brne	.+0      	; 0xda <twi_writeTo+0x10>
  da:	92 e0       	ldi	r25, 0x02	; 2
  dc:	90 93 00 00 	sts	0x0000, r25
  e0:	00 93 00 00 	sts	0x0000, r16
  e4:	9f ef       	ldi	r25, 0xFF	; 255
  e6:	90 93 00 00 	sts	0x0000, r25
  ea:	10 92 00 00 	sts	0x0000, r1
  ee:	40 93 00 00 	sts	0x0000, r20
  f2:	a0 e0       	ldi	r26, 0x00	; 0
  f4:	b0 e0       	ldi	r27, 0x00	; 0
  f6:	fb 01       	movw	r30, r22
  f8:	00 c0       	rjmp	.+0      	; 0xfa <twi_writeTo+0x30>
  fa:	91 91       	ld	r25, Z+
  fc:	9d 93       	st	X+, r25
  fe:	9e 2f       	mov	r25, r30
 100:	96 1b       	sub	r25, r22
 102:	94 17       	cp	r25, r20
 104:	00 f0       	brcs	.+0      	; 0x106 <twi_writeTo+0x3c>
 106:	10 92 00 00 	sts	0x0000, r1
 10a:	90 91 00 00 	lds	r25, 0x0000
 10e:	88 0f       	add	r24, r24
 110:	89 2b       	or	r24, r25
 112:	80 93 00 00 	sts	0x0000, r24
 116:	80 91 00 00 	lds	r24, 0x0000
 11a:	81 30       	cpi	r24, 0x01	; 1
 11c:	01 f4       	brne	.+0      	; 0x11e <twi_writeTo+0x54>
 11e:	10 92 00 00 	sts	0x0000, r1
 122:	80 91 00 00 	lds	r24, 0x0000
 126:	80 93 bb 00 	sts	0x00BB, r24
 12a:	85 ec       	ldi	r24, 0xC5	; 197
 12c:	00 c0       	rjmp	.+0      	; 0x12e <twi_writeTo+0x64>
 12e:	85 ee       	ldi	r24, 0xE5	; 229
 130:	80 93 bc 00 	sts	0x00BC, r24
 134:	22 23       	and	r18, r18
 136:	01 f0       	breq	.+0      	; 0x138 <twi_writeTo+0x6e>
 138:	80 91 00 00 	lds	r24, 0x0000
 13c:	82 30       	cpi	r24, 0x02	; 2
 13e:	01 f0       	breq	.+0      	; 0x140 <twi_writeTo+0x76>
 140:	80 91 00 00 	lds	r24, 0x0000
 144:	8f 3f       	cpi	r24, 0xFF	; 255
 146:	01 f0       	breq	.+0      	; 0x148 <twi_writeTo+0x7e>
 148:	80 91 00 00 	lds	r24, 0x0000
 14c:	80 32       	cpi	r24, 0x20	; 32
 14e:	01 f0       	breq	.+0      	; 0x150 <twi_writeTo+0x86>
 150:	80 91 00 00 	lds	r24, 0x0000
 154:	80 33       	cpi	r24, 0x30	; 48
 156:	01 f4       	brne	.+0      	; 0x158 <twi_writeTo+0x8e>
 158:	83 e0       	ldi	r24, 0x03	; 3
 15a:	00 c0       	rjmp	.+0      	; 0x15c <twi_writeTo+0x92>
 15c:	81 e0       	ldi	r24, 0x01	; 1
 15e:	00 c0       	rjmp	.+0      	; 0x160 <twi_writeTo+0x96>
 160:	80 e0       	ldi	r24, 0x00	; 0
 162:	00 c0       	rjmp	.+0      	; 0x164 <twi_writeTo+0x9a>
 164:	82 e0       	ldi	r24, 0x02	; 2
 166:	00 c0       	rjmp	.+0      	; 0x168 <twi_writeTo+0x9e>
 168:	84 e0       	ldi	r24, 0x04	; 4
 16a:	0f 91       	pop	r16
 16c:	08 95       	ret

0000016e <twi_transmit>:
 16e:	61 33       	cpi	r22, 0x31	; 49
 170:	00 f4       	brcc	.+0      	; 0x172 <twi_transmit+0x4>
 172:	20 91 00 00 	lds	r18, 0x0000
 176:	24 30       	cpi	r18, 0x04	; 4
 178:	01 f4       	brne	.+0      	; 0x17a <twi_transmit+0xc>
 17a:	60 93 00 00 	sts	0x0000, r22
 17e:	a0 e0       	ldi	r26, 0x00	; 0
 180:	b0 e0       	ldi	r27, 0x00	; 0
 182:	fc 01       	movw	r30, r24
 184:	00 c0       	rjmp	.+0      	; 0x186 <twi_transmit+0x18>
 186:	91 91       	ld	r25, Z+
 188:	9d 93       	st	X+, r25
 18a:	9e 2f       	mov	r25, r30
 18c:	98 1b       	sub	r25, r24
 18e:	96 17       	cp	r25, r22
 190:	00 f0       	brcs	.+0      	; 0x192 <twi_transmit+0x24>
 192:	80 e0       	ldi	r24, 0x00	; 0
 194:	08 95       	ret
 196:	81 e0       	ldi	r24, 0x01	; 1
 198:	08 95       	ret
 19a:	82 e0       	ldi	r24, 0x02	; 2
 19c:	08 95       	ret

0000019e <twi_attachSlaveRxEvent>:
 19e:	90 93 00 00 	sts	0x0000, r25
 1a2:	80 93 00 00 	sts	0x0000, r24
 1a6:	08 95       	ret

000001a8 <twi_attachSlaveTxEvent>:
 1a8:	90 93 00 00 	sts	0x0000, r25
 1ac:	80 93 00 00 	sts	0x0000, r24
 1b0:	08 95       	ret

000001b2 <twi_reply>:
 1b2:	88 23       	and	r24, r24
 1b4:	01 f0       	breq	.+0      	; 0x1b6 <twi_reply+0x4>
 1b6:	85 ec       	ldi	r24, 0xC5	; 197
 1b8:	00 c0       	rjmp	.+0      	; 0x1ba <twi_reply+0x8>
 1ba:	85 e8       	ldi	r24, 0x85	; 133
 1bc:	80 93 bc 00 	sts	0x00BC, r24
 1c0:	08 95       	ret

000001c2 <twi_stop>:
 1c2:	85 ed       	ldi	r24, 0xD5	; 213
 1c4:	80 93 bc 00 	sts	0x00BC, r24
 1c8:	80 91 bc 00 	lds	r24, 0x00BC
 1cc:	84 fd       	sbrc	r24, 4
 1ce:	00 c0       	rjmp	.+0      	; 0x1d0 <twi_stop+0xe>
 1d0:	10 92 00 00 	sts	0x0000, r1
 1d4:	08 95       	ret

000001d6 <twi_releaseBus>:
 1d6:	85 ec       	ldi	r24, 0xC5	; 197
 1d8:	80 93 bc 00 	sts	0x00BC, r24
 1dc:	10 92 00 00 	sts	0x0000, r1
 1e0:	08 95       	ret

000001e2 <__vector_24>:
 1e2:	1f 92       	push	r1
 1e4:	0f 92       	push	r0
 1e6:	0f b6       	in	r0, 0x3f	; 63
 1e8:	0f 92       	push	r0
 1ea:	11 24       	eor	r1, r1
 1ec:	2f 93       	push	r18
 1ee:	3f 93       	push	r19
 1f0:	4f 93       	push	r20
 1f2:	5f 93       	push	r21
 1f4:	6f 93       	push	r22
 1f6:	7f 93       	push	r23
 1f8:	8f 93       	push	r24
 1fa:	9f 93       	push	r25
 1fc:	af 93       	push	r26
 1fe:	bf 93       	push	r27
 200:	ef 93       	push	r30
 202:	ff 93       	push	r31
 204:	80 91 b9 00 	lds	r24, 0x00B9
 208:	90 e0       	ldi	r25, 0x00	; 0
 20a:	88 7f       	andi	r24, 0xF8	; 248
 20c:	90 70       	andi	r25, 0x00	; 0
 20e:	80 36       	cpi	r24, 0x60	; 96
 210:	91 05       	cpc	r25, r1
 212:	01 f4       	brne	.+0      	; 0x214 <__vector_24+0x32>
 214:	00 c0       	rjmp	.+0      	; 0x216 <__vector_24+0x34>
 216:	81 36       	cpi	r24, 0x61	; 97
 218:	91 05       	cpc	r25, r1
 21a:	04 f4       	brge	.+0      	; 0x21c <__vector_24+0x3a>
 21c:	88 32       	cpi	r24, 0x28	; 40
 21e:	91 05       	cpc	r25, r1
 220:	01 f4       	brne	.+0      	; 0x222 <__vector_24+0x40>
 222:	00 c0       	rjmp	.+0      	; 0x224 <__vector_24+0x42>
 224:	89 32       	cpi	r24, 0x29	; 41
 226:	91 05       	cpc	r25, r1
 228:	04 f4       	brge	.+0      	; 0x22a <__vector_24+0x48>
 22a:	80 31       	cpi	r24, 0x10	; 16
 22c:	91 05       	cpc	r25, r1
 22e:	01 f4       	brne	.+0      	; 0x230 <__vector_24+0x4e>
 230:	00 c0       	rjmp	.+0      	; 0x232 <__vector_24+0x50>
 232:	81 31       	cpi	r24, 0x11	; 17
 234:	91 05       	cpc	r25, r1
 236:	04 f4       	brge	.+0      	; 0x238 <__vector_24+0x56>
 238:	00 97       	sbiw	r24, 0x00	; 0
 23a:	01 f4       	brne	.+0      	; 0x23c <__vector_24+0x5a>
 23c:	00 c0       	rjmp	.+0      	; 0x23e <__vector_24+0x5c>
 23e:	88 30       	cpi	r24, 0x08	; 8
 240:	91 05       	cpc	r25, r1
 242:	01 f0       	breq	.+0      	; 0x244 <__vector_24+0x62>
 244:	00 c0       	rjmp	.+0      	; 0x246 <__vector_24+0x64>
 246:	00 c0       	rjmp	.+0      	; 0x248 <__vector_24+0x66>
 248:	88 31       	cpi	r24, 0x18	; 24
 24a:	91 05       	cpc	r25, r1
 24c:	01 f4       	brne	.+0      	; 0x24e <__vector_24+0x6c>
 24e:	00 c0       	rjmp	.+0      	; 0x250 <__vector_24+0x6e>
 250:	80 32       	cpi	r24, 0x20	; 32
 252:	91 05       	cpc	r25, r1
 254:	01 f0       	breq	.+0      	; 0x256 <__vector_24+0x74>
 256:	00 c0       	rjmp	.+0      	; 0x258 <__vector_24+0x76>
 258:	00 c0       	rjmp	.+0      	; 0x25a <__vector_24+0x78>
 25a:	80 34       	cpi	r24, 0x40	; 64
 25c:	91 05       	cpc	r25, r1
 25e:	01 f4       	brne	.+0      	; 0x260 <__vector_24+0x7e>
 260:	00 c0       	rjmp	.+0      	; 0x262 <__vector_24+0x80>
 262:	81 34       	cpi	r24, 0x41	; 65
 264:	91 05       	cpc	r25, r1
 266:	04 f4       	brge	.+0      	; 0x268 <__vector_24+0x86>
 268:	80 33       	cpi	r24, 0x30	; 48
 26a:	91 05       	cpc	r25, r1
 26c:	01 f4       	brne	.+0      	; 0x26e <__vector_24+0x8c>
 26e:	00 c0       	rjmp	.+0      	; 0x270 <__vector_24+0x8e>
 270:	88 33       	cpi	r24, 0x38	; 56
 272:	91 05       	cpc	r25, r1
 274:	01 f0       	breq	.+0      	; 0x276 <__vector_24+0x94>
 276:	00 c0       	rjmp	.+0      	; 0x278 <__vector_24+0x96>
 278:	00 c0       	rjmp	.+0      	; 0x27a <__vector_24+0x98>
 27a:	80 35       	cpi	r24, 0x50	; 80
 27c:	91 05       	cpc	r25, r1
 27e:	01 f4       	brne	.+0      	; 0x280 <__vector_24+0x9e>
 280:	00 c0       	rjmp	.+0      	; 0x282 <__vector_24+0xa0>
 282:	88 35       	cpi	r24, 0x58	; 88
 284:	91 05       	cpc	r25, r1
 286:	01 f4       	brne	.+0      	; 0x288 <__vector_24+0xa6>
 288:	00 c0       	rjmp	.+0      	; 0x28a <__vector_24+0xa8>
 28a:	88 34       	cpi	r24, 0x48	; 72
 28c:	91 05       	cpc	r25, r1
 28e:	01 f0       	breq	.+0      	; 0x290 <__vector_24+0xae>
 290:	00 c0       	rjmp	.+0      	; 0x292 <__vector_24+0xb0>
 292:	00 c0       	rjmp	.+0      	; 0x294 <__vector_24+0xb2>
 294:	88 39       	cpi	r24, 0x98	; 152
 296:	91 05       	cpc	r25, r1
 298:	01 f4       	brne	.+0      	; 0x29a <__vector_24+0xb8>
 29a:	00 c0       	rjmp	.+0      	; 0x29c <__vector_24+0xba>
 29c:	89 39       	cpi	r24, 0x99	; 153
 29e:	91 05       	cpc	r25, r1
 2a0:	04 f4       	brge	.+0      	; 0x2a2 <__vector_24+0xc0>
 2a2:	88 37       	cpi	r24, 0x78	; 120
 2a4:	91 05       	cpc	r25, r1
 2a6:	01 f4       	brne	.+0      	; 0x2a8 <__vector_24+0xc6>
 2a8:	00 c0       	rjmp	.+0      	; 0x2aa <__vector_24+0xc8>
 2aa:	89 37       	cpi	r24, 0x79	; 121
 2ac:	91 05       	cpc	r25, r1
 2ae:	04 f4       	brge	.+0      	; 0x2b0 <__vector_24+0xce>
 2b0:	88 36       	cpi	r24, 0x68	; 104
 2b2:	91 05       	cpc	r25, r1
 2b4:	01 f4       	brne	.+0      	; 0x2b6 <__vector_24+0xd4>
 2b6:	00 c0       	rjmp	.+0      	; 0x2b8 <__vector_24+0xd6>
 2b8:	80 37       	cpi	r24, 0x70	; 112
 2ba:	91 05       	cpc	r25, r1
 2bc:	01 f0       	breq	.+0      	; 0x2be <__vector_24+0xdc>
 2be:	00 c0       	rjmp	.+0      	; 0x2c0 <__vector_24+0xde>
 2c0:	00 c0       	rjmp	.+0      	; 0x2c2 <__vector_24+0xe0>
 2c2:	88 38       	cpi	r24, 0x88	; 136
 2c4:	91 05       	cpc	r25, r1
 2c6:	01 f4       	brne	.+0      	; 0x2c8 <__vector_24+0xe6>
 2c8:	00 c0       	rjmp	.+0      	; 0x2ca <__vector_24+0xe8>
 2ca:	80 39       	cpi	r24, 0x90	; 144
 2cc:	91 05       	cpc	r25, r1
 2ce:	01 f4       	brne	.+0      	; 0x2d0 <__vector_24+0xee>
 2d0:	00 c0       	rjmp	.+0      	; 0x2d2 <__vector_24+0xf0>
 2d2:	80 38       	cpi	r24, 0x80	; 128
 2d4:	91 05       	cpc	r25, r1
 2d6:	01 f0       	breq	.+0      	; 0x2d8 <__vector_24+0xf6>
 2d8:	00 c0       	rjmp	.+0      	; 0x2da <__vector_24+0xf8>
 2da:	00 c0       	rjmp	.+0      	; 0x2dc <__vector_24+0xfa>
 2dc:	80 3b       	cpi	r24, 0xB0	; 176
 2de:	91 05       	cpc	r25, r1
 2e0:	01 f4       	brne	.+0      	; 0x2e2 <__vector_24+0x100>
 2e2:	00 c0       	rjmp	.+0      	; 0x2e4 <__vector_24+0x102>
 2e4:	81 3b       	cpi	r24, 0xB1	; 177
 2e6:	91 05       	cpc	r25, r1
 2e8:	04 f4       	brge	.+0      	; 0x2ea <__vector_24+0x108>
 2ea:	80 3a       	cpi	r24, 0xA0	; 160
 2ec:	91 05       	cpc	r25, r1
 2ee:	01 f4       	brne	.+0      	; 0x2f0 <__vector_24+0x10e>
 2f0:	00 c0       	rjmp	.+0      	; 0x2f2 <__vector_24+0x110>
 2f2:	88 3a       	cpi	r24, 0xA8	; 168
 2f4:	91 05       	cpc	r25, r1
 2f6:	01 f0       	breq	.+0      	; 0x2f8 <__vector_24+0x116>
 2f8:	00 c0       	rjmp	.+0      	; 0x2fa <__vector_24+0x118>
 2fa:	00 c0       	rjmp	.+0      	; 0x2fc <__vector_24+0x11a>
 2fc:	80 3c       	cpi	r24, 0xC0	; 192
 2fe:	91 05       	cpc	r25, r1
 300:	01 f4       	brne	.+0      	; 0x302 <__vector_24+0x120>
 302:	00 c0       	rjmp	.+0      	; 0x304 <__vector_24+0x122>
 304:	88 3c       	cpi	r24, 0xC8	; 200
 306:	91 05       	cpc	r25, r1
 308:	01 f4       	brne	.+0      	; 0x30a <__vector_24+0x128>
 30a:	00 c0       	rjmp	.+0      	; 0x30c <__vector_24+0x12a>
 30c:	88 3b       	cpi	r24, 0xB8	; 184
 30e:	91 05       	cpc	r25, r1
 310:	01 f0       	breq	.+0      	; 0x312 <__vector_24+0x130>
 312:	00 c0       	rjmp	.+0      	; 0x314 <__vector_24+0x132>
 314:	00 c0       	rjmp	.+0      	; 0x316 <__vector_24+0x134>
 316:	80 91 00 00 	lds	r24, 0x0000
 31a:	80 93 bb 00 	sts	0x00BB, r24
 31e:	00 c0       	rjmp	.+0      	; 0x320 <__vector_24+0x13e>
 320:	90 91 00 00 	lds	r25, 0x0000
 324:	80 91 00 00 	lds	r24, 0x0000
 328:	98 17       	cp	r25, r24
 32a:	00 f4       	brcc	.+0      	; 0x32c <__vector_24+0x14a>
 32c:	80 91 00 00 	lds	r24, 0x0000
 330:	e8 2f       	mov	r30, r24
 332:	f0 e0       	ldi	r31, 0x00	; 0
 334:	e0 50       	subi	r30, 0x00	; 0
 336:	f0 40       	sbci	r31, 0x00	; 0
 338:	90 81       	ld	r25, Z
 33a:	90 93 bb 00 	sts	0x00BB, r25
 33e:	8f 5f       	subi	r24, 0xFF	; 255
 340:	80 93 00 00 	sts	0x0000, r24
 344:	81 e0       	ldi	r24, 0x01	; 1
 346:	00 c0       	rjmp	.+0      	; 0x348 <__vector_24+0x166>
 348:	80 e2       	ldi	r24, 0x20	; 32
 34a:	00 c0       	rjmp	.+0      	; 0x34c <__vector_24+0x16a>
 34c:	80 e3       	ldi	r24, 0x30	; 48
 34e:	80 93 00 00 	sts	0x0000, r24
 352:	00 c0       	rjmp	.+0      	; 0x354 <__vector_24+0x172>
 354:	88 e3       	ldi	r24, 0x38	; 56
 356:	80 93 00 00 	sts	0x0000, r24
 35a:	00 c0       	rjmp	.+0      	; 0x35c <__vector_24+0x17a>
 35c:	80 91 00 00 	lds	r24, 0x0000
 360:	90 91 bb 00 	lds	r25, 0x00BB
 364:	e8 2f       	mov	r30, r24
 366:	f0 e0       	ldi	r31, 0x00	; 0
 368:	e0 50       	subi	r30, 0x00	; 0
 36a:	f0 40       	sbci	r31, 0x00	; 0
 36c:	90 83       	st	Z, r25
 36e:	8f 5f       	subi	r24, 0xFF	; 255
 370:	80 93 00 00 	sts	0x0000, r24
 374:	90 91 00 00 	lds	r25, 0x0000
 378:	80 91 00 00 	lds	r24, 0x0000
 37c:	00 c0       	rjmp	.+0      	; 0x37e <__vector_24+0x19c>
 37e:	80 91 00 00 	lds	r24, 0x0000
 382:	90 91 bb 00 	lds	r25, 0x00BB
 386:	e8 2f       	mov	r30, r24
 388:	f0 e0       	ldi	r31, 0x00	; 0
 38a:	e0 50       	subi	r30, 0x00	; 0
 38c:	f0 40       	sbci	r31, 0x00	; 0
 38e:	90 83       	st	Z, r25
 390:	8f 5f       	subi	r24, 0xFF	; 255
 392:	80 93 00 00 	sts	0x0000, r24
 396:	80 91 00 00 	lds	r24, 0x0000
 39a:	88 23       	and	r24, r24
 39c:	01 f0       	breq	.+0      	; 0x39e <__vector_24+0x1bc>
 39e:	00 c0       	rjmp	.+0      	; 0x3a0 <__vector_24+0x1be>
 3a0:	81 e0       	ldi	r24, 0x01	; 1
 3a2:	80 93 00 00 	sts	0x0000, r24
 3a6:	84 ea       	ldi	r24, 0xA4	; 164
 3a8:	80 93 bc 00 	sts	0x00BC, r24
 3ac:	00 c0       	rjmp	.+0      	; 0x3ae <__vector_24+0x1cc>
 3ae:	83 e0       	ldi	r24, 0x03	; 3
 3b0:	80 93 00 00 	sts	0x0000, r24
 3b4:	10 92 00 00 	sts	0x0000, r1
 3b8:	00 c0       	rjmp	.+0      	; 0x3ba <__vector_24+0x1d8>
 3ba:	80 91 00 00 	lds	r24, 0x0000
 3be:	80 33       	cpi	r24, 0x30	; 48
 3c0:	00 f0       	brcs	.+0      	; 0x3c2 <__vector_24+0x1e0>
 3c2:	00 c0       	rjmp	.+0      	; 0x3c4 <__vector_24+0x1e2>
 3c4:	80 91 00 00 	lds	r24, 0x0000
 3c8:	90 91 bb 00 	lds	r25, 0x00BB
 3cc:	e8 2f       	mov	r30, r24
 3ce:	f0 e0       	ldi	r31, 0x00	; 0
 3d0:	e0 50       	subi	r30, 0x00	; 0
 3d2:	f0 40       	sbci	r31, 0x00	; 0
 3d4:	90 83       	st	Z, r25
 3d6:	8f 5f       	subi	r24, 0xFF	; 255
 3d8:	80 93 00 00 	sts	0x0000, r24
 3dc:	00 c0       	rjmp	.+0      	; 0x3de <__vector_24+0x1fc>
 3de:	80 91 00 00 	lds	r24, 0x0000
 3e2:	80 33       	cpi	r24, 0x30	; 48
 3e4:	00 f4       	brcc	.+0      	; 0x3e6 <__vector_24+0x204>
 3e6:	e0 91 00 00 	lds	r30, 0x0000
 3ea:	f0 e0       	ldi	r31, 0x00	; 0
 3ec:	e0 50       	subi	r30, 0x00	; 0
 3ee:	f0 40       	sbci	r31, 0x00	; 0
 3f0:	10 82       	st	Z, r1
 3f2:	0e 94 00 00 	call	0	; 0x0 <twi_init>
 3f6:	60 91 00 00 	lds	r22, 0x0000
 3fa:	e0 91 00 00 	lds	r30, 0x0000
 3fe:	f0 91 00 00 	lds	r31, 0x0000
 402:	80 e0       	ldi	r24, 0x00	; 0
 404:	90 e0       	ldi	r25, 0x00	; 0
 406:	70 e0       	ldi	r23, 0x00	; 0
 408:	09 95       	icall
 40a:	10 92 00 00 	sts	0x0000, r1
 40e:	0e 94 00 00 	call	0	; 0x0 <twi_init>
 412:	00 c0       	rjmp	.+0      	; 0x414 <__vector_24+0x232>
 414:	84 e0       	ldi	r24, 0x04	; 4
 416:	80 93 00 00 	sts	0x0000, r24
 41a:	10 92 00 00 	sts	0x0000, r1
 41e:	10 92 00 00 	sts	0x0000, r1
 422:	e0 91 00 00 	lds	r30, 0x0000
 426:	f0 91 00 00 	lds	r31, 0x0000
 42a:	09 95       	icall
 42c:	80 91 00 00 	lds	r24, 0x0000
 430:	88 23       	and	r24, r24
 432:	01 f4       	brne	.+0      	; 0x434 <__vector_24+0x252>
 434:	81 e0       	ldi	r24, 0x01	; 1
 436:	80 93 00 00 	sts	0x0000, r24
 43a:	10 92 00 00 	sts	0x0000, r1
 43e:	80 91 00 00 	lds	r24, 0x0000
 442:	e8 2f       	mov	r30, r24
 444:	f0 e0       	ldi	r31, 0x00	; 0
 446:	e0 50       	subi	r30, 0x00	; 0
 448:	f0 40       	sbci	r31, 0x00	; 0
 44a:	90 81       	ld	r25, Z
 44c:	90 93 bb 00 	sts	0x00BB, r25
 450:	8f 5f       	subi	r24, 0xFF	; 255
 452:	80 93 00 00 	sts	0x0000, r24
 456:	90 91 00 00 	lds	r25, 0x0000
 45a:	80 91 00 00 	lds	r24, 0x0000
 45e:	98 17       	cp	r25, r24
 460:	00 f4       	brcc	.+0      	; 0x462 <__vector_24+0x280>
 462:	00 c0       	rjmp	.+0      	; 0x464 <__vector_24+0x282>
 464:	80 e0       	ldi	r24, 0x00	; 0
 466:	0e 94 00 00 	call	0	; 0x0 <twi_init>
 46a:	00 c0       	rjmp	.+0      	; 0x46c <__vector_24+0x28a>
 46c:	81 e0       	ldi	r24, 0x01	; 1
 46e:	0e 94 00 00 	call	0	; 0x0 <twi_init>
 472:	10 92 00 00 	sts	0x0000, r1
 476:	00 c0       	rjmp	.+0      	; 0x478 <__vector_24+0x296>
 478:	10 92 00 00 	sts	0x0000, r1
 47c:	0e 94 00 00 	call	0	; 0x0 <twi_init>
 480:	ff 91       	pop	r31
 482:	ef 91       	pop	r30
 484:	bf 91       	pop	r27
 486:	af 91       	pop	r26
 488:	9f 91       	pop	r25
 48a:	8f 91       	pop	r24
 48c:	7f 91       	pop	r23
 48e:	6f 91       	pop	r22
 490:	5f 91       	pop	r21
 492:	4f 91       	pop	r20
 494:	3f 91       	pop	r19
 496:	2f 91       	pop	r18
 498:	0f 90       	pop	r0
 49a:	0f be       	out	0x3f, r0	; 63
 49c:	0f 90       	pop	r0
 49e:	1f 90       	pop	r1
 4a0:	18 95       	reti

Wire.o:     file format elf32-avr

Sections:
Idx Name          Size      VMA       LMA       File off  Algn
  0 .text         00000270  00000000  00000000  00000034  2**0
                  CONTENTS, ALLOC, LOAD, RELOC, READONLY, CODE
  1 .data         00000020  00000000  00000000  000002a4  2**0
                  CONTENTS, ALLOC, LOAD, RELOC, DATA
  2 .bss          00000076  00000000  00000000  000002c4  2**0
                  ALLOC
  3 .text.startup 0000002e  00000000  00000000  000002c4  2**0
                  CONTENTS, ALLOC, LOAD, RELOC, READONLY, CODE
  4 .ctors        00000002  00000000  00000000  000002f2  2**0
                  CONTENTS, ALLOC, LOAD, RELOC, READONLY, DATA

Disassembly of section .text:

00000000 <_ZN7TwoWire9availableEv>:
   0:	80 91 00 00 	lds	r24, 0x0000
   4:	90 e0       	ldi	r25, 0x00	; 0
   6:	20 91 00 00 	lds	r18, 0x0000
   a:	82 1b       	sub	r24, r18
   c:	91 09       	sbc	r25, r1
   e:	08 95       	ret

00000010 <_ZN7TwoWire4readEv>:
  10:	20 91 00 00 	lds	r18, 0x0000
  14:	80 91 00 00 	lds	r24, 0x0000
  18:	28 17       	cp	r18, r24
  1a:	00 f4       	brcc	.+0      	; 0x1c <_ZN7TwoWire4readEv+0xc>
  1c:	e2 2f       	mov	r30, r18
  1e:	f0 e0       	ldi	r31, 0x00	; 0
  20:	e0 50       	subi	r30, 0x00	; 0
  22:	f0 40       	sbci	r31, 0x00	; 0
  24:	80 81       	ld	r24, Z
  26:	90 e0       	ldi	r25, 0x00	; 0
  28:	2f 5f       	subi	r18, 0xFF	; 255
  2a:	20 93 00 00 	sts	0x0000, r18
  2e:	08 95       	ret
  30:	8f ef       	ldi	r24, 0xFF	; 255
  32:	9f ef       	ldi	r25, 0xFF	; 255
  34:	08 95       	ret

00000036 <_ZN7TwoWire4peekEv>:
  36:	e0 91 00 00 	lds	r30, 0x0000
  3a:	80 91 00 00 	lds	r24, 0x0000
  3e:	e8 17       	cp	r30, r24
  40:	00 f4       	brcc	.+0      	; 0x42 <_ZN7TwoWire4peekEv+0xc>
  42:	f0 e0       	ldi	r31, 0x00	; 0
  44:	e0 50       	subi	r30, 0x00	; 0
  46:	f0 40       	sbci	r31, 0x00	; 0
  48:	80 81       	ld	r24, Z
  4a:	90 e0       	ldi	r25, 0x00	; 0
  4c:	08 95       	ret
  4e:	8f ef       	ldi	r24, 0xFF	; 255
  50:	9f ef       	ldi	r25, 0xFF	; 255
  52:	08 95       	ret

00000054 <_ZN7TwoWire5flushEv>:
  54:	08 95       	ret

00000056 <_ZN7TwoWire16onRequestServiceEv>:
  56:	e0 91 00 00 	lds	r30, 0x0000
  5a:	f0 91 00 00 	lds	r31, 0x0000
  5e:	30 97       	sbiw	r30, 0x00	; 0
  60:	01 f0       	breq	.+0      	; 0x62 <_ZN7TwoWire16onRequestServiceEv+0xc>
  62:	10 92 00 00 	sts	0x0000, r1
  66:	10 92 00 00 	sts	0x0000, r1
  6a:	09 95       	icall
  6c:	08 95       	ret

0000006e <_ZN7TwoWire5writeEPKhj>:
  6e:	cf 92       	push	r12
  70:	df 92       	push	r13
  72:	ef 92       	push	r14
  74:	ff 92       	push	r15
  76:	0f 93       	push	r16
  78:	1f 93       	push	r17
  7a:	cf 93       	push	r28
  7c:	df 93       	push	r29
  7e:	6c 01       	movw	r12, r24
  80:	cb 01       	movw	r24, r22
  82:	8a 01       	movw	r16, r20
  84:	20 91 00 00 	lds	r18, 0x0000
  88:	22 23       	and	r18, r18
  8a:	01 f0       	breq	.+0      	; 0x8c <_ZN7TwoWire5writeEPKhj+0x1e>
  8c:	7b 01       	movw	r14, r22
  8e:	c0 e0       	ldi	r28, 0x00	; 0
  90:	d0 e0       	ldi	r29, 0x00	; 0
  92:	00 c0       	rjmp	.+0      	; 0x94 <_ZN7TwoWire5writeEPKhj+0x26>
  94:	d7 01       	movw	r26, r14
  96:	6d 91       	ld	r22, X+
  98:	7d 01       	movw	r14, r26
  9a:	d6 01       	movw	r26, r12
  9c:	ed 91       	ld	r30, X+
  9e:	fc 91       	ld	r31, X
  a0:	01 90       	ld	r0, Z+
  a2:	f0 81       	ld	r31, Z
  a4:	e0 2d       	mov	r30, r0
  a6:	c6 01       	movw	r24, r12
  a8:	09 95       	icall
  aa:	21 96       	adiw	r28, 0x01	; 1
  ac:	c0 17       	cp	r28, r16
  ae:	d1 07       	cpc	r29, r17
  b0:	01 f4       	brne	.+0      	; 0xb2 <_ZN7TwoWire5writeEPKhj+0x44>
  b2:	00 c0       	rjmp	.+0      	; 0xb4 <_ZN7TwoWire5writeEPKhj+0x46>
  b4:	64 2f       	mov	r22, r20
  b6:	0e 94 00 00 	call	0	; 0x0 <_ZN7TwoWire9availableEv>
  ba:	c8 01       	movw	r24, r16
  bc:	df 91       	pop	r29
  be:	cf 91       	pop	r28
  c0:	1f 91       	pop	r17
  c2:	0f 91       	pop	r16
  c4:	ff 90       	pop	r15
  c6:	ef 90       	pop	r14
  c8:	df 90       	pop	r13
  ca:	cf 90       	pop	r12
  cc:	08 95       	ret

000000ce <_ZN7TwoWire5writeEh>:
  ce:	cf 93       	push	r28
  d0:	df 93       	push	r29
  d2:	0f 92       	push	r0
  d4:	cd b7       	in	r28, 0x3d	; 61
  d6:	de b7       	in	r29, 0x3e	; 62
  d8:	69 83       	std	Y+1, r22	; 0x01
  da:	20 91 00 00 	lds	r18, 0x0000
  de:	22 23       	and	r18, r18
  e0:	01 f0       	breq	.+0      	; 0xe2 <_ZN7TwoWire5writeEh+0x14>
  e2:	20 91 00 00 	lds	r18, 0x0000
  e6:	20 33       	cpi	r18, 0x30	; 48
  e8:	00 f0       	brcs	.+0      	; 0xea <_ZN7TwoWire5writeEh+0x1c>
  ea:	21 e0       	ldi	r18, 0x01	; 1
  ec:	30 e0       	ldi	r19, 0x00	; 0
  ee:	fc 01       	movw	r30, r24
  f0:	33 83       	std	Z+3, r19	; 0x03
  f2:	22 83       	std	Z+2, r18	; 0x02
  f4:	80 e0       	ldi	r24, 0x00	; 0
  f6:	90 e0       	ldi	r25, 0x00	; 0
  f8:	00 c0       	rjmp	.+0      	; 0xfa <_ZN7TwoWire5writeEh+0x2c>
  fa:	80 91 00 00 	lds	r24, 0x0000
  fe:	e8 2f       	mov	r30, r24
 100:	f0 e0       	ldi	r31, 0x00	; 0
 102:	e0 50       	subi	r30, 0x00	; 0
 104:	f0 40       	sbci	r31, 0x00	; 0
 106:	99 81       	ldd	r25, Y+1	; 0x01
 108:	90 83       	st	Z, r25
 10a:	8f 5f       	subi	r24, 0xFF	; 255
 10c:	80 93 00 00 	sts	0x0000, r24
 110:	80 93 00 00 	sts	0x0000, r24
 114:	00 c0       	rjmp	.+0      	; 0x116 <_ZN7TwoWire5writeEh+0x48>
 116:	ce 01       	movw	r24, r28
 118:	01 96       	adiw	r24, 0x01	; 1
 11a:	61 e0       	ldi	r22, 0x01	; 1
 11c:	0e 94 00 00 	call	0	; 0x0 <_ZN7TwoWire9availableEv>
 120:	81 e0       	ldi	r24, 0x01	; 1
 122:	90 e0       	ldi	r25, 0x00	; 0
 124:	0f 90       	pop	r0
 126:	df 91       	pop	r29
 128:	cf 91       	pop	r28
 12a:	08 95       	ret

0000012c <_ZN7TwoWire16onReceiveServiceEPhi>:
 12c:	cf 93       	push	r28
 12e:	df 93       	push	r29
 130:	ac 01       	movw	r20, r24
 132:	20 91 00 00 	lds	r18, 0x0000
 136:	30 91 00 00 	lds	r19, 0x0000
 13a:	21 15       	cp	r18, r1
 13c:	31 05       	cpc	r19, r1
 13e:	01 f0       	breq	.+0      	; 0x140 <_ZN7TwoWire16onReceiveServiceEPhi+0x14>
 140:	90 91 00 00 	lds	r25, 0x0000
 144:	80 91 00 00 	lds	r24, 0x0000
 148:	98 17       	cp	r25, r24
 14a:	00 f0       	brcs	.+0      	; 0x14c <_ZN7TwoWire16onReceiveServiceEPhi+0x20>
 14c:	a0 e0       	ldi	r26, 0x00	; 0
 14e:	00 c0       	rjmp	.+0      	; 0x150 <_ZN7TwoWire16onReceiveServiceEPhi+0x24>
 150:	fa 01       	movw	r30, r20
 152:	e8 0f       	add	r30, r24
 154:	f9 1f       	adc	r31, r25
 156:	e0 81       	ld	r30, Z
 158:	80 50       	subi	r24, 0x00	; 0
 15a:	90 40       	sbci	r25, 0x00	; 0
 15c:	ec 01       	movw	r28, r24
 15e:	e8 83       	st	Y, r30
 160:	af 5f       	subi	r26, 0xFF	; 255
 162:	8a 2f       	mov	r24, r26
 164:	90 e0       	ldi	r25, 0x00	; 0
 166:	86 17       	cp	r24, r22
 168:	97 07       	cpc	r25, r23
 16a:	04 f0       	brlt	.+0      	; 0x16c <_ZN7TwoWire16onReceiveServiceEPhi+0x40>
 16c:	10 92 00 00 	sts	0x0000, r1
 170:	60 93 00 00 	sts	0x0000, r22
 174:	cb 01       	movw	r24, r22
 176:	f9 01       	movw	r30, r18
 178:	09 95       	icall
 17a:	df 91       	pop	r29
 17c:	cf 91       	pop	r28
 17e:	08 95       	ret

00000180 <_ZN7TwoWireC1Ev>:
 180:	fc 01       	movw	r30, r24
 182:	13 82       	std	Z+3, r1	; 0x03
 184:	12 82       	std	Z+2, r1	; 0x02
 186:	48 ee       	ldi	r20, 0xE8	; 232
 188:	53 e0       	ldi	r21, 0x03	; 3
 18a:	60 e0       	ldi	r22, 0x00	; 0
 18c:	70 e0       	ldi	r23, 0x00	; 0
 18e:	44 83       	std	Z+4, r20	; 0x04
 190:	55 83       	std	Z+5, r21	; 0x05
 192:	66 83       	std	Z+6, r22	; 0x06
 194:	77 83       	std	Z+7, r23	; 0x07
 196:	80 e0       	ldi	r24, 0x00	; 0
 198:	90 e0       	ldi	r25, 0x00	; 0
 19a:	91 83       	std	Z+1, r25	; 0x01
 19c:	80 83       	st	Z, r24
 19e:	08 95       	ret

000001a0 <_ZN7TwoWire5beginEv>:
 1a0:	10 92 00 00 	sts	0x0000, r1
 1a4:	10 92 00 00 	sts	0x0000, r1
 1a8:	10 92 00 00 	sts	0x0000, r1
 1ac:	10 92 00 00 	sts	0x0000, r1
 1b0:	0e 94 00 00 	call	0	; 0x0 <_ZN7TwoWire9availableEv>
 1b4:	08 95       	ret

000001b6 <_ZN7TwoWire5beginEh>:
 1b6:	cf 93       	push	r28
 1b8:	df 93       	push	r29
 1ba:	ec 01       	movw	r28, r24
 1bc:	86 2f       	mov	r24, r22
 1be:	0e 94 00 00 	call	0	; 0x0 <_ZN7TwoWire9availableEv>
 1c2:	80 e0       	ldi	r24, 0x00	; 0
 1c4:	90 e0       	ldi	r25, 0x00	; 0
 1c6:	0e 94 00 00 	call	0	; 0x0 <_ZN7TwoWire9availableEv>
 1ca:	80 e0       	ldi	r24, 0x00	; 0
 1cc:	90 e0       	ldi	r25, 0x00	; 0
 1ce:	0e 94 00 00 	call	0	; 0x0 <_ZN7TwoWire9availableEv>
 1d2:	ce 01       	movw	r24, r28
 1d4:	0e 94 00 00 	call	0	; 0x0 <_ZN7TwoWire9availableEv>
 1d8:	df 91       	pop	r29
 1da:	cf 91       	pop	r28
 1dc:	08 95       	ret

000001de <_ZN7TwoWire5beginEi>:
 1de:	0e 94 00 00 	call	0	; 0x0 <_ZN7TwoWire9availableEv>
 1e2:	08 95       	ret

000001e4 <_ZN7TwoWire11requestFromEhhh>:
 1e4:	86 2f       	mov	r24, r22
 1e6:	41 33       	cpi	r20, 0x31	; 49
 1e8:	00 f0       	brcs	.+0      	; 0x1ea <_ZN7TwoWire11requestFromEhhh+0x6>
 1ea:	40 e3       	ldi	r20, 0x30	; 48
 1ec:	60 e0       	ldi	r22, 0x00	; 0
 1ee:	70 e0       	ldi	r23, 0x00	; 0
 1f0:	0e 94 00 00 	call	0	; 0x0 <_ZN7TwoWire9availableEv>
 1f4:	10 92 00 00 	sts	0x0000, r1
 1f8:	80 93 00 00 	sts	0x0000, r24
 1fc:	08 95       	ret

000001fe <_ZN7TwoWire11requestFromEhh>:
 1fe:	21 e0       	ldi	r18, 0x01	; 1
 200:	0e 94 00 00 	call	0	; 0x0 <_ZN7TwoWire9availableEv>
 204:	08 95       	ret

00000206 <_ZN7TwoWire11requestFromEii>:
 206:	21 e0       	ldi	r18, 0x01	; 1
 208:	0e 94 00 00 	call	0	; 0x0 <_ZN7TwoWire9availableEv>
 20c:	08 95       	ret

0000020e <_ZN7TwoWire11requestFromEiii>:
 20e:	0e 94 00 00 	call	0	; 0x0 <_ZN7TwoWire9availableEv>
 212:	08 95       	ret

00000214 <_ZN7TwoWire17beginTransmissionEh>:
 214:	81 e0       	ldi	r24, 0x01	; 1
 216:	80 93 00 00 	sts	0x0000, r24
 21a:	60 93 00 00 	sts	0x0000, r22
 21e:	10 92 00 00 	sts	0x0000, r1
 222:	10 92 00 00 	sts	0x0000, r1
 226:	08 95       	ret

00000228 <_ZN7TwoWire17beginTransmissionEi>:
 228:	0e 94 00 00 	call	0	; 0x0 <_ZN7TwoWire9availableEv>
 22c:	08 95       	ret

0000022e <_ZN7TwoWire15endTransmissionEh>:
 22e:	0f 93       	push	r16
 230:	06 2f       	mov	r16, r22
 232:	80 91 00 00 	lds	r24, 0x0000
 236:	60 e0       	ldi	r22, 0x00	; 0
 238:	70 e0       	ldi	r23, 0x00	; 0
 23a:	40 91 00 00 	lds	r20, 0x0000
 23e:	21 e0       	ldi	r18, 0x01	; 1
 240:	0e 94 00 00 	call	0	; 0x0 <_ZN7TwoWire9availableEv>
 244:	10 92 00 00 	sts	0x0000, r1
 248:	10 92 00 00 	sts	0x0000, r1
 24c:	10 92 00 00 	sts	0x0000, r1
 250:	0f 91       	pop	r16
 252:	08 95       	ret

00000254 <_ZN7TwoWire15endTransmissionEv>:
 254:	61 e0       	ldi	r22, 0x01	; 1
 256:	0e 94 00 00 	call	0	; 0x0 <_ZN7TwoWire9availableEv>
 25a:	08 95       	ret

0000025c <_ZN7TwoWire9onReceiveEPFviE>:
 25c:	70 93 00 00 	sts	0x0000, r23
 260:	60 93 00 00 	sts	0x0000, r22
 264:	08 95       	ret

00000266 <_ZN7TwoWire9onRequestEPFvvE>:
 266:	70 93 00 00 	sts	0x0000, r23
 26a:	60 93 00 00 	sts	0x0000, r22
 26e:	08 95       	ret

Disassembly of section .text.startup:

00000000 <_GLOBAL__sub_I__ZN7TwoWire8rxBufferE>:
   0:	10 92 00 00 	sts	0x0000, r1
   4:	10 92 00 00 	sts	0x0000, r1
   8:	88 ee       	ldi	r24, 0xE8	; 232
   a:	93 e0       	ldi	r25, 0x03	; 3
   c:	a0 e0       	ldi	r26, 0x00	; 0
   e:	b0 e0       	ldi	r27, 0x00	; 0
  10:	80 93 00 00 	sts	0x0000, r24
  14:	90 93 00 00 	sts	0x0000, r25
  18:	a0 93 00 00 	sts	0x0000, r26
  1c:	b0 93 00 00 	sts	0x0000, r27
  20:	80 e0       	ldi	r24, 0x00	; 0
  22:	90 e0       	ldi	r25, 0x00	; 0
  24:	90 93 00 00 	sts	0x0000, r25
  28:	80 93 00 00 	sts	0x0000, r24
  2c:	08 95       	ret

Stepper.o:     file format elf32-avr

Sections:
Idx Name          Size      VMA       LMA       File off  Algn
  0 .text         000002de  00000000  00000000  00000034  2**0
                  CONTENTS, ALLOC, LOAD, RELOC, READONLY, CODE
  1 .data         00000000  00000000  00000000  00000312  2**0
                  CONTENTS, ALLOC, LOAD, DATA
  2 .bss          00000000  00000000  00000000  00000312  2**0
                  ALLOC

Disassembly of section .text:

00000000 <_ZN7StepperC1Eiii>:
   0:	cf 93       	push	r28
   2:	df 93       	push	r29
   4:	ec 01       	movw	r28, r24
   6:	84 2f       	mov	r24, r20
   8:	1d 86       	std	Y+13, r1	; 0x0d
   a:	1c 86       	std	Y+12, r1	; 0x0c
   c:	1b 82       	std	Y+3, r1	; 0x03
   e:	1a 82       	std	Y+2, r1	; 0x02
  10:	19 82       	std	Y+1, r1	; 0x01
  12:	18 82       	st	Y, r1
  14:	1e 8a       	std	Y+22, r1	; 0x16
  16:	1f 8a       	std	Y+23, r1	; 0x17
  18:	18 8e       	std	Y+24, r1	; 0x18
  1a:	19 8e       	std	Y+25, r1	; 0x19
  1c:	79 87       	std	Y+9, r23	; 0x09
  1e:	68 87       	std	Y+8, r22	; 0x08
  20:	4e 87       	std	Y+14, r20	; 0x0e
  22:	5f 87       	std	Y+15, r21	; 0x0f
  24:	39 8b       	std	Y+17, r19	; 0x11
  26:	28 8b       	std	Y+16, r18	; 0x10
  28:	61 e0       	ldi	r22, 0x01	; 1
  2a:	0e 94 00 00 	call	0	; 0x0 <_ZN7StepperC1Eiii>
  2e:	88 89       	ldd	r24, Y+16	; 0x10
  30:	61 e0       	ldi	r22, 0x01	; 1
  32:	0e 94 00 00 	call	0	; 0x0 <_ZN7StepperC1Eiii>
  36:	1b 8a       	std	Y+19, r1	; 0x13
  38:	1a 8a       	std	Y+18, r1	; 0x12
  3a:	1d 8a       	std	Y+21, r1	; 0x15
  3c:	1c 8a       	std	Y+20, r1	; 0x14
  3e:	82 e0       	ldi	r24, 0x02	; 2
  40:	90 e0       	ldi	r25, 0x00	; 0
  42:	9b 87       	std	Y+11, r25	; 0x0b
  44:	8a 87       	std	Y+10, r24	; 0x0a
  46:	df 91       	pop	r29
  48:	cf 91       	pop	r28
  4a:	08 95       	ret

0000004c <_ZN7StepperC1Eiiiii>:
  4c:	ef 92       	push	r14
  4e:	ff 92       	push	r15
  50:	0f 93       	push	r16
  52:	1f 93       	push	r17
  54:	cf 93       	push	r28
  56:	df 93       	push	r29
  58:	ec 01       	movw	r28, r24
  5a:	84 2f       	mov	r24, r20
  5c:	1d 86       	std	Y+13, r1	; 0x0d
  5e:	1c 86       	std	Y+12, r1	; 0x0c
  60:	1b 82       	std	Y+3, r1	; 0x03
  62:	1a 82       	std	Y+2, r1	; 0x02
  64:	19 82       	std	Y+1, r1	; 0x01
  66:	18 82       	st	Y, r1
  68:	1e 8a       	std	Y+22, r1	; 0x16
  6a:	1f 8a       	std	Y+23, r1	; 0x17
  6c:	18 8e       	std	Y+24, r1	; 0x18
  6e:	19 8e       	std	Y+25, r1	; 0x19
  70:	79 87       	std	Y+9, r23	; 0x09
  72:	68 87       	std	Y+8, r22	; 0x08
  74:	4e 87       	std	Y+14, r20	; 0x0e
  76:	5f 87       	std	Y+15, r21	; 0x0f
  78:	39 8b       	std	Y+17, r19	; 0x11
  7a:	28 8b       	std	Y+16, r18	; 0x10
  7c:	1b 8b       	std	Y+19, r17	; 0x13
  7e:	0a 8b       	std	Y+18, r16	; 0x12
  80:	fd 8a       	std	Y+21, r15	; 0x15
  82:	ec 8a       	std	Y+20, r14	; 0x14
  84:	61 e0       	ldi	r22, 0x01	; 1
  86:	0e 94 00 00 	call	0	; 0x0 <_ZN7StepperC1Eiii>
  8a:	88 89       	ldd	r24, Y+16	; 0x10
  8c:	61 e0       	ldi	r22, 0x01	; 1
  8e:	0e 94 00 00 	call	0	; 0x0 <_ZN7StepperC1Eiii>
  92:	8a 89       	ldd	r24, Y+18	; 0x12
  94:	61 e0       	ldi	r22, 0x01	; 1
  96:	0e 94 00 00 	call	0	; 0x0 <_ZN7StepperC1Eiii>
  9a:	8c 89       	ldd	r24, Y+20	; 0x14
  9c:	61 e0       	ldi	r22, 0x01	; 1
  9e:	0e 94 00 00 	call	0	; 0x0 <_ZN7StepperC1Eiii>
  a2:	84 e0       	ldi	r24, 0x04	; 4
  a4:	90 e0       	ldi	r25, 0x00	; 0
  a6:	9b 87       	std	Y+11, r25	; 0x0b
  a8:	8a 87       	std	Y+10, r24	; 0x0a
  aa:	df 91       	pop	r29
  ac:	cf 91       	pop	r28
  ae:	1f 91       	pop	r17
  b0:	0f 91       	pop	r16
  b2:	ff 90       	pop	r15
  b4:	ef 90       	pop	r14
  b6:	08 95       	ret

000000b8 <_ZN7Stepper8setSpeedEl>:
  b8:	cf 92       	push	r12
  ba:	df 92       	push	r13
  bc:	ef 92       	push	r14
  be:	ff 92       	push	r15
  c0:	cf 93       	push	r28
  c2:	df 93       	push	r29
  c4:	ec 01       	movw	r28, r24
  c6:	6a 01       	movw	r12, r20
  c8:	7b 01       	movw	r14, r22
  ca:	28 85       	ldd	r18, Y+8	; 0x08
  cc:	39 85       	ldd	r19, Y+9	; 0x09
  ce:	44 27       	eor	r20, r20
  d0:	37 fd       	sbrc	r19, 7
  d2:	40 95       	com	r20
  d4:	54 2f       	mov	r21, r20
  d6:	60 e6       	ldi	r22, 0x60	; 96
  d8:	7a ee       	ldi	r23, 0xEA	; 234
  da:	80 e0       	ldi	r24, 0x00	; 0
  dc:	90 e0       	ldi	r25, 0x00	; 0
  de:	0e 94 00 00 	call	0	; 0x0 <_ZN7StepperC1Eiii>
  e2:	ca 01       	movw	r24, r20
  e4:	b9 01       	movw	r22, r18
  e6:	a7 01       	movw	r20, r14
  e8:	96 01       	movw	r18, r12
  ea:	0e 94 00 00 	call	0	; 0x0 <_ZN7StepperC1Eiii>
  ee:	2c 83       	std	Y+4, r18	; 0x04
  f0:	3d 83       	std	Y+5, r19	; 0x05
  f2:	4e 83       	std	Y+6, r20	; 0x06
  f4:	5f 83       	std	Y+7, r21	; 0x07
  f6:	df 91       	pop	r29
  f8:	cf 91       	pop	r28
  fa:	ff 90       	pop	r15
  fc:	ef 90       	pop	r14
  fe:	df 90       	pop	r13
 100:	cf 90       	pop	r12
 102:	08 95       	ret

00000104 <_ZN7Stepper9stepMotorEi>:
 104:	0f 93       	push	r16
 106:	1f 93       	push	r17
 108:	cf 93       	push	r28
 10a:	df 93       	push	r29
 10c:	ec 01       	movw	r28, r24
 10e:	8b 01       	movw	r16, r22
 110:	8a 85       	ldd	r24, Y+10	; 0x0a
 112:	9b 85       	ldd	r25, Y+11	; 0x0b
 114:	82 30       	cpi	r24, 0x02	; 2
 116:	91 05       	cpc	r25, r1
 118:	01 f4       	brne	.+0      	; 0x11a <_ZN7Stepper9stepMotorEi+0x16>
 11a:	61 30       	cpi	r22, 0x01	; 1
 11c:	71 05       	cpc	r23, r1
 11e:	01 f0       	breq	.+0      	; 0x120 <_ZN7Stepper9stepMotorEi+0x1c>
 120:	62 30       	cpi	r22, 0x02	; 2
 122:	71 05       	cpc	r23, r1
 124:	04 f4       	brge	.+0      	; 0x126 <_ZN7Stepper9stepMotorEi+0x22>
 126:	61 15       	cp	r22, r1
 128:	71 05       	cpc	r23, r1
 12a:	01 f0       	breq	.+0      	; 0x12c <_ZN7Stepper9stepMotorEi+0x28>
 12c:	00 c0       	rjmp	.+0      	; 0x12e <_ZN7Stepper9stepMotorEi+0x2a>
 12e:	62 30       	cpi	r22, 0x02	; 2
 130:	71 05       	cpc	r23, r1
 132:	01 f0       	breq	.+0      	; 0x134 <_ZN7Stepper9stepMotorEi+0x30>
 134:	63 30       	cpi	r22, 0x03	; 3
 136:	71 05       	cpc	r23, r1
 138:	01 f4       	brne	.+0      	; 0x13a <_ZN7Stepper9stepMotorEi+0x36>
 13a:	00 c0       	rjmp	.+0      	; 0x13c <_ZN7Stepper9stepMotorEi+0x38>
 13c:	8e 85       	ldd	r24, Y+14	; 0x0e
 13e:	60 e0       	ldi	r22, 0x00	; 0
 140:	00 c0       	rjmp	.+0      	; 0x142 <_ZN7Stepper9stepMotorEi+0x3e>
 142:	8e 85       	ldd	r24, Y+14	; 0x0e
 144:	61 e0       	ldi	r22, 0x01	; 1
 146:	0e 94 00 00 	call	0	; 0x0 <_ZN7StepperC1Eiii>
 14a:	88 89       	ldd	r24, Y+16	; 0x10
 14c:	61 e0       	ldi	r22, 0x01	; 1
 14e:	00 c0       	rjmp	.+0      	; 0x150 <_ZN7Stepper9stepMotorEi+0x4c>
 150:	8e 85       	ldd	r24, Y+14	; 0x0e
 152:	61 e0       	ldi	r22, 0x01	; 1
 154:	00 c0       	rjmp	.+0      	; 0x156 <_ZN7Stepper9stepMotorEi+0x52>
 156:	8e 85       	ldd	r24, Y+14	; 0x0e
 158:	60 e0       	ldi	r22, 0x00	; 0
 15a:	0e 94 00 00 	call	0	; 0x0 <_ZN7StepperC1Eiii>
 15e:	88 89       	ldd	r24, Y+16	; 0x10
 160:	60 e0       	ldi	r22, 0x00	; 0
 162:	0e 94 00 00 	call	0	; 0x0 <_ZN7StepperC1Eiii>
 166:	8a 85       	ldd	r24, Y+10	; 0x0a
 168:	9b 85       	ldd	r25, Y+11	; 0x0b
 16a:	84 30       	cpi	r24, 0x04	; 4
 16c:	91 05       	cpc	r25, r1
 16e:	01 f4       	brne	.+0      	; 0x170 <_ZN7Stepper9stepMotorEi+0x6c>
 170:	01 30       	cpi	r16, 0x01	; 1
 172:	11 05       	cpc	r17, r1
 174:	01 f0       	breq	.+0      	; 0x176 <_ZN7Stepper9stepMotorEi+0x72>
 176:	02 30       	cpi	r16, 0x02	; 2
 178:	11 05       	cpc	r17, r1
 17a:	04 f4       	brge	.+0      	; 0x17c <_ZN7Stepper9stepMotorEi+0x78>
 17c:	01 15       	cp	r16, r1
 17e:	11 05       	cpc	r17, r1
 180:	01 f0       	breq	.+0      	; 0x182 <_ZN7Stepper9stepMotorEi+0x7e>
 182:	00 c0       	rjmp	.+0      	; 0x184 <_ZN7Stepper9stepMotorEi+0x80>
 184:	02 30       	cpi	r16, 0x02	; 2
 186:	11 05       	cpc	r17, r1
 188:	01 f0       	breq	.+0      	; 0x18a <_ZN7Stepper9stepMotorEi+0x86>
 18a:	03 30       	cpi	r16, 0x03	; 3
 18c:	11 05       	cpc	r17, r1
 18e:	01 f4       	brne	.+0      	; 0x190 <_ZN7Stepper9stepMotorEi+0x8c>
 190:	00 c0       	rjmp	.+0      	; 0x192 <_ZN7Stepper9stepMotorEi+0x8e>
 192:	8e 85       	ldd	r24, Y+14	; 0x0e
 194:	61 e0       	ldi	r22, 0x01	; 1
 196:	0e 94 00 00 	call	0	; 0x0 <_ZN7StepperC1Eiii>
 19a:	88 89       	ldd	r24, Y+16	; 0x10
 19c:	60 e0       	ldi	r22, 0x00	; 0
 19e:	00 c0       	rjmp	.+0      	; 0x1a0 <_ZN7Stepper9stepMotorEi+0x9c>
 1a0:	8e 85       	ldd	r24, Y+14	; 0x0e
 1a2:	60 e0       	ldi	r22, 0x00	; 0
 1a4:	0e 94 00 00 	call	0	; 0x0 <_ZN7StepperC1Eiii>
 1a8:	88 89       	ldd	r24, Y+16	; 0x10
 1aa:	61 e0       	ldi	r22, 0x01	; 1
 1ac:	0e 94 00 00 	call	0	; 0x0 <_ZN7StepperC1Eiii>
 1b0:	8a 89       	ldd	r24, Y+18	; 0x12
 1b2:	61 e0       	ldi	r22, 0x01	; 1
 1b4:	0e 94 00 00 	call	0	; 0x0 <_ZN7StepperC1Eiii>
 1b8:	8c 89       	ldd	r24, Y+20	; 0x14
 1ba:	60 e0       	ldi	r22, 0x00	; 0
 1bc:	00 c0       	rjmp	.+0      	; 0x1be <_ZN7Stepper9stepMotorEi+0xba>
 1be:	8e 85       	ldd	r24, Y+14	; 0x0e
 1c0:	60 e0       	ldi	r22, 0x00	; 0
 1c2:	0e 94 00 00 	call	0	; 0x0 <_ZN7StepperC1Eiii>
 1c6:	88 89       	ldd	r24, Y+16	; 0x10
 1c8:	61 e0       	ldi	r22, 0x01	; 1
 1ca:	00 c0       	rjmp	.+0      	; 0x1cc <_ZN7Stepper9stepMotorEi+0xc8>
 1cc:	8e 85       	ldd	r24, Y+14	; 0x0e
 1ce:	61 e0       	ldi	r22, 0x01	; 1
 1d0:	0e 94 00 00 	call	0	; 0x0 <_ZN7StepperC1Eiii>
 1d4:	88 89       	ldd	r24, Y+16	; 0x10
 1d6:	60 e0       	ldi	r22, 0x00	; 0
 1d8:	0e 94 00 00 	call	0	; 0x0 <_ZN7StepperC1Eiii>
 1dc:	8a 89       	ldd	r24, Y+18	; 0x12
 1de:	60 e0       	ldi	r22, 0x00	; 0
 1e0:	0e 94 00 00 	call	0	; 0x0 <_ZN7StepperC1Eiii>
 1e4:	8c 89       	ldd	r24, Y+20	; 0x14
 1e6:	61 e0       	ldi	r22, 0x01	; 1
 1e8:	0e 94 00 00 	call	0	; 0x0 <_ZN7StepperC1Eiii>
 1ec:	df 91       	pop	r29
 1ee:	cf 91       	pop	r28
 1f0:	1f 91       	pop	r17
 1f2:	0f 91       	pop	r16
 1f4:	08 95       	ret

000001f6 <_ZN7Stepper4stepEi>:
 1f6:	ef 92       	push	r14
 1f8:	ff 92       	push	r15
 1fa:	0f 93       	push	r16
 1fc:	1f 93       	push	r17
 1fe:	cf 93       	push	r28
 200:	df 93       	push	r29
 202:	ec 01       	movw	r28, r24
 204:	8b 01       	movw	r16, r22
 206:	77 ff       	sbrs	r23, 7
 208:	00 c0       	rjmp	.+0      	; 0x20a <_ZN7Stepper4stepEi+0x14>
 20a:	00 27       	eor	r16, r16
 20c:	11 27       	eor	r17, r17
 20e:	06 1b       	sub	r16, r22
 210:	17 0b       	sbc	r17, r23
 212:	16 16       	cp	r1, r22
 214:	17 06       	cpc	r1, r23
 216:	04 f4       	brge	.+0      	; 0x218 <_ZN7Stepper4stepEi+0x22>
 218:	81 e0       	ldi	r24, 0x01	; 1
 21a:	90 e0       	ldi	r25, 0x00	; 0
 21c:	99 83       	std	Y+1, r25	; 0x01
 21e:	88 83       	st	Y, r24
 220:	00 c0       	rjmp	.+0      	; 0x222 <_ZN7Stepper4stepEi+0x2c>
 222:	61 15       	cp	r22, r1
 224:	71 05       	cpc	r23, r1
 226:	01 f4       	brne	.+0      	; 0x228 <_ZN7Stepper4stepEi+0x32>
 228:	00 c0       	rjmp	.+0      	; 0x22a <_ZN7Stepper4stepEi+0x34>
 22a:	19 82       	std	Y+1, r1	; 0x01
 22c:	18 82       	st	Y, r1
 22e:	00 c0       	rjmp	.+0      	; 0x230 <_ZN7Stepper4stepEi+0x3a>
 230:	0e 94 00 00 	call	0	; 0x0 <_ZN7StepperC1Eiii>
 234:	ab 01       	movw	r20, r22
 236:	bc 01       	movw	r22, r24
 238:	8e 89       	ldd	r24, Y+22	; 0x16
 23a:	9f 89       	ldd	r25, Y+23	; 0x17
 23c:	a8 8d       	ldd	r26, Y+24	; 0x18
 23e:	b9 8d       	ldd	r27, Y+25	; 0x19
 240:	48 1b       	sub	r20, r24
 242:	59 0b       	sbc	r21, r25
 244:	6a 0b       	sbc	r22, r26
 246:	7b 0b       	sbc	r23, r27
 248:	8c 81       	ldd	r24, Y+4	; 0x04
 24a:	9d 81       	ldd	r25, Y+5	; 0x05
 24c:	ae 81       	ldd	r26, Y+6	; 0x06
 24e:	bf 81       	ldd	r27, Y+7	; 0x07
 250:	48 17       	cp	r20, r24
 252:	59 07       	cpc	r21, r25
 254:	6a 07       	cpc	r22, r26
 256:	7b 07       	cpc	r23, r27
 258:	00 f0       	brcs	.+0      	; 0x25a <_ZN7Stepper4stepEi+0x64>
 25a:	0e 94 00 00 	call	0	; 0x0 <_ZN7StepperC1Eiii>
 25e:	dc 01       	movw	r26, r24
 260:	cb 01       	movw	r24, r22
 262:	8e 8b       	std	Y+22, r24	; 0x16
 264:	9f 8b       	std	Y+23, r25	; 0x17
 266:	a8 8f       	std	Y+24, r26	; 0x18
 268:	b9 8f       	std	Y+25, r27	; 0x19
 26a:	28 81       	ld	r18, Y
 26c:	39 81       	ldd	r19, Y+1	; 0x01
 26e:	8c 85       	ldd	r24, Y+12	; 0x0c
 270:	9d 85       	ldd	r25, Y+13	; 0x0d
 272:	21 30       	cpi	r18, 0x01	; 1
 274:	31 05       	cpc	r19, r1
 276:	01 f4       	brne	.+0      	; 0x278 <_ZN7Stepper4stepEi+0x82>
 278:	01 96       	adiw	r24, 0x01	; 1
 27a:	9d 87       	std	Y+13, r25	; 0x0d
 27c:	8c 87       	std	Y+12, r24	; 0x0c
 27e:	28 85       	ldd	r18, Y+8	; 0x08
 280:	39 85       	ldd	r19, Y+9	; 0x09
 282:	82 17       	cp	r24, r18
 284:	93 07       	cpc	r25, r19
 286:	01 f4       	brne	.+0      	; 0x288 <_ZN7Stepper4stepEi+0x92>
 288:	1d 86       	std	Y+13, r1	; 0x0d
 28a:	1c 86       	std	Y+12, r1	; 0x0c
 28c:	00 c0       	rjmp	.+0      	; 0x28e <_ZN7Stepper4stepEi+0x98>
 28e:	00 97       	sbiw	r24, 0x00	; 0
 290:	01 f4       	brne	.+0      	; 0x292 <_ZN7Stepper4stepEi+0x9c>
 292:	88 85       	ldd	r24, Y+8	; 0x08
 294:	99 85       	ldd	r25, Y+9	; 0x09
 296:	9d 87       	std	Y+13, r25	; 0x0d
 298:	8c 87       	std	Y+12, r24	; 0x0c
 29a:	8c 85       	ldd	r24, Y+12	; 0x0c
 29c:	9d 85       	ldd	r25, Y+13	; 0x0d
 29e:	01 97       	sbiw	r24, 0x01	; 1
 2a0:	9d 87       	std	Y+13, r25	; 0x0d
 2a2:	8c 87       	std	Y+12, r24	; 0x0c
 2a4:	01 50       	subi	r16, 0x01	; 1
 2a6:	10 40       	sbci	r17, 0x00	; 0
 2a8:	8c 85       	ldd	r24, Y+12	; 0x0c
 2aa:	9d 85       	ldd	r25, Y+13	; 0x0d
 2ac:	b7 01       	movw	r22, r14
 2ae:	0e 94 00 00 	call	0	; 0x0 <_ZN7StepperC1Eiii>
 2b2:	bc 01       	movw	r22, r24
 2b4:	ce 01       	movw	r24, r28
 2b6:	0e 94 00 00 	call	0	; 0x0 <_ZN7StepperC1Eiii>
 2ba:	00 c0       	rjmp	.+0      	; 0x2bc <_ZN7Stepper4stepEi+0xc6>
 2bc:	84 e0       	ldi	r24, 0x04	; 4
 2be:	e8 2e       	mov	r14, r24
 2c0:	f1 2c       	mov	r15, r1
 2c2:	01 15       	cp	r16, r1
 2c4:	11 05       	cpc	r17, r1
 2c6:	01 f0       	breq	.+0      	; 0x2c8 <_ZN7Stepper4stepEi+0xd2>
 2c8:	00 c0       	rjmp	.+0      	; 0x2ca <_ZN7Stepper4stepEi+0xd4>
 2ca:	df 91       	pop	r29
 2cc:	cf 91       	pop	r28
 2ce:	1f 91       	pop	r17
 2d0:	0f 91       	pop	r16
 2d2:	ff 90       	pop	r15
 2d4:	ef 90       	pop	r14
 2d6:	08 95       	ret

000002d8 <_ZN7Stepper7versionEv>:
 2d8:	84 e0       	ldi	r24, 0x04	; 4
 2da:	90 e0       	ldi	r25, 0x00	; 0
 2dc:	08 95       	ret

SoftwareSerial.o:     file format elf32-avr

Sections:
Idx Name          Size      VMA       LMA       File off  Algn
  0 .text         0000065c  00000000  00000000  00000034  2**0
                  CONTENTS, ALLOC, LOAD, RELOC, READONLY, CODE
  1 .data         00000020  00000000  00000000  00000690  2**0
                  CONTENTS, ALLOC, LOAD, RELOC, DATA
  2 .bss          00000044  00000000  00000000  000006b0  2**0
                  ALLOC
  3 .progmem.data 00000090  00000000  00000000  000006b0  2**0
                  CONTENTS, ALLOC, LOAD, READONLY, DATA

Disassembly of section .text:

00000000 <_ZN14SoftwareSerial4readEv>:
   0:	20 91 00 00 	lds	r18, 0x0000
   4:	30 91 00 00 	lds	r19, 0x0000
   8:	28 17       	cp	r18, r24
   a:	39 07       	cpc	r19, r25
   c:	01 f4       	brne	.+0      	; 0xe <_ZN14SoftwareSerial4readEv+0xe>
   e:	90 91 00 00 	lds	r25, 0x0000
  12:	80 91 00 00 	lds	r24, 0x0000
  16:	98 17       	cp	r25, r24
  18:	01 f0       	breq	.+0      	; 0x1a <_ZN14SoftwareSerial4readEv+0x1a>
  1a:	e0 91 00 00 	lds	r30, 0x0000
  1e:	f0 e0       	ldi	r31, 0x00	; 0
  20:	e0 50       	subi	r30, 0x00	; 0
  22:	f0 40       	sbci	r31, 0x00	; 0
  24:	80 81       	ld	r24, Z
  26:	20 91 00 00 	lds	r18, 0x0000
  2a:	30 e0       	ldi	r19, 0x00	; 0
  2c:	2f 5f       	subi	r18, 0xFF	; 255
  2e:	3f 4f       	sbci	r19, 0xFF	; 255
  30:	2f 73       	andi	r18, 0x3F	; 63
  32:	30 70       	andi	r19, 0x00	; 0
  34:	20 93 00 00 	sts	0x0000, r18
  38:	90 e0       	ldi	r25, 0x00	; 0
  3a:	08 95       	ret
  3c:	8f ef       	ldi	r24, 0xFF	; 255
  3e:	9f ef       	ldi	r25, 0xFF	; 255
  40:	08 95       	ret
  42:	8f ef       	ldi	r24, 0xFF	; 255
  44:	9f ef       	ldi	r25, 0xFF	; 255
  46:	08 95       	ret

00000048 <_ZN14SoftwareSerial4peekEv>:
  48:	20 91 00 00 	lds	r18, 0x0000
  4c:	30 91 00 00 	lds	r19, 0x0000
  50:	28 17       	cp	r18, r24
  52:	39 07       	cpc	r19, r25
  54:	01 f4       	brne	.+0      	; 0x56 <_ZN14SoftwareSerial4peekEv+0xe>
  56:	90 91 00 00 	lds	r25, 0x0000
  5a:	80 91 00 00 	lds	r24, 0x0000
  5e:	98 17       	cp	r25, r24
  60:	01 f0       	breq	.+0      	; 0x62 <_ZN14SoftwareSerial4peekEv+0x1a>
  62:	e0 91 00 00 	lds	r30, 0x0000
  66:	f0 e0       	ldi	r31, 0x00	; 0
  68:	e0 50       	subi	r30, 0x00	; 0
  6a:	f0 40       	sbci	r31, 0x00	; 0
  6c:	80 81       	ld	r24, Z
  6e:	90 e0       	ldi	r25, 0x00	; 0
  70:	08 95       	ret
  72:	8f ef       	ldi	r24, 0xFF	; 255
  74:	9f ef       	ldi	r25, 0xFF	; 255
  76:	08 95       	ret
  78:	8f ef       	ldi	r24, 0xFF	; 255
  7a:	9f ef       	ldi	r25, 0xFF	; 255
  7c:	08 95       	ret

0000007e <_ZN14SoftwareSerial5flushEv>:
  7e:	20 91 00 00 	lds	r18, 0x0000
  82:	30 91 00 00 	lds	r19, 0x0000
  86:	28 17       	cp	r18, r24
  88:	39 07       	cpc	r19, r25
  8a:	01 f4       	brne	.+0      	; 0x8c <_ZN14SoftwareSerial5flushEv+0xe>
  8c:	8f b7       	in	r24, 0x3f	; 63
  8e:	f8 94       	cli
  90:	10 92 00 00 	sts	0x0000, r1
  94:	10 92 00 00 	sts	0x0000, r1
  98:	8f bf       	out	0x3f, r24	; 63
  9a:	08 95       	ret

0000009c <_ZN14SoftwareSerial9availableEv>:
  9c:	20 91 00 00 	lds	r18, 0x0000
  a0:	30 91 00 00 	lds	r19, 0x0000
  a4:	28 17       	cp	r18, r24
  a6:	39 07       	cpc	r19, r25
  a8:	01 f4       	brne	.+0      	; 0xaa <_ZN14SoftwareSerial9availableEv+0xe>
  aa:	80 91 00 00 	lds	r24, 0x0000
  ae:	20 91 00 00 	lds	r18, 0x0000
  b2:	90 e0       	ldi	r25, 0x00	; 0
  b4:	80 5c       	subi	r24, 0xC0	; 192
  b6:	9f 4f       	sbci	r25, 0xFF	; 255
  b8:	82 1b       	sub	r24, r18
  ba:	91 09       	sbc	r25, r1
  bc:	60 e4       	ldi	r22, 0x40	; 64
  be:	70 e0       	ldi	r23, 0x00	; 0
  c0:	0e 94 00 00 	call	0	; 0x0 <_ZN14SoftwareSerial4readEv>
  c4:	08 95       	ret
  c6:	80 e0       	ldi	r24, 0x00	; 0
  c8:	90 e0       	ldi	r25, 0x00	; 0
  ca:	08 95       	ret

000000cc <_ZN14SoftwareSerial10tunedDelayEj>:
  cc:	20 e0       	ldi	r18, 0x00	; 0
  ce:	01 97       	sbiw	r24, 0x01	; 1
  d0:	2f ef       	ldi	r18, 0xFF	; 255
  d2:	8f 3f       	cpi	r24, 0xFF	; 255
  d4:	92 07       	cpc	r25, r18
  d6:	01 f4       	brne	.+0      	; 0xd8 <_ZN14SoftwareSerial10tunedDelayEj+0xc>
  d8:	08 95       	ret

000000da <_ZN14SoftwareSerial6listenEv>:
  da:	fc 01       	movw	r30, r24
  dc:	80 91 00 00 	lds	r24, 0x0000
  e0:	90 91 00 00 	lds	r25, 0x0000
  e4:	8e 17       	cp	r24, r30
  e6:	9f 07       	cpc	r25, r31
  e8:	01 f0       	breq	.+0      	; 0xea <_ZN14SoftwareSerial6listenEv+0x10>
  ea:	83 8d       	ldd	r24, Z+27	; 0x1b
  ec:	8e 7f       	andi	r24, 0xFE	; 254
  ee:	83 8f       	std	Z+27, r24	; 0x1b
  f0:	8f b7       	in	r24, 0x3f	; 63
  f2:	f8 94       	cli
  f4:	10 92 00 00 	sts	0x0000, r1
  f8:	10 92 00 00 	sts	0x0000, r1
  fc:	f0 93 00 00 	sts	0x0000, r31
 100:	e0 93 00 00 	sts	0x0000, r30
 104:	8f bf       	out	0x3f, r24	; 63
 106:	81 e0       	ldi	r24, 0x01	; 1
 108:	08 95       	ret
 10a:	80 e0       	ldi	r24, 0x00	; 0
 10c:	08 95       	ret

0000010e <_ZN14SoftwareSerial4recvEv>:
 10e:	ef 92       	push	r14
 110:	ff 92       	push	r15
 112:	0f 93       	push	r16
 114:	1f 93       	push	r17
 116:	cf 93       	push	r28
 118:	df 93       	push	r29
 11a:	ec 01       	movw	r28, r24
 11c:	8b 8d       	ldd	r24, Y+27	; 0x1b
 11e:	ee 85       	ldd	r30, Y+14	; 0x0e
 120:	ff 85       	ldd	r31, Y+15	; 0x0f
 122:	9d 85       	ldd	r25, Y+13	; 0x0d
 124:	81 ff       	sbrs	r24, 1
 126:	00 c0       	rjmp	.+0      	; 0x128 <_ZN14SoftwareSerial4recvEv+0x1a>
 128:	80 81       	ld	r24, Z
 12a:	89 23       	and	r24, r25
 12c:	01 f4       	brne	.+0      	; 0x12e <_ZN14SoftwareSerial4recvEv+0x20>
 12e:	00 c0       	rjmp	.+0      	; 0x130 <_ZN14SoftwareSerial4recvEv+0x22>
 130:	80 81       	ld	r24, Z
 132:	89 23       	and	r24, r25
 134:	01 f0       	breq	.+0      	; 0x136 <_ZN14SoftwareSerial4recvEv+0x28>
 136:	00 c0       	rjmp	.+0      	; 0x138 <_ZN14SoftwareSerial4recvEv+0x2a>
 138:	8b 89       	ldd	r24, Y+19	; 0x13
 13a:	9c 89       	ldd	r25, Y+20	; 0x14
 13c:	0e 94 00 00 	call	0	; 0x0 <_ZN14SoftwareSerial4readEv>
 140:	28 e0       	ldi	r18, 0x08	; 8
 142:	e2 2e       	mov	r14, r18
 144:	f1 2c       	mov	r15, r1
 146:	01 e0       	ldi	r16, 0x01	; 1
 148:	10 e0       	ldi	r17, 0x00	; 0
 14a:	8d 89       	ldd	r24, Y+21	; 0x15
 14c:	9e 89       	ldd	r25, Y+22	; 0x16
 14e:	0e 94 00 00 	call	0	; 0x0 <_ZN14SoftwareSerial4readEv>
 152:	ee 85       	ldd	r30, Y+14	; 0x0e
 154:	ff 85       	ldd	r31, Y+15	; 0x0f
 156:	80 81       	ld	r24, Z
 158:	9d 85       	ldd	r25, Y+13	; 0x0d
 15a:	89 23       	and	r24, r25
 15c:	01 f0       	breq	.+0      	; 0x15e <_ZN14SoftwareSerial4recvEv+0x50>
 15e:	10 2b       	or	r17, r16
 160:	00 c0       	rjmp	.+0      	; 0x162 <_ZN14SoftwareSerial4recvEv+0x54>
 162:	80 2f       	mov	r24, r16
 164:	80 95       	com	r24
 166:	18 23       	and	r17, r24
 168:	00 0f       	add	r16, r16
 16a:	08 94       	sec
 16c:	e1 08       	sbc	r14, r1
 16e:	f1 08       	sbc	r15, r1
 170:	e1 14       	cp	r14, r1
 172:	f1 04       	cpc	r15, r1
 174:	01 f4       	brne	.+0      	; 0x176 <_ZN14SoftwareSerial4recvEv+0x68>
 176:	8f 89       	ldd	r24, Y+23	; 0x17
 178:	98 8d       	ldd	r25, Y+24	; 0x18
 17a:	0e 94 00 00 	call	0	; 0x0 <_ZN14SoftwareSerial4readEv>
 17e:	8b 8d       	ldd	r24, Y+27	; 0x1b
 180:	81 fd       	sbrc	r24, 1
 182:	10 95       	com	r17
 184:	80 91 00 00 	lds	r24, 0x0000
 188:	20 91 00 00 	lds	r18, 0x0000
 18c:	90 e0       	ldi	r25, 0x00	; 0
 18e:	01 96       	adiw	r24, 0x01	; 1
 190:	8f 73       	andi	r24, 0x3F	; 63
 192:	90 70       	andi	r25, 0x00	; 0
 194:	30 e0       	ldi	r19, 0x00	; 0
 196:	82 17       	cp	r24, r18
 198:	93 07       	cpc	r25, r19
 19a:	01 f0       	breq	.+0      	; 0x19c <_ZN14SoftwareSerial4recvEv+0x8e>
 19c:	e0 91 00 00 	lds	r30, 0x0000
 1a0:	f0 e0       	ldi	r31, 0x00	; 0
 1a2:	e0 50       	subi	r30, 0x00	; 0
 1a4:	f0 40       	sbci	r31, 0x00	; 0
 1a6:	10 83       	st	Z, r17
 1a8:	80 91 00 00 	lds	r24, 0x0000
 1ac:	90 e0       	ldi	r25, 0x00	; 0
 1ae:	01 96       	adiw	r24, 0x01	; 1
 1b0:	8f 73       	andi	r24, 0x3F	; 63
 1b2:	90 70       	andi	r25, 0x00	; 0
 1b4:	80 93 00 00 	sts	0x0000, r24
 1b8:	00 c0       	rjmp	.+0      	; 0x1ba <_ZN14SoftwareSerial4recvEv+0xac>
 1ba:	8b 8d       	ldd	r24, Y+27	; 0x1b
 1bc:	81 60       	ori	r24, 0x01	; 1
 1be:	8b 8f       	std	Y+27, r24	; 0x1b
 1c0:	df 91       	pop	r29
 1c2:	cf 91       	pop	r28
 1c4:	1f 91       	pop	r17
 1c6:	0f 91       	pop	r16
 1c8:	ff 90       	pop	r15
 1ca:	ef 90       	pop	r14
 1cc:	08 95       	ret

000001ce <_ZN14SoftwareSerial12tx_pin_writeEh>:
 1ce:	fc 01       	movw	r30, r24
 1d0:	a1 89       	ldd	r26, Z+17	; 0x11
 1d2:	b2 89       	ldd	r27, Z+18	; 0x12
 1d4:	90 89       	ldd	r25, Z+16	; 0x10
 1d6:	66 23       	and	r22, r22
 1d8:	01 f4       	brne	.+0      	; 0x1da <_ZN14SoftwareSerial12tx_pin_writeEh+0xc>
 1da:	2c 91       	ld	r18, X
 1dc:	89 2f       	mov	r24, r25
 1de:	80 95       	com	r24
 1e0:	82 23       	and	r24, r18
 1e2:	00 c0       	rjmp	.+0      	; 0x1e4 <_ZN14SoftwareSerial12tx_pin_writeEh+0x16>
 1e4:	8c 91       	ld	r24, X
 1e6:	89 2b       	or	r24, r25
 1e8:	8c 93       	st	X, r24
 1ea:	08 95       	ret

000001ec <_ZN14SoftwareSerial5writeEh>:
 1ec:	df 92       	push	r13
 1ee:	ef 92       	push	r14
 1f0:	ff 92       	push	r15
 1f2:	0f 93       	push	r16
 1f4:	1f 93       	push	r17
 1f6:	cf 93       	push	r28
 1f8:	df 93       	push	r29
 1fa:	ec 01       	movw	r28, r24
 1fc:	f6 2e       	mov	r15, r22
 1fe:	89 8d       	ldd	r24, Y+25	; 0x19
 200:	9a 8d       	ldd	r25, Y+26	; 0x1a
 202:	00 97       	sbiw	r24, 0x00	; 0
 204:	01 f4       	brne	.+0      	; 0x206 <_ZN14SoftwareSerial5writeEh+0x1a>
 206:	81 e0       	ldi	r24, 0x01	; 1
 208:	90 e0       	ldi	r25, 0x00	; 0
 20a:	9b 83       	std	Y+3, r25	; 0x03
 20c:	8a 83       	std	Y+2, r24	; 0x02
 20e:	80 e0       	ldi	r24, 0x00	; 0
 210:	90 e0       	ldi	r25, 0x00	; 0
 212:	00 c0       	rjmp	.+0      	; 0x214 <_ZN14SoftwareSerial5writeEh+0x28>
 214:	ef b6       	in	r14, 0x3f	; 63
 216:	f8 94       	cli
 218:	8b 8d       	ldd	r24, Y+27	; 0x1b
 21a:	61 e0       	ldi	r22, 0x01	; 1
 21c:	81 ff       	sbrs	r24, 1
 21e:	60 e0       	ldi	r22, 0x00	; 0
 220:	ce 01       	movw	r24, r28
 222:	0e 94 00 00 	call	0	; 0x0 <_ZN14SoftwareSerial4readEv>
 226:	89 8d       	ldd	r24, Y+25	; 0x19
 228:	9a 8d       	ldd	r25, Y+26	; 0x1a
 22a:	05 96       	adiw	r24, 0x05	; 5
 22c:	0e 94 00 00 	call	0	; 0x0 <_ZN14SoftwareSerial4readEv>
 230:	8b 8d       	ldd	r24, Y+27	; 0x1b
 232:	08 e0       	ldi	r16, 0x08	; 8
 234:	10 e0       	ldi	r17, 0x00	; 0
 236:	dd 24       	eor	r13, r13
 238:	d3 94       	inc	r13
 23a:	81 ff       	sbrs	r24, 1
 23c:	00 c0       	rjmp	.+0      	; 0x23e <_ZN14SoftwareSerial5writeEh+0x52>
 23e:	8d 2d       	mov	r24, r13
 240:	8f 21       	and	r24, r15
 242:	01 f0       	breq	.+0      	; 0x244 <_ZN14SoftwareSerial5writeEh+0x58>
 244:	ce 01       	movw	r24, r28
 246:	60 e0       	ldi	r22, 0x00	; 0
 248:	00 c0       	rjmp	.+0      	; 0x24a <_ZN14SoftwareSerial5writeEh+0x5e>
 24a:	ce 01       	movw	r24, r28
 24c:	61 e0       	ldi	r22, 0x01	; 1
 24e:	0e 94 00 00 	call	0	; 0x0 <_ZN14SoftwareSerial4readEv>
 252:	89 8d       	ldd	r24, Y+25	; 0x19
 254:	9a 8d       	ldd	r25, Y+26	; 0x1a
 256:	0e 94 00 00 	call	0	; 0x0 <_ZN14SoftwareSerial4readEv>
 25a:	dd 0c       	add	r13, r13
 25c:	01 50       	subi	r16, 0x01	; 1
 25e:	10 40       	sbci	r17, 0x00	; 0
 260:	01 f4       	brne	.+0      	; 0x262 <_ZN14SoftwareSerial5writeEh+0x76>
 262:	ce 01       	movw	r24, r28
 264:	60 e0       	ldi	r22, 0x00	; 0
 266:	00 c0       	rjmp	.+0      	; 0x268 <_ZN14SoftwareSerial5writeEh+0x7c>
 268:	8d 2d       	mov	r24, r13
 26a:	8f 21       	and	r24, r15
 26c:	01 f0       	breq	.+0      	; 0x26e <_ZN14SoftwareSerial5writeEh+0x82>
 26e:	ce 01       	movw	r24, r28
 270:	61 e0       	ldi	r22, 0x01	; 1
 272:	00 c0       	rjmp	.+0      	; 0x274 <_ZN14SoftwareSerial5writeEh+0x88>
 274:	ce 01       	movw	r24, r28
 276:	60 e0       	ldi	r22, 0x00	; 0
 278:	0e 94 00 00 	call	0	; 0x0 <_ZN14SoftwareSerial4readEv>
 27c:	89 8d       	ldd	r24, Y+25	; 0x19
 27e:	9a 8d       	ldd	r25, Y+26	; 0x1a
 280:	0e 94 00 00 	call	0	; 0x0 <_ZN14SoftwareSerial4readEv>
 284:	dd 0c       	add	r13, r13
 286:	01 50       	subi	r16, 0x01	; 1
 288:	10 40       	sbci	r17, 0x00	; 0
 28a:	01 f4       	brne	.+0      	; 0x28c <_ZN14SoftwareSerial5writeEh+0xa0>
 28c:	ce 01       	movw	r24, r28
 28e:	61 e0       	ldi	r22, 0x01	; 1
 290:	0e 94 00 00 	call	0	; 0x0 <_ZN14SoftwareSerial4readEv>
 294:	ef be       	out	0x3f, r14	; 63
 296:	89 8d       	ldd	r24, Y+25	; 0x19
 298:	9a 8d       	ldd	r25, Y+26	; 0x1a
 29a:	0e 94 00 00 	call	0	; 0x0 <_ZN14SoftwareSerial4readEv>
 29e:	81 e0       	ldi	r24, 0x01	; 1
 2a0:	90 e0       	ldi	r25, 0x00	; 0
 2a2:	df 91       	pop	r29
 2a4:	cf 91       	pop	r28
 2a6:	1f 91       	pop	r17
 2a8:	0f 91       	pop	r16
 2aa:	ff 90       	pop	r15
 2ac:	ef 90       	pop	r14
 2ae:	df 90       	pop	r13
 2b0:	08 95       	ret

000002b2 <_ZN14SoftwareSerial11rx_pin_readEv>:
 2b2:	fc 01       	movw	r30, r24
 2b4:	a6 85       	ldd	r26, Z+14	; 0x0e
 2b6:	b7 85       	ldd	r27, Z+15	; 0x0f
 2b8:	9c 91       	ld	r25, X
 2ba:	85 85       	ldd	r24, Z+13	; 0x0d
 2bc:	89 23       	and	r24, r25
 2be:	08 95       	ret

000002c0 <_ZN14SoftwareSerial16handle_interruptEv>:
 2c0:	80 91 00 00 	lds	r24, 0x0000
 2c4:	90 91 00 00 	lds	r25, 0x0000
 2c8:	00 97       	sbiw	r24, 0x00	; 0
 2ca:	01 f0       	breq	.+0      	; 0x2cc <_ZN14SoftwareSerial16handle_interruptEv+0xc>
 2cc:	0e 94 00 00 	call	0	; 0x0 <_ZN14SoftwareSerial4readEv>
 2d0:	08 95       	ret

000002d2 <__vector_3>:
 2d2:	1f 92       	push	r1
 2d4:	0f 92       	push	r0
 2d6:	0f b6       	in	r0, 0x3f	; 63
 2d8:	0f 92       	push	r0
 2da:	11 24       	eor	r1, r1
 2dc:	2f 93       	push	r18
 2de:	3f 93       	push	r19
 2e0:	4f 93       	push	r20
 2e2:	5f 93       	push	r21
 2e4:	6f 93       	push	r22
 2e6:	7f 93       	push	r23
 2e8:	8f 93       	push	r24
 2ea:	9f 93       	push	r25
 2ec:	af 93       	push	r26
 2ee:	bf 93       	push	r27
 2f0:	ef 93       	push	r30
 2f2:	ff 93       	push	r31
 2f4:	0e 94 00 00 	call	0	; 0x0 <_ZN14SoftwareSerial4readEv>
 2f8:	ff 91       	pop	r31
 2fa:	ef 91       	pop	r30
 2fc:	bf 91       	pop	r27
 2fe:	af 91       	pop	r26
 300:	9f 91       	pop	r25
 302:	8f 91       	pop	r24
 304:	7f 91       	pop	r23
 306:	6f 91       	pop	r22
 308:	5f 91       	pop	r21
 30a:	4f 91       	pop	r20
 30c:	3f 91       	pop	r19
 30e:	2f 91       	pop	r18
 310:	0f 90       	pop	r0
 312:	0f be       	out	0x3f, r0	; 63
 314:	0f 90       	pop	r0
 316:	1f 90       	pop	r1
 318:	18 95       	reti

0000031a <__vector_4>:
 31a:	1f 92       	push	r1
 31c:	0f 92       	push	r0
 31e:	0f b6       	in	r0, 0x3f	; 63
 320:	0f 92       	push	r0
 322:	11 24       	eor	r1, r1
 324:	2f 93       	push	r18
 326:	3f 93       	push	r19
 328:	4f 93       	push	r20
 32a:	5f 93       	push	r21
 32c:	6f 93       	push	r22
 32e:	7f 93       	push	r23
 330:	8f 93       	push	r24
 332:	9f 93       	push	r25
 334:	af 93       	push	r26
 336:	bf 93       	push	r27
 338:	ef 93       	push	r30
 33a:	ff 93       	push	r31
 33c:	0e 94 00 00 	call	0	; 0x0 <_ZN14SoftwareSerial4readEv>
 340:	ff 91       	pop	r31
 342:	ef 91       	pop	r30
 344:	bf 91       	pop	r27
 346:	af 91       	pop	r26
 348:	9f 91       	pop	r25
 34a:	8f 91       	pop	r24
 34c:	7f 91       	pop	r23
 34e:	6f 91       	pop	r22
 350:	5f 91       	pop	r21
 352:	4f 91       	pop	r20
 354:	3f 91       	pop	r19
 356:	2f 91       	pop	r18
 358:	0f 90       	pop	r0
 35a:	0f be       	out	0x3f, r0	; 63
 35c:	0f 90       	pop	r0
 35e:	1f 90       	pop	r1
 360:	18 95       	reti

00000362 <__vector_5>:
 362:	1f 92       	push	r1
 364:	0f 92       	push	r0
 366:	0f b6       	in	r0, 0x3f	; 63
 368:	0f 92       	push	r0
 36a:	11 24       	eor	r1, r1
 36c:	2f 93       	push	r18
 36e:	3f 93       	push	r19
 370:	4f 93       	push	r20
 372:	5f 93       	push	r21
 374:	6f 93       	push	r22
 376:	7f 93       	push	r23
 378:	8f 93       	push	r24
 37a:	9f 93       	push	r25
 37c:	af 93       	push	r26
 37e:	bf 93       	push	r27
 380:	ef 93       	push	r30
 382:	ff 93       	push	r31
 384:	0e 94 00 00 	call	0	; 0x0 <_ZN14SoftwareSerial4readEv>
 388:	ff 91       	pop	r31
 38a:	ef 91       	pop	r30
 38c:	bf 91       	pop	r27
 38e:	af 91       	pop	r26
 390:	9f 91       	pop	r25
 392:	8f 91       	pop	r24
 394:	7f 91       	pop	r23
 396:	6f 91       	pop	r22
 398:	5f 91       	pop	r21
 39a:	4f 91       	pop	r20
 39c:	3f 91       	pop	r19
 39e:	2f 91       	pop	r18
 3a0:	0f 90       	pop	r0
 3a2:	0f be       	out	0x3f, r0	; 63
 3a4:	0f 90       	pop	r0
 3a6:	1f 90       	pop	r1
 3a8:	18 95       	reti

000003aa <_ZN14SoftwareSerial5setTXEh>:
 3aa:	1f 93       	push	r17
 3ac:	cf 93       	push	r28
 3ae:	df 93       	push	r29
 3b0:	ec 01       	movw	r28, r24
 3b2:	16 2f       	mov	r17, r22
 3b4:	86 2f       	mov	r24, r22
 3b6:	61 e0       	ldi	r22, 0x01	; 1
 3b8:	0e 94 00 00 	call	0	; 0x0 <_ZN14SoftwareSerial4readEv>
 3bc:	81 2f       	mov	r24, r17
 3be:	61 e0       	ldi	r22, 0x01	; 1
 3c0:	0e 94 00 00 	call	0	; 0x0 <_ZN14SoftwareSerial4readEv>
 3c4:	81 2f       	mov	r24, r17
 3c6:	90 e0       	ldi	r25, 0x00	; 0
 3c8:	fc 01       	movw	r30, r24
 3ca:	e0 50       	subi	r30, 0x00	; 0
 3cc:	f0 40       	sbci	r31, 0x00	; 0
 3ce:	e4 91       	lpm	r30, Z
 3d0:	e8 8b       	std	Y+16, r30	; 0x10
 3d2:	fc 01       	movw	r30, r24
 3d4:	e0 50       	subi	r30, 0x00	; 0
 3d6:	f0 40       	sbci	r31, 0x00	; 0
 3d8:	e4 91       	lpm	r30, Z
 3da:	f0 e0       	ldi	r31, 0x00	; 0
 3dc:	ee 0f       	add	r30, r30
 3de:	ff 1f       	adc	r31, r31
 3e0:	e0 50       	subi	r30, 0x00	; 0
 3e2:	f0 40       	sbci	r31, 0x00	; 0
 3e4:	85 91       	lpm	r24, Z+
 3e6:	94 91       	lpm	r25, Z
 3e8:	89 8b       	std	Y+17, r24	; 0x11
 3ea:	9a 8b       	std	Y+18, r25	; 0x12
 3ec:	df 91       	pop	r29
 3ee:	cf 91       	pop	r28
 3f0:	1f 91       	pop	r17
 3f2:	08 95       	ret

000003f4 <_ZN14SoftwareSerial5setRXEh>:
 3f4:	1f 93       	push	r17
 3f6:	cf 93       	push	r28
 3f8:	df 93       	push	r29
 3fa:	ec 01       	movw	r28, r24
 3fc:	16 2f       	mov	r17, r22
 3fe:	86 2f       	mov	r24, r22
 400:	60 e0       	ldi	r22, 0x00	; 0
 402:	0e 94 00 00 	call	0	; 0x0 <_ZN14SoftwareSerial4readEv>
 406:	8b 8d       	ldd	r24, Y+27	; 0x1b
 408:	81 fd       	sbrc	r24, 1
 40a:	00 c0       	rjmp	.+0      	; 0x40c <_ZN14SoftwareSerial5setRXEh+0x18>
 40c:	81 2f       	mov	r24, r17
 40e:	61 e0       	ldi	r22, 0x01	; 1
 410:	0e 94 00 00 	call	0	; 0x0 <_ZN14SoftwareSerial4readEv>
 414:	1c 87       	std	Y+12, r17	; 0x0c
 416:	81 2f       	mov	r24, r17
 418:	90 e0       	ldi	r25, 0x00	; 0
 41a:	fc 01       	movw	r30, r24
 41c:	e0 50       	subi	r30, 0x00	; 0
 41e:	f0 40       	sbci	r31, 0x00	; 0
 420:	e4 91       	lpm	r30, Z
 422:	ed 87       	std	Y+13, r30	; 0x0d
 424:	fc 01       	movw	r30, r24
 426:	e0 50       	subi	r30, 0x00	; 0
 428:	f0 40       	sbci	r31, 0x00	; 0
 42a:	e4 91       	lpm	r30, Z
 42c:	f0 e0       	ldi	r31, 0x00	; 0
 42e:	ee 0f       	add	r30, r30
 430:	ff 1f       	adc	r31, r31
 432:	e0 50       	subi	r30, 0x00	; 0
 434:	f0 40       	sbci	r31, 0x00	; 0
 436:	85 91       	lpm	r24, Z+
 438:	94 91       	lpm	r25, Z
 43a:	8e 87       	std	Y+14, r24	; 0x0e
 43c:	9f 87       	std	Y+15, r25	; 0x0f
 43e:	df 91       	pop	r29
 440:	cf 91       	pop	r28
 442:	1f 91       	pop	r17
 444:	08 95       	ret

00000446 <_ZN14SoftwareSerialC1Ehhb>:
 446:	1f 93       	push	r17
 448:	cf 93       	push	r28
 44a:	df 93       	push	r29
 44c:	ec 01       	movw	r28, r24
 44e:	16 2f       	mov	r17, r22
 450:	1b 82       	std	Y+3, r1	; 0x03
 452:	1a 82       	std	Y+2, r1	; 0x02
 454:	88 ee       	ldi	r24, 0xE8	; 232
 456:	93 e0       	ldi	r25, 0x03	; 3
 458:	a0 e0       	ldi	r26, 0x00	; 0
 45a:	b0 e0       	ldi	r27, 0x00	; 0
 45c:	8c 83       	std	Y+4, r24	; 0x04
 45e:	9d 83       	std	Y+5, r25	; 0x05
 460:	ae 83       	std	Y+6, r26	; 0x06
 462:	bf 83       	std	Y+7, r27	; 0x07
 464:	80 e0       	ldi	r24, 0x00	; 0
 466:	90 e0       	ldi	r25, 0x00	; 0
 468:	99 83       	std	Y+1, r25	; 0x01
 46a:	88 83       	st	Y, r24
 46c:	1c 8a       	std	Y+20, r1	; 0x14
 46e:	1b 8a       	std	Y+19, r1	; 0x13
 470:	1e 8a       	std	Y+22, r1	; 0x16
 472:	1d 8a       	std	Y+21, r1	; 0x15
 474:	18 8e       	std	Y+24, r1	; 0x18
 476:	1f 8a       	std	Y+23, r1	; 0x17
 478:	1a 8e       	std	Y+26, r1	; 0x1a
 47a:	19 8e       	std	Y+25, r1	; 0x19
 47c:	8b 8d       	ldd	r24, Y+27	; 0x1b
 47e:	21 70       	andi	r18, 0x01	; 1
 480:	22 0f       	add	r18, r18
 482:	8c 7f       	andi	r24, 0xFC	; 252
 484:	82 2b       	or	r24, r18
 486:	8b 8f       	std	Y+27, r24	; 0x1b
 488:	ce 01       	movw	r24, r28
 48a:	64 2f       	mov	r22, r20
 48c:	0e 94 00 00 	call	0	; 0x0 <_ZN14SoftwareSerial4readEv>
 490:	ce 01       	movw	r24, r28
 492:	61 2f       	mov	r22, r17
 494:	0e 94 00 00 	call	0	; 0x0 <_ZN14SoftwareSerial4readEv>
 498:	df 91       	pop	r29
 49a:	cf 91       	pop	r28
 49c:	1f 91       	pop	r17
 49e:	08 95       	ret

000004a0 <_ZN14SoftwareSerial5beginEl>:
 4a0:	cf 92       	push	r12
 4a2:	df 92       	push	r13
 4a4:	ef 92       	push	r14
 4a6:	ff 92       	push	r15
 4a8:	cf 93       	push	r28
 4aa:	df 93       	push	r29
 4ac:	ec 01       	movw	r28, r24
 4ae:	6a 01       	movw	r12, r20
 4b0:	7b 01       	movw	r14, r22
 4b2:	1a 8e       	std	Y+26, r1	; 0x1a
 4b4:	19 8e       	std	Y+25, r1	; 0x19
 4b6:	18 8e       	std	Y+24, r1	; 0x18
 4b8:	1f 8a       	std	Y+23, r1	; 0x17
 4ba:	1e 8a       	std	Y+22, r1	; 0x16
 4bc:	1d 8a       	std	Y+21, r1	; 0x15
 4be:	1c 8a       	std	Y+20, r1	; 0x14
 4c0:	1b 8a       	std	Y+19, r1	; 0x13
 4c2:	20 e0       	ldi	r18, 0x00	; 0
 4c4:	30 e0       	ldi	r19, 0x00	; 0
 4c6:	a9 01       	movw	r20, r18
 4c8:	44 0f       	add	r20, r20
 4ca:	55 1f       	adc	r21, r21
 4cc:	42 0f       	add	r20, r18
 4ce:	53 1f       	adc	r21, r19
 4d0:	44 0f       	add	r20, r20
 4d2:	55 1f       	adc	r21, r21
 4d4:	44 0f       	add	r20, r20
 4d6:	55 1f       	adc	r21, r21
 4d8:	fa 01       	movw	r30, r20
 4da:	e0 50       	subi	r30, 0x00	; 0
 4dc:	f0 40       	sbci	r31, 0x00	; 0
 4de:	85 91       	lpm	r24, Z+
 4e0:	95 91       	lpm	r25, Z+
 4e2:	a5 91       	lpm	r26, Z+
 4e4:	b4 91       	lpm	r27, Z
 4e6:	8c 15       	cp	r24, r12
 4e8:	9d 05       	cpc	r25, r13
 4ea:	ae 05       	cpc	r26, r14
 4ec:	bf 05       	cpc	r27, r15
 4ee:	01 f4       	brne	.+0      	; 0x4f0 <_ZN14SoftwareSerial5beginEl+0x50>
 4f0:	fa 01       	movw	r30, r20
 4f2:	e0 50       	subi	r30, 0x00	; 0
 4f4:	f0 40       	sbci	r31, 0x00	; 0
 4f6:	85 91       	lpm	r24, Z+
 4f8:	94 91       	lpm	r25, Z
 4fa:	8b 8b       	std	Y+19, r24	; 0x13
 4fc:	9c 8b       	std	Y+20, r25	; 0x14
 4fe:	fa 01       	movw	r30, r20
 500:	e0 50       	subi	r30, 0x00	; 0
 502:	f0 40       	sbci	r31, 0x00	; 0
 504:	85 91       	lpm	r24, Z+
 506:	94 91       	lpm	r25, Z
 508:	8d 8b       	std	Y+21, r24	; 0x15
 50a:	9e 8b       	std	Y+22, r25	; 0x16
 50c:	fa 01       	movw	r30, r20
 50e:	e0 50       	subi	r30, 0x00	; 0
 510:	f0 40       	sbci	r31, 0x00	; 0
 512:	85 91       	lpm	r24, Z+
 514:	94 91       	lpm	r25, Z
 516:	8f 8b       	std	Y+23, r24	; 0x17
 518:	98 8f       	std	Y+24, r25	; 0x18
 51a:	40 50       	subi	r20, 0x00	; 0
 51c:	50 40       	sbci	r21, 0x00	; 0
 51e:	fa 01       	movw	r30, r20
 520:	85 91       	lpm	r24, Z+
 522:	94 91       	lpm	r25, Z
 524:	89 8f       	std	Y+25, r24	; 0x19
 526:	9a 8f       	std	Y+26, r25	; 0x1a
 528:	00 c0       	rjmp	.+0      	; 0x52a <_ZN14SoftwareSerial5beginEl+0x8a>
 52a:	2f 5f       	subi	r18, 0xFF	; 255
 52c:	3f 4f       	sbci	r19, 0xFF	; 255
 52e:	2c 30       	cpi	r18, 0x0C	; 12
 530:	31 05       	cpc	r19, r1
 532:	01 f0       	breq	.+0      	; 0x534 <_ZN14SoftwareSerial5beginEl+0x94>
 534:	00 c0       	rjmp	.+0      	; 0x536 <_ZN14SoftwareSerial5beginEl+0x96>
 536:	8f 89       	ldd	r24, Y+23	; 0x17
 538:	98 8d       	ldd	r25, Y+24	; 0x18
 53a:	00 97       	sbiw	r24, 0x00	; 0
 53c:	01 f4       	brne	.+0      	; 0x53e <_ZN14SoftwareSerial5beginEl+0x9e>
 53e:	00 c0       	rjmp	.+0      	; 0x540 <_ZN14SoftwareSerial5beginEl+0xa0>
 540:	9c 85       	ldd	r25, Y+12	; 0x0c
 542:	96 31       	cpi	r25, 0x16	; 22
 544:	00 f0       	brcs	.+0      	; 0x546 <_ZN14SoftwareSerial5beginEl+0xa6>
 546:	00 c0       	rjmp	.+0      	; 0x548 <_ZN14SoftwareSerial5beginEl+0xa8>
 548:	20 91 68 00 	lds	r18, 0x0068
 54c:	98 30       	cpi	r25, 0x08	; 8
 54e:	00 f0       	brcs	.+0      	; 0x550 <_ZN14SoftwareSerial5beginEl+0xb0>
 550:	9e 30       	cpi	r25, 0x0E	; 14
 552:	00 f0       	brcs	.+0      	; 0x554 <_ZN14SoftwareSerial5beginEl+0xb4>
 554:	82 e0       	ldi	r24, 0x02	; 2
 556:	00 c0       	rjmp	.+0      	; 0x558 <_ZN14SoftwareSerial5beginEl+0xb8>
 558:	84 e0       	ldi	r24, 0x04	; 4
 55a:	00 c0       	rjmp	.+0      	; 0x55c <_ZN14SoftwareSerial5beginEl+0xbc>
 55c:	81 e0       	ldi	r24, 0x01	; 1
 55e:	82 2b       	or	r24, r18
 560:	80 93 68 00 	sts	0x0068, r24
 564:	5c 85       	ldd	r21, Y+12	; 0x0c
 566:	58 30       	cpi	r21, 0x08	; 8
 568:	00 f0       	brcs	.+0      	; 0x56a <_ZN14SoftwareSerial5beginEl+0xca>
 56a:	5e 30       	cpi	r21, 0x0E	; 14
 56c:	00 f0       	brcs	.+0      	; 0x56e <_ZN14SoftwareSerial5beginEl+0xce>
 56e:	56 31       	cpi	r21, 0x16	; 22
 570:	00 f0       	brcs	.+0      	; 0x572 <_ZN14SoftwareSerial5beginEl+0xd2>
 572:	e0 e0       	ldi	r30, 0x00	; 0
 574:	f0 e0       	ldi	r31, 0x00	; 0
 576:	a0 e0       	ldi	r26, 0x00	; 0
 578:	b0 e0       	ldi	r27, 0x00	; 0
 57a:	00 c0       	rjmp	.+0      	; 0x57c <_ZN14SoftwareSerial5beginEl+0xdc>
 57c:	ed e6       	ldi	r30, 0x6D	; 109
 57e:	f0 e0       	ldi	r31, 0x00	; 0
 580:	ad e6       	ldi	r26, 0x6D	; 109
 582:	b0 e0       	ldi	r27, 0x00	; 0
 584:	00 c0       	rjmp	.+0      	; 0x586 <_ZN14SoftwareSerial5beginEl+0xe6>
 586:	eb e6       	ldi	r30, 0x6B	; 107
 588:	f0 e0       	ldi	r31, 0x00	; 0
 58a:	ab e6       	ldi	r26, 0x6B	; 107
 58c:	b0 e0       	ldi	r27, 0x00	; 0
 58e:	4c 91       	ld	r20, X
 590:	58 30       	cpi	r21, 0x08	; 8
 592:	00 f4       	brcc	.+0      	; 0x594 <_ZN14SoftwareSerial5beginEl+0xf4>
 594:	81 e0       	ldi	r24, 0x01	; 1
 596:	90 e0       	ldi	r25, 0x00	; 0
 598:	00 c0       	rjmp	.+0      	; 0x59a <_ZN14SoftwareSerial5beginEl+0xfa>
 59a:	88 0f       	add	r24, r24
 59c:	99 1f       	adc	r25, r25
 59e:	5a 95       	dec	r21
 5a0:	02 f4       	brpl	.+0      	; 0x5a2 <_ZN14SoftwareSerial5beginEl+0x102>
 5a2:	00 c0       	rjmp	.+0      	; 0x5a4 <_ZN14SoftwareSerial5beginEl+0x104>
 5a4:	25 2f       	mov	r18, r21
 5a6:	30 e0       	ldi	r19, 0x00	; 0
 5a8:	5e 30       	cpi	r21, 0x0E	; 14
 5aa:	00 f4       	brcc	.+0      	; 0x5ac <_ZN14SoftwareSerial5beginEl+0x10c>
 5ac:	28 50       	subi	r18, 0x08	; 8
 5ae:	30 40       	sbci	r19, 0x00	; 0
 5b0:	00 c0       	rjmp	.+0      	; 0x5b2 <_ZN14SoftwareSerial5beginEl+0x112>
 5b2:	2e 50       	subi	r18, 0x0E	; 14
 5b4:	30 40       	sbci	r19, 0x00	; 0
 5b6:	81 e0       	ldi	r24, 0x01	; 1
 5b8:	90 e0       	ldi	r25, 0x00	; 0
 5ba:	00 c0       	rjmp	.+0      	; 0x5bc <_ZN14SoftwareSerial5beginEl+0x11c>
 5bc:	88 0f       	add	r24, r24
 5be:	99 1f       	adc	r25, r25
 5c0:	2a 95       	dec	r18
 5c2:	02 f4       	brpl	.+0      	; 0x5c4 <_ZN14SoftwareSerial5beginEl+0x124>
 5c4:	84 2b       	or	r24, r20
 5c6:	80 83       	st	Z, r24
 5c8:	89 8d       	ldd	r24, Y+25	; 0x19
 5ca:	9a 8d       	ldd	r25, Y+26	; 0x1a
 5cc:	0e 94 00 00 	call	0	; 0x0 <_ZN14SoftwareSerial4readEv>
 5d0:	ce 01       	movw	r24, r28
 5d2:	0e 94 00 00 	call	0	; 0x0 <_ZN14SoftwareSerial4readEv>
 5d6:	df 91       	pop	r29
 5d8:	cf 91       	pop	r28
 5da:	ff 90       	pop	r15
 5dc:	ef 90       	pop	r14
 5de:	df 90       	pop	r13
 5e0:	cf 90       	pop	r12
 5e2:	08 95       	ret
 5e4:	ec e6       	ldi	r30, 0x6C	; 108
 5e6:	f0 e0       	ldi	r31, 0x00	; 0
 5e8:	ac e6       	ldi	r26, 0x6C	; 108
 5ea:	b0 e0       	ldi	r27, 0x00	; 0
 5ec:	00 c0       	rjmp	.+0      	; 0x5ee <_ZN14SoftwareSerial3endEv>

000005ee <_ZN14SoftwareSerial3endEv>:
 5ee:	fc 01       	movw	r30, r24
 5f0:	44 85       	ldd	r20, Z+12	; 0x0c
 5f2:	46 31       	cpi	r20, 0x16	; 22
 5f4:	00 f4       	brcc	.+0      	; 0x5f6 <_ZN14SoftwareSerial3endEv+0x8>
 5f6:	48 30       	cpi	r20, 0x08	; 8
 5f8:	00 f0       	brcs	.+0      	; 0x5fa <_ZN14SoftwareSerial3endEv+0xc>
 5fa:	4e 30       	cpi	r20, 0x0E	; 14
 5fc:	00 f0       	brcs	.+0      	; 0x5fe <_ZN14SoftwareSerial3endEv+0x10>
 5fe:	ec e6       	ldi	r30, 0x6C	; 108
 600:	f0 e0       	ldi	r31, 0x00	; 0
 602:	00 c0       	rjmp	.+0      	; 0x604 <_ZN14SoftwareSerial3endEv+0x16>
 604:	ed e6       	ldi	r30, 0x6D	; 109
 606:	f0 e0       	ldi	r31, 0x00	; 0
 608:	00 c0       	rjmp	.+0      	; 0x60a <_ZN14SoftwareSerial3endEv+0x1c>
 60a:	eb e6       	ldi	r30, 0x6B	; 107
 60c:	f0 e0       	ldi	r31, 0x00	; 0
 60e:	50 81       	ld	r21, Z
 610:	48 30       	cpi	r20, 0x08	; 8
 612:	00 f4       	brcc	.+0      	; 0x614 <_ZN14SoftwareSerial3endEv+0x26>
 614:	81 e0       	ldi	r24, 0x01	; 1
 616:	90 e0       	ldi	r25, 0x00	; 0
 618:	00 c0       	rjmp	.+0      	; 0x61a <_ZN14SoftwareSerial3endEv+0x2c>
 61a:	88 0f       	add	r24, r24
 61c:	99 1f       	adc	r25, r25
 61e:	4a 95       	dec	r20
 620:	02 f4       	brpl	.+0      	; 0x622 <_ZN14SoftwareSerial3endEv+0x34>
 622:	00 c0       	rjmp	.+0      	; 0x624 <_ZN14SoftwareSerial3endEv+0x36>
 624:	24 2f       	mov	r18, r20
 626:	30 e0       	ldi	r19, 0x00	; 0
 628:	4e 30       	cpi	r20, 0x0E	; 14
 62a:	00 f4       	brcc	.+0      	; 0x62c <_ZN14SoftwareSerial3endEv+0x3e>
 62c:	28 50       	subi	r18, 0x08	; 8
 62e:	30 40       	sbci	r19, 0x00	; 0
 630:	00 c0       	rjmp	.+0      	; 0x632 <_ZN14SoftwareSerial3endEv+0x44>
 632:	2e 50       	subi	r18, 0x0E	; 14
 634:	30 40       	sbci	r19, 0x00	; 0
 636:	81 e0       	ldi	r24, 0x01	; 1
 638:	90 e0       	ldi	r25, 0x00	; 0
 63a:	00 c0       	rjmp	.+0      	; 0x63c <_ZN14SoftwareSerial3endEv+0x4e>
 63c:	88 0f       	add	r24, r24
 63e:	99 1f       	adc	r25, r25
 640:	2a 95       	dec	r18
 642:	02 f4       	brpl	.+0      	; 0x644 <_ZN14SoftwareSerial3endEv+0x56>
 644:	80 95       	com	r24
 646:	85 23       	and	r24, r21
 648:	80 83       	st	Z, r24
 64a:	08 95       	ret

0000064c <_ZN14SoftwareSerialD1Ev>:
 64c:	20 e0       	ldi	r18, 0x00	; 0
 64e:	30 e0       	ldi	r19, 0x00	; 0
 650:	fc 01       	movw	r30, r24
 652:	31 83       	std	Z+1, r19	; 0x01
 654:	20 83       	st	Z, r18
 656:	0e 94 00 00 	call	0	; 0x0 <_ZN14SoftwareSerial4readEv>
 65a:	08 95       	ret

Servo.o:     file format elf32-avr

Sections:
Idx Name          Size      VMA       LMA       File off  Algn
  0 .text         0000056e  00000000  00000000  00000034  2**0
                  CONTENTS, ALLOC, LOAD, RELOC, READONLY, CODE
  1 .data         00000000  00000000  00000000  000005a2  2**0
                  CONTENTS, ALLOC, LOAD, DATA
  2 .bss          00000026  00000000  00000000  000005a2  2**0
                  ALLOC

Disassembly of section .text:

00000000 <__vector_11>:
   0:	1f 92       	push	r1
   2:	0f 92       	push	r0
   4:	0f b6       	in	r0, 0x3f	; 63
   6:	0f 92       	push	r0
   8:	11 24       	eor	r1, r1
   a:	2f 93       	push	r18
   c:	3f 93       	push	r19
   e:	4f 93       	push	r20
  10:	5f 93       	push	r21
  12:	6f 93       	push	r22
  14:	7f 93       	push	r23
  16:	8f 93       	push	r24
  18:	9f 93       	push	r25
  1a:	af 93       	push	r26
  1c:	bf 93       	push	r27
  1e:	ef 93       	push	r30
  20:	ff 93       	push	r31
  22:	80 91 00 00 	lds	r24, 0x0000
  26:	87 ff       	sbrs	r24, 7
  28:	00 c0       	rjmp	.+0      	; 0x2a <__vector_11+0x2a>
  2a:	10 92 85 00 	sts	0x0085, r1
  2e:	10 92 84 00 	sts	0x0084, r1
  32:	00 c0       	rjmp	.+0      	; 0x34 <__vector_11+0x34>
  34:	20 91 00 00 	lds	r18, 0x0000
  38:	33 27       	eor	r19, r19
  3a:	27 fd       	sbrc	r18, 7
  3c:	30 95       	com	r19
  3e:	80 91 00 00 	lds	r24, 0x0000
  42:	90 e0       	ldi	r25, 0x00	; 0
  44:	28 17       	cp	r18, r24
  46:	39 07       	cpc	r19, r25
  48:	04 f4       	brge	.+0      	; 0x4a <__vector_11+0x4a>
  4a:	80 91 00 00 	lds	r24, 0x0000
  4e:	99 27       	eor	r25, r25
  50:	87 fd       	sbrc	r24, 7
  52:	90 95       	com	r25
  54:	fc 01       	movw	r30, r24
  56:	ee 0f       	add	r30, r30
  58:	ff 1f       	adc	r31, r31
  5a:	e8 0f       	add	r30, r24
  5c:	f9 1f       	adc	r31, r25
  5e:	e0 50       	subi	r30, 0x00	; 0
  60:	f0 40       	sbci	r31, 0x00	; 0
  62:	80 81       	ld	r24, Z
  64:	86 ff       	sbrs	r24, 6
  66:	00 c0       	rjmp	.+0      	; 0x68 <__vector_11+0x68>
  68:	80 91 00 00 	lds	r24, 0x0000
  6c:	99 27       	eor	r25, r25
  6e:	87 fd       	sbrc	r24, 7
  70:	90 95       	com	r25
  72:	fc 01       	movw	r30, r24
  74:	ee 0f       	add	r30, r30
  76:	ff 1f       	adc	r31, r31
  78:	e8 0f       	add	r30, r24
  7a:	f9 1f       	adc	r31, r25
  7c:	e0 50       	subi	r30, 0x00	; 0
  7e:	f0 40       	sbci	r31, 0x00	; 0
  80:	80 81       	ld	r24, Z
  82:	8f 73       	andi	r24, 0x3F	; 63
  84:	60 e0       	ldi	r22, 0x00	; 0
  86:	0e 94 00 00 	call	0	; 0x0 <__vector_11>
  8a:	80 91 00 00 	lds	r24, 0x0000
  8e:	8f 5f       	subi	r24, 0xFF	; 255
  90:	80 93 00 00 	sts	0x0000, r24
  94:	20 91 00 00 	lds	r18, 0x0000
  98:	33 27       	eor	r19, r19
  9a:	27 fd       	sbrc	r18, 7
  9c:	30 95       	com	r19
  9e:	80 91 00 00 	lds	r24, 0x0000
  a2:	90 e0       	ldi	r25, 0x00	; 0
  a4:	28 17       	cp	r18, r24
  a6:	39 07       	cpc	r19, r25
  a8:	04 f0       	brlt	.+0      	; 0xaa <__vector_11+0xaa>
  aa:	00 c0       	rjmp	.+0      	; 0xac <__vector_11+0xac>
  ac:	80 91 00 00 	lds	r24, 0x0000
  b0:	8c 30       	cpi	r24, 0x0C	; 12
  b2:	04 f0       	brlt	.+0      	; 0xb4 <__vector_11+0xb4>
  b4:	00 c0       	rjmp	.+0      	; 0xb6 <__vector_11+0xb6>
  b6:	80 91 84 00 	lds	r24, 0x0084
  ba:	90 91 85 00 	lds	r25, 0x0085
  be:	20 91 00 00 	lds	r18, 0x0000
  c2:	33 27       	eor	r19, r19
  c4:	27 fd       	sbrc	r18, 7
  c6:	30 95       	com	r19
  c8:	f9 01       	movw	r30, r18
  ca:	ee 0f       	add	r30, r30
  cc:	ff 1f       	adc	r31, r31
  ce:	e2 0f       	add	r30, r18
  d0:	f3 1f       	adc	r31, r19
  d2:	e0 50       	subi	r30, 0x00	; 0
  d4:	f0 40       	sbci	r31, 0x00	; 0
  d6:	21 81       	ldd	r18, Z+1	; 0x01
  d8:	32 81       	ldd	r19, Z+2	; 0x02
  da:	82 0f       	add	r24, r18
  dc:	93 1f       	adc	r25, r19
  de:	90 93 89 00 	sts	0x0089, r25
  e2:	80 93 88 00 	sts	0x0088, r24
  e6:	80 91 00 00 	lds	r24, 0x0000
  ea:	99 27       	eor	r25, r25
  ec:	87 fd       	sbrc	r24, 7
  ee:	90 95       	com	r25
  f0:	fc 01       	movw	r30, r24
  f2:	ee 0f       	add	r30, r30
  f4:	ff 1f       	adc	r31, r31
  f6:	e8 0f       	add	r30, r24
  f8:	f9 1f       	adc	r31, r25
  fa:	e0 50       	subi	r30, 0x00	; 0
  fc:	f0 40       	sbci	r31, 0x00	; 0
  fe:	80 81       	ld	r24, Z
 100:	86 ff       	sbrs	r24, 6
 102:	00 c0       	rjmp	.+0      	; 0x104 <__vector_11+0x104>
 104:	80 91 00 00 	lds	r24, 0x0000
 108:	99 27       	eor	r25, r25
 10a:	87 fd       	sbrc	r24, 7
 10c:	90 95       	com	r25
 10e:	fc 01       	movw	r30, r24
 110:	ee 0f       	add	r30, r30
 112:	ff 1f       	adc	r31, r31
 114:	e8 0f       	add	r30, r24
 116:	f9 1f       	adc	r31, r25
 118:	e0 50       	subi	r30, 0x00	; 0
 11a:	f0 40       	sbci	r31, 0x00	; 0
 11c:	80 81       	ld	r24, Z
 11e:	8f 73       	andi	r24, 0x3F	; 63
 120:	61 e0       	ldi	r22, 0x01	; 1
 122:	0e 94 00 00 	call	0	; 0x0 <__vector_11>
 126:	00 c0       	rjmp	.+0      	; 0x128 <__vector_11+0x128>
 128:	80 e4       	ldi	r24, 0x40	; 64
 12a:	9c e9       	ldi	r25, 0x9C	; 156
 12c:	00 c0       	rjmp	.+0      	; 0x12e <__vector_11+0x12e>
 12e:	80 91 84 00 	lds	r24, 0x0084
 132:	90 91 85 00 	lds	r25, 0x0085
 136:	04 96       	adiw	r24, 0x04	; 4
 138:	90 93 89 00 	sts	0x0089, r25
 13c:	80 93 88 00 	sts	0x0088, r24
 140:	8f ef       	ldi	r24, 0xFF	; 255
 142:	80 93 00 00 	sts	0x0000, r24
 146:	00 c0       	rjmp	.+0      	; 0x148 <__vector_11+0x148>
 148:	80 91 84 00 	lds	r24, 0x0084
 14c:	90 91 85 00 	lds	r25, 0x0085
 150:	04 96       	adiw	r24, 0x04	; 4
 152:	2c e9       	ldi	r18, 0x9C	; 156
 154:	80 34       	cpi	r24, 0x40	; 64
 156:	92 07       	cpc	r25, r18
 158:	00 f0       	brcs	.+0      	; 0x15a <__vector_11+0x15a>
 15a:	00 c0       	rjmp	.+0      	; 0x15c <__vector_11+0x15c>
 15c:	ff 91       	pop	r31
 15e:	ef 91       	pop	r30
 160:	bf 91       	pop	r27
 162:	af 91       	pop	r26
 164:	9f 91       	pop	r25
 166:	8f 91       	pop	r24
 168:	7f 91       	pop	r23
 16a:	6f 91       	pop	r22
 16c:	5f 91       	pop	r21
 16e:	4f 91       	pop	r20
 170:	3f 91       	pop	r19
 172:	2f 91       	pop	r18
 174:	0f 90       	pop	r0
 176:	0f be       	out	0x3f, r0	; 63
 178:	0f 90       	pop	r0
 17a:	1f 90       	pop	r1
 17c:	18 95       	reti

0000017e <_ZN5ServoC1Ev>:
 17e:	fc 01       	movw	r30, r24
 180:	80 91 00 00 	lds	r24, 0x0000
 184:	8c 30       	cpi	r24, 0x0C	; 12
 186:	00 f4       	brcc	.+0      	; 0x188 <_ZN5ServoC1Ev+0xa>
 188:	80 83       	st	Z, r24
 18a:	98 2f       	mov	r25, r24
 18c:	9f 5f       	subi	r25, 0xFF	; 255
 18e:	90 93 00 00 	sts	0x0000, r25
 192:	90 e0       	ldi	r25, 0x00	; 0
 194:	fc 01       	movw	r30, r24
 196:	ee 0f       	add	r30, r30
 198:	ff 1f       	adc	r31, r31
 19a:	e8 0f       	add	r30, r24
 19c:	f9 1f       	adc	r31, r25
 19e:	e0 50       	subi	r30, 0x00	; 0
 1a0:	f0 40       	sbci	r31, 0x00	; 0
 1a2:	88 eb       	ldi	r24, 0xB8	; 184
 1a4:	9b e0       	ldi	r25, 0x0B	; 11
 1a6:	92 83       	std	Z+2, r25	; 0x02
 1a8:	81 83       	std	Z+1, r24	; 0x01
 1aa:	08 95       	ret
 1ac:	8f ef       	ldi	r24, 0xFF	; 255
 1ae:	80 83       	st	Z, r24
 1b0:	08 95       	ret

000001b2 <_ZN5Servo6attachEiii>:
 1b2:	cf 92       	push	r12
 1b4:	df 92       	push	r13
 1b6:	ef 92       	push	r14
 1b8:	ff 92       	push	r15
 1ba:	0f 93       	push	r16
 1bc:	1f 93       	push	r17
 1be:	cf 93       	push	r28
 1c0:	8c 01       	movw	r16, r24
 1c2:	c6 2f       	mov	r28, r22
 1c4:	7a 01       	movw	r14, r20
 1c6:	69 01       	movw	r12, r18
 1c8:	fc 01       	movw	r30, r24
 1ca:	80 81       	ld	r24, Z
 1cc:	8c 30       	cpi	r24, 0x0C	; 12
 1ce:	00 f0       	brcs	.+0      	; 0x1d0 <_ZN5Servo6attachEiii+0x1e>
 1d0:	00 c0       	rjmp	.+0      	; 0x1d2 <_ZN5Servo6attachEiii+0x20>
 1d2:	86 2f       	mov	r24, r22
 1d4:	61 e0       	ldi	r22, 0x01	; 1
 1d6:	0e 94 00 00 	call	0	; 0x0 <__vector_11>
 1da:	f8 01       	movw	r30, r16
 1dc:	40 81       	ld	r20, Z
 1de:	84 2f       	mov	r24, r20
 1e0:	90 e0       	ldi	r25, 0x00	; 0
 1e2:	fc 01       	movw	r30, r24
 1e4:	ee 0f       	add	r30, r30
 1e6:	ff 1f       	adc	r31, r31
 1e8:	e8 0f       	add	r30, r24
 1ea:	f9 1f       	adc	r31, r25
 1ec:	e0 50       	subi	r30, 0x00	; 0
 1ee:	f0 40       	sbci	r31, 0x00	; 0
 1f0:	cf 73       	andi	r28, 0x3F	; 63
 1f2:	80 81       	ld	r24, Z
 1f4:	80 7c       	andi	r24, 0xC0	; 192
 1f6:	8c 2b       	or	r24, r28
 1f8:	80 83       	st	Z, r24
 1fa:	80 e2       	ldi	r24, 0x20	; 32
 1fc:	92 e0       	ldi	r25, 0x02	; 2
 1fe:	8e 19       	sub	r24, r14
 200:	9f 09       	sbc	r25, r15
 202:	24 e0       	ldi	r18, 0x04	; 4
 204:	30 e0       	ldi	r19, 0x00	; 0
 206:	b9 01       	movw	r22, r18
 208:	0e 94 00 00 	call	0	; 0x0 <__vector_11>
 20c:	f8 01       	movw	r30, r16
 20e:	61 83       	std	Z+1, r22	; 0x01
 210:	80 e6       	ldi	r24, 0x60	; 96
 212:	99 e0       	ldi	r25, 0x09	; 9
 214:	8c 19       	sub	r24, r12
 216:	9d 09       	sbc	r25, r13
 218:	b9 01       	movw	r22, r18
 21a:	0e 94 00 00 	call	0	; 0x0 <__vector_11>
 21e:	62 83       	std	Z+2, r22	; 0x02
 220:	84 2f       	mov	r24, r20
 222:	6c e0       	ldi	r22, 0x0C	; 12
 224:	0e 94 00 00 	call	0	; 0x0 <__vector_11>
 228:	28 2f       	mov	r18, r24
 22a:	30 e0       	ldi	r19, 0x00	; 0
 22c:	a9 01       	movw	r20, r18
 22e:	44 0f       	add	r20, r20
 230:	55 1f       	adc	r21, r21
 232:	42 0f       	add	r20, r18
 234:	53 1f       	adc	r21, r19
 236:	44 0f       	add	r20, r20
 238:	55 1f       	adc	r21, r21
 23a:	44 0f       	add	r20, r20
 23c:	55 1f       	adc	r21, r21
 23e:	60 e0       	ldi	r22, 0x00	; 0
 240:	70 e0       	ldi	r23, 0x00	; 0
 242:	9b 01       	movw	r18, r22
 244:	24 0f       	add	r18, r20
 246:	35 1f       	adc	r19, r21
 248:	f9 01       	movw	r30, r18
 24a:	ee 0f       	add	r30, r30
 24c:	ff 1f       	adc	r31, r31
 24e:	e2 0f       	add	r30, r18
 250:	f3 1f       	adc	r31, r19
 252:	e0 50       	subi	r30, 0x00	; 0
 254:	f0 40       	sbci	r31, 0x00	; 0
 256:	90 81       	ld	r25, Z
 258:	96 fd       	sbrc	r25, 6
 25a:	00 c0       	rjmp	.+0      	; 0x25c <_ZN5Servo6attachEiii+0xaa>
 25c:	6f 5f       	subi	r22, 0xFF	; 255
 25e:	7f 4f       	sbci	r23, 0xFF	; 255
 260:	6c 30       	cpi	r22, 0x0C	; 12
 262:	71 05       	cpc	r23, r1
 264:	01 f4       	brne	.+0      	; 0x266 <_ZN5Servo6attachEiii+0xb4>
 266:	00 c0       	rjmp	.+0      	; 0x268 <_ZN5Servo6attachEiii+0xb6>
 268:	10 92 80 00 	sts	0x0080, r1
 26c:	82 e0       	ldi	r24, 0x02	; 2
 26e:	80 93 81 00 	sts	0x0081, r24
 272:	10 92 85 00 	sts	0x0085, r1
 276:	10 92 84 00 	sts	0x0084, r1
 27a:	b1 9a       	sbi	0x16, 1	; 22
 27c:	80 91 6f 00 	lds	r24, 0x006F
 280:	82 60       	ori	r24, 0x02	; 2
 282:	80 93 6f 00 	sts	0x006F, r24
 286:	f8 01       	movw	r30, r16
 288:	80 81       	ld	r24, Z
 28a:	90 e0       	ldi	r25, 0x00	; 0
 28c:	fc 01       	movw	r30, r24
 28e:	ee 0f       	add	r30, r30
 290:	ff 1f       	adc	r31, r31
 292:	e8 0f       	add	r30, r24
 294:	f9 1f       	adc	r31, r25
 296:	e0 50       	subi	r30, 0x00	; 0
 298:	f0 40       	sbci	r31, 0x00	; 0
 29a:	80 81       	ld	r24, Z
 29c:	80 64       	ori	r24, 0x40	; 64
 29e:	80 83       	st	Z, r24
 2a0:	f8 01       	movw	r30, r16
 2a2:	80 81       	ld	r24, Z
 2a4:	cf 91       	pop	r28
 2a6:	1f 91       	pop	r17
 2a8:	0f 91       	pop	r16
 2aa:	ff 90       	pop	r15
 2ac:	ef 90       	pop	r14
 2ae:	df 90       	pop	r13
 2b0:	cf 90       	pop	r12
 2b2:	08 95       	ret
 2b4:	88 23       	and	r24, r24
 2b6:	01 f0       	breq	.+0      	; 0x2b8 <_ZN5Servo6attachEiii+0x106>
 2b8:	00 c0       	rjmp	.+0      	; 0x2ba <_ZN5Servo6attachEi>

000002ba <_ZN5Servo6attachEi>:
 2ba:	40 e2       	ldi	r20, 0x20	; 32
 2bc:	52 e0       	ldi	r21, 0x02	; 2
 2be:	20 e6       	ldi	r18, 0x60	; 96
 2c0:	39 e0       	ldi	r19, 0x09	; 9
 2c2:	0e 94 00 00 	call	0	; 0x0 <__vector_11>
 2c6:	08 95       	ret

000002c8 <_ZN5Servo6detachEv>:
 2c8:	fc 01       	movw	r30, r24
 2ca:	80 81       	ld	r24, Z
 2cc:	90 e0       	ldi	r25, 0x00	; 0
 2ce:	fc 01       	movw	r30, r24
 2d0:	ee 0f       	add	r30, r30
 2d2:	ff 1f       	adc	r31, r31
 2d4:	e8 0f       	add	r30, r24
 2d6:	f9 1f       	adc	r31, r25
 2d8:	e0 50       	subi	r30, 0x00	; 0
 2da:	f0 40       	sbci	r31, 0x00	; 0
 2dc:	80 81       	ld	r24, Z
 2de:	8f 7b       	andi	r24, 0xBF	; 191
 2e0:	80 83       	st	Z, r24
 2e2:	08 95       	ret

000002e4 <_ZN5Servo17writeMicrosecondsEi>:
 2e4:	cf 93       	push	r28
 2e6:	fc 01       	movw	r30, r24
 2e8:	c0 81       	ld	r28, Z
 2ea:	cc 30       	cpi	r28, 0x0C	; 12
 2ec:	00 f0       	brcs	.+0      	; 0x2ee <_ZN5Servo17writeMicrosecondsEi+0xa>
 2ee:	00 c0       	rjmp	.+0      	; 0x2f0 <_ZN5Servo17writeMicrosecondsEi+0xc>
 2f0:	21 81       	ldd	r18, Z+1	; 0x01
 2f2:	33 27       	eor	r19, r19
 2f4:	27 fd       	sbrc	r18, 7
 2f6:	30 95       	com	r19
 2f8:	88 e8       	ldi	r24, 0x88	; 136
 2fa:	90 e0       	ldi	r25, 0x00	; 0
 2fc:	82 1b       	sub	r24, r18
 2fe:	93 0b       	sbc	r25, r19
 300:	88 0f       	add	r24, r24
 302:	99 1f       	adc	r25, r25
 304:	88 0f       	add	r24, r24
 306:	99 1f       	adc	r25, r25
 308:	68 17       	cp	r22, r24
 30a:	79 07       	cpc	r23, r25
 30c:	04 f0       	brlt	.+0      	; 0x30e <_ZN5Servo17writeMicrosecondsEi+0x2a>
 30e:	42 81       	ldd	r20, Z+2	; 0x02
 310:	55 27       	eor	r21, r21
 312:	47 fd       	sbrc	r20, 7
 314:	50 95       	com	r21
 316:	88 e5       	ldi	r24, 0x58	; 88
 318:	92 e0       	ldi	r25, 0x02	; 2
 31a:	84 1b       	sub	r24, r20
 31c:	95 0b       	sbc	r25, r21
 31e:	88 0f       	add	r24, r24
 320:	99 1f       	adc	r25, r25
 322:	88 0f       	add	r24, r24
 324:	99 1f       	adc	r25, r25
 326:	68 17       	cp	r22, r24
 328:	79 07       	cpc	r23, r25
 32a:	04 f4       	brge	.+0      	; 0x32c <_ZN5Servo17writeMicrosecondsEi+0x48>
 32c:	cb 01       	movw	r24, r22
 32e:	02 97       	sbiw	r24, 0x02	; 2
 330:	aa 27       	eor	r26, r26
 332:	97 fd       	sbrc	r25, 7
 334:	a0 95       	com	r26
 336:	ba 2f       	mov	r27, r26
 338:	24 e0       	ldi	r18, 0x04	; 4
 33a:	88 0f       	add	r24, r24
 33c:	99 1f       	adc	r25, r25
 33e:	aa 1f       	adc	r26, r26
 340:	bb 1f       	adc	r27, r27
 342:	2a 95       	dec	r18
 344:	01 f4       	brne	.+0      	; 0x346 <_ZN5Servo17writeMicrosecondsEi+0x62>
 346:	33 e0       	ldi	r19, 0x03	; 3
 348:	b6 95       	lsr	r27
 34a:	a7 95       	ror	r26
 34c:	97 95       	ror	r25
 34e:	87 95       	ror	r24
 350:	3a 95       	dec	r19
 352:	01 f4       	brne	.+0      	; 0x354 <_ZN5Servo17writeMicrosecondsEi+0x70>
 354:	4f b7       	in	r20, 0x3f	; 63
 356:	f8 94       	cli
 358:	2c 2f       	mov	r18, r28
 35a:	30 e0       	ldi	r19, 0x00	; 0
 35c:	f9 01       	movw	r30, r18
 35e:	ee 0f       	add	r30, r30
 360:	ff 1f       	adc	r31, r31
 362:	e2 0f       	add	r30, r18
 364:	f3 1f       	adc	r31, r19
 366:	e0 50       	subi	r30, 0x00	; 0
 368:	f0 40       	sbci	r31, 0x00	; 0
 36a:	92 83       	std	Z+2, r25	; 0x02
 36c:	81 83       	std	Z+1, r24	; 0x01
 36e:	4f bf       	out	0x3f, r20	; 63
 370:	cf 91       	pop	r28
 372:	08 95       	ret

00000374 <_ZN5Servo5writeEi>:
 374:	af 92       	push	r10
 376:	bf 92       	push	r11
 378:	cf 92       	push	r12
 37a:	df 92       	push	r13
 37c:	ef 92       	push	r14
 37e:	ff 92       	push	r15
 380:	0f 93       	push	r16
 382:	1f 93       	push	r17
 384:	cf 93       	push	r28
 386:	df 93       	push	r29
 388:	ec 01       	movw	r28, r24
 38a:	82 e0       	ldi	r24, 0x02	; 2
 38c:	60 32       	cpi	r22, 0x20	; 32
 38e:	78 07       	cpc	r23, r24
 390:	04 f0       	brlt	.+0      	; 0x392 <_ZN5Servo5writeEi+0x1e>
 392:	00 c0       	rjmp	.+0      	; 0x394 <_ZN5Servo5writeEi+0x20>
 394:	77 fd       	sbrc	r23, 7
 396:	00 c0       	rjmp	.+0      	; 0x398 <_ZN5Servo5writeEi+0x24>
 398:	65 3b       	cpi	r22, 0xB5	; 181
 39a:	71 05       	cpc	r23, r1
 39c:	04 f4       	brge	.+0      	; 0x39e <_ZN5Servo5writeEi+0x2a>
 39e:	00 c0       	rjmp	.+0      	; 0x3a0 <_ZN5Servo5writeEi+0x2c>
 3a0:	60 e0       	ldi	r22, 0x00	; 0
 3a2:	70 e0       	ldi	r23, 0x00	; 0
 3a4:	00 c0       	rjmp	.+0      	; 0x3a6 <_ZN5Servo5writeEi+0x32>
 3a6:	64 eb       	ldi	r22, 0xB4	; 180
 3a8:	70 e0       	ldi	r23, 0x00	; 0
 3aa:	00 d0       	rcall	.+0      	; 0x3ac <_ZN5Servo5writeEi+0x38>
 3ac:	00 d0       	rcall	.+0      	; 0x3ae <_ZN5Servo5writeEi+0x3a>
 3ae:	fb 01       	movw	r30, r22
 3b0:	af 01       	movw	r20, r30
 3b2:	66 27       	eor	r22, r22
 3b4:	57 fd       	sbrc	r21, 7
 3b6:	60 95       	com	r22
 3b8:	76 2f       	mov	r23, r22
 3ba:	29 81       	ldd	r18, Y+1	; 0x01
 3bc:	33 27       	eor	r19, r19
 3be:	27 fd       	sbrc	r18, 7
 3c0:	30 95       	com	r19
 3c2:	88 e8       	ldi	r24, 0x88	; 136
 3c4:	90 e0       	ldi	r25, 0x00	; 0
 3c6:	82 1b       	sub	r24, r18
 3c8:	93 0b       	sbc	r25, r19
 3ca:	88 0f       	add	r24, r24
 3cc:	99 1f       	adc	r25, r25
 3ce:	88 0f       	add	r24, r24
 3d0:	99 1f       	adc	r25, r25
 3d2:	5c 01       	movw	r10, r24
 3d4:	cc 24       	eor	r12, r12
 3d6:	b7 fc       	sbrc	r11, 7
 3d8:	c0 94       	com	r12
 3da:	dc 2c       	mov	r13, r12
 3dc:	2a 81       	ldd	r18, Y+2	; 0x02
 3de:	33 27       	eor	r19, r19
 3e0:	27 fd       	sbrc	r18, 7
 3e2:	30 95       	com	r19
 3e4:	88 e5       	ldi	r24, 0x58	; 88
 3e6:	92 e0       	ldi	r25, 0x02	; 2
 3e8:	82 1b       	sub	r24, r18
 3ea:	93 0b       	sbc	r25, r19
 3ec:	88 0f       	add	r24, r24
 3ee:	99 1f       	adc	r25, r25
 3f0:	88 0f       	add	r24, r24
 3f2:	99 1f       	adc	r25, r25
 3f4:	aa 27       	eor	r26, r26
 3f6:	97 fd       	sbrc	r25, 7
 3f8:	a0 95       	com	r26
 3fa:	ba 2f       	mov	r27, r26
 3fc:	ed b7       	in	r30, 0x3d	; 61
 3fe:	fe b7       	in	r31, 0x3e	; 62
 400:	81 83       	std	Z+1, r24	; 0x01
 402:	92 83       	std	Z+2, r25	; 0x02
 404:	a3 83       	std	Z+3, r26	; 0x03
 406:	b4 83       	std	Z+4, r27	; 0x04
 408:	cb 01       	movw	r24, r22
 40a:	ba 01       	movw	r22, r20
 40c:	20 e0       	ldi	r18, 0x00	; 0
 40e:	30 e0       	ldi	r19, 0x00	; 0
 410:	40 e0       	ldi	r20, 0x00	; 0
 412:	50 e0       	ldi	r21, 0x00	; 0
 414:	0f 2e       	mov	r0, r31
 416:	f4 eb       	ldi	r31, 0xB4	; 180
 418:	ef 2e       	mov	r14, r31
 41a:	f0 e0       	ldi	r31, 0x00	; 0
 41c:	ff 2e       	mov	r15, r31
 41e:	f0 e0       	ldi	r31, 0x00	; 0
 420:	0f 2f       	mov	r16, r31
 422:	f0 e0       	ldi	r31, 0x00	; 0
 424:	1f 2f       	mov	r17, r31
 426:	f0 2d       	mov	r31, r0
 428:	0e 94 00 00 	call	0	; 0x0 <__vector_11>
 42c:	ab 01       	movw	r20, r22
 42e:	bc 01       	movw	r22, r24
 430:	ba 01       	movw	r22, r20
 432:	0f 90       	pop	r0
 434:	0f 90       	pop	r0
 436:	0f 90       	pop	r0
 438:	0f 90       	pop	r0
 43a:	ce 01       	movw	r24, r28
 43c:	0e 94 00 00 	call	0	; 0x0 <__vector_11>
 440:	df 91       	pop	r29
 442:	cf 91       	pop	r28
 444:	1f 91       	pop	r17
 446:	0f 91       	pop	r16
 448:	ff 90       	pop	r15
 44a:	ef 90       	pop	r14
 44c:	df 90       	pop	r13
 44e:	cf 90       	pop	r12
 450:	bf 90       	pop	r11
 452:	af 90       	pop	r10
 454:	08 95       	ret

00000456 <_ZN5Servo16readMicrosecondsEv>:
 456:	fc 01       	movw	r30, r24
 458:	80 81       	ld	r24, Z
 45a:	8f 3f       	cpi	r24, 0xFF	; 255
 45c:	01 f0       	breq	.+0      	; 0x45e <_ZN5Servo16readMicrosecondsEv+0x8>
 45e:	90 e0       	ldi	r25, 0x00	; 0
 460:	fc 01       	movw	r30, r24
 462:	ee 0f       	add	r30, r30
 464:	ff 1f       	adc	r31, r31
 466:	e8 0f       	add	r30, r24
 468:	f9 1f       	adc	r31, r25
 46a:	e0 50       	subi	r30, 0x00	; 0
 46c:	f0 40       	sbci	r31, 0x00	; 0
 46e:	81 81       	ldd	r24, Z+1	; 0x01
 470:	92 81       	ldd	r25, Z+2	; 0x02
 472:	33 e0       	ldi	r19, 0x03	; 3
 474:	88 0f       	add	r24, r24
 476:	99 1f       	adc	r25, r25
 478:	3a 95       	dec	r19
 47a:	01 f4       	brne	.+0      	; 0x47c <_ZN5Servo16readMicrosecondsEv+0x26>
 47c:	44 e0       	ldi	r20, 0x04	; 4
 47e:	96 95       	lsr	r25
 480:	87 95       	ror	r24
 482:	4a 95       	dec	r20
 484:	01 f4       	brne	.+0      	; 0x486 <_ZN5Servo16readMicrosecondsEv+0x30>
 486:	02 96       	adiw	r24, 0x02	; 2
 488:	08 95       	ret
 48a:	80 e0       	ldi	r24, 0x00	; 0
 48c:	90 e0       	ldi	r25, 0x00	; 0
 48e:	08 95       	ret

00000490 <_ZN5Servo4readEv>:
 490:	8f 92       	push	r8
 492:	9f 92       	push	r9
 494:	af 92       	push	r10
 496:	bf 92       	push	r11
 498:	cf 92       	push	r12
 49a:	df 92       	push	r13
 49c:	ef 92       	push	r14
 49e:	ff 92       	push	r15
 4a0:	0f 93       	push	r16
 4a2:	1f 93       	push	r17
 4a4:	cf 93       	push	r28
 4a6:	df 93       	push	r29
 4a8:	ec 01       	movw	r28, r24
 4aa:	0e 94 00 00 	call	0	; 0x0 <__vector_11>
 4ae:	00 d0       	rcall	.+0      	; 0x4b0 <_ZN5Servo4readEv+0x20>
 4b0:	00 d0       	rcall	.+0      	; 0x4b2 <_ZN5Servo4readEv+0x22>
 4b2:	ac 01       	movw	r20, r24
 4b4:	4f 5f       	subi	r20, 0xFF	; 255
 4b6:	5f 4f       	sbci	r21, 0xFF	; 255
 4b8:	66 27       	eor	r22, r22
 4ba:	57 fd       	sbrc	r21, 7
 4bc:	60 95       	com	r22
 4be:	76 2f       	mov	r23, r22
 4c0:	29 81       	ldd	r18, Y+1	; 0x01
 4c2:	33 27       	eor	r19, r19
 4c4:	27 fd       	sbrc	r18, 7
 4c6:	30 95       	com	r19
 4c8:	88 e8       	ldi	r24, 0x88	; 136
 4ca:	90 e0       	ldi	r25, 0x00	; 0
 4cc:	82 1b       	sub	r24, r18
 4ce:	93 0b       	sbc	r25, r19
 4d0:	88 0f       	add	r24, r24
 4d2:	99 1f       	adc	r25, r25
 4d4:	88 0f       	add	r24, r24
 4d6:	99 1f       	adc	r25, r25
 4d8:	4c 01       	movw	r8, r24
 4da:	aa 24       	eor	r10, r10
 4dc:	97 fc       	sbrc	r9, 7
 4de:	a0 94       	com	r10
 4e0:	ba 2c       	mov	r11, r10
 4e2:	2a 81       	ldd	r18, Y+2	; 0x02
 4e4:	33 27       	eor	r19, r19
 4e6:	27 fd       	sbrc	r18, 7
 4e8:	30 95       	com	r19
 4ea:	88 e5       	ldi	r24, 0x58	; 88
 4ec:	92 e0       	ldi	r25, 0x02	; 2
 4ee:	82 1b       	sub	r24, r18
 4f0:	93 0b       	sbc	r25, r19
 4f2:	88 0f       	add	r24, r24
 4f4:	99 1f       	adc	r25, r25
 4f6:	88 0f       	add	r24, r24
 4f8:	99 1f       	adc	r25, r25
 4fa:	7c 01       	movw	r14, r24
 4fc:	00 27       	eor	r16, r16
 4fe:	f7 fc       	sbrc	r15, 7
 500:	00 95       	com	r16
 502:	10 2f       	mov	r17, r16
 504:	84 eb       	ldi	r24, 0xB4	; 180
 506:	90 e0       	ldi	r25, 0x00	; 0
 508:	a0 e0       	ldi	r26, 0x00	; 0
 50a:	b0 e0       	ldi	r27, 0x00	; 0
 50c:	ed b7       	in	r30, 0x3d	; 61
 50e:	fe b7       	in	r31, 0x3e	; 62
 510:	81 83       	std	Z+1, r24	; 0x01
 512:	92 83       	std	Z+2, r25	; 0x02
 514:	a3 83       	std	Z+3, r26	; 0x03
 516:	b4 83       	std	Z+4, r27	; 0x04
 518:	cb 01       	movw	r24, r22
 51a:	ba 01       	movw	r22, r20
 51c:	a5 01       	movw	r20, r10
 51e:	94 01       	movw	r18, r8
 520:	aa 24       	eor	r10, r10
 522:	bb 24       	eor	r11, r11
 524:	65 01       	movw	r12, r10
 526:	0e 94 00 00 	call	0	; 0x0 <__vector_11>
 52a:	0f 90       	pop	r0
 52c:	0f 90       	pop	r0
 52e:	0f 90       	pop	r0
 530:	0f 90       	pop	r0
 532:	cb 01       	movw	r24, r22
 534:	df 91       	pop	r29
 536:	cf 91       	pop	r28
 538:	1f 91       	pop	r17
 53a:	0f 91       	pop	r16
 53c:	ff 90       	pop	r15
 53e:	ef 90       	pop	r14
 540:	df 90       	pop	r13
 542:	cf 90       	pop	r12
 544:	bf 90       	pop	r11
 546:	af 90       	pop	r10
 548:	9f 90       	pop	r9
 54a:	8f 90       	pop	r8
 54c:	08 95       	ret

0000054e <_ZN5Servo8attachedEv>:
 54e:	fc 01       	movw	r30, r24
 550:	80 81       	ld	r24, Z
 552:	90 e0       	ldi	r25, 0x00	; 0
 554:	fc 01       	movw	r30, r24
 556:	ee 0f       	add	r30, r30
 558:	ff 1f       	adc	r31, r31
 55a:	e8 0f       	add	r30, r24
 55c:	f9 1f       	adc	r31, r25
 55e:	e0 50       	subi	r30, 0x00	; 0
 560:	f0 40       	sbci	r31, 0x00	; 0
 562:	80 81       	ld	r24, Z
 564:	82 95       	swap	r24
 566:	86 95       	lsr	r24
 568:	86 95       	lsr	r24
 56a:	81 70       	andi	r24, 0x01	; 1
 56c:	08 95       	ret

SPI.o:     file format elf32-avr

Sections:
Idx Name          Size      VMA       LMA       File off  Algn
  0 .text         00000084  00000000  00000000  00000034  2**0
                  CONTENTS, ALLOC, LOAD, RELOC, READONLY, CODE
  1 .data         00000000  00000000  00000000  000000b8  2**0
                  CONTENTS, ALLOC, LOAD, DATA
  2 .bss          00000001  00000000  00000000  000000b8  2**0
                  ALLOC

Disassembly of section .text:

00000000 <_ZN8SPIClass5beginEv>:
   0:	8d e0       	ldi	r24, 0x0D	; 13
   2:	61 e0       	ldi	r22, 0x01	; 1
   4:	0e 94 00 00 	call	0	; 0x0 <_ZN8SPIClass5beginEv>
   8:	8b e0       	ldi	r24, 0x0B	; 11
   a:	61 e0       	ldi	r22, 0x01	; 1
   c:	0e 94 00 00 	call	0	; 0x0 <_ZN8SPIClass5beginEv>
  10:	8a e0       	ldi	r24, 0x0A	; 10
  12:	61 e0       	ldi	r22, 0x01	; 1
  14:	0e 94 00 00 	call	0	; 0x0 <_ZN8SPIClass5beginEv>
  18:	8d e0       	ldi	r24, 0x0D	; 13
  1a:	60 e0       	ldi	r22, 0x00	; 0
  1c:	0e 94 00 00 	call	0	; 0x0 <_ZN8SPIClass5beginEv>
  20:	8b e0       	ldi	r24, 0x0B	; 11
  22:	60 e0       	ldi	r22, 0x00	; 0
  24:	0e 94 00 00 	call	0	; 0x0 <_ZN8SPIClass5beginEv>
  28:	8a e0       	ldi	r24, 0x0A	; 10
  2a:	61 e0       	ldi	r22, 0x01	; 1
  2c:	0e 94 00 00 	call	0	; 0x0 <_ZN8SPIClass5beginEv>
  30:	8c b5       	in	r24, 0x2c	; 44
  32:	80 61       	ori	r24, 0x10	; 16
  34:	8c bd       	out	0x2c, r24	; 44
  36:	8c b5       	in	r24, 0x2c	; 44
  38:	80 64       	ori	r24, 0x40	; 64
  3a:	8c bd       	out	0x2c, r24	; 44
  3c:	08 95       	ret

0000003e <_ZN8SPIClass3endEv>:
  3e:	8c b5       	in	r24, 0x2c	; 44
  40:	8f 7b       	andi	r24, 0xBF	; 191
  42:	8c bd       	out	0x2c, r24	; 44
  44:	08 95       	ret

00000046 <_ZN8SPIClass11setBitOrderEh>:
  46:	88 23       	and	r24, r24
  48:	01 f4       	brne	.+0      	; 0x4a <_ZN8SPIClass11setBitOrderEh+0x4>
  4a:	8c b5       	in	r24, 0x2c	; 44
  4c:	80 62       	ori	r24, 0x20	; 32
  4e:	00 c0       	rjmp	.+0      	; 0x50 <_ZN8SPIClass11setBitOrderEh+0xa>
  50:	8c b5       	in	r24, 0x2c	; 44
  52:	8f 7d       	andi	r24, 0xDF	; 223
  54:	8c bd       	out	0x2c, r24	; 44
  56:	08 95       	ret

00000058 <_ZN8SPIClass11setDataModeEh>:
  58:	9c b5       	in	r25, 0x2c	; 44
  5a:	93 7f       	andi	r25, 0xF3	; 243
  5c:	98 2b       	or	r25, r24
  5e:	9c bd       	out	0x2c, r25	; 44
  60:	08 95       	ret

00000062 <_ZN8SPIClass15setClockDividerEh>:
  62:	2c b5       	in	r18, 0x2c	; 44
  64:	98 2f       	mov	r25, r24
  66:	93 70       	andi	r25, 0x03	; 3
  68:	2c 7f       	andi	r18, 0xFC	; 252
  6a:	92 2b       	or	r25, r18
  6c:	9c bd       	out	0x2c, r25	; 44
  6e:	2d b5       	in	r18, 0x2d	; 45
  70:	90 e0       	ldi	r25, 0x00	; 0
  72:	95 95       	asr	r25
  74:	87 95       	ror	r24
  76:	95 95       	asr	r25
  78:	87 95       	ror	r24
  7a:	81 70       	andi	r24, 0x01	; 1
  7c:	2e 7f       	andi	r18, 0xFE	; 254
  7e:	82 2b       	or	r24, r18
  80:	8d bd       	out	0x2d, r24	; 45
  82:	08 95       	ret

Sd2Card.o:     file format elf32-avr

Sections:
Idx Name          Size      VMA       LMA       File off  Algn
  0 .text         000009b0  00000000  00000000  00000034  2**0
                  CONTENTS, ALLOC, LOAD, RELOC, READONLY, CODE
  1 .data         00000000  00000000  00000000  000009e4  2**0
                  CONTENTS, ALLOC, LOAD, DATA
  2 .bss          00000000  00000000  00000000  000009e4  2**0
                  ALLOC

Disassembly of section .text:

00000000 <_ZL7spiSendh>:
   0:	8e bd       	out	0x2e, r24	; 46
   2:	0d b4       	in	r0, 0x2d	; 45
   4:	07 fe       	sbrs	r0, 7
   6:	00 c0       	rjmp	.+0      	; 0x8 <_ZL7spiSendh+0x8>
   8:	08 95       	ret

0000000a <_ZL6spiRecv>:
   a:	8f ef       	ldi	r24, 0xFF	; 255
   c:	0e 94 00 00 	call	0	; 0x0 <_ZL7spiSendh>
  10:	8e b5       	in	r24, 0x2e	; 46
  12:	08 95       	ret

00000014 <_ZN7Sd2Card14chipSelectHighEv>:
  14:	fc 01       	movw	r30, r24
  16:	84 81       	ldd	r24, Z+4	; 0x04
  18:	61 e0       	ldi	r22, 0x01	; 1
  1a:	0e 94 00 00 	call	0	; 0x0 <_ZL7spiSendh>
  1e:	08 95       	ret

00000020 <_ZN7Sd2Card13chipSelectLowEv>:
  20:	fc 01       	movw	r30, r24
  22:	84 81       	ldd	r24, Z+4	; 0x04
  24:	60 e0       	ldi	r22, 0x00	; 0
  26:	0e 94 00 00 	call	0	; 0x0 <_ZL7spiSendh>
  2a:	08 95       	ret

0000002c <_ZN7Sd2Card7readEndEv>:
  2c:	cf 93       	push	r28
  2e:	df 93       	push	r29
  30:	ec 01       	movw	r28, r24
  32:	8e 81       	ldd	r24, Y+6	; 0x06
  34:	88 23       	and	r24, r24
  36:	01 f0       	breq	.+0      	; 0x38 <_ZN7Sd2Card7readEndEv+0xc>
  38:	8f ef       	ldi	r24, 0xFF	; 255
  3a:	8e bd       	out	0x2e, r24	; 46
  3c:	4f ef       	ldi	r20, 0xFF	; 255
  3e:	00 c0       	rjmp	.+0      	; 0x40 <_ZN7Sd2Card7readEndEv+0x14>
  40:	0d b4       	in	r0, 0x2d	; 45
  42:	07 fe       	sbrs	r0, 7
  44:	00 c0       	rjmp	.+0      	; 0x46 <_ZN7Sd2Card7readEndEv+0x1a>
  46:	4e bd       	out	0x2e, r20	; 46
  48:	8f 81       	ldd	r24, Y+7	; 0x07
  4a:	98 85       	ldd	r25, Y+8	; 0x08
  4c:	9c 01       	movw	r18, r24
  4e:	2f 5f       	subi	r18, 0xFF	; 255
  50:	3f 4f       	sbci	r19, 0xFF	; 255
  52:	38 87       	std	Y+8, r19	; 0x08
  54:	2f 83       	std	Y+7, r18	; 0x07
  56:	22 e0       	ldi	r18, 0x02	; 2
  58:	81 30       	cpi	r24, 0x01	; 1
  5a:	92 07       	cpc	r25, r18
  5c:	00 f0       	brcs	.+0      	; 0x5e <_ZN7Sd2Card7readEndEv+0x32>
  5e:	0d b4       	in	r0, 0x2d	; 45
  60:	07 fe       	sbrs	r0, 7
  62:	00 c0       	rjmp	.+0      	; 0x64 <_ZN7Sd2Card7readEndEv+0x38>
  64:	ce 01       	movw	r24, r28
  66:	0e 94 00 00 	call	0	; 0x0 <_ZL7spiSendh>
  6a:	1e 82       	std	Y+6, r1	; 0x06
  6c:	df 91       	pop	r29
  6e:	cf 91       	pop	r28
  70:	08 95       	ret

00000072 <_ZN7Sd2Card16partialBlockReadEh>:
  72:	0f 93       	push	r16
  74:	1f 93       	push	r17
  76:	cf 93       	push	r28
  78:	df 93       	push	r29
  7a:	0f 92       	push	r0
  7c:	cd b7       	in	r28, 0x3d	; 61
  7e:	de b7       	in	r29, 0x3e	; 62
  80:	8c 01       	movw	r16, r24
  82:	69 83       	std	Y+1, r22	; 0x01
  84:	0e 94 00 00 	call	0	; 0x0 <_ZL7spiSendh>
  88:	69 81       	ldd	r22, Y+1	; 0x01
  8a:	f8 01       	movw	r30, r16
  8c:	61 87       	std	Z+9, r22	; 0x09
  8e:	0f 90       	pop	r0
  90:	df 91       	pop	r29
  92:	cf 91       	pop	r28
  94:	1f 91       	pop	r17
  96:	0f 91       	pop	r16
  98:	08 95       	ret

0000009a <_ZN7Sd2Card10setSckRateEh>:
  9a:	67 30       	cpi	r22, 0x07	; 7
  9c:	00 f0       	brcs	.+0      	; 0x9e <_ZN7Sd2Card10setSckRateEh+0x4>
  9e:	26 e1       	ldi	r18, 0x16	; 22
  a0:	fc 01       	movw	r30, r24
  a2:	25 83       	std	Z+5, r18	; 0x05
  a4:	80 e0       	ldi	r24, 0x00	; 0
  a6:	08 95       	ret
  a8:	96 2f       	mov	r25, r22
  aa:	8d b5       	in	r24, 0x2d	; 45
  ac:	60 fd       	sbrc	r22, 0
  ae:	00 c0       	rjmp	.+0      	; 0xb0 <_ZN7Sd2Card10setSckRateEh+0x16>
  b0:	66 30       	cpi	r22, 0x06	; 6
  b2:	01 f4       	brne	.+0      	; 0xb4 <_ZN7Sd2Card10setSckRateEh+0x1a>
  b4:	8e 7f       	andi	r24, 0xFE	; 254
  b6:	00 c0       	rjmp	.+0      	; 0xb8 <_ZN7Sd2Card10setSckRateEh+0x1e>
  b8:	81 60       	ori	r24, 0x01	; 1
  ba:	8d bd       	out	0x2d, r24	; 45
  bc:	8c b5       	in	r24, 0x2c	; 44
  be:	8c 7f       	andi	r24, 0xFC	; 252
  c0:	8c bd       	out	0x2c, r24	; 44
  c2:	3c b5       	in	r19, 0x2c	; 44
  c4:	92 ff       	sbrs	r25, 2
  c6:	00 c0       	rjmp	.+0      	; 0xc8 <_ZN7Sd2Card10setSckRateEh+0x2e>
  c8:	22 e0       	ldi	r18, 0x02	; 2
  ca:	00 c0       	rjmp	.+0      	; 0xcc <_ZN7Sd2Card10setSckRateEh+0x32>
  cc:	20 e0       	ldi	r18, 0x00	; 0
  ce:	81 e0       	ldi	r24, 0x01	; 1
  d0:	91 ff       	sbrs	r25, 1
  d2:	80 e0       	ldi	r24, 0x00	; 0
  d4:	83 2b       	or	r24, r19
  d6:	82 2b       	or	r24, r18
  d8:	8c bd       	out	0x2c, r24	; 44
  da:	81 e0       	ldi	r24, 0x01	; 1
  dc:	08 95       	ret

000000de <_ZN7Sd2Card11waitNotBusyEj>:
  de:	0f 93       	push	r16
  e0:	1f 93       	push	r17
  e2:	cf 93       	push	r28
  e4:	df 93       	push	r29
  e6:	eb 01       	movw	r28, r22
  e8:	0e 94 00 00 	call	0	; 0x0 <_ZL7spiSendh>
  ec:	8b 01       	movw	r16, r22
  ee:	9c 01       	movw	r18, r24
  f0:	0e 94 00 00 	call	0	; 0x0 <_ZL7spiSendh>
  f4:	8f 3f       	cpi	r24, 0xFF	; 255
  f6:	01 f0       	breq	.+0      	; 0xf8 <_ZN7Sd2Card11waitNotBusyEj+0x1a>
  f8:	0e 94 00 00 	call	0	; 0x0 <_ZL7spiSendh>
  fc:	60 1b       	sub	r22, r16
  fe:	71 0b       	sbc	r23, r17
 100:	6c 17       	cp	r22, r28
 102:	7d 07       	cpc	r23, r29
 104:	00 f0       	brcs	.+0      	; 0x106 <_ZN7Sd2Card11waitNotBusyEj+0x28>
 106:	80 e0       	ldi	r24, 0x00	; 0
 108:	00 c0       	rjmp	.+0      	; 0x10a <_ZN7Sd2Card11waitNotBusyEj+0x2c>
 10a:	81 e0       	ldi	r24, 0x01	; 1
 10c:	df 91       	pop	r29
 10e:	cf 91       	pop	r28
 110:	1f 91       	pop	r17
 112:	0f 91       	pop	r16
 114:	08 95       	ret

00000116 <_ZN7Sd2Card11cardCommandEhm>:
 116:	8f 92       	push	r8
 118:	9f 92       	push	r9
 11a:	af 92       	push	r10
 11c:	bf 92       	push	r11
 11e:	ff 92       	push	r15
 120:	0f 93       	push	r16
 122:	1f 93       	push	r17
 124:	cf 93       	push	r28
 126:	df 93       	push	r29
 128:	8c 01       	movw	r16, r24
 12a:	f6 2e       	mov	r15, r22
 12c:	49 01       	movw	r8, r18
 12e:	5a 01       	movw	r10, r20
 130:	0e 94 00 00 	call	0	; 0x0 <_ZL7spiSendh>
 134:	c8 01       	movw	r24, r16
 136:	0e 94 00 00 	call	0	; 0x0 <_ZL7spiSendh>
 13a:	c8 01       	movw	r24, r16
 13c:	6c e2       	ldi	r22, 0x2C	; 44
 13e:	71 e0       	ldi	r23, 0x01	; 1
 140:	0e 94 00 00 	call	0	; 0x0 <_ZL7spiSendh>
 144:	8f 2d       	mov	r24, r15
 146:	80 64       	ori	r24, 0x40	; 64
 148:	0e 94 00 00 	call	0	; 0x0 <_ZL7spiSendh>
 14c:	c8 e1       	ldi	r28, 0x18	; 24
 14e:	d0 e0       	ldi	r29, 0x00	; 0
 150:	d5 01       	movw	r26, r10
 152:	c4 01       	movw	r24, r8
 154:	0c 2e       	mov	r0, r28
 156:	00 c0       	rjmp	.+0      	; 0x158 <_ZN7Sd2Card11cardCommandEhm+0x42>
 158:	b6 95       	lsr	r27
 15a:	a7 95       	ror	r26
 15c:	97 95       	ror	r25
 15e:	87 95       	ror	r24
 160:	0a 94       	dec	r0
 162:	02 f4       	brpl	.+0      	; 0x164 <_ZN7Sd2Card11cardCommandEhm+0x4e>
 164:	0e 94 00 00 	call	0	; 0x0 <_ZL7spiSendh>
 168:	28 97       	sbiw	r28, 0x08	; 8
 16a:	8f ef       	ldi	r24, 0xFF	; 255
 16c:	c8 3f       	cpi	r28, 0xF8	; 248
 16e:	d8 07       	cpc	r29, r24
 170:	01 f4       	brne	.+0      	; 0x172 <_ZN7Sd2Card11cardCommandEhm+0x5c>
 172:	ff 20       	and	r15, r15
 174:	01 f0       	breq	.+0      	; 0x176 <_ZN7Sd2Card11cardCommandEhm+0x60>
 176:	e8 e0       	ldi	r30, 0x08	; 8
 178:	fe 16       	cp	r15, r30
 17a:	01 f0       	breq	.+0      	; 0x17c <_ZN7Sd2Card11cardCommandEhm+0x66>
 17c:	8f ef       	ldi	r24, 0xFF	; 255
 17e:	00 c0       	rjmp	.+0      	; 0x180 <_ZN7Sd2Card11cardCommandEhm+0x6a>
 180:	85 e9       	ldi	r24, 0x95	; 149
 182:	00 c0       	rjmp	.+0      	; 0x184 <_ZN7Sd2Card11cardCommandEhm+0x6e>
 184:	87 e8       	ldi	r24, 0x87	; 135
 186:	0e 94 00 00 	call	0	; 0x0 <_ZL7spiSendh>
 18a:	c0 e0       	ldi	r28, 0x00	; 0
 18c:	0e 94 00 00 	call	0	; 0x0 <_ZL7spiSendh>
 190:	f8 01       	movw	r30, r16
 192:	82 87       	std	Z+10, r24	; 0x0a
 194:	87 ff       	sbrs	r24, 7
 196:	00 c0       	rjmp	.+0      	; 0x198 <_ZN7Sd2Card11cardCommandEhm+0x82>
 198:	cf 3f       	cpi	r28, 0xFF	; 255
 19a:	01 f0       	breq	.+0      	; 0x19c <_ZN7Sd2Card11cardCommandEhm+0x86>
 19c:	cf 5f       	subi	r28, 0xFF	; 255
 19e:	00 c0       	rjmp	.+0      	; 0x1a0 <_ZN7Sd2Card11cardCommandEhm+0x8a>
 1a0:	df 91       	pop	r29
 1a2:	cf 91       	pop	r28
 1a4:	1f 91       	pop	r17
 1a6:	0f 91       	pop	r16
 1a8:	ff 90       	pop	r15
 1aa:	bf 90       	pop	r11
 1ac:	af 90       	pop	r10
 1ae:	9f 90       	pop	r9
 1b0:	8f 90       	pop	r8
 1b2:	08 95       	ret

000001b4 <_ZN7Sd2Card4initEhh>:
 1b4:	af 92       	push	r10
 1b6:	bf 92       	push	r11
 1b8:	cf 92       	push	r12
 1ba:	df 92       	push	r13
 1bc:	ef 92       	push	r14
 1be:	ff 92       	push	r15
 1c0:	0f 93       	push	r16
 1c2:	1f 93       	push	r17
 1c4:	cf 93       	push	r28
 1c6:	df 93       	push	r29
 1c8:	ec 01       	movw	r28, r24
 1ca:	06 2f       	mov	r16, r22
 1cc:	1b 86       	std	Y+11, r1	; 0x0b
 1ce:	19 86       	std	Y+9, r1	; 0x09
 1d0:	1e 82       	std	Y+6, r1	; 0x06
 1d2:	1d 82       	std	Y+5, r1	; 0x05
 1d4:	4c 83       	std	Y+4, r20	; 0x04
 1d6:	0e 94 00 00 	call	0	; 0x0 <_ZL7spiSendh>
 1da:	dc 01       	movw	r26, r24
 1dc:	cb 01       	movw	r24, r22
 1de:	5c 01       	movw	r10, r24
 1e0:	8c 81       	ldd	r24, Y+4	; 0x04
 1e2:	61 e0       	ldi	r22, 0x01	; 1
 1e4:	0e 94 00 00 	call	0	; 0x0 <_ZL7spiSendh>
 1e8:	ce 01       	movw	r24, r28
 1ea:	0e 94 00 00 	call	0	; 0x0 <_ZL7spiSendh>
 1ee:	8c e0       	ldi	r24, 0x0C	; 12
 1f0:	60 e0       	ldi	r22, 0x00	; 0
 1f2:	0e 94 00 00 	call	0	; 0x0 <_ZL7spiSendh>
 1f6:	8b e0       	ldi	r24, 0x0B	; 11
 1f8:	61 e0       	ldi	r22, 0x01	; 1
 1fa:	0e 94 00 00 	call	0	; 0x0 <_ZL7spiSendh>
 1fe:	8d e0       	ldi	r24, 0x0D	; 13
 200:	61 e0       	ldi	r22, 0x01	; 1
 202:	0e 94 00 00 	call	0	; 0x0 <_ZL7spiSendh>
 206:	8a e0       	ldi	r24, 0x0A	; 10
 208:	61 e0       	ldi	r22, 0x01	; 1
 20a:	0e 94 00 00 	call	0	; 0x0 <_ZL7spiSendh>
 20e:	8a e0       	ldi	r24, 0x0A	; 10
 210:	61 e0       	ldi	r22, 0x01	; 1
 212:	0e 94 00 00 	call	0	; 0x0 <_ZL7spiSendh>
 216:	83 e5       	ldi	r24, 0x53	; 83
 218:	8c bd       	out	0x2c, r24	; 44
 21a:	8d b5       	in	r24, 0x2d	; 45
 21c:	8e 7f       	andi	r24, 0xFE	; 254
 21e:	8d bd       	out	0x2d, r24	; 45
 220:	1a e0       	ldi	r17, 0x0A	; 10
 222:	8f ef       	ldi	r24, 0xFF	; 255
 224:	0e 94 00 00 	call	0	; 0x0 <_ZL7spiSendh>
 228:	11 50       	subi	r17, 0x01	; 1
 22a:	01 f4       	brne	.+0      	; 0x22c <_ZN7Sd2Card4initEhh+0x78>
 22c:	ce 01       	movw	r24, r28
 22e:	0e 94 00 00 	call	0	; 0x0 <_ZL7spiSendh>
 232:	00 c0       	rjmp	.+0      	; 0x234 <_ZN7Sd2Card4initEhh+0x80>
 234:	0e 94 00 00 	call	0	; 0x0 <_ZL7spiSendh>
 238:	6a 19       	sub	r22, r10
 23a:	7b 09       	sbc	r23, r11
 23c:	87 e0       	ldi	r24, 0x07	; 7
 23e:	61 3d       	cpi	r22, 0xD1	; 209
 240:	78 07       	cpc	r23, r24
 242:	00 f0       	brcs	.+0      	; 0x244 <_ZN7Sd2Card4initEhh+0x90>
 244:	81 e0       	ldi	r24, 0x01	; 1
 246:	00 c0       	rjmp	.+0      	; 0x248 <_ZN7Sd2Card4initEhh+0x94>
 248:	ce 01       	movw	r24, r28
 24a:	60 e0       	ldi	r22, 0x00	; 0
 24c:	20 e0       	ldi	r18, 0x00	; 0
 24e:	30 e0       	ldi	r19, 0x00	; 0
 250:	40 e0       	ldi	r20, 0x00	; 0
 252:	50 e0       	ldi	r21, 0x00	; 0
 254:	0e 94 00 00 	call	0	; 0x0 <_ZL7spiSendh>
 258:	18 2f       	mov	r17, r24
 25a:	8a 87       	std	Y+10, r24	; 0x0a
 25c:	81 30       	cpi	r24, 0x01	; 1
 25e:	01 f4       	brne	.+0      	; 0x260 <_ZN7Sd2Card4initEhh+0xac>
 260:	ce 01       	movw	r24, r28
 262:	68 e0       	ldi	r22, 0x08	; 8
 264:	2a ea       	ldi	r18, 0xAA	; 170
 266:	31 e0       	ldi	r19, 0x01	; 1
 268:	40 e0       	ldi	r20, 0x00	; 0
 26a:	50 e0       	ldi	r21, 0x00	; 0
 26c:	0e 94 00 00 	call	0	; 0x0 <_ZL7spiSendh>
 270:	82 ff       	sbrs	r24, 2
 272:	00 c0       	rjmp	.+0      	; 0x274 <_ZN7Sd2Card4initEhh+0xc0>
 274:	1b 87       	std	Y+11, r17	; 0x0b
 276:	00 c0       	rjmp	.+0      	; 0x278 <_ZN7Sd2Card4initEhh+0xc4>
 278:	14 e0       	ldi	r17, 0x04	; 4
 27a:	0e 94 00 00 	call	0	; 0x0 <_ZL7spiSendh>
 27e:	8a 87       	std	Y+10, r24	; 0x0a
 280:	11 50       	subi	r17, 0x01	; 1
 282:	01 f4       	brne	.+0      	; 0x284 <_ZN7Sd2Card4initEhh+0xd0>
 284:	8a 3a       	cpi	r24, 0xAA	; 170
 286:	01 f0       	breq	.+0      	; 0x288 <_ZN7Sd2Card4initEhh+0xd4>
 288:	82 e0       	ldi	r24, 0x02	; 2
 28a:	00 c0       	rjmp	.+0      	; 0x28c <_ZN7Sd2Card4initEhh+0xd8>
 28c:	82 e0       	ldi	r24, 0x02	; 2
 28e:	8b 87       	std	Y+11, r24	; 0x0b
 290:	8b 85       	ldd	r24, Y+11	; 0x0b
 292:	82 30       	cpi	r24, 0x02	; 2
 294:	01 f4       	brne	.+0      	; 0x296 <_ZN7Sd2Card4initEhh+0xe2>
 296:	c1 2c       	mov	r12, r1
 298:	d1 2c       	mov	r13, r1
 29a:	e1 2c       	mov	r14, r1
 29c:	80 e4       	ldi	r24, 0x40	; 64
 29e:	f8 2e       	mov	r15, r24
 2a0:	00 c0       	rjmp	.+0      	; 0x2a2 <_ZN7Sd2Card4initEhh+0xee>
 2a2:	cc 24       	eor	r12, r12
 2a4:	dd 24       	eor	r13, r13
 2a6:	76 01       	movw	r14, r12
 2a8:	00 c0       	rjmp	.+0      	; 0x2aa <_ZN7Sd2Card4initEhh+0xf6>
 2aa:	0e 94 00 00 	call	0	; 0x0 <_ZL7spiSendh>
 2ae:	6a 19       	sub	r22, r10
 2b0:	7b 09       	sbc	r23, r11
 2b2:	87 e0       	ldi	r24, 0x07	; 7
 2b4:	61 3d       	cpi	r22, 0xD1	; 209
 2b6:	78 07       	cpc	r23, r24
 2b8:	00 f0       	brcs	.+0      	; 0x2ba <_ZN7Sd2Card4initEhh+0x106>
 2ba:	88 e0       	ldi	r24, 0x08	; 8
 2bc:	00 c0       	rjmp	.+0      	; 0x2be <_ZN7Sd2Card4initEhh+0x10a>
 2be:	ce 01       	movw	r24, r28
 2c0:	67 e3       	ldi	r22, 0x37	; 55
 2c2:	20 e0       	ldi	r18, 0x00	; 0
 2c4:	30 e0       	ldi	r19, 0x00	; 0
 2c6:	40 e0       	ldi	r20, 0x00	; 0
 2c8:	50 e0       	ldi	r21, 0x00	; 0
 2ca:	0e 94 00 00 	call	0	; 0x0 <_ZL7spiSendh>
 2ce:	ce 01       	movw	r24, r28
 2d0:	69 e2       	ldi	r22, 0x29	; 41
 2d2:	a7 01       	movw	r20, r14
 2d4:	96 01       	movw	r18, r12
 2d6:	0e 94 00 00 	call	0	; 0x0 <_ZL7spiSendh>
 2da:	8a 87       	std	Y+10, r24	; 0x0a
 2dc:	88 23       	and	r24, r24
 2de:	01 f4       	brne	.+0      	; 0x2e0 <_ZN7Sd2Card4initEhh+0x12c>
 2e0:	8b 85       	ldd	r24, Y+11	; 0x0b
 2e2:	82 30       	cpi	r24, 0x02	; 2
 2e4:	01 f4       	brne	.+0      	; 0x2e6 <_ZN7Sd2Card4initEhh+0x132>
 2e6:	ce 01       	movw	r24, r28
 2e8:	6a e3       	ldi	r22, 0x3A	; 58
 2ea:	20 e0       	ldi	r18, 0x00	; 0
 2ec:	30 e0       	ldi	r19, 0x00	; 0
 2ee:	40 e0       	ldi	r20, 0x00	; 0
 2f0:	50 e0       	ldi	r21, 0x00	; 0
 2f2:	0e 94 00 00 	call	0	; 0x0 <_ZL7spiSendh>
 2f6:	88 23       	and	r24, r24
 2f8:	01 f0       	breq	.+0      	; 0x2fa <_ZN7Sd2Card4initEhh+0x146>
 2fa:	86 e0       	ldi	r24, 0x06	; 6
 2fc:	8d 83       	std	Y+5, r24	; 0x05
 2fe:	ce 01       	movw	r24, r28
 300:	0e 94 00 00 	call	0	; 0x0 <_ZL7spiSendh>
 304:	80 e0       	ldi	r24, 0x00	; 0
 306:	00 c0       	rjmp	.+0      	; 0x308 <_ZN7Sd2Card4initEhh+0x154>
 308:	0e 94 00 00 	call	0	; 0x0 <_ZL7spiSendh>
 30c:	80 7c       	andi	r24, 0xC0	; 192
 30e:	80 3c       	cpi	r24, 0xC0	; 192
 310:	01 f4       	brne	.+0      	; 0x312 <_ZN7Sd2Card4initEhh+0x15e>
 312:	83 e0       	ldi	r24, 0x03	; 3
 314:	8b 87       	std	Y+11, r24	; 0x0b
 316:	0e 94 00 00 	call	0	; 0x0 <_ZL7spiSendh>
 31a:	0e 94 00 00 	call	0	; 0x0 <_ZL7spiSendh>
 31e:	0e 94 00 00 	call	0	; 0x0 <_ZL7spiSendh>
 322:	ce 01       	movw	r24, r28
 324:	0e 94 00 00 	call	0	; 0x0 <_ZL7spiSendh>
 328:	ce 01       	movw	r24, r28
 32a:	60 2f       	mov	r22, r16
 32c:	0e 94 00 00 	call	0	; 0x0 <_ZL7spiSendh>
 330:	df 91       	pop	r29
 332:	cf 91       	pop	r28
 334:	1f 91       	pop	r17
 336:	0f 91       	pop	r16
 338:	ff 90       	pop	r15
 33a:	ef 90       	pop	r14
 33c:	df 90       	pop	r13
 33e:	cf 90       	pop	r12
 340:	bf 90       	pop	r11
 342:	af 90       	pop	r10
 344:	08 95       	ret

00000346 <_ZN7Sd2Card14waitStartBlockEv>:
 346:	0f 93       	push	r16
 348:	1f 93       	push	r17
 34a:	cf 93       	push	r28
 34c:	df 93       	push	r29
 34e:	ec 01       	movw	r28, r24
 350:	0e 94 00 00 	call	0	; 0x0 <_ZL7spiSendh>
 354:	8b 01       	movw	r16, r22
 356:	9c 01       	movw	r18, r24
 358:	00 c0       	rjmp	.+0      	; 0x35a <_ZN7Sd2Card14waitStartBlockEv+0x14>
 35a:	0e 94 00 00 	call	0	; 0x0 <_ZL7spiSendh>
 35e:	60 1b       	sub	r22, r16
 360:	71 0b       	sbc	r23, r17
 362:	81 e0       	ldi	r24, 0x01	; 1
 364:	6d 32       	cpi	r22, 0x2D	; 45
 366:	78 07       	cpc	r23, r24
 368:	00 f0       	brcs	.+0      	; 0x36a <_ZN7Sd2Card14waitStartBlockEv+0x24>
 36a:	8f e0       	ldi	r24, 0x0F	; 15
 36c:	00 c0       	rjmp	.+0      	; 0x36e <_ZN7Sd2Card14waitStartBlockEv+0x28>
 36e:	0e 94 00 00 	call	0	; 0x0 <_ZL7spiSendh>
 372:	8a 87       	std	Y+10, r24	; 0x0a
 374:	8f 3f       	cpi	r24, 0xFF	; 255
 376:	01 f0       	breq	.+0      	; 0x378 <_ZN7Sd2Card14waitStartBlockEv+0x32>
 378:	8e 3f       	cpi	r24, 0xFE	; 254
 37a:	01 f0       	breq	.+0      	; 0x37c <_ZN7Sd2Card14waitStartBlockEv+0x36>
 37c:	8d e0       	ldi	r24, 0x0D	; 13
 37e:	8d 83       	std	Y+5, r24	; 0x05
 380:	ce 01       	movw	r24, r28
 382:	0e 94 00 00 	call	0	; 0x0 <_ZL7spiSendh>
 386:	80 e0       	ldi	r24, 0x00	; 0
 388:	00 c0       	rjmp	.+0      	; 0x38a <_ZN7Sd2Card14waitStartBlockEv+0x44>
 38a:	81 e0       	ldi	r24, 0x01	; 1
 38c:	df 91       	pop	r29
 38e:	cf 91       	pop	r28
 390:	1f 91       	pop	r17
 392:	0f 91       	pop	r16
 394:	08 95       	ret

00000396 <_ZN7Sd2Card12readRegisterEhPv>:
 396:	ef 92       	push	r14
 398:	ff 92       	push	r15
 39a:	0f 93       	push	r16
 39c:	1f 93       	push	r17
 39e:	cf 93       	push	r28
 3a0:	df 93       	push	r29
 3a2:	ec 01       	movw	r28, r24
 3a4:	8a 01       	movw	r16, r20
 3a6:	20 e0       	ldi	r18, 0x00	; 0
 3a8:	30 e0       	ldi	r19, 0x00	; 0
 3aa:	40 e0       	ldi	r20, 0x00	; 0
 3ac:	50 e0       	ldi	r21, 0x00	; 0
 3ae:	0e 94 00 00 	call	0	; 0x0 <_ZL7spiSendh>
 3b2:	88 23       	and	r24, r24
 3b4:	01 f0       	breq	.+0      	; 0x3b6 <_ZN7Sd2Card12readRegisterEhPv+0x20>
 3b6:	8e e0       	ldi	r24, 0x0E	; 14
 3b8:	8d 83       	std	Y+5, r24	; 0x05
 3ba:	00 c0       	rjmp	.+0      	; 0x3bc <_ZN7Sd2Card12readRegisterEhPv+0x26>
 3bc:	ce 01       	movw	r24, r28
 3be:	0e 94 00 00 	call	0	; 0x0 <_ZL7spiSendh>
 3c2:	88 23       	and	r24, r24
 3c4:	01 f0       	breq	.+0      	; 0x3c6 <_ZN7Sd2Card12readRegisterEhPv+0x30>
 3c6:	78 01       	movw	r14, r16
 3c8:	00 e0       	ldi	r16, 0x00	; 0
 3ca:	10 e0       	ldi	r17, 0x00	; 0
 3cc:	0e 94 00 00 	call	0	; 0x0 <_ZL7spiSendh>
 3d0:	f7 01       	movw	r30, r14
 3d2:	81 93       	st	Z+, r24
 3d4:	7f 01       	movw	r14, r30
 3d6:	0f 5f       	subi	r16, 0xFF	; 255
 3d8:	1f 4f       	sbci	r17, 0xFF	; 255
 3da:	00 31       	cpi	r16, 0x10	; 16
 3dc:	11 05       	cpc	r17, r1
 3de:	01 f4       	brne	.+0      	; 0x3e0 <_ZN7Sd2Card12readRegisterEhPv+0x4a>
 3e0:	0e 94 00 00 	call	0	; 0x0 <_ZL7spiSendh>
 3e4:	0e 94 00 00 	call	0	; 0x0 <_ZL7spiSendh>
 3e8:	ce 01       	movw	r24, r28
 3ea:	0e 94 00 00 	call	0	; 0x0 <_ZL7spiSendh>
 3ee:	81 e0       	ldi	r24, 0x01	; 1
 3f0:	00 c0       	rjmp	.+0      	; 0x3f2 <_ZN7Sd2Card12readRegisterEhPv+0x5c>
 3f2:	ce 01       	movw	r24, r28
 3f4:	0e 94 00 00 	call	0	; 0x0 <_ZL7spiSendh>
 3f8:	80 e0       	ldi	r24, 0x00	; 0
 3fa:	df 91       	pop	r29
 3fc:	cf 91       	pop	r28
 3fe:	1f 91       	pop	r17
 400:	0f 91       	pop	r16
 402:	ff 90       	pop	r15
 404:	ef 90       	pop	r14
 406:	08 95       	ret

00000408 <_ZN7Sd2Card22eraseSingleBlockEnableEv>:
 408:	cf 93       	push	r28
 40a:	df 93       	push	r29
 40c:	cd b7       	in	r28, 0x3d	; 61
 40e:	de b7       	in	r29, 0x3e	; 62
 410:	60 97       	sbiw	r28, 0x10	; 16
 412:	0f b6       	in	r0, 0x3f	; 63
 414:	f8 94       	cli
 416:	de bf       	out	0x3e, r29	; 62
 418:	0f be       	out	0x3f, r0	; 63
 41a:	cd bf       	out	0x3d, r28	; 61
 41c:	69 e0       	ldi	r22, 0x09	; 9
 41e:	ae 01       	movw	r20, r28
 420:	4f 5f       	subi	r20, 0xFF	; 255
 422:	5f 4f       	sbci	r21, 0xFF	; 255
 424:	0e 94 00 00 	call	0	; 0x0 <_ZL7spiSendh>
 428:	88 23       	and	r24, r24
 42a:	01 f0       	breq	.+0      	; 0x42c <_ZN7Sd2Card22eraseSingleBlockEnableEv+0x24>
 42c:	8b 85       	ldd	r24, Y+11	; 0x0b
 42e:	82 95       	swap	r24
 430:	86 95       	lsr	r24
 432:	86 95       	lsr	r24
 434:	81 70       	andi	r24, 0x01	; 1
 436:	00 c0       	rjmp	.+0      	; 0x438 <_ZN7Sd2Card22eraseSingleBlockEnableEv+0x30>
 438:	80 e0       	ldi	r24, 0x00	; 0
 43a:	60 96       	adiw	r28, 0x10	; 16
 43c:	0f b6       	in	r0, 0x3f	; 63
 43e:	f8 94       	cli
 440:	de bf       	out	0x3e, r29	; 62
 442:	0f be       	out	0x3f, r0	; 63
 444:	cd bf       	out	0x3d, r28	; 61
 446:	df 91       	pop	r29
 448:	cf 91       	pop	r28
 44a:	08 95       	ret

0000044c <_ZN7Sd2Card5eraseEmm>:
 44c:	8f 92       	push	r8
 44e:	9f 92       	push	r9
 450:	af 92       	push	r10
 452:	bf 92       	push	r11
 454:	cf 92       	push	r12
 456:	df 92       	push	r13
 458:	ef 92       	push	r14
 45a:	ff 92       	push	r15
 45c:	0f 93       	push	r16
 45e:	1f 93       	push	r17
 460:	cf 93       	push	r28
 462:	df 93       	push	r29
 464:	ec 01       	movw	r28, r24
 466:	6a 01       	movw	r12, r20
 468:	7b 01       	movw	r14, r22
 46a:	48 01       	movw	r8, r16
 46c:	59 01       	movw	r10, r18
 46e:	0e 94 00 00 	call	0	; 0x0 <_ZL7spiSendh>
 472:	88 23       	and	r24, r24
 474:	01 f4       	brne	.+0      	; 0x476 <_ZN7Sd2Card5eraseEmm+0x2a>
 476:	8b e0       	ldi	r24, 0x0B	; 11
 478:	00 c0       	rjmp	.+0      	; 0x47a <_ZN7Sd2Card5eraseEmm+0x2e>
 47a:	8b 85       	ldd	r24, Y+11	; 0x0b
 47c:	83 30       	cpi	r24, 0x03	; 3
 47e:	01 f0       	breq	.+0      	; 0x480 <_ZN7Sd2Card5eraseEmm+0x34>
 480:	99 e0       	ldi	r25, 0x09	; 9
 482:	cc 0c       	add	r12, r12
 484:	dd 1c       	adc	r13, r13
 486:	ee 1c       	adc	r14, r14
 488:	ff 1c       	adc	r15, r15
 48a:	9a 95       	dec	r25
 48c:	01 f4       	brne	.+0      	; 0x48e <_ZN7Sd2Card5eraseEmm+0x42>
 48e:	29 e0       	ldi	r18, 0x09	; 9
 490:	88 0c       	add	r8, r8
 492:	99 1c       	adc	r9, r9
 494:	aa 1c       	adc	r10, r10
 496:	bb 1c       	adc	r11, r11
 498:	2a 95       	dec	r18
 49a:	01 f4       	brne	.+0      	; 0x49c <_ZN7Sd2Card5eraseEmm+0x50>
 49c:	ce 01       	movw	r24, r28
 49e:	60 e2       	ldi	r22, 0x20	; 32
 4a0:	a7 01       	movw	r20, r14
 4a2:	96 01       	movw	r18, r12
 4a4:	0e 94 00 00 	call	0	; 0x0 <_ZL7spiSendh>
 4a8:	88 23       	and	r24, r24
 4aa:	01 f4       	brne	.+0      	; 0x4ac <_ZN7Sd2Card5eraseEmm+0x60>
 4ac:	ce 01       	movw	r24, r28
 4ae:	61 e2       	ldi	r22, 0x21	; 33
 4b0:	a5 01       	movw	r20, r10
 4b2:	94 01       	movw	r18, r8
 4b4:	0e 94 00 00 	call	0	; 0x0 <_ZL7spiSendh>
 4b8:	88 23       	and	r24, r24
 4ba:	01 f4       	brne	.+0      	; 0x4bc <_ZN7Sd2Card5eraseEmm+0x70>
 4bc:	ce 01       	movw	r24, r28
 4be:	66 e2       	ldi	r22, 0x26	; 38
 4c0:	20 e0       	ldi	r18, 0x00	; 0
 4c2:	30 e0       	ldi	r19, 0x00	; 0
 4c4:	40 e0       	ldi	r20, 0x00	; 0
 4c6:	50 e0       	ldi	r21, 0x00	; 0
 4c8:	0e 94 00 00 	call	0	; 0x0 <_ZL7spiSendh>
 4cc:	88 23       	and	r24, r24
 4ce:	01 f0       	breq	.+0      	; 0x4d0 <_ZN7Sd2Card5eraseEmm+0x84>
 4d0:	8a e0       	ldi	r24, 0x0A	; 10
 4d2:	00 c0       	rjmp	.+0      	; 0x4d4 <_ZN7Sd2Card5eraseEmm+0x88>
 4d4:	8c e0       	ldi	r24, 0x0C	; 12
 4d6:	8d 83       	std	Y+5, r24	; 0x05
 4d8:	ce 01       	movw	r24, r28
 4da:	0e 94 00 00 	call	0	; 0x0 <_ZL7spiSendh>
 4de:	80 e0       	ldi	r24, 0x00	; 0
 4e0:	00 c0       	rjmp	.+0      	; 0x4e2 <_ZN7Sd2Card5eraseEmm+0x96>
 4e2:	ce 01       	movw	r24, r28
 4e4:	0e 94 00 00 	call	0	; 0x0 <_ZL7spiSendh>
 4e8:	81 e0       	ldi	r24, 0x01	; 1
 4ea:	df 91       	pop	r29
 4ec:	cf 91       	pop	r28
 4ee:	1f 91       	pop	r17
 4f0:	0f 91       	pop	r16
 4f2:	ff 90       	pop	r15
 4f4:	ef 90       	pop	r14
 4f6:	df 90       	pop	r13
 4f8:	cf 90       	pop	r12
 4fa:	bf 90       	pop	r11
 4fc:	af 90       	pop	r10
 4fe:	9f 90       	pop	r9
 500:	8f 90       	pop	r8
 502:	08 95       	ret
 504:	ce 01       	movw	r24, r28
 506:	60 e1       	ldi	r22, 0x10	; 16
 508:	77 e2       	ldi	r23, 0x27	; 39
 50a:	0e 94 00 00 	call	0	; 0x0 <_ZL7spiSendh>
 50e:	88 23       	and	r24, r24
 510:	01 f0       	breq	.+0      	; 0x512 <_ZN7Sd2Card5eraseEmm+0xc6>
 512:	00 c0       	rjmp	.+0      	; 0x514 <_ZN7Sd2Card8cardSizeEv>

00000514 <_ZN7Sd2Card8cardSizeEv>:
 514:	0f 93       	push	r16
 516:	1f 93       	push	r17
 518:	cf 93       	push	r28
 51a:	df 93       	push	r29
 51c:	cd b7       	in	r28, 0x3d	; 61
 51e:	de b7       	in	r29, 0x3e	; 62
 520:	60 97       	sbiw	r28, 0x10	; 16
 522:	0f b6       	in	r0, 0x3f	; 63
 524:	f8 94       	cli
 526:	de bf       	out	0x3e, r29	; 62
 528:	0f be       	out	0x3f, r0	; 63
 52a:	cd bf       	out	0x3d, r28	; 61
 52c:	8c 01       	movw	r16, r24
 52e:	69 e0       	ldi	r22, 0x09	; 9
 530:	ae 01       	movw	r20, r28
 532:	4f 5f       	subi	r20, 0xFF	; 255
 534:	5f 4f       	sbci	r21, 0xFF	; 255
 536:	0e 94 00 00 	call	0	; 0x0 <_ZL7spiSendh>
 53a:	88 23       	and	r24, r24
 53c:	01 f4       	brne	.+0      	; 0x53e <_ZN7Sd2Card8cardSizeEv+0x2a>
 53e:	00 c0       	rjmp	.+0      	; 0x540 <_ZN7Sd2Card8cardSizeEv+0x2c>
 540:	89 81       	ldd	r24, Y+1	; 0x01
 542:	80 7c       	andi	r24, 0xC0	; 192
 544:	01 f4       	brne	.+0      	; 0x546 <_ZN7Sd2Card8cardSizeEv+0x32>
 546:	2f 81       	ldd	r18, Y+7	; 0x07
 548:	23 70       	andi	r18, 0x03	; 3
 54a:	92 2f       	mov	r25, r18
 54c:	99 0f       	add	r25, r25
 54e:	99 0f       	add	r25, r25
 550:	80 e0       	ldi	r24, 0x00	; 0
 552:	08 85       	ldd	r16, Y+8	; 0x08
 554:	10 e0       	ldi	r17, 0x00	; 0
 556:	00 0f       	add	r16, r16
 558:	11 1f       	adc	r17, r17
 55a:	00 0f       	add	r16, r16
 55c:	11 1f       	adc	r17, r17
 55e:	08 2b       	or	r16, r24
 560:	19 2b       	or	r17, r25
 562:	89 85       	ldd	r24, Y+9	; 0x09
 564:	82 95       	swap	r24
 566:	86 95       	lsr	r24
 568:	86 95       	lsr	r24
 56a:	83 70       	andi	r24, 0x03	; 3
 56c:	90 e0       	ldi	r25, 0x00	; 0
 56e:	08 2b       	or	r16, r24
 570:	19 2b       	or	r17, r25
 572:	0f 5f       	subi	r16, 0xFF	; 255
 574:	1f 4f       	sbci	r17, 0xFF	; 255
 576:	20 e0       	ldi	r18, 0x00	; 0
 578:	30 e0       	ldi	r19, 0x00	; 0
 57a:	4a 85       	ldd	r20, Y+10	; 0x0a
 57c:	43 70       	andi	r20, 0x03	; 3
 57e:	44 0f       	add	r20, r20
 580:	8b 85       	ldd	r24, Y+11	; 0x0b
 582:	88 1f       	adc	r24, r24
 584:	88 27       	eor	r24, r24
 586:	88 1f       	adc	r24, r24
 588:	48 2b       	or	r20, r24
 58a:	8e 81       	ldd	r24, Y+6	; 0x06
 58c:	8f 70       	andi	r24, 0x0F	; 15
 58e:	90 e0       	ldi	r25, 0x00	; 0
 590:	84 0f       	add	r24, r20
 592:	91 1d       	adc	r25, r1
 594:	07 97       	sbiw	r24, 0x07	; 7
 596:	00 c0       	rjmp	.+0      	; 0x598 <_ZN7Sd2Card8cardSizeEv+0x84>
 598:	00 0f       	add	r16, r16
 59a:	11 1f       	adc	r17, r17
 59c:	22 1f       	adc	r18, r18
 59e:	33 1f       	adc	r19, r19
 5a0:	8a 95       	dec	r24
 5a2:	02 f4       	brpl	.+0      	; 0x5a4 <_ZN7Sd2Card8cardSizeEv+0x90>
 5a4:	00 c0       	rjmp	.+0      	; 0x5a6 <_ZN7Sd2Card8cardSizeEv+0x92>
 5a6:	80 34       	cpi	r24, 0x40	; 64
 5a8:	01 f4       	brne	.+0      	; 0x5aa <_ZN7Sd2Card8cardSizeEv+0x96>
 5aa:	08 85       	ldd	r16, Y+8	; 0x08
 5ac:	06 95       	lsr	r16
 5ae:	06 95       	lsr	r16
 5b0:	10 e0       	ldi	r17, 0x00	; 0
 5b2:	20 e0       	ldi	r18, 0x00	; 0
 5b4:	30 e0       	ldi	r19, 0x00	; 0
 5b6:	98 01       	movw	r18, r16
 5b8:	11 27       	eor	r17, r17
 5ba:	00 27       	eor	r16, r16
 5bc:	8a 85       	ldd	r24, Y+10	; 0x0a
 5be:	90 e0       	ldi	r25, 0x00	; 0
 5c0:	a0 e0       	ldi	r26, 0x00	; 0
 5c2:	b0 e0       	ldi	r27, 0x00	; 0
 5c4:	08 2b       	or	r16, r24
 5c6:	19 2b       	or	r17, r25
 5c8:	2a 2b       	or	r18, r26
 5ca:	3b 2b       	or	r19, r27
 5cc:	99 85       	ldd	r25, Y+9	; 0x09
 5ce:	80 e0       	ldi	r24, 0x00	; 0
 5d0:	aa 27       	eor	r26, r26
 5d2:	97 fd       	sbrc	r25, 7
 5d4:	a0 95       	com	r26
 5d6:	ba 2f       	mov	r27, r26
 5d8:	08 2b       	or	r16, r24
 5da:	19 2b       	or	r17, r25
 5dc:	2a 2b       	or	r18, r26
 5de:	3b 2b       	or	r19, r27
 5e0:	0f 5f       	subi	r16, 0xFF	; 255
 5e2:	1f 4f       	sbci	r17, 0xFF	; 255
 5e4:	2f 4f       	sbci	r18, 0xFF	; 255
 5e6:	3f 4f       	sbci	r19, 0xFF	; 255
 5e8:	5a e0       	ldi	r21, 0x0A	; 10
 5ea:	00 0f       	add	r16, r16
 5ec:	11 1f       	adc	r17, r17
 5ee:	22 1f       	adc	r18, r18
 5f0:	33 1f       	adc	r19, r19
 5f2:	5a 95       	dec	r21
 5f4:	01 f4       	brne	.+0      	; 0x5f6 <_ZN7Sd2Card8cardSizeEv+0xe2>
 5f6:	00 c0       	rjmp	.+0      	; 0x5f8 <_ZN7Sd2Card8cardSizeEv+0xe4>
 5f8:	89 e0       	ldi	r24, 0x09	; 9
 5fa:	f8 01       	movw	r30, r16
 5fc:	85 83       	std	Z+5, r24	; 0x05
 5fe:	00 e0       	ldi	r16, 0x00	; 0
 600:	10 e0       	ldi	r17, 0x00	; 0
 602:	20 e0       	ldi	r18, 0x00	; 0
 604:	30 e0       	ldi	r19, 0x00	; 0
 606:	b8 01       	movw	r22, r16
 608:	c9 01       	movw	r24, r18
 60a:	60 96       	adiw	r28, 0x10	; 16
 60c:	0f b6       	in	r0, 0x3f	; 63
 60e:	f8 94       	cli
 610:	de bf       	out	0x3e, r29	; 62
 612:	0f be       	out	0x3f, r0	; 63
 614:	cd bf       	out	0x3d, r28	; 61
 616:	df 91       	pop	r29
 618:	cf 91       	pop	r28
 61a:	1f 91       	pop	r17
 61c:	0f 91       	pop	r16
 61e:	08 95       	ret

00000620 <_ZN7Sd2Card8readDataEmjjPh>:
 620:	8f 92       	push	r8
 622:	9f 92       	push	r9
 624:	af 92       	push	r10
 626:	bf 92       	push	r11
 628:	cf 92       	push	r12
 62a:	df 92       	push	r13
 62c:	ef 92       	push	r14
 62e:	ff 92       	push	r15
 630:	0f 93       	push	r16
 632:	1f 93       	push	r17
 634:	cf 93       	push	r28
 636:	df 93       	push	r29
 638:	ec 01       	movw	r28, r24
 63a:	4a 01       	movw	r8, r20
 63c:	5b 01       	movw	r10, r22
 63e:	69 01       	movw	r12, r18
 640:	01 15       	cp	r16, r1
 642:	11 05       	cpc	r17, r1
 644:	01 f4       	brne	.+0      	; 0x646 <_ZN7Sd2Card8readDataEmjjPh+0x26>
 646:	00 c0       	rjmp	.+0      	; 0x648 <_ZN7Sd2Card8readDataEmjjPh+0x28>
 648:	c8 01       	movw	r24, r16
 64a:	82 0f       	add	r24, r18
 64c:	93 1f       	adc	r25, r19
 64e:	22 e0       	ldi	r18, 0x02	; 2
 650:	81 30       	cpi	r24, 0x01	; 1
 652:	92 07       	cpc	r25, r18
 654:	00 f0       	brcs	.+0      	; 0x656 <_ZN7Sd2Card8readDataEmjjPh+0x36>
 656:	00 c0       	rjmp	.+0      	; 0x658 <_ZN7Sd2Card8readDataEmjjPh+0x38>
 658:	8e 81       	ldd	r24, Y+6	; 0x06
 65a:	88 23       	and	r24, r24
 65c:	01 f0       	breq	.+0      	; 0x65e <_ZN7Sd2Card8readDataEmjjPh+0x3e>
 65e:	88 81       	ld	r24, Y
 660:	99 81       	ldd	r25, Y+1	; 0x01
 662:	aa 81       	ldd	r26, Y+2	; 0x02
 664:	bb 81       	ldd	r27, Y+3	; 0x03
 666:	48 17       	cp	r20, r24
 668:	59 07       	cpc	r21, r25
 66a:	6a 07       	cpc	r22, r26
 66c:	7b 07       	cpc	r23, r27
 66e:	01 f4       	brne	.+0      	; 0x670 <_ZN7Sd2Card8readDataEmjjPh+0x50>
 670:	8f 81       	ldd	r24, Y+7	; 0x07
 672:	98 85       	ldd	r25, Y+8	; 0x08
 674:	c8 16       	cp	r12, r24
 676:	d9 06       	cpc	r13, r25
 678:	00 f4       	brcc	.+0      	; 0x67a <_ZN7Sd2Card8readDataEmjjPh+0x5a>
 67a:	88 82       	st	Y, r8
 67c:	99 82       	std	Y+1, r9	; 0x01
 67e:	aa 82       	std	Y+2, r10	; 0x02
 680:	bb 82       	std	Y+3, r11	; 0x03
 682:	8b 85       	ldd	r24, Y+11	; 0x0b
 684:	83 30       	cpi	r24, 0x03	; 3
 686:	01 f0       	breq	.+0      	; 0x688 <_ZN7Sd2Card8readDataEmjjPh+0x68>
 688:	79 e0       	ldi	r23, 0x09	; 9
 68a:	88 0c       	add	r8, r8
 68c:	99 1c       	adc	r9, r9
 68e:	aa 1c       	adc	r10, r10
 690:	bb 1c       	adc	r11, r11
 692:	7a 95       	dec	r23
 694:	01 f4       	brne	.+0      	; 0x696 <_ZN7Sd2Card8readDataEmjjPh+0x76>
 696:	ce 01       	movw	r24, r28
 698:	61 e1       	ldi	r22, 0x11	; 17
 69a:	a5 01       	movw	r20, r10
 69c:	94 01       	movw	r18, r8
 69e:	0e 94 00 00 	call	0	; 0x0 <_ZL7spiSendh>
 6a2:	88 23       	and	r24, r24
 6a4:	01 f0       	breq	.+0      	; 0x6a6 <_ZN7Sd2Card8readDataEmjjPh+0x86>
 6a6:	83 e0       	ldi	r24, 0x03	; 3
 6a8:	8d 83       	std	Y+5, r24	; 0x05
 6aa:	00 c0       	rjmp	.+0      	; 0x6ac <_ZN7Sd2Card8readDataEmjjPh+0x8c>
 6ac:	ce 01       	movw	r24, r28
 6ae:	0e 94 00 00 	call	0	; 0x0 <_ZL7spiSendh>
 6b2:	88 23       	and	r24, r24
 6b4:	01 f4       	brne	.+0      	; 0x6b6 <_ZN7Sd2Card8readDataEmjjPh+0x96>
 6b6:	00 c0       	rjmp	.+0      	; 0x6b8 <_ZN7Sd2Card8readDataEmjjPh+0x98>
 6b8:	18 86       	std	Y+8, r1	; 0x08
 6ba:	1f 82       	std	Y+7, r1	; 0x07
 6bc:	81 e0       	ldi	r24, 0x01	; 1
 6be:	8e 83       	std	Y+6, r24	; 0x06
 6c0:	8f ef       	ldi	r24, 0xFF	; 255
 6c2:	8e bd       	out	0x2e, r24	; 46
 6c4:	2f ef       	ldi	r18, 0xFF	; 255
 6c6:	00 c0       	rjmp	.+0      	; 0x6c8 <_ZN7Sd2Card8readDataEmjjPh+0xa8>
 6c8:	0d b4       	in	r0, 0x2d	; 45
 6ca:	07 fe       	sbrs	r0, 7
 6cc:	00 c0       	rjmp	.+0      	; 0x6ce <_ZN7Sd2Card8readDataEmjjPh+0xae>
 6ce:	2e bd       	out	0x2e, r18	; 46
 6d0:	8f 81       	ldd	r24, Y+7	; 0x07
 6d2:	98 85       	ldd	r25, Y+8	; 0x08
 6d4:	01 96       	adiw	r24, 0x01	; 1
 6d6:	98 87       	std	Y+8, r25	; 0x08
 6d8:	8f 83       	std	Y+7, r24	; 0x07
 6da:	8f 81       	ldd	r24, Y+7	; 0x07
 6dc:	98 85       	ldd	r25, Y+8	; 0x08
 6de:	8c 15       	cp	r24, r12
 6e0:	9d 05       	cpc	r25, r13
 6e2:	00 f0       	brcs	.+0      	; 0x6e4 <_ZN7Sd2Card8readDataEmjjPh+0xc4>
 6e4:	98 01       	movw	r18, r16
 6e6:	21 50       	subi	r18, 0x01	; 1
 6e8:	30 40       	sbci	r19, 0x00	; 0
 6ea:	f7 01       	movw	r30, r14
 6ec:	80 e0       	ldi	r24, 0x00	; 0
 6ee:	90 e0       	ldi	r25, 0x00	; 0
 6f0:	4f ef       	ldi	r20, 0xFF	; 255
 6f2:	00 c0       	rjmp	.+0      	; 0x6f4 <_ZN7Sd2Card8readDataEmjjPh+0xd4>
 6f4:	0d b4       	in	r0, 0x2d	; 45
 6f6:	07 fe       	sbrs	r0, 7
 6f8:	00 c0       	rjmp	.+0      	; 0x6fa <_ZN7Sd2Card8readDataEmjjPh+0xda>
 6fa:	5e b5       	in	r21, 0x2e	; 46
 6fc:	51 93       	st	Z+, r21
 6fe:	4e bd       	out	0x2e, r20	; 46
 700:	01 96       	adiw	r24, 0x01	; 1
 702:	82 17       	cp	r24, r18
 704:	93 07       	cpc	r25, r19
 706:	00 f0       	brcs	.+0      	; 0x708 <_ZN7Sd2Card8readDataEmjjPh+0xe8>
 708:	0d b4       	in	r0, 0x2d	; 45
 70a:	07 fe       	sbrs	r0, 7
 70c:	00 c0       	rjmp	.+0      	; 0x70e <_ZN7Sd2Card8readDataEmjjPh+0xee>
 70e:	8e b5       	in	r24, 0x2e	; 46
 710:	2e 0d       	add	r18, r14
 712:	3f 1d       	adc	r19, r15
 714:	f9 01       	movw	r30, r18
 716:	80 83       	st	Z, r24
 718:	8f 81       	ldd	r24, Y+7	; 0x07
 71a:	98 85       	ldd	r25, Y+8	; 0x08
 71c:	80 0f       	add	r24, r16
 71e:	91 1f       	adc	r25, r17
 720:	98 87       	std	Y+8, r25	; 0x08
 722:	8f 83       	std	Y+7, r24	; 0x07
 724:	29 85       	ldd	r18, Y+9	; 0x09
 726:	22 23       	and	r18, r18
 728:	01 f0       	breq	.+0      	; 0x72a <_ZN7Sd2Card8readDataEmjjPh+0x10a>
 72a:	f2 e0       	ldi	r31, 0x02	; 2
 72c:	80 30       	cpi	r24, 0x00	; 0
 72e:	9f 07       	cpc	r25, r31
 730:	00 f0       	brcs	.+0      	; 0x732 <_ZN7Sd2Card8readDataEmjjPh+0x112>
 732:	ce 01       	movw	r24, r28
 734:	0e 94 00 00 	call	0	; 0x0 <_ZL7spiSendh>
 738:	00 c0       	rjmp	.+0      	; 0x73a <_ZN7Sd2Card8readDataEmjjPh+0x11a>
 73a:	ce 01       	movw	r24, r28
 73c:	0e 94 00 00 	call	0	; 0x0 <_ZL7spiSendh>
 740:	80 e0       	ldi	r24, 0x00	; 0
 742:	00 c0       	rjmp	.+0      	; 0x744 <_ZN7Sd2Card8readDataEmjjPh+0x124>
 744:	81 e0       	ldi	r24, 0x01	; 1
 746:	df 91       	pop	r29
 748:	cf 91       	pop	r28
 74a:	1f 91       	pop	r17
 74c:	0f 91       	pop	r16
 74e:	ff 90       	pop	r15
 750:	ef 90       	pop	r14
 752:	df 90       	pop	r13
 754:	cf 90       	pop	r12
 756:	bf 90       	pop	r11
 758:	af 90       	pop	r10
 75a:	9f 90       	pop	r9
 75c:	8f 90       	pop	r8
 75e:	08 95       	ret

00000760 <_ZN7Sd2Card9readBlockEmPh>:
 760:	ef 92       	push	r14
 762:	ff 92       	push	r15
 764:	0f 93       	push	r16
 766:	1f 93       	push	r17
 768:	79 01       	movw	r14, r18
 76a:	20 e0       	ldi	r18, 0x00	; 0
 76c:	30 e0       	ldi	r19, 0x00	; 0
 76e:	00 e0       	ldi	r16, 0x00	; 0
 770:	12 e0       	ldi	r17, 0x02	; 2
 772:	0e 94 00 00 	call	0	; 0x0 <_ZL7spiSendh>
 776:	1f 91       	pop	r17
 778:	0f 91       	pop	r16
 77a:	ff 90       	pop	r15
 77c:	ef 90       	pop	r14
 77e:	08 95       	ret

00000780 <_ZN7Sd2Card9writeDataEhPKh>:
 780:	cf 93       	push	r28
 782:	df 93       	push	r29
 784:	ec 01       	movw	r28, r24
 786:	6e bd       	out	0x2e, r22	; 46
 788:	fa 01       	movw	r30, r20
 78a:	80 e0       	ldi	r24, 0x00	; 0
 78c:	90 e0       	ldi	r25, 0x00	; 0
 78e:	0d b4       	in	r0, 0x2d	; 45
 790:	07 fe       	sbrs	r0, 7
 792:	00 c0       	rjmp	.+0      	; 0x794 <_ZN7Sd2Card9writeDataEhPKh+0x14>
 794:	20 81       	ld	r18, Z
 796:	2e bd       	out	0x2e, r18	; 46
 798:	0d b4       	in	r0, 0x2d	; 45
 79a:	07 fe       	sbrs	r0, 7
 79c:	00 c0       	rjmp	.+0      	; 0x79e <_ZN7Sd2Card9writeDataEhPKh+0x1e>
 79e:	21 81       	ldd	r18, Z+1	; 0x01
 7a0:	2e bd       	out	0x2e, r18	; 46
 7a2:	02 96       	adiw	r24, 0x02	; 2
 7a4:	32 96       	adiw	r30, 0x02	; 2
 7a6:	22 e0       	ldi	r18, 0x02	; 2
 7a8:	80 30       	cpi	r24, 0x00	; 0
 7aa:	92 07       	cpc	r25, r18
 7ac:	01 f4       	brne	.+0      	; 0x7ae <_ZN7Sd2Card9writeDataEhPKh+0x2e>
 7ae:	0d b4       	in	r0, 0x2d	; 45
 7b0:	07 fe       	sbrs	r0, 7
 7b2:	00 c0       	rjmp	.+0      	; 0x7b4 <_ZN7Sd2Card9writeDataEhPKh+0x34>
 7b4:	8f ef       	ldi	r24, 0xFF	; 255
 7b6:	0e 94 00 00 	call	0	; 0x0 <_ZL7spiSendh>
 7ba:	8f ef       	ldi	r24, 0xFF	; 255
 7bc:	0e 94 00 00 	call	0	; 0x0 <_ZL7spiSendh>
 7c0:	0e 94 00 00 	call	0	; 0x0 <_ZL7spiSendh>
 7c4:	8a 87       	std	Y+10, r24	; 0x0a
 7c6:	8f 71       	andi	r24, 0x1F	; 31
 7c8:	85 30       	cpi	r24, 0x05	; 5
 7ca:	01 f0       	breq	.+0      	; 0x7cc <_ZN7Sd2Card9writeDataEhPKh+0x4c>
 7cc:	81 e1       	ldi	r24, 0x11	; 17
 7ce:	8d 83       	std	Y+5, r24	; 0x05
 7d0:	ce 01       	movw	r24, r28
 7d2:	0e 94 00 00 	call	0	; 0x0 <_ZL7spiSendh>
 7d6:	80 e0       	ldi	r24, 0x00	; 0
 7d8:	00 c0       	rjmp	.+0      	; 0x7da <_ZN7Sd2Card9writeDataEhPKh+0x5a>
 7da:	81 e0       	ldi	r24, 0x01	; 1
 7dc:	df 91       	pop	r29
 7de:	cf 91       	pop	r28
 7e0:	08 95       	ret

000007e2 <_ZN7Sd2Card9writeDataEPKh>:
 7e2:	0f 93       	push	r16
 7e4:	1f 93       	push	r17
 7e6:	cf 93       	push	r28
 7e8:	df 93       	push	r29
 7ea:	ec 01       	movw	r28, r24
 7ec:	8b 01       	movw	r16, r22
 7ee:	68 e5       	ldi	r22, 0x58	; 88
 7f0:	72 e0       	ldi	r23, 0x02	; 2
 7f2:	0e 94 00 00 	call	0	; 0x0 <_ZL7spiSendh>
 7f6:	88 23       	and	r24, r24
 7f8:	01 f4       	brne	.+0      	; 0x7fa <_ZN7Sd2Card9writeDataEPKh+0x18>
 7fa:	83 e1       	ldi	r24, 0x13	; 19
 7fc:	8d 83       	std	Y+5, r24	; 0x05
 7fe:	ce 01       	movw	r24, r28
 800:	0e 94 00 00 	call	0	; 0x0 <_ZL7spiSendh>
 804:	80 e0       	ldi	r24, 0x00	; 0
 806:	00 c0       	rjmp	.+0      	; 0x808 <_ZN7Sd2Card9writeDataEPKh+0x26>
 808:	ce 01       	movw	r24, r28
 80a:	6c ef       	ldi	r22, 0xFC	; 252
 80c:	a8 01       	movw	r20, r16
 80e:	0e 94 00 00 	call	0	; 0x0 <_ZL7spiSendh>
 812:	df 91       	pop	r29
 814:	cf 91       	pop	r28
 816:	1f 91       	pop	r17
 818:	0f 91       	pop	r16
 81a:	08 95       	ret

0000081c <_ZN7Sd2Card10writeBlockEmPKh>:
 81c:	cf 92       	push	r12
 81e:	df 92       	push	r13
 820:	ef 92       	push	r14
 822:	ff 92       	push	r15
 824:	0f 93       	push	r16
 826:	1f 93       	push	r17
 828:	cf 93       	push	r28
 82a:	df 93       	push	r29
 82c:	ec 01       	movw	r28, r24
 82e:	6a 01       	movw	r12, r20
 830:	7b 01       	movw	r14, r22
 832:	89 01       	movw	r16, r18
 834:	41 15       	cp	r20, r1
 836:	51 05       	cpc	r21, r1
 838:	61 05       	cpc	r22, r1
 83a:	71 05       	cpc	r23, r1
 83c:	01 f4       	brne	.+0      	; 0x83e <_ZN7Sd2Card10writeBlockEmPKh+0x22>
 83e:	82 e1       	ldi	r24, 0x12	; 18
 840:	00 c0       	rjmp	.+0      	; 0x842 <_ZN7Sd2Card10writeBlockEmPKh+0x26>
 842:	8b 85       	ldd	r24, Y+11	; 0x0b
 844:	83 30       	cpi	r24, 0x03	; 3
 846:	01 f0       	breq	.+0      	; 0x848 <_ZN7Sd2Card10writeBlockEmPKh+0x2c>
 848:	e9 e0       	ldi	r30, 0x09	; 9
 84a:	cc 0c       	add	r12, r12
 84c:	dd 1c       	adc	r13, r13
 84e:	ee 1c       	adc	r14, r14
 850:	ff 1c       	adc	r15, r15
 852:	ea 95       	dec	r30
 854:	01 f4       	brne	.+0      	; 0x856 <_ZN7Sd2Card10writeBlockEmPKh+0x3a>
 856:	ce 01       	movw	r24, r28
 858:	68 e1       	ldi	r22, 0x18	; 24
 85a:	a7 01       	movw	r20, r14
 85c:	96 01       	movw	r18, r12
 85e:	0e 94 00 00 	call	0	; 0x0 <_ZL7spiSendh>
 862:	88 23       	and	r24, r24
 864:	01 f0       	breq	.+0      	; 0x866 <_ZN7Sd2Card10writeBlockEmPKh+0x4a>
 866:	84 e0       	ldi	r24, 0x04	; 4
 868:	00 c0       	rjmp	.+0      	; 0x86a <_ZN7Sd2Card10writeBlockEmPKh+0x4e>
 86a:	ce 01       	movw	r24, r28
 86c:	6e ef       	ldi	r22, 0xFE	; 254
 86e:	a8 01       	movw	r20, r16
 870:	0e 94 00 00 	call	0	; 0x0 <_ZL7spiSendh>
 874:	88 23       	and	r24, r24
 876:	01 f0       	breq	.+0      	; 0x878 <_ZN7Sd2Card10writeBlockEmPKh+0x5c>
 878:	ce 01       	movw	r24, r28
 87a:	68 e5       	ldi	r22, 0x58	; 88
 87c:	72 e0       	ldi	r23, 0x02	; 2
 87e:	0e 94 00 00 	call	0	; 0x0 <_ZL7spiSendh>
 882:	88 23       	and	r24, r24
 884:	01 f4       	brne	.+0      	; 0x886 <_ZN7Sd2Card10writeBlockEmPKh+0x6a>
 886:	85 e1       	ldi	r24, 0x15	; 21
 888:	00 c0       	rjmp	.+0      	; 0x88a <_ZN7Sd2Card10writeBlockEmPKh+0x6e>
 88a:	ce 01       	movw	r24, r28
 88c:	6d e0       	ldi	r22, 0x0D	; 13
 88e:	20 e0       	ldi	r18, 0x00	; 0
 890:	30 e0       	ldi	r19, 0x00	; 0
 892:	40 e0       	ldi	r20, 0x00	; 0
 894:	50 e0       	ldi	r21, 0x00	; 0
 896:	0e 94 00 00 	call	0	; 0x0 <_ZL7spiSendh>
 89a:	88 23       	and	r24, r24
 89c:	01 f4       	brne	.+0      	; 0x89e <_ZN7Sd2Card10writeBlockEmPKh+0x82>
 89e:	0e 94 00 00 	call	0	; 0x0 <_ZL7spiSendh>
 8a2:	88 23       	and	r24, r24
 8a4:	01 f0       	breq	.+0      	; 0x8a6 <_ZN7Sd2Card10writeBlockEmPKh+0x8a>
 8a6:	84 e1       	ldi	r24, 0x14	; 20
 8a8:	8d 83       	std	Y+5, r24	; 0x05
 8aa:	ce 01       	movw	r24, r28
 8ac:	0e 94 00 00 	call	0	; 0x0 <_ZL7spiSendh>
 8b0:	80 e0       	ldi	r24, 0x00	; 0
 8b2:	df 91       	pop	r29
 8b4:	cf 91       	pop	r28
 8b6:	1f 91       	pop	r17
 8b8:	0f 91       	pop	r16
 8ba:	ff 90       	pop	r15
 8bc:	ef 90       	pop	r14
 8be:	df 90       	pop	r13
 8c0:	cf 90       	pop	r12
 8c2:	08 95       	ret
 8c4:	ce 01       	movw	r24, r28
 8c6:	0e 94 00 00 	call	0	; 0x0 <_ZL7spiSendh>
 8ca:	81 e0       	ldi	r24, 0x01	; 1
 8cc:	00 c0       	rjmp	.+0      	; 0x8ce <_ZN7Sd2Card10writeStartEmm>

000008ce <_ZN7Sd2Card10writeStartEmm>:
 8ce:	8f 92       	push	r8
 8d0:	9f 92       	push	r9
 8d2:	af 92       	push	r10
 8d4:	bf 92       	push	r11
 8d6:	cf 92       	push	r12
 8d8:	df 92       	push	r13
 8da:	ef 92       	push	r14
 8dc:	ff 92       	push	r15
 8de:	0f 93       	push	r16
 8e0:	1f 93       	push	r17
 8e2:	cf 93       	push	r28
 8e4:	df 93       	push	r29
 8e6:	ec 01       	movw	r28, r24
 8e8:	6a 01       	movw	r12, r20
 8ea:	7b 01       	movw	r14, r22
 8ec:	48 01       	movw	r8, r16
 8ee:	59 01       	movw	r10, r18
 8f0:	41 15       	cp	r20, r1
 8f2:	51 05       	cpc	r21, r1
 8f4:	61 05       	cpc	r22, r1
 8f6:	71 05       	cpc	r23, r1
 8f8:	01 f4       	brne	.+0      	; 0x8fa <_ZN7Sd2Card10writeStartEmm+0x2c>
 8fa:	82 e1       	ldi	r24, 0x12	; 18
 8fc:	00 c0       	rjmp	.+0      	; 0x8fe <_ZN7Sd2Card10writeStartEmm+0x30>
 8fe:	67 e3       	ldi	r22, 0x37	; 55
 900:	20 e0       	ldi	r18, 0x00	; 0
 902:	30 e0       	ldi	r19, 0x00	; 0
 904:	40 e0       	ldi	r20, 0x00	; 0
 906:	50 e0       	ldi	r21, 0x00	; 0
 908:	0e 94 00 00 	call	0	; 0x0 <_ZL7spiSendh>
 90c:	ce 01       	movw	r24, r28
 90e:	67 e1       	ldi	r22, 0x17	; 23
 910:	a5 01       	movw	r20, r10
 912:	94 01       	movw	r18, r8
 914:	0e 94 00 00 	call	0	; 0x0 <_ZL7spiSendh>
 918:	88 23       	and	r24, r24
 91a:	01 f0       	breq	.+0      	; 0x91c <_ZN7Sd2Card10writeStartEmm+0x4e>
 91c:	87 e0       	ldi	r24, 0x07	; 7
 91e:	00 c0       	rjmp	.+0      	; 0x920 <_ZN7Sd2Card10writeStartEmm+0x52>
 920:	8b 85       	ldd	r24, Y+11	; 0x0b
 922:	83 30       	cpi	r24, 0x03	; 3
 924:	01 f0       	breq	.+0      	; 0x926 <_ZN7Sd2Card10writeStartEmm+0x58>
 926:	f9 e0       	ldi	r31, 0x09	; 9
 928:	cc 0c       	add	r12, r12
 92a:	dd 1c       	adc	r13, r13
 92c:	ee 1c       	adc	r14, r14
 92e:	ff 1c       	adc	r15, r15
 930:	fa 95       	dec	r31
 932:	01 f4       	brne	.+0      	; 0x934 <_ZN7Sd2Card10writeStartEmm+0x66>
 934:	ce 01       	movw	r24, r28
 936:	69 e1       	ldi	r22, 0x19	; 25
 938:	a7 01       	movw	r20, r14
 93a:	96 01       	movw	r18, r12
 93c:	0e 94 00 00 	call	0	; 0x0 <_ZL7spiSendh>
 940:	88 23       	and	r24, r24
 942:	01 f0       	breq	.+0      	; 0x944 <_ZN7Sd2Card10writeStartEmm+0x76>
 944:	85 e0       	ldi	r24, 0x05	; 5
 946:	8d 83       	std	Y+5, r24	; 0x05
 948:	ce 01       	movw	r24, r28
 94a:	0e 94 00 00 	call	0	; 0x0 <_ZL7spiSendh>
 94e:	80 e0       	ldi	r24, 0x00	; 0
 950:	00 c0       	rjmp	.+0      	; 0x952 <_ZN7Sd2Card10writeStartEmm+0x84>
 952:	81 e0       	ldi	r24, 0x01	; 1
 954:	df 91       	pop	r29
 956:	cf 91       	pop	r28
 958:	1f 91       	pop	r17
 95a:	0f 91       	pop	r16
 95c:	ff 90       	pop	r15
 95e:	ef 90       	pop	r14
 960:	df 90       	pop	r13
 962:	cf 90       	pop	r12
 964:	bf 90       	pop	r11
 966:	af 90       	pop	r10
 968:	9f 90       	pop	r9
 96a:	8f 90       	pop	r8
 96c:	08 95       	ret

0000096e <_ZN7Sd2Card9writeStopEv>:
 96e:	cf 93       	push	r28
 970:	df 93       	push	r29
 972:	ec 01       	movw	r28, r24
 974:	68 e5       	ldi	r22, 0x58	; 88
 976:	72 e0       	ldi	r23, 0x02	; 2
 978:	0e 94 00 00 	call	0	; 0x0 <_ZL7spiSendh>
 97c:	88 23       	and	r24, r24
 97e:	01 f0       	breq	.+0      	; 0x980 <_ZN7Sd2Card9writeStopEv+0x12>
 980:	8d ef       	ldi	r24, 0xFD	; 253
 982:	0e 94 00 00 	call	0	; 0x0 <_ZL7spiSendh>
 986:	ce 01       	movw	r24, r28
 988:	68 e5       	ldi	r22, 0x58	; 88
 98a:	72 e0       	ldi	r23, 0x02	; 2
 98c:	0e 94 00 00 	call	0	; 0x0 <_ZL7spiSendh>
 990:	88 23       	and	r24, r24
 992:	01 f0       	breq	.+0      	; 0x994 <_ZN7Sd2Card9writeStopEv+0x26>
 994:	ce 01       	movw	r24, r28
 996:	0e 94 00 00 	call	0	; 0x0 <_ZL7spiSendh>
 99a:	81 e0       	ldi	r24, 0x01	; 1
 99c:	00 c0       	rjmp	.+0      	; 0x99e <_ZN7Sd2Card9writeStopEv+0x30>
 99e:	80 e1       	ldi	r24, 0x10	; 16
 9a0:	8d 83       	std	Y+5, r24	; 0x05
 9a2:	ce 01       	movw	r24, r28
 9a4:	0e 94 00 00 	call	0	; 0x0 <_ZL7spiSendh>
 9a8:	80 e0       	ldi	r24, 0x00	; 0
 9aa:	df 91       	pop	r29
 9ac:	cf 91       	pop	r28
 9ae:	08 95       	ret

SdFile.o:     file format elf32-avr

Sections:
Idx Name          Size      VMA       LMA       File off  Algn
  0 .text         00001b62  00000000  00000000  00000034  2**0
                  CONTENTS, ALLOC, LOAD, RELOC, READONLY, CODE
  1 .data         00000008  00000000  00000000  00001b96  2**0
                  CONTENTS, ALLOC, LOAD, RELOC, DATA
  2 .bss          00000004  00000000  00000000  00001b9e  2**0
                  ALLOC
  3 .progmem.data 00000010  00000000  00000000  00001b9e  2**0
                  CONTENTS, ALLOC, LOAD, READONLY, DATA

Disassembly of section .text:

00000000 <_ZN6SdFile10addClusterEv>:
       0:	cf 93       	push	r28
       2:	df 93       	push	r29
       4:	ec 01       	movw	r28, r24
       6:	9c 01       	movw	r18, r24
       8:	2a 5f       	subi	r18, 0xFA	; 250
       a:	3f 4f       	sbci	r19, 0xFF	; 255
       c:	8b 8d       	ldd	r24, Y+27	; 0x1b
       e:	9c 8d       	ldd	r25, Y+28	; 0x1c
      10:	41 e0       	ldi	r20, 0x01	; 1
      12:	50 e0       	ldi	r21, 0x00	; 0
      14:	60 e0       	ldi	r22, 0x00	; 0
      16:	70 e0       	ldi	r23, 0x00	; 0
      18:	0e 94 00 00 	call	0	; 0x0 <_ZN6SdFile10addClusterEv>
      1c:	88 23       	and	r24, r24
      1e:	01 f0       	breq	.+0      	; 0x20 <_ZN6SdFile10addClusterEv+0x20>
      20:	8f 89       	ldd	r24, Y+23	; 0x17
      22:	98 8d       	ldd	r25, Y+24	; 0x18
      24:	a9 8d       	ldd	r26, Y+25	; 0x19
      26:	ba 8d       	ldd	r27, Y+26	; 0x1a
      28:	00 97       	sbiw	r24, 0x00	; 0
      2a:	a1 05       	cpc	r26, r1
      2c:	b1 05       	cpc	r27, r1
      2e:	01 f4       	brne	.+0      	; 0x30 <_ZN6SdFile10addClusterEv+0x30>
      30:	8e 81       	ldd	r24, Y+6	; 0x06
      32:	9f 81       	ldd	r25, Y+7	; 0x07
      34:	a8 85       	ldd	r26, Y+8	; 0x08
      36:	b9 85       	ldd	r27, Y+9	; 0x09
      38:	8f 8b       	std	Y+23, r24	; 0x17
      3a:	98 8f       	std	Y+24, r25	; 0x18
      3c:	a9 8f       	std	Y+25, r26	; 0x19
      3e:	ba 8f       	std	Y+26, r27	; 0x1a
      40:	8c 81       	ldd	r24, Y+4	; 0x04
      42:	80 68       	ori	r24, 0x80	; 128
      44:	8c 83       	std	Y+4, r24	; 0x04
      46:	00 c0       	rjmp	.+0      	; 0x48 <_ZN6SdFile10addClusterEv+0x48>
      48:	80 e0       	ldi	r24, 0x00	; 0
      4a:	00 c0       	rjmp	.+0      	; 0x4c <_ZN6SdFile10addClusterEv+0x4c>
      4c:	81 e0       	ldi	r24, 0x01	; 1
      4e:	df 91       	pop	r29
      50:	cf 91       	pop	r28
      52:	08 95       	ret

00000054 <_ZN6SdFile13addDirClusterEv>:
      54:	cf 92       	push	r12
      56:	df 92       	push	r13
      58:	ef 92       	push	r14
      5a:	ff 92       	push	r15
      5c:	1f 93       	push	r17
      5e:	cf 93       	push	r28
      60:	df 93       	push	r29
      62:	ec 01       	movw	r28, r24
      64:	0e 94 00 00 	call	0	; 0x0 <_ZN6SdFile10addClusterEv>
      68:	88 23       	and	r24, r24
      6a:	01 f4       	brne	.+0      	; 0x6c <_ZN6SdFile13addDirClusterEv+0x18>
      6c:	00 c0       	rjmp	.+0      	; 0x6e <_ZN6SdFile13addDirClusterEv+0x1a>
      6e:	eb 8d       	ldd	r30, Y+27	; 0x1b
      70:	fc 8d       	ldd	r31, Y+28	; 0x1c
      72:	ce 80       	ldd	r12, Y+6	; 0x06
      74:	df 80       	ldd	r13, Y+7	; 0x07
      76:	e8 84       	ldd	r14, Y+8	; 0x08
      78:	f9 84       	ldd	r15, Y+9	; 0x09
      7a:	8e ef       	ldi	r24, 0xFE	; 254
      7c:	9f ef       	ldi	r25, 0xFF	; 255
      7e:	af ef       	ldi	r26, 0xFF	; 255
      80:	bf ef       	ldi	r27, 0xFF	; 255
      82:	c8 0e       	add	r12, r24
      84:	d9 1e       	adc	r13, r25
      86:	ea 1e       	adc	r14, r26
      88:	fb 1e       	adc	r15, r27
      8a:	05 84       	ldd	r0, Z+13	; 0x0d
      8c:	00 c0       	rjmp	.+0      	; 0x8e <_ZN6SdFile13addDirClusterEv+0x3a>
      8e:	cc 0c       	add	r12, r12
      90:	dd 1c       	adc	r13, r13
      92:	ee 1c       	adc	r14, r14
      94:	ff 1c       	adc	r15, r15
      96:	0a 94       	dec	r0
      98:	02 f4       	brpl	.+0      	; 0x9a <_ZN6SdFile13addDirClusterEv+0x46>
      9a:	86 85       	ldd	r24, Z+14	; 0x0e
      9c:	97 85       	ldd	r25, Z+15	; 0x0f
      9e:	a0 89       	ldd	r26, Z+16	; 0x10
      a0:	b1 89       	ldd	r27, Z+17	; 0x11
      a2:	c8 0e       	add	r12, r24
      a4:	d9 1e       	adc	r13, r25
      a6:	ea 1e       	adc	r14, r26
      a8:	fb 1e       	adc	r15, r27
      aa:	14 81       	ldd	r17, Z+4	; 0x04
      ac:	08 94       	sec
      ae:	c1 08       	sbc	r12, r1
      b0:	d1 08       	sbc	r13, r1
      b2:	e1 08       	sbc	r14, r1
      b4:	f1 08       	sbc	r15, r1
      b6:	00 c0       	rjmp	.+0      	; 0xb8 <_ZN6SdFile13addDirClusterEv+0x64>
      b8:	c7 01       	movw	r24, r14
      ba:	b6 01       	movw	r22, r12
      bc:	61 0f       	add	r22, r17
      be:	71 1d       	adc	r23, r1
      c0:	81 1d       	adc	r24, r1
      c2:	91 1d       	adc	r25, r1
      c4:	0e 94 00 00 	call	0	; 0x0 <_ZN6SdFile10addClusterEv>
      c8:	88 23       	and	r24, r24
      ca:	01 f0       	breq	.+0      	; 0xcc <_ZN6SdFile13addDirClusterEv+0x78>
      cc:	11 50       	subi	r17, 0x01	; 1
      ce:	11 23       	and	r17, r17
      d0:	01 f4       	brne	.+0      	; 0xd2 <_ZN6SdFile13addDirClusterEv+0x7e>
      d2:	eb 8d       	ldd	r30, Y+27	; 0x1b
      d4:	fc 8d       	ldd	r31, Y+28	; 0x1c
      d6:	80 e0       	ldi	r24, 0x00	; 0
      d8:	92 e0       	ldi	r25, 0x02	; 2
      da:	a0 e0       	ldi	r26, 0x00	; 0
      dc:	b0 e0       	ldi	r27, 0x00	; 0
      de:	05 84       	ldd	r0, Z+13	; 0x0d
      e0:	00 c0       	rjmp	.+0      	; 0xe2 <_ZN6SdFile13addDirClusterEv+0x8e>
      e2:	88 0f       	add	r24, r24
      e4:	99 1f       	adc	r25, r25
      e6:	aa 1f       	adc	r26, r26
      e8:	bb 1f       	adc	r27, r27
      ea:	0a 94       	dec	r0
      ec:	02 f4       	brpl	.+0      	; 0xee <_ZN6SdFile13addDirClusterEv+0x9a>
      ee:	4b 89       	ldd	r20, Y+19	; 0x13
      f0:	5c 89       	ldd	r21, Y+20	; 0x14
      f2:	6d 89       	ldd	r22, Y+21	; 0x15
      f4:	7e 89       	ldd	r23, Y+22	; 0x16
      f6:	48 0f       	add	r20, r24
      f8:	59 1f       	adc	r21, r25
      fa:	6a 1f       	adc	r22, r26
      fc:	7b 1f       	adc	r23, r27
      fe:	4b 8b       	std	Y+19, r20	; 0x13
     100:	5c 8b       	std	Y+20, r21	; 0x14
     102:	6d 8b       	std	Y+21, r22	; 0x15
     104:	7e 8b       	std	Y+22, r23	; 0x16
     106:	81 e0       	ldi	r24, 0x01	; 1
     108:	00 c0       	rjmp	.+0      	; 0x10a <_ZN6SdFile13addDirClusterEv+0xb6>
     10a:	80 e0       	ldi	r24, 0x00	; 0
     10c:	df 91       	pop	r29
     10e:	cf 91       	pop	r28
     110:	1f 91       	pop	r17
     112:	ff 90       	pop	r15
     114:	ef 90       	pop	r14
     116:	df 90       	pop	r13
     118:	cf 90       	pop	r12
     11a:	08 95       	ret

0000011c <_ZN6SdFile13cacheDirEntryEh>:
     11c:	cf 93       	push	r28
     11e:	df 93       	push	r29
     120:	ec 01       	movw	r28, r24
     122:	46 2f       	mov	r20, r22
     124:	8e 85       	ldd	r24, Y+14	; 0x0e
     126:	9f 85       	ldd	r25, Y+15	; 0x0f
     128:	a8 89       	ldd	r26, Y+16	; 0x10
     12a:	b9 89       	ldd	r27, Y+17	; 0x11
     12c:	bc 01       	movw	r22, r24
     12e:	cd 01       	movw	r24, r26
     130:	0e 94 00 00 	call	0	; 0x0 <_ZN6SdFile10addClusterEv>
     134:	88 23       	and	r24, r24
     136:	01 f0       	breq	.+0      	; 0x138 <_ZN6SdFile13cacheDirEntryEh+0x1c>
     138:	8a 89       	ldd	r24, Y+18	; 0x12
     13a:	90 e0       	ldi	r25, 0x00	; 0
     13c:	25 e0       	ldi	r18, 0x05	; 5
     13e:	88 0f       	add	r24, r24
     140:	99 1f       	adc	r25, r25
     142:	2a 95       	dec	r18
     144:	01 f4       	brne	.+0      	; 0x146 <_ZN6SdFile13cacheDirEntryEh+0x2a>
     146:	80 50       	subi	r24, 0x00	; 0
     148:	90 40       	sbci	r25, 0x00	; 0
     14a:	00 c0       	rjmp	.+0      	; 0x14c <_ZN6SdFile13cacheDirEntryEh+0x30>
     14c:	80 e0       	ldi	r24, 0x00	; 0
     14e:	90 e0       	ldi	r25, 0x00	; 0
     150:	df 91       	pop	r29
     152:	cf 91       	pop	r28
     154:	08 95       	ret

00000156 <_ZN6SdFile15contiguousRangeEPmS0_>:
     156:	6f 92       	push	r6
     158:	7f 92       	push	r7
     15a:	8f 92       	push	r8
     15c:	9f 92       	push	r9
     15e:	af 92       	push	r10
     160:	bf 92       	push	r11
     162:	cf 92       	push	r12
     164:	df 92       	push	r13
     166:	ef 92       	push	r14
     168:	ff 92       	push	r15
     16a:	0f 93       	push	r16
     16c:	1f 93       	push	r17
     16e:	cf 93       	push	r28
     170:	df 93       	push	r29
     172:	00 d0       	rcall	.+0      	; 0x174 <_ZN6SdFile15contiguousRangeEPmS0_+0x1e>
     174:	00 d0       	rcall	.+0      	; 0x176 <_ZN6SdFile15contiguousRangeEPmS0_+0x20>
     176:	cd b7       	in	r28, 0x3d	; 61
     178:	de b7       	in	r29, 0x3e	; 62
     17a:	8c 01       	movw	r16, r24
     17c:	5b 01       	movw	r10, r22
     17e:	4a 01       	movw	r8, r20
     180:	dc 01       	movw	r26, r24
     182:	57 96       	adiw	r26, 0x17	; 23
     184:	cd 90       	ld	r12, X+
     186:	dd 90       	ld	r13, X+
     188:	ed 90       	ld	r14, X+
     18a:	fc 90       	ld	r15, X
     18c:	5a 97       	sbiw	r26, 0x1a	; 26
     18e:	c1 14       	cp	r12, r1
     190:	d1 04       	cpc	r13, r1
     192:	e1 04       	cpc	r14, r1
     194:	f1 04       	cpc	r15, r1
     196:	01 f4       	brne	.+0      	; 0x198 <_ZN6SdFile15contiguousRangeEPmS0_+0x42>
     198:	00 c0       	rjmp	.+0      	; 0x19a <_ZN6SdFile15contiguousRangeEPmS0_+0x44>
     19a:	6a 01       	movw	r12, r20
     19c:	7b 01       	movw	r14, r22
     19e:	f8 01       	movw	r30, r16
     1a0:	83 8d       	ldd	r24, Z+27	; 0x1b
     1a2:	94 8d       	ldd	r25, Z+28	; 0x1c
     1a4:	b7 01       	movw	r22, r14
     1a6:	a6 01       	movw	r20, r12
     1a8:	9e 01       	movw	r18, r28
     1aa:	2f 5f       	subi	r18, 0xFF	; 255
     1ac:	3f 4f       	sbci	r19, 0xFF	; 255
     1ae:	0e 94 00 00 	call	0	; 0x0 <_ZN6SdFile10addClusterEv>
     1b2:	88 23       	and	r24, r24
     1b4:	01 f4       	brne	.+0      	; 0x1b6 <_ZN6SdFile15contiguousRangeEPmS0_+0x60>
     1b6:	00 c0       	rjmp	.+0      	; 0x1b8 <_ZN6SdFile15contiguousRangeEPmS0_+0x62>
     1b8:	49 81       	ldd	r20, Y+1	; 0x01
     1ba:	5a 81       	ldd	r21, Y+2	; 0x02
     1bc:	6b 81       	ldd	r22, Y+3	; 0x03
     1be:	7c 81       	ldd	r23, Y+4	; 0x04
     1c0:	d7 01       	movw	r26, r14
     1c2:	c6 01       	movw	r24, r12
     1c4:	01 96       	adiw	r24, 0x01	; 1
     1c6:	a1 1d       	adc	r26, r1
     1c8:	b1 1d       	adc	r27, r1
     1ca:	48 17       	cp	r20, r24
     1cc:	59 07       	cpc	r21, r25
     1ce:	6a 07       	cpc	r22, r26
     1d0:	7b 07       	cpc	r23, r27
     1d2:	01 f0       	breq	.+0      	; 0x1d4 <_ZN6SdFile15contiguousRangeEPmS0_+0x7e>
     1d4:	d8 01       	movw	r26, r16
     1d6:	5b 96       	adiw	r26, 0x1b	; 27
     1d8:	6d 90       	ld	r6, X+
     1da:	7c 90       	ld	r7, X
     1dc:	5c 97       	sbiw	r26, 0x1c	; 28
     1de:	f3 01       	movw	r30, r6
     1e0:	87 89       	ldd	r24, Z+23	; 0x17
     1e2:	80 31       	cpi	r24, 0x10	; 16
     1e4:	01 f4       	brne	.+0      	; 0x1e6 <_ZN6SdFile15contiguousRangeEPmS0_+0x90>
     1e6:	88 ef       	ldi	r24, 0xF8	; 248
     1e8:	9f ef       	ldi	r25, 0xFF	; 255
     1ea:	a0 e0       	ldi	r26, 0x00	; 0
     1ec:	b0 e0       	ldi	r27, 0x00	; 0
     1ee:	00 c0       	rjmp	.+0      	; 0x1f0 <_ZN6SdFile15contiguousRangeEPmS0_+0x9a>
     1f0:	88 ef       	ldi	r24, 0xF8	; 248
     1f2:	9f ef       	ldi	r25, 0xFF	; 255
     1f4:	af ef       	ldi	r26, 0xFF	; 255
     1f6:	bf e0       	ldi	r27, 0x0F	; 15
     1f8:	48 17       	cp	r20, r24
     1fa:	59 07       	cpc	r21, r25
     1fc:	6a 07       	cpc	r22, r26
     1fe:	7b 07       	cpc	r23, r27
     200:	00 f4       	brcc	.+0      	; 0x202 <_ZN6SdFile15contiguousRangeEPmS0_+0xac>
     202:	00 c0       	rjmp	.+0      	; 0x204 <_ZN6SdFile15contiguousRangeEPmS0_+0xae>
     204:	f8 01       	movw	r30, r16
     206:	87 89       	ldd	r24, Z+23	; 0x17
     208:	90 8d       	ldd	r25, Z+24	; 0x18
     20a:	a1 8d       	ldd	r26, Z+25	; 0x19
     20c:	b2 8d       	ldd	r27, Z+26	; 0x1a
     20e:	02 97       	sbiw	r24, 0x02	; 2
     210:	a1 09       	sbc	r26, r1
     212:	b1 09       	sbc	r27, r1
     214:	f3 01       	movw	r30, r6
     216:	05 84       	ldd	r0, Z+13	; 0x0d
     218:	00 c0       	rjmp	.+0      	; 0x21a <_ZN6SdFile15contiguousRangeEPmS0_+0xc4>
     21a:	88 0f       	add	r24, r24
     21c:	99 1f       	adc	r25, r25
     21e:	aa 1f       	adc	r26, r26
     220:	bb 1f       	adc	r27, r27
     222:	0a 94       	dec	r0
     224:	02 f4       	brpl	.+0      	; 0x226 <_ZN6SdFile15contiguousRangeEPmS0_+0xd0>
     226:	46 85       	ldd	r20, Z+14	; 0x0e
     228:	57 85       	ldd	r21, Z+15	; 0x0f
     22a:	60 89       	ldd	r22, Z+16	; 0x10
     22c:	71 89       	ldd	r23, Z+17	; 0x11
     22e:	84 0f       	add	r24, r20
     230:	95 1f       	adc	r25, r21
     232:	a6 1f       	adc	r26, r22
     234:	b7 1f       	adc	r27, r23
     236:	f5 01       	movw	r30, r10
     238:	80 83       	st	Z, r24
     23a:	91 83       	std	Z+1, r25	; 0x01
     23c:	a2 83       	std	Z+2, r26	; 0x02
     23e:	b3 83       	std	Z+3, r27	; 0x03
     240:	f3 01       	movw	r30, r6
     242:	86 85       	ldd	r24, Z+14	; 0x0e
     244:	97 85       	ldd	r25, Z+15	; 0x0f
     246:	a0 89       	ldd	r26, Z+16	; 0x10
     248:	b1 89       	ldd	r27, Z+17	; 0x11
     24a:	01 97       	sbiw	r24, 0x01	; 1
     24c:	a1 09       	sbc	r26, r1
     24e:	b1 09       	sbc	r27, r1
     250:	24 81       	ldd	r18, Z+4	; 0x04
     252:	82 0f       	add	r24, r18
     254:	91 1d       	adc	r25, r1
     256:	a1 1d       	adc	r26, r1
     258:	b1 1d       	adc	r27, r1
     25a:	b7 01       	movw	r22, r14
     25c:	a6 01       	movw	r20, r12
     25e:	42 50       	subi	r20, 0x02	; 2
     260:	50 40       	sbci	r21, 0x00	; 0
     262:	60 40       	sbci	r22, 0x00	; 0
     264:	70 40       	sbci	r23, 0x00	; 0
     266:	05 84       	ldd	r0, Z+13	; 0x0d
     268:	00 c0       	rjmp	.+0      	; 0x26a <_ZN6SdFile15contiguousRangeEPmS0_+0x114>
     26a:	44 0f       	add	r20, r20
     26c:	55 1f       	adc	r21, r21
     26e:	66 1f       	adc	r22, r22
     270:	77 1f       	adc	r23, r23
     272:	0a 94       	dec	r0
     274:	02 f4       	brpl	.+0      	; 0x276 <_ZN6SdFile15contiguousRangeEPmS0_+0x120>
     276:	84 0f       	add	r24, r20
     278:	95 1f       	adc	r25, r21
     27a:	a6 1f       	adc	r26, r22
     27c:	b7 1f       	adc	r27, r23
     27e:	f4 01       	movw	r30, r8
     280:	80 83       	st	Z, r24
     282:	91 83       	std	Z+1, r25	; 0x01
     284:	a2 83       	std	Z+2, r26	; 0x02
     286:	b3 83       	std	Z+3, r27	; 0x03
     288:	81 e0       	ldi	r24, 0x01	; 1
     28a:	00 c0       	rjmp	.+0      	; 0x28c <_ZN6SdFile15contiguousRangeEPmS0_+0x136>
     28c:	80 e0       	ldi	r24, 0x00	; 0
     28e:	0f 90       	pop	r0
     290:	0f 90       	pop	r0
     292:	0f 90       	pop	r0
     294:	0f 90       	pop	r0
     296:	df 91       	pop	r29
     298:	cf 91       	pop	r28
     29a:	1f 91       	pop	r17
     29c:	0f 91       	pop	r16
     29e:	ff 90       	pop	r15
     2a0:	ef 90       	pop	r14
     2a2:	df 90       	pop	r13
     2a4:	cf 90       	pop	r12
     2a6:	bf 90       	pop	r11
     2a8:	af 90       	pop	r10
     2aa:	9f 90       	pop	r9
     2ac:	8f 90       	pop	r8
     2ae:	7f 90       	pop	r7
     2b0:	6f 90       	pop	r6
     2b2:	08 95       	ret

000002b4 <_ZN6SdFile7dirNameERK14directoryEntryPc>:
     2b4:	fc 01       	movw	r30, r24
     2b6:	90 e0       	ldi	r25, 0x00	; 0
     2b8:	80 e0       	ldi	r24, 0x00	; 0
     2ba:	2e e2       	ldi	r18, 0x2E	; 46
     2bc:	30 81       	ld	r19, Z
     2be:	30 32       	cpi	r19, 0x20	; 32
     2c0:	01 f0       	breq	.+0      	; 0x2c2 <_ZN6SdFile7dirNameERK14directoryEntryPc+0xe>
     2c2:	98 30       	cpi	r25, 0x08	; 8
     2c4:	01 f4       	brne	.+0      	; 0x2c6 <_ZN6SdFile7dirNameERK14directoryEntryPc+0x12>
     2c6:	db 01       	movw	r26, r22
     2c8:	a8 0f       	add	r26, r24
     2ca:	b1 1d       	adc	r27, r1
     2cc:	2c 93       	st	X, r18
     2ce:	8f 5f       	subi	r24, 0xFF	; 255
     2d0:	30 81       	ld	r19, Z
     2d2:	db 01       	movw	r26, r22
     2d4:	a8 0f       	add	r26, r24
     2d6:	b1 1d       	adc	r27, r1
     2d8:	3c 93       	st	X, r19
     2da:	8f 5f       	subi	r24, 0xFF	; 255
     2dc:	9f 5f       	subi	r25, 0xFF	; 255
     2de:	31 96       	adiw	r30, 0x01	; 1
     2e0:	9b 30       	cpi	r25, 0x0B	; 11
     2e2:	01 f4       	brne	.+0      	; 0x2e4 <_ZN6SdFile7dirNameERK14directoryEntryPc+0x30>
     2e4:	68 0f       	add	r22, r24
     2e6:	71 1d       	adc	r23, r1
     2e8:	fb 01       	movw	r30, r22
     2ea:	10 82       	st	Z, r1
     2ec:	08 95       	ret

000002ee <_ZN6SdFile10make83NameEPKcPh>:
     2ee:	dc 01       	movw	r26, r24
     2f0:	fb 01       	movw	r30, r22
     2f2:	8b e0       	ldi	r24, 0x0B	; 11
     2f4:	90 e2       	ldi	r25, 0x20	; 32
     2f6:	91 93       	st	Z+, r25
     2f8:	81 50       	subi	r24, 0x01	; 1
     2fa:	01 f4       	brne	.+0      	; 0x2fc <_ZN6SdFile10make83NameEPKcPh+0xe>
     2fc:	30 e0       	ldi	r19, 0x00	; 0
     2fe:	47 e0       	ldi	r20, 0x07	; 7
     300:	00 c0       	rjmp	.+0      	; 0x302 <_ZN6SdFile10make83NameEPKcPh+0x14>
     302:	2e 32       	cpi	r18, 0x2E	; 46
     304:	01 f4       	brne	.+0      	; 0x306 <_ZN6SdFile10make83NameEPKcPh+0x18>
     306:	4a 30       	cpi	r20, 0x0A	; 10
     308:	01 f0       	breq	.+0      	; 0x30a <_ZN6SdFile10make83NameEPKcPh+0x1c>
     30a:	38 e0       	ldi	r19, 0x08	; 8
     30c:	4a e0       	ldi	r20, 0x0A	; 10
     30e:	00 c0       	rjmp	.+0      	; 0x310 <_ZN6SdFile10make83NameEPKcPh+0x22>
     310:	e2 17       	cp	r30, r18
     312:	01 f4       	brne	.+0      	; 0x314 <_ZN6SdFile10make83NameEPKcPh+0x26>
     314:	00 c0       	rjmp	.+0      	; 0x316 <_ZN6SdFile10make83NameEPKcPh+0x28>
     316:	80 e0       	ldi	r24, 0x00	; 0
     318:	90 e0       	ldi	r25, 0x00	; 0
     31a:	fc 01       	movw	r30, r24
     31c:	01 96       	adiw	r24, 0x01	; 1
     31e:	e4 91       	lpm	r30, Z
     320:	ee 23       	and	r30, r30
     322:	01 f4       	brne	.+0      	; 0x324 <_ZN6SdFile10make83NameEPKcPh+0x36>
     324:	43 17       	cp	r20, r19
     326:	00 f0       	brcs	.+0      	; 0x328 <_ZN6SdFile10make83NameEPKcPh+0x3a>
     328:	21 32       	cpi	r18, 0x21	; 33
     32a:	00 f0       	brcs	.+0      	; 0x32c <_ZN6SdFile10make83NameEPKcPh+0x3e>
     32c:	2f 37       	cpi	r18, 0x7F	; 127
     32e:	00 f4       	brcc	.+0      	; 0x330 <_ZN6SdFile10make83NameEPKcPh+0x42>
     330:	fb 01       	movw	r30, r22
     332:	e3 0f       	add	r30, r19
     334:	f1 1d       	adc	r31, r1
     336:	82 2f       	mov	r24, r18
     338:	81 56       	subi	r24, 0x61	; 97
     33a:	8a 31       	cpi	r24, 0x1A	; 26
     33c:	00 f4       	brcc	.+0      	; 0x33e <_ZN6SdFile10make83NameEPKcPh+0x50>
     33e:	20 52       	subi	r18, 0x20	; 32
     340:	20 83       	st	Z, r18
     342:	3f 5f       	subi	r19, 0xFF	; 255
     344:	2d 91       	ld	r18, X+
     346:	22 23       	and	r18, r18
     348:	01 f4       	brne	.+0      	; 0x34a <_ZN6SdFile10make83NameEPKcPh+0x5c>
     34a:	81 e0       	ldi	r24, 0x01	; 1
     34c:	fb 01       	movw	r30, r22
     34e:	90 81       	ld	r25, Z
     350:	90 32       	cpi	r25, 0x20	; 32
     352:	01 f4       	brne	.+0      	; 0x354 <_ZN6SdFile10make83NameEPKcPh+0x66>
     354:	80 e0       	ldi	r24, 0x00	; 0
     356:	08 95       	ret
     358:	80 e0       	ldi	r24, 0x00	; 0
     35a:	08 95       	ret

0000035c <_ZN6SdFile8openRootEP8SdVolume>:
     35c:	0f 93       	push	r16
     35e:	1f 93       	push	r17
     360:	cf 93       	push	r28
     362:	df 93       	push	r29
     364:	ec 01       	movw	r28, r24
     366:	8b 01       	movw	r16, r22
     368:	8d 81       	ldd	r24, Y+5	; 0x05
     36a:	88 23       	and	r24, r24
     36c:	01 f0       	breq	.+0      	; 0x36e <_ZN6SdFile8openRootEP8SdVolume+0x12>
     36e:	00 c0       	rjmp	.+0      	; 0x370 <_ZN6SdFile8openRootEP8SdVolume+0x14>
     370:	fb 01       	movw	r30, r22
     372:	87 89       	ldd	r24, Z+23	; 0x17
     374:	80 31       	cpi	r24, 0x10	; 16
     376:	01 f4       	brne	.+0      	; 0x378 <_ZN6SdFile8openRootEP8SdVolume+0x1c>
     378:	82 e0       	ldi	r24, 0x02	; 2
     37a:	8d 83       	std	Y+5, r24	; 0x05
     37c:	1f 8a       	std	Y+23, r1	; 0x17
     37e:	18 8e       	std	Y+24, r1	; 0x18
     380:	19 8e       	std	Y+25, r1	; 0x19
     382:	1a 8e       	std	Y+26, r1	; 0x1a
     384:	80 8d       	ldd	r24, Z+24	; 0x18
     386:	91 8d       	ldd	r25, Z+25	; 0x19
     388:	a0 e0       	ldi	r26, 0x00	; 0
     38a:	b0 e0       	ldi	r27, 0x00	; 0
     38c:	35 e0       	ldi	r19, 0x05	; 5
     38e:	88 0f       	add	r24, r24
     390:	99 1f       	adc	r25, r25
     392:	aa 1f       	adc	r26, r26
     394:	bb 1f       	adc	r27, r27
     396:	3a 95       	dec	r19
     398:	01 f4       	brne	.+0      	; 0x39a <_ZN6SdFile8openRootEP8SdVolume+0x3e>
     39a:	8b 8b       	std	Y+19, r24	; 0x13
     39c:	9c 8b       	std	Y+20, r25	; 0x14
     39e:	ad 8b       	std	Y+21, r26	; 0x15
     3a0:	be 8b       	std	Y+22, r27	; 0x16
     3a2:	00 c0       	rjmp	.+0      	; 0x3a4 <_ZN6SdFile8openRootEP8SdVolume+0x48>
     3a4:	80 32       	cpi	r24, 0x20	; 32
     3a6:	01 f4       	brne	.+0      	; 0x3a8 <_ZN6SdFile8openRootEP8SdVolume+0x4c>
     3a8:	83 e0       	ldi	r24, 0x03	; 3
     3aa:	8d 83       	std	Y+5, r24	; 0x05
     3ac:	fb 01       	movw	r30, r22
     3ae:	42 8d       	ldd	r20, Z+26	; 0x1a
     3b0:	53 8d       	ldd	r21, Z+27	; 0x1b
     3b2:	64 8d       	ldd	r22, Z+28	; 0x1c
     3b4:	75 8d       	ldd	r23, Z+29	; 0x1d
     3b6:	4f 8b       	std	Y+23, r20	; 0x17
     3b8:	58 8f       	std	Y+24, r21	; 0x18
     3ba:	69 8f       	std	Y+25, r22	; 0x19
     3bc:	7a 8f       	std	Y+26, r23	; 0x1a
     3be:	9e 01       	movw	r18, r28
     3c0:	2d 5e       	subi	r18, 0xED	; 237
     3c2:	3f 4f       	sbci	r19, 0xFF	; 255
     3c4:	c8 01       	movw	r24, r16
     3c6:	0e 94 00 00 	call	0	; 0x0 <_ZN6SdFile10addClusterEv>
     3ca:	88 23       	and	r24, r24
     3cc:	01 f0       	breq	.+0      	; 0x3ce <_ZN6SdFile8openRootEP8SdVolume+0x72>
     3ce:	1c 8f       	std	Y+28, r17	; 0x1c
     3d0:	0b 8f       	std	Y+27, r16	; 0x1b
     3d2:	81 e0       	ldi	r24, 0x01	; 1
     3d4:	8c 83       	std	Y+4, r24	; 0x04
     3d6:	1e 82       	std	Y+6, r1	; 0x06
     3d8:	1f 82       	std	Y+7, r1	; 0x07
     3da:	18 86       	std	Y+8, r1	; 0x08
     3dc:	19 86       	std	Y+9, r1	; 0x09
     3de:	1a 86       	std	Y+10, r1	; 0x0a
     3e0:	1b 86       	std	Y+11, r1	; 0x0b
     3e2:	1c 86       	std	Y+12, r1	; 0x0c
     3e4:	1d 86       	std	Y+13, r1	; 0x0d
     3e6:	1e 86       	std	Y+14, r1	; 0x0e
     3e8:	1f 86       	std	Y+15, r1	; 0x0f
     3ea:	18 8a       	std	Y+16, r1	; 0x10
     3ec:	19 8a       	std	Y+17, r1	; 0x11
     3ee:	1a 8a       	std	Y+18, r1	; 0x12
     3f0:	00 c0       	rjmp	.+0      	; 0x3f2 <_ZN6SdFile8openRootEP8SdVolume+0x96>
     3f2:	80 e0       	ldi	r24, 0x00	; 0
     3f4:	df 91       	pop	r29
     3f6:	cf 91       	pop	r28
     3f8:	1f 91       	pop	r17
     3fa:	0f 91       	pop	r16
     3fc:	08 95       	ret

000003fe <_ZN6SdFile12printDirNameERK14directoryEntryh>:
     3fe:	df 92       	push	r13
     400:	ef 92       	push	r14
     402:	ff 92       	push	r15
     404:	0f 93       	push	r16
     406:	1f 93       	push	r17
     408:	cf 93       	push	r28
     40a:	df 93       	push	r29
     40c:	8c 01       	movw	r16, r24
     40e:	d6 2e       	mov	r13, r22
     410:	ec 01       	movw	r28, r24
     412:	ee 24       	eor	r14, r14
     414:	ff 24       	eor	r15, r15
     416:	88 81       	ld	r24, Y
     418:	80 32       	cpi	r24, 0x20	; 32
     41a:	01 f0       	breq	.+0      	; 0x41c <_ZN6SdFile12printDirNameERK14directoryEntryh+0x1e>
     41c:	88 e0       	ldi	r24, 0x08	; 8
     41e:	e8 16       	cp	r14, r24
     420:	01 f4       	brne	.+0      	; 0x422 <_ZN6SdFile12printDirNameERK14directoryEntryh+0x24>
     422:	80 e0       	ldi	r24, 0x00	; 0
     424:	90 e0       	ldi	r25, 0x00	; 0
     426:	6e e2       	ldi	r22, 0x2E	; 46
     428:	0e 94 00 00 	call	0	; 0x0 <_ZN6SdFile10addClusterEv>
     42c:	f3 94       	inc	r15
     42e:	80 e0       	ldi	r24, 0x00	; 0
     430:	90 e0       	ldi	r25, 0x00	; 0
     432:	68 81       	ld	r22, Y
     434:	0e 94 00 00 	call	0	; 0x0 <_ZN6SdFile10addClusterEv>
     438:	f3 94       	inc	r15
     43a:	e3 94       	inc	r14
     43c:	21 96       	adiw	r28, 0x01	; 1
     43e:	eb e0       	ldi	r30, 0x0B	; 11
     440:	ee 16       	cp	r14, r30
     442:	01 f4       	brne	.+0      	; 0x444 <_ZN6SdFile12printDirNameERK14directoryEntryh+0x46>
     444:	f8 01       	movw	r30, r16
     446:	83 85       	ldd	r24, Z+11	; 0x0b
     448:	88 71       	andi	r24, 0x18	; 24
     44a:	80 31       	cpi	r24, 0x10	; 16
     44c:	01 f4       	brne	.+0      	; 0x44e <_ZN6SdFile12printDirNameERK14directoryEntryh+0x50>
     44e:	80 e0       	ldi	r24, 0x00	; 0
     450:	90 e0       	ldi	r25, 0x00	; 0
     452:	6f e2       	ldi	r22, 0x2F	; 47
     454:	00 c0       	rjmp	.+0      	; 0x456 <_ZN6SdFile12printDirNameERK14directoryEntryh+0x58>
     456:	80 e0       	ldi	r24, 0x00	; 0
     458:	90 e0       	ldi	r25, 0x00	; 0
     45a:	60 e2       	ldi	r22, 0x20	; 32
     45c:	0e 94 00 00 	call	0	; 0x0 <_ZN6SdFile10addClusterEv>
     460:	f3 94       	inc	r15
     462:	fd 14       	cp	r15, r13
     464:	00 f0       	brcs	.+0      	; 0x466 <_ZN6SdFile12printDirNameERK14directoryEntryh+0x68>
     466:	df 91       	pop	r29
     468:	cf 91       	pop	r28
     46a:	1f 91       	pop	r17
     46c:	0f 91       	pop	r16
     46e:	ff 90       	pop	r15
     470:	ef 90       	pop	r14
     472:	df 90       	pop	r13
     474:	08 95       	ret

00000476 <_ZN6SdFile14printTwoDigitsEh>:
     476:	cf 93       	push	r28
     478:	df 93       	push	r29
     47a:	00 d0       	rcall	.+0      	; 0x47c <_ZN6SdFile14printTwoDigitsEh+0x6>
     47c:	0f 92       	push	r0
     47e:	cd b7       	in	r28, 0x3d	; 61
     480:	de b7       	in	r29, 0x3e	; 62
     482:	6a e0       	ldi	r22, 0x0A	; 10
     484:	0e 94 00 00 	call	0	; 0x0 <_ZN6SdFile10addClusterEv>
     488:	80 5d       	subi	r24, 0xD0	; 208
     48a:	89 83       	std	Y+1, r24	; 0x01
     48c:	90 5d       	subi	r25, 0xD0	; 208
     48e:	9a 83       	std	Y+2, r25	; 0x02
     490:	1b 82       	std	Y+3, r1	; 0x03
     492:	80 e0       	ldi	r24, 0x00	; 0
     494:	90 e0       	ldi	r25, 0x00	; 0
     496:	be 01       	movw	r22, r28
     498:	6f 5f       	subi	r22, 0xFF	; 255
     49a:	7f 4f       	sbci	r23, 0xFF	; 255
     49c:	0e 94 00 00 	call	0	; 0x0 <_ZN6SdFile10addClusterEv>
     4a0:	0f 90       	pop	r0
     4a2:	0f 90       	pop	r0
     4a4:	0f 90       	pop	r0
     4a6:	df 91       	pop	r29
     4a8:	cf 91       	pop	r28
     4aa:	08 95       	ret

000004ac <_ZN6SdFile12printFatTimeEj>:
     4ac:	0f 93       	push	r16
     4ae:	1f 93       	push	r17
     4b0:	cf 93       	push	r28
     4b2:	df 93       	push	r29
     4b4:	ec 01       	movw	r28, r24
     4b6:	8d 2f       	mov	r24, r29
     4b8:	86 95       	lsr	r24
     4ba:	86 95       	lsr	r24
     4bc:	86 95       	lsr	r24
     4be:	0e 94 00 00 	call	0	; 0x0 <_ZN6SdFile10addClusterEv>
     4c2:	00 e0       	ldi	r16, 0x00	; 0
     4c4:	10 e0       	ldi	r17, 0x00	; 0
     4c6:	c8 01       	movw	r24, r16
     4c8:	6a e3       	ldi	r22, 0x3A	; 58
     4ca:	0e 94 00 00 	call	0	; 0x0 <_ZN6SdFile10addClusterEv>
     4ce:	ce 01       	movw	r24, r28
     4d0:	45 e0       	ldi	r20, 0x05	; 5
     4d2:	96 95       	lsr	r25
     4d4:	87 95       	ror	r24
     4d6:	4a 95       	dec	r20
     4d8:	01 f4       	brne	.+0      	; 0x4da <_ZN6SdFile12printFatTimeEj+0x2e>
     4da:	8f 73       	andi	r24, 0x3F	; 63
     4dc:	0e 94 00 00 	call	0	; 0x0 <_ZN6SdFile10addClusterEv>
     4e0:	c8 01       	movw	r24, r16
     4e2:	6a e3       	ldi	r22, 0x3A	; 58
     4e4:	0e 94 00 00 	call	0	; 0x0 <_ZN6SdFile10addClusterEv>
     4e8:	8c 2f       	mov	r24, r28
     4ea:	8f 71       	andi	r24, 0x1F	; 31
     4ec:	88 0f       	add	r24, r24
     4ee:	0e 94 00 00 	call	0	; 0x0 <_ZN6SdFile10addClusterEv>
     4f2:	df 91       	pop	r29
     4f4:	cf 91       	pop	r28
     4f6:	1f 91       	pop	r17
     4f8:	0f 91       	pop	r16
     4fa:	08 95       	ret

000004fc <_ZN6SdFile12printFatDateEj>:
     4fc:	0f 93       	push	r16
     4fe:	1f 93       	push	r17
     500:	cf 93       	push	r28
     502:	df 93       	push	r29
     504:	8c 01       	movw	r16, r24
     506:	c0 e0       	ldi	r28, 0x00	; 0
     508:	d0 e0       	ldi	r29, 0x00	; 0
     50a:	bc 01       	movw	r22, r24
     50c:	67 2f       	mov	r22, r23
     50e:	77 27       	eor	r23, r23
     510:	66 95       	lsr	r22
     512:	64 54       	subi	r22, 0x44	; 68
     514:	78 4f       	sbci	r23, 0xF8	; 248
     516:	ce 01       	movw	r24, r28
     518:	4a e0       	ldi	r20, 0x0A	; 10
     51a:	50 e0       	ldi	r21, 0x00	; 0
     51c:	0e 94 00 00 	call	0	; 0x0 <_ZN6SdFile10addClusterEv>
     520:	ce 01       	movw	r24, r28
     522:	6d e2       	ldi	r22, 0x2D	; 45
     524:	0e 94 00 00 	call	0	; 0x0 <_ZN6SdFile10addClusterEv>
     528:	c8 01       	movw	r24, r16
     52a:	65 e0       	ldi	r22, 0x05	; 5
     52c:	96 95       	lsr	r25
     52e:	87 95       	ror	r24
     530:	6a 95       	dec	r22
     532:	01 f4       	brne	.+0      	; 0x534 <_ZN6SdFile12printFatDateEj+0x38>
     534:	8f 70       	andi	r24, 0x0F	; 15
     536:	0e 94 00 00 	call	0	; 0x0 <_ZN6SdFile10addClusterEv>
     53a:	ce 01       	movw	r24, r28
     53c:	6d e2       	ldi	r22, 0x2D	; 45
     53e:	0e 94 00 00 	call	0	; 0x0 <_ZN6SdFile10addClusterEv>
     542:	80 2f       	mov	r24, r16
     544:	8f 71       	andi	r24, 0x1F	; 31
     546:	0e 94 00 00 	call	0	; 0x0 <_ZN6SdFile10addClusterEv>
     54a:	df 91       	pop	r29
     54c:	cf 91       	pop	r28
     54e:	1f 91       	pop	r17
     550:	0f 91       	pop	r16
     552:	08 95       	ret

00000554 <_ZN6SdFile4readEPvj>:
     554:	2f 92       	push	r2
     556:	3f 92       	push	r3
     558:	4f 92       	push	r4
     55a:	5f 92       	push	r5
     55c:	6f 92       	push	r6
     55e:	7f 92       	push	r7
     560:	8f 92       	push	r8
     562:	9f 92       	push	r9
     564:	af 92       	push	r10
     566:	bf 92       	push	r11
     568:	cf 92       	push	r12
     56a:	df 92       	push	r13
     56c:	ef 92       	push	r14
     56e:	ff 92       	push	r15
     570:	0f 93       	push	r16
     572:	1f 93       	push	r17
     574:	cf 93       	push	r28
     576:	df 93       	push	r29
     578:	00 d0       	rcall	.+0      	; 0x57a <_ZN6SdFile4readEPvj+0x26>
     57a:	00 d0       	rcall	.+0      	; 0x57c <_ZN6SdFile4readEPvj+0x28>
     57c:	00 d0       	rcall	.+0      	; 0x57e <_ZN6SdFile4readEPvj+0x2a>
     57e:	cd b7       	in	r28, 0x3d	; 61
     580:	de b7       	in	r29, 0x3e	; 62
     582:	9c 83       	std	Y+4, r25	; 0x04
     584:	8b 83       	std	Y+3, r24	; 0x03
     586:	86 2e       	mov	r8, r22
     588:	27 2e       	mov	r2, r23
     58a:	2a 01       	movw	r4, r20
     58c:	dc 01       	movw	r26, r24
     58e:	15 96       	adiw	r26, 0x05	; 5
     590:	8c 91       	ld	r24, X
     592:	15 97       	sbiw	r26, 0x05	; 5
     594:	88 23       	and	r24, r24
     596:	01 f4       	brne	.+0      	; 0x598 <_ZN6SdFile4readEPvj+0x44>
     598:	00 c0       	rjmp	.+0      	; 0x59a <_ZN6SdFile4readEPvj+0x46>
     59a:	14 96       	adiw	r26, 0x04	; 4
     59c:	8c 91       	ld	r24, X
     59e:	14 97       	sbiw	r26, 0x04	; 4
     5a0:	80 ff       	sbrs	r24, 0
     5a2:	00 c0       	rjmp	.+0      	; 0x5a4 <_ZN6SdFile4readEPvj+0x50>
     5a4:	00 c0       	rjmp	.+0      	; 0x5a6 <_ZN6SdFile4readEPvj+0x52>
     5a6:	2a 01       	movw	r4, r20
     5a8:	48 1a       	sub	r4, r24
     5aa:	59 0a       	sbc	r5, r25
     5ac:	32 01       	movw	r6, r4
     5ae:	a8 2c       	mov	r10, r8
     5b0:	b2 2c       	mov	r11, r2
     5b2:	eb 81       	ldd	r30, Y+3	; 0x03
     5b4:	fc 81       	ldd	r31, Y+4	; 0x04
     5b6:	36 96       	adiw	r30, 0x06	; 6
     5b8:	fa 83       	std	Y+2, r31	; 0x02
     5ba:	e9 83       	std	Y+1, r30	; 0x01
     5bc:	21 2c       	mov	r2, r1
     5be:	02 e0       	ldi	r16, 0x02	; 2
     5c0:	30 2e       	mov	r3, r16
     5c2:	00 c0       	rjmp	.+0      	; 0x5c4 <_ZN6SdFile4readEPvj+0x70>
     5c4:	eb 81       	ldd	r30, Y+3	; 0x03
     5c6:	fc 81       	ldd	r31, Y+4	; 0x04
     5c8:	82 85       	ldd	r24, Z+10	; 0x0a
     5ca:	93 85       	ldd	r25, Z+11	; 0x0b
     5cc:	a4 85       	ldd	r26, Z+12	; 0x0c
     5ce:	b5 85       	ldd	r27, Z+13	; 0x0d
     5d0:	7f ef       	ldi	r23, 0xFF	; 255
     5d2:	87 2e       	mov	r8, r23
     5d4:	71 e0       	ldi	r23, 0x01	; 1
     5d6:	97 2e       	mov	r9, r23
     5d8:	88 22       	and	r8, r24
     5da:	99 22       	and	r9, r25
     5dc:	25 81       	ldd	r18, Z+5	; 0x05
     5de:	6c 01       	movw	r12, r24
     5e0:	7d 01       	movw	r14, r26
     5e2:	19 e0       	ldi	r17, 0x09	; 9
     5e4:	f6 94       	lsr	r15
     5e6:	e7 94       	ror	r14
     5e8:	d7 94       	ror	r13
     5ea:	c7 94       	ror	r12
     5ec:	1a 95       	dec	r17
     5ee:	01 f4       	brne	.+0      	; 0x5f0 <_ZN6SdFile4readEPvj+0x9c>
     5f0:	43 8d       	ldd	r20, Z+27	; 0x1b
     5f2:	54 8d       	ldd	r21, Z+28	; 0x1c
     5f4:	5e 83       	std	Y+6, r21	; 0x06
     5f6:	4d 83       	std	Y+5, r20	; 0x05
     5f8:	22 30       	cpi	r18, 0x02	; 2
     5fa:	01 f4       	brne	.+0      	; 0x5fc <_ZN6SdFile4readEPvj+0xa8>
     5fc:	da 01       	movw	r26, r20
     5fe:	5a 96       	adiw	r26, 0x1a	; 26
     600:	4d 91       	ld	r20, X+
     602:	5d 91       	ld	r21, X+
     604:	6d 91       	ld	r22, X+
     606:	7c 91       	ld	r23, X
     608:	5d 97       	sbiw	r26, 0x1d	; 29
     60a:	4c 0d       	add	r20, r12
     60c:	5d 1d       	adc	r21, r13
     60e:	6e 1d       	adc	r22, r14
     610:	7f 1d       	adc	r23, r15
     612:	00 c0       	rjmp	.+0      	; 0x614 <_ZN6SdFile4readEPvj+0xc0>
     614:	ed 81       	ldd	r30, Y+5	; 0x05
     616:	fe 81       	ldd	r31, Y+6	; 0x06
     618:	04 81       	ldd	r16, Z+4	; 0x04
     61a:	01 50       	subi	r16, 0x01	; 1
     61c:	0c 21       	and	r16, r12
     61e:	81 14       	cp	r8, r1
     620:	91 04       	cpc	r9, r1
     622:	01 f4       	brne	.+0      	; 0x624 <_ZN6SdFile4readEPvj+0xd0>
     624:	00 23       	and	r16, r16
     626:	01 f4       	brne	.+0      	; 0x628 <_ZN6SdFile4readEPvj+0xd4>
     628:	00 97       	sbiw	r24, 0x00	; 0
     62a:	a1 05       	cpc	r26, r1
     62c:	b1 05       	cpc	r27, r1
     62e:	01 f4       	brne	.+0      	; 0x630 <_ZN6SdFile4readEPvj+0xdc>
     630:	eb 81       	ldd	r30, Y+3	; 0x03
     632:	fc 81       	ldd	r31, Y+4	; 0x04
     634:	87 89       	ldd	r24, Z+23	; 0x17
     636:	90 8d       	ldd	r25, Z+24	; 0x18
     638:	a1 8d       	ldd	r26, Z+25	; 0x19
     63a:	b2 8d       	ldd	r27, Z+26	; 0x1a
     63c:	86 83       	std	Z+6, r24	; 0x06
     63e:	97 83       	std	Z+7, r25	; 0x07
     640:	a0 87       	std	Z+8, r26	; 0x08
     642:	b1 87       	std	Z+9, r27	; 0x09
     644:	00 c0       	rjmp	.+0      	; 0x646 <_ZN6SdFile4readEPvj+0xf2>
     646:	ab 81       	ldd	r26, Y+3	; 0x03
     648:	bc 81       	ldd	r27, Y+4	; 0x04
     64a:	16 96       	adiw	r26, 0x06	; 6
     64c:	4d 91       	ld	r20, X+
     64e:	5d 91       	ld	r21, X+
     650:	6d 91       	ld	r22, X+
     652:	7c 91       	ld	r23, X
     654:	19 97       	sbiw	r26, 0x09	; 9
     656:	8d 81       	ldd	r24, Y+5	; 0x05
     658:	9e 81       	ldd	r25, Y+6	; 0x06
     65a:	29 81       	ldd	r18, Y+1	; 0x01
     65c:	3a 81       	ldd	r19, Y+2	; 0x02
     65e:	0e 94 00 00 	call	0	; 0x0 <_ZN6SdFile10addClusterEv>
     662:	88 23       	and	r24, r24
     664:	01 f4       	brne	.+0      	; 0x666 <_ZN6SdFile4readEPvj+0x112>
     666:	00 c0       	rjmp	.+0      	; 0x668 <_ZN6SdFile4readEPvj+0x114>
     668:	ab 81       	ldd	r26, Y+3	; 0x03
     66a:	bc 81       	ldd	r27, Y+4	; 0x04
     66c:	5b 96       	adiw	r26, 0x1b	; 27
     66e:	ed 91       	ld	r30, X+
     670:	fc 91       	ld	r31, X
     672:	5c 97       	sbiw	r26, 0x1c	; 28
     674:	16 96       	adiw	r26, 0x06	; 6
     676:	4d 91       	ld	r20, X+
     678:	5d 91       	ld	r21, X+
     67a:	6d 91       	ld	r22, X+
     67c:	7c 91       	ld	r23, X
     67e:	19 97       	sbiw	r26, 0x09	; 9
     680:	42 50       	subi	r20, 0x02	; 2
     682:	50 40       	sbci	r21, 0x00	; 0
     684:	60 40       	sbci	r22, 0x00	; 0
     686:	70 40       	sbci	r23, 0x00	; 0
     688:	05 84       	ldd	r0, Z+13	; 0x0d
     68a:	00 c0       	rjmp	.+0      	; 0x68c <_ZN6SdFile4readEPvj+0x138>
     68c:	44 0f       	add	r20, r20
     68e:	55 1f       	adc	r21, r21
     690:	66 1f       	adc	r22, r22
     692:	77 1f       	adc	r23, r23
     694:	0a 94       	dec	r0
     696:	02 f4       	brpl	.+0      	; 0x698 <_ZN6SdFile4readEPvj+0x144>
     698:	86 85       	ldd	r24, Z+14	; 0x0e
     69a:	97 85       	ldd	r25, Z+15	; 0x0f
     69c:	a0 89       	ldd	r26, Z+16	; 0x10
     69e:	b1 89       	ldd	r27, Z+17	; 0x11
     6a0:	48 0f       	add	r20, r24
     6a2:	59 1f       	adc	r21, r25
     6a4:	6a 1f       	adc	r22, r26
     6a6:	7b 1f       	adc	r23, r27
     6a8:	40 0f       	add	r20, r16
     6aa:	51 1d       	adc	r21, r1
     6ac:	61 1d       	adc	r22, r1
     6ae:	71 1d       	adc	r23, r1
     6b0:	c1 01       	movw	r24, r2
     6b2:	88 19       	sub	r24, r8
     6b4:	99 09       	sbc	r25, r9
     6b6:	63 01       	movw	r12, r6
     6b8:	86 15       	cp	r24, r6
     6ba:	97 05       	cpc	r25, r7
     6bc:	00 f4       	brcc	.+0      	; 0x6be <_ZN6SdFile4readEPvj+0x16a>
     6be:	6c 01       	movw	r12, r24
     6c0:	eb 81       	ldd	r30, Y+3	; 0x03
     6c2:	fc 81       	ldd	r31, Y+4	; 0x04
     6c4:	84 81       	ldd	r24, Z+4	; 0x04
     6c6:	86 fd       	sbrc	r24, 6
     6c8:	00 c0       	rjmp	.+0      	; 0x6ca <_ZN6SdFile4readEPvj+0x176>
     6ca:	f0 e0       	ldi	r31, 0x00	; 0
     6cc:	cf 16       	cp	r12, r31
     6ce:	f2 e0       	ldi	r31, 0x02	; 2
     6d0:	df 06       	cpc	r13, r31
     6d2:	01 f0       	breq	.+0      	; 0x6d4 <_ZN6SdFile4readEPvj+0x180>
     6d4:	00 c0       	rjmp	.+0      	; 0x6d6 <_ZN6SdFile4readEPvj+0x182>
     6d6:	80 91 00 00 	lds	r24, 0x0000
     6da:	90 91 00 00 	lds	r25, 0x0000
     6de:	a0 91 00 00 	lds	r26, 0x0000
     6e2:	b0 91 00 00 	lds	r27, 0x0000
     6e6:	48 17       	cp	r20, r24
     6e8:	59 07       	cpc	r21, r25
     6ea:	6a 07       	cpc	r22, r26
     6ec:	7b 07       	cpc	r23, r27
     6ee:	01 f4       	brne	.+0      	; 0x6f0 <_ZN6SdFile4readEPvj+0x19c>
     6f0:	00 c0       	rjmp	.+0      	; 0x6f2 <_ZN6SdFile4readEPvj+0x19e>
     6f2:	80 91 00 00 	lds	r24, 0x0000
     6f6:	90 91 00 00 	lds	r25, 0x0000
     6fa:	94 01       	movw	r18, r8
     6fc:	86 01       	movw	r16, r12
     6fe:	75 01       	movw	r14, r10
     700:	0e 94 00 00 	call	0	; 0x0 <_ZN6SdFile10addClusterEv>
     704:	88 23       	and	r24, r24
     706:	01 f0       	breq	.+0      	; 0x708 <_ZN6SdFile4readEPvj+0x1b4>
     708:	ac 0c       	add	r10, r12
     70a:	bd 1c       	adc	r11, r13
     70c:	00 c0       	rjmp	.+0      	; 0x70e <_ZN6SdFile4readEPvj+0x1ba>
     70e:	94 01       	movw	r18, r8
     710:	20 50       	subi	r18, 0x00	; 0
     712:	30 40       	sbci	r19, 0x00	; 0
     714:	c9 01       	movw	r24, r18
     716:	8c 0d       	add	r24, r12
     718:	9d 1d       	adc	r25, r13
     71a:	f9 01       	movw	r30, r18
     71c:	d5 01       	movw	r26, r10
     71e:	00 c0       	rjmp	.+0      	; 0x720 <_ZN6SdFile4readEPvj+0x1cc>
     720:	41 91       	ld	r20, Z+
     722:	4d 93       	st	X+, r20
     724:	e8 17       	cp	r30, r24
     726:	f9 07       	cpc	r31, r25
     728:	01 f4       	brne	.+0      	; 0x72a <_ZN6SdFile4readEPvj+0x1d6>
     72a:	e2 1b       	sub	r30, r18
     72c:	f3 0b       	sbc	r31, r19
     72e:	ae 0e       	add	r10, r30
     730:	bf 1e       	adc	r11, r31
     732:	a6 01       	movw	r20, r12
     734:	60 e0       	ldi	r22, 0x00	; 0
     736:	70 e0       	ldi	r23, 0x00	; 0
     738:	eb 81       	ldd	r30, Y+3	; 0x03
     73a:	fc 81       	ldd	r31, Y+4	; 0x04
     73c:	82 85       	ldd	r24, Z+10	; 0x0a
     73e:	93 85       	ldd	r25, Z+11	; 0x0b
     740:	a4 85       	ldd	r26, Z+12	; 0x0c
     742:	b5 85       	ldd	r27, Z+13	; 0x0d
     744:	84 0f       	add	r24, r20
     746:	95 1f       	adc	r25, r21
     748:	a6 1f       	adc	r26, r22
     74a:	b7 1f       	adc	r27, r23
     74c:	82 87       	std	Z+10, r24	; 0x0a
     74e:	93 87       	std	Z+11, r25	; 0x0b
     750:	a4 87       	std	Z+12, r26	; 0x0c
     752:	b5 87       	std	Z+13, r27	; 0x0d
     754:	6c 18       	sub	r6, r12
     756:	7d 08       	sbc	r7, r13
     758:	61 14       	cp	r6, r1
     75a:	71 04       	cpc	r7, r1
     75c:	01 f0       	breq	.+0      	; 0x75e <_ZN6SdFile4readEPvj+0x20a>
     75e:	00 c0       	rjmp	.+0      	; 0x760 <_ZN6SdFile4readEPvj+0x20c>
     760:	c2 01       	movw	r24, r4
     762:	00 c0       	rjmp	.+0      	; 0x764 <_ZN6SdFile4readEPvj+0x210>
     764:	8f ef       	ldi	r24, 0xFF	; 255
     766:	9f ef       	ldi	r25, 0xFF	; 255
     768:	26 96       	adiw	r28, 0x06	; 6
     76a:	0f b6       	in	r0, 0x3f	; 63
     76c:	f8 94       	cli
     76e:	de bf       	out	0x3e, r29	; 62
     770:	0f be       	out	0x3f, r0	; 63
     772:	cd bf       	out	0x3d, r28	; 61
     774:	df 91       	pop	r29
     776:	cf 91       	pop	r28
     778:	1f 91       	pop	r17
     77a:	0f 91       	pop	r16
     77c:	ff 90       	pop	r15
     77e:	ef 90       	pop	r14
     780:	df 90       	pop	r13
     782:	cf 90       	pop	r12
     784:	bf 90       	pop	r11
     786:	af 90       	pop	r10
     788:	9f 90       	pop	r9
     78a:	8f 90       	pop	r8
     78c:	7f 90       	pop	r7
     78e:	6f 90       	pop	r6
     790:	5f 90       	pop	r5
     792:	4f 90       	pop	r4
     794:	3f 90       	pop	r3
     796:	2f 90       	pop	r2
     798:	08 95       	ret
     79a:	ab 81       	ldd	r26, Y+3	; 0x03
     79c:	bc 81       	ldd	r27, Y+4	; 0x04
     79e:	53 96       	adiw	r26, 0x13	; 19
     7a0:	4d 91       	ld	r20, X+
     7a2:	5d 91       	ld	r21, X+
     7a4:	6d 91       	ld	r22, X+
     7a6:	7c 91       	ld	r23, X
     7a8:	56 97       	sbiw	r26, 0x16	; 22
     7aa:	1a 96       	adiw	r26, 0x0a	; 10
     7ac:	8d 91       	ld	r24, X+
     7ae:	9d 91       	ld	r25, X+
     7b0:	0d 90       	ld	r0, X+
     7b2:	bc 91       	ld	r27, X
     7b4:	a0 2d       	mov	r26, r0
     7b6:	82 01       	movw	r16, r4
     7b8:	20 e0       	ldi	r18, 0x00	; 0
     7ba:	30 e0       	ldi	r19, 0x00	; 0
     7bc:	6a 01       	movw	r12, r20
     7be:	7b 01       	movw	r14, r22
     7c0:	c8 1a       	sub	r12, r24
     7c2:	d9 0a       	sbc	r13, r25
     7c4:	ea 0a       	sbc	r14, r26
     7c6:	fb 0a       	sbc	r15, r27
     7c8:	c0 16       	cp	r12, r16
     7ca:	d1 06       	cpc	r13, r17
     7cc:	e2 06       	cpc	r14, r18
     7ce:	f3 06       	cpc	r15, r19
     7d0:	00 f4       	brcc	.+0      	; 0x7d2 <_ZN6SdFile4readEPvj+0x27e>
     7d2:	00 c0       	rjmp	.+0      	; 0x7d4 <_ZN6SdFile4readEPvj+0x280>
     7d4:	00 c0       	rjmp	.+0      	; 0x7d6 <_ZN6SdFile4readEPvj+0x282>
     7d6:	cb 01       	movw	r24, r22
     7d8:	ba 01       	movw	r22, r20
     7da:	40 e0       	ldi	r20, 0x00	; 0
     7dc:	0e 94 00 00 	call	0	; 0x0 <_ZN6SdFile10addClusterEv>
     7e0:	88 23       	and	r24, r24
     7e2:	01 f0       	breq	.+0      	; 0x7e4 <_ZN6SdFile4readEPvj+0x290>
     7e4:	00 c0       	rjmp	.+0      	; 0x7e6 <_ZN6SdFile4readEPvj+0x292>
     7e6:	00 c0       	rjmp	.+0      	; 0x7e8 <_ZN6SdFile7readDirEP14directoryEntry>

000007e8 <_ZN6SdFile7readDirEP14directoryEntry>:
     7e8:	0f 93       	push	r16
     7ea:	1f 93       	push	r17
     7ec:	cf 93       	push	r28
     7ee:	df 93       	push	r29
     7f0:	8c 01       	movw	r16, r24
     7f2:	eb 01       	movw	r28, r22
     7f4:	fc 01       	movw	r30, r24
     7f6:	85 81       	ldd	r24, Z+5	; 0x05
     7f8:	82 30       	cpi	r24, 0x02	; 2
     7fa:	00 f0       	brcs	.+0      	; 0x7fc <_ZN6SdFile7readDirEP14directoryEntry+0x14>
     7fc:	82 85       	ldd	r24, Z+10	; 0x0a
     7fe:	93 85       	ldd	r25, Z+11	; 0x0b
     800:	a4 85       	ldd	r26, Z+12	; 0x0c
     802:	b5 85       	ldd	r27, Z+13	; 0x0d
     804:	8f 71       	andi	r24, 0x1F	; 31
     806:	90 70       	andi	r25, 0x00	; 0
     808:	a0 70       	andi	r26, 0x00	; 0
     80a:	b0 70       	andi	r27, 0x00	; 0
     80c:	00 97       	sbiw	r24, 0x00	; 0
     80e:	a1 05       	cpc	r26, r1
     810:	b1 05       	cpc	r27, r1
     812:	01 f4       	brne	.+0      	; 0x814 <_ZN6SdFile7readDirEP14directoryEntry+0x2c>
     814:	00 c0       	rjmp	.+0      	; 0x816 <_ZN6SdFile7readDirEP14directoryEntry+0x2e>
     816:	98 81       	ld	r25, Y
     818:	99 23       	and	r25, r25
     81a:	01 f0       	breq	.+0      	; 0x81c <_ZN6SdFile7readDirEP14directoryEntry+0x34>
     81c:	95 3e       	cpi	r25, 0xE5	; 229
     81e:	01 f0       	breq	.+0      	; 0x820 <_ZN6SdFile7readDirEP14directoryEntry+0x38>
     820:	9e 32       	cpi	r25, 0x2E	; 46
     822:	01 f0       	breq	.+0      	; 0x824 <_ZN6SdFile7readDirEP14directoryEntry+0x3c>
     824:	9b 85       	ldd	r25, Y+11	; 0x0b
     826:	93 ff       	sbrs	r25, 3
     828:	00 c0       	rjmp	.+0      	; 0x82a <_ZN6SdFile7readDirEP14directoryEntry+0x42>
     82a:	c8 01       	movw	r24, r16
     82c:	be 01       	movw	r22, r28
     82e:	40 e2       	ldi	r20, 0x20	; 32
     830:	50 e0       	ldi	r21, 0x00	; 0
     832:	0e 94 00 00 	call	0	; 0x0 <_ZN6SdFile10addClusterEv>
     836:	80 32       	cpi	r24, 0x20	; 32
     838:	01 f0       	breq	.+0      	; 0x83a <_ZN6SdFile7readDirEP14directoryEntry+0x52>
     83a:	88 0f       	add	r24, r24
     83c:	88 0b       	sbc	r24, r24
     83e:	00 c0       	rjmp	.+0      	; 0x840 <_ZN6SdFile7readDirEP14directoryEntry+0x58>
     840:	8f ef       	ldi	r24, 0xFF	; 255
     842:	00 c0       	rjmp	.+0      	; 0x844 <_ZN6SdFile7readDirEP14directoryEntry+0x5c>
     844:	80 e0       	ldi	r24, 0x00	; 0
     846:	df 91       	pop	r29
     848:	cf 91       	pop	r28
     84a:	1f 91       	pop	r17
     84c:	0f 91       	pop	r16
     84e:	08 95       	ret

00000850 <_ZN6SdFile12readDirCacheEv>:
     850:	cf 92       	push	r12
     852:	df 92       	push	r13
     854:	ef 92       	push	r14
     856:	ff 92       	push	r15
     858:	0f 93       	push	r16
     85a:	1f 93       	push	r17
     85c:	cf 93       	push	r28
     85e:	df 93       	push	r29
     860:	0f 92       	push	r0
     862:	cd b7       	in	r28, 0x3d	; 61
     864:	de b7       	in	r29, 0x3e	; 62
     866:	8c 01       	movw	r16, r24
     868:	fc 01       	movw	r30, r24
     86a:	85 81       	ldd	r24, Z+5	; 0x05
     86c:	82 30       	cpi	r24, 0x02	; 2
     86e:	00 f0       	brcs	.+0      	; 0x870 <_ZN6SdFile12readDirCacheEv+0x20>
     870:	c2 84       	ldd	r12, Z+10	; 0x0a
     872:	d3 84       	ldd	r13, Z+11	; 0x0b
     874:	e4 84       	ldd	r14, Z+12	; 0x0c
     876:	f5 84       	ldd	r15, Z+13	; 0x0d
     878:	c8 01       	movw	r24, r16
     87a:	be 01       	movw	r22, r28
     87c:	6f 5f       	subi	r22, 0xFF	; 255
     87e:	7f 4f       	sbci	r23, 0xFF	; 255
     880:	41 e0       	ldi	r20, 0x01	; 1
     882:	50 e0       	ldi	r21, 0x00	; 0
     884:	0e 94 00 00 	call	0	; 0x0 <_ZN6SdFile10addClusterEv>
     888:	81 30       	cpi	r24, 0x01	; 1
     88a:	91 05       	cpc	r25, r1
     88c:	01 f0       	breq	.+0      	; 0x88e <_ZN6SdFile12readDirCacheEv+0x3e>
     88e:	80 e0       	ldi	r24, 0x00	; 0
     890:	90 e0       	ldi	r25, 0x00	; 0
     892:	0f 90       	pop	r0
     894:	df 91       	pop	r29
     896:	cf 91       	pop	r28
     898:	1f 91       	pop	r17
     89a:	0f 91       	pop	r16
     89c:	ff 90       	pop	r15
     89e:	ef 90       	pop	r14
     8a0:	df 90       	pop	r13
     8a2:	cf 90       	pop	r12
     8a4:	08 95       	ret
     8a6:	f8 01       	movw	r30, r16
     8a8:	82 85       	ldd	r24, Z+10	; 0x0a
     8aa:	93 85       	ldd	r25, Z+11	; 0x0b
     8ac:	a4 85       	ldd	r26, Z+12	; 0x0c
     8ae:	b5 85       	ldd	r27, Z+13	; 0x0d
     8b0:	4f 96       	adiw	r24, 0x1f	; 31
     8b2:	a1 1d       	adc	r26, r1
     8b4:	b1 1d       	adc	r27, r1
     8b6:	82 87       	std	Z+10, r24	; 0x0a
     8b8:	93 87       	std	Z+11, r25	; 0x0b
     8ba:	a4 87       	std	Z+12, r26	; 0x0c
     8bc:	b5 87       	std	Z+13, r27	; 0x0d
     8be:	d7 01       	movw	r26, r14
     8c0:	c6 01       	movw	r24, r12
     8c2:	25 e0       	ldi	r18, 0x05	; 5
     8c4:	b6 95       	lsr	r27
     8c6:	a7 95       	ror	r26
     8c8:	97 95       	ror	r25
     8ca:	87 95       	ror	r24
     8cc:	2a 95       	dec	r18
     8ce:	01 f4       	brne	.+0      	; 0x8d0 <_ZN6SdFile12readDirCacheEv+0x80>
     8d0:	8f 70       	andi	r24, 0x0F	; 15
     8d2:	90 e0       	ldi	r25, 0x00	; 0
     8d4:	35 e0       	ldi	r19, 0x05	; 5
     8d6:	88 0f       	add	r24, r24
     8d8:	99 1f       	adc	r25, r25
     8da:	3a 95       	dec	r19
     8dc:	01 f4       	brne	.+0      	; 0x8de <_ZN6SdFile12readDirCacheEv+0x8e>
     8de:	80 50       	subi	r24, 0x00	; 0
     8e0:	90 40       	sbci	r25, 0x00	; 0
     8e2:	00 c0       	rjmp	.+0      	; 0x8e4 <_ZN6SdFile7seekSetEm>

000008e4 <_ZN6SdFile7seekSetEm>:
     8e4:	8f 92       	push	r8
     8e6:	9f 92       	push	r9
     8e8:	af 92       	push	r10
     8ea:	bf 92       	push	r11
     8ec:	cf 92       	push	r12
     8ee:	df 92       	push	r13
     8f0:	ef 92       	push	r14
     8f2:	ff 92       	push	r15
     8f4:	0f 93       	push	r16
     8f6:	1f 93       	push	r17
     8f8:	cf 93       	push	r28
     8fa:	df 93       	push	r29
     8fc:	ec 01       	movw	r28, r24
     8fe:	4a 01       	movw	r8, r20
     900:	5b 01       	movw	r10, r22
     902:	2d 81       	ldd	r18, Y+5	; 0x05
     904:	22 23       	and	r18, r18
     906:	01 f4       	brne	.+0      	; 0x908 <_ZN6SdFile7seekSetEm+0x24>
     908:	00 c0       	rjmp	.+0      	; 0x90a <_ZN6SdFile7seekSetEm+0x26>
     90a:	8b 89       	ldd	r24, Y+19	; 0x13
     90c:	9c 89       	ldd	r25, Y+20	; 0x14
     90e:	ad 89       	ldd	r26, Y+21	; 0x15
     910:	be 89       	ldd	r27, Y+22	; 0x16
     912:	84 17       	cp	r24, r20
     914:	95 07       	cpc	r25, r21
     916:	a6 07       	cpc	r26, r22
     918:	b7 07       	cpc	r27, r23
     91a:	00 f4       	brcc	.+0      	; 0x91c <_ZN6SdFile7seekSetEm+0x38>
     91c:	00 c0       	rjmp	.+0      	; 0x91e <_ZN6SdFile7seekSetEm+0x3a>
     91e:	00 c0       	rjmp	.+0      	; 0x920 <_ZN6SdFile7seekSetEm+0x3c>
     920:	81 14       	cp	r8, r1
     922:	91 04       	cpc	r9, r1
     924:	a1 04       	cpc	r10, r1
     926:	b1 04       	cpc	r11, r1
     928:	01 f4       	brne	.+0      	; 0x92a <_ZN6SdFile7seekSetEm+0x46>
     92a:	1e 82       	std	Y+6, r1	; 0x06
     92c:	1f 82       	std	Y+7, r1	; 0x07
     92e:	18 86       	std	Y+8, r1	; 0x08
     930:	19 86       	std	Y+9, r1	; 0x09
     932:	1a 86       	std	Y+10, r1	; 0x0a
     934:	1b 86       	std	Y+11, r1	; 0x0b
     936:	1c 86       	std	Y+12, r1	; 0x0c
     938:	1d 86       	std	Y+13, r1	; 0x0d
     93a:	00 c0       	rjmp	.+0      	; 0x93c <_ZN6SdFile7seekSetEm+0x58>
     93c:	4a 85       	ldd	r20, Y+10	; 0x0a
     93e:	5b 85       	ldd	r21, Y+11	; 0x0b
     940:	6c 85       	ldd	r22, Y+12	; 0x0c
     942:	7d 85       	ldd	r23, Y+13	; 0x0d
     944:	eb 8d       	ldd	r30, Y+27	; 0x1b
     946:	fc 8d       	ldd	r31, Y+28	; 0x1c
     948:	25 85       	ldd	r18, Z+13	; 0x0d
     94a:	30 e0       	ldi	r19, 0x00	; 0
     94c:	27 5f       	subi	r18, 0xF7	; 247
     94e:	3f 4f       	sbci	r19, 0xFF	; 255
     950:	db 01       	movw	r26, r22
     952:	ca 01       	movw	r24, r20
     954:	01 97       	sbiw	r24, 0x01	; 1
     956:	a1 09       	sbc	r26, r1
     958:	b1 09       	sbc	r27, r1
     95a:	02 2e       	mov	r0, r18
     95c:	00 c0       	rjmp	.+0      	; 0x95e <_ZN6SdFile7seekSetEm+0x7a>
     95e:	b6 95       	lsr	r27
     960:	a7 95       	ror	r26
     962:	97 95       	ror	r25
     964:	87 95       	ror	r24
     966:	0a 94       	dec	r0
     968:	02 f4       	brpl	.+0      	; 0x96a <_ZN6SdFile7seekSetEm+0x86>
     96a:	75 01       	movw	r14, r10
     96c:	64 01       	movw	r12, r8
     96e:	08 94       	sec
     970:	c1 08       	sbc	r12, r1
     972:	d1 08       	sbc	r13, r1
     974:	e1 08       	sbc	r14, r1
     976:	f1 08       	sbc	r15, r1
     978:	00 c0       	rjmp	.+0      	; 0x97a <_ZN6SdFile7seekSetEm+0x96>
     97a:	f6 94       	lsr	r15
     97c:	e7 94       	ror	r14
     97e:	d7 94       	ror	r13
     980:	c7 94       	ror	r12
     982:	2a 95       	dec	r18
     984:	02 f4       	brpl	.+0      	; 0x986 <_ZN6SdFile7seekSetEm+0xa2>
     986:	c8 16       	cp	r12, r24
     988:	d9 06       	cpc	r13, r25
     98a:	ea 06       	cpc	r14, r26
     98c:	fb 06       	cpc	r15, r27
     98e:	00 f0       	brcs	.+0      	; 0x990 <_ZN6SdFile7seekSetEm+0xac>
     990:	41 15       	cp	r20, r1
     992:	51 05       	cpc	r21, r1
     994:	61 05       	cpc	r22, r1
     996:	71 05       	cpc	r23, r1
     998:	01 f4       	brne	.+0      	; 0x99a <_ZN6SdFile7seekSetEm+0xb6>
     99a:	8f 89       	ldd	r24, Y+23	; 0x17
     99c:	98 8d       	ldd	r25, Y+24	; 0x18
     99e:	a9 8d       	ldd	r26, Y+25	; 0x19
     9a0:	ba 8d       	ldd	r27, Y+26	; 0x1a
     9a2:	8e 83       	std	Y+6, r24	; 0x06
     9a4:	9f 83       	std	Y+7, r25	; 0x07
     9a6:	a8 87       	std	Y+8, r26	; 0x08
     9a8:	b9 87       	std	Y+9, r27	; 0x09
     9aa:	00 c0       	rjmp	.+0      	; 0x9ac <_ZN6SdFile7seekSetEm+0xc8>
     9ac:	c8 1a       	sub	r12, r24
     9ae:	d9 0a       	sbc	r13, r25
     9b0:	ea 0a       	sbc	r14, r26
     9b2:	fb 0a       	sbc	r15, r27
     9b4:	00 c0       	rjmp	.+0      	; 0x9b6 <_ZN6SdFile7seekSetEm+0xd2>
     9b6:	4e 81       	ldd	r20, Y+6	; 0x06
     9b8:	5f 81       	ldd	r21, Y+7	; 0x07
     9ba:	68 85       	ldd	r22, Y+8	; 0x08
     9bc:	79 85       	ldd	r23, Y+9	; 0x09
     9be:	8b 8d       	ldd	r24, Y+27	; 0x1b
     9c0:	9c 8d       	ldd	r25, Y+28	; 0x1c
     9c2:	98 01       	movw	r18, r16
     9c4:	0e 94 00 00 	call	0	; 0x0 <_ZN6SdFile10addClusterEv>
     9c8:	08 94       	sec
     9ca:	c1 08       	sbc	r12, r1
     9cc:	d1 08       	sbc	r13, r1
     9ce:	e1 08       	sbc	r14, r1
     9d0:	f1 08       	sbc	r15, r1
     9d2:	88 23       	and	r24, r24
     9d4:	01 f4       	brne	.+0      	; 0x9d6 <_ZN6SdFile7seekSetEm+0xf2>
     9d6:	00 c0       	rjmp	.+0      	; 0x9d8 <_ZN6SdFile7seekSetEm+0xf4>
     9d8:	8e 01       	movw	r16, r28
     9da:	0a 5f       	subi	r16, 0xFA	; 250
     9dc:	1f 4f       	sbci	r17, 0xFF	; 255
     9de:	c1 14       	cp	r12, r1
     9e0:	d1 04       	cpc	r13, r1
     9e2:	e1 04       	cpc	r14, r1
     9e4:	f1 04       	cpc	r15, r1
     9e6:	01 f4       	brne	.+0      	; 0x9e8 <_ZN6SdFile7seekSetEm+0x104>
     9e8:	8a 86       	std	Y+10, r8	; 0x0a
     9ea:	9b 86       	std	Y+11, r9	; 0x0b
     9ec:	ac 86       	std	Y+12, r10	; 0x0c
     9ee:	bd 86       	std	Y+13, r11	; 0x0d
     9f0:	81 e0       	ldi	r24, 0x01	; 1
     9f2:	00 c0       	rjmp	.+0      	; 0x9f4 <_ZN6SdFile7seekSetEm+0x110>
     9f4:	80 e0       	ldi	r24, 0x00	; 0
     9f6:	df 91       	pop	r29
     9f8:	cf 91       	pop	r28
     9fa:	1f 91       	pop	r17
     9fc:	0f 91       	pop	r16
     9fe:	ff 90       	pop	r15
     a00:	ef 90       	pop	r14
     a02:	df 90       	pop	r13
     a04:	cf 90       	pop	r12
     a06:	bf 90       	pop	r11
     a08:	af 90       	pop	r10
     a0a:	9f 90       	pop	r9
     a0c:	8f 90       	pop	r8
     a0e:	08 95       	ret
     a10:	22 30       	cpi	r18, 0x02	; 2
     a12:	01 f0       	breq	.+0      	; 0xa14 <_ZN6SdFile7seekSetEm+0x130>
     a14:	00 c0       	rjmp	.+0      	; 0xa16 <_ZN6SdFile7seekSetEm+0x132>
     a16:	00 c0       	rjmp	.+0      	; 0xa18 <_ZN6SdFile4syncEv>

00000a18 <_ZN6SdFile4syncEv>:
     a18:	0f 93       	push	r16
     a1a:	1f 93       	push	r17
     a1c:	cf 93       	push	r28
     a1e:	df 93       	push	r29
     a20:	8c 01       	movw	r16, r24
     a22:	fc 01       	movw	r30, r24
     a24:	85 81       	ldd	r24, Z+5	; 0x05
     a26:	88 23       	and	r24, r24
     a28:	01 f0       	breq	.+0      	; 0xa2a <_ZN6SdFile4syncEv+0x12>
     a2a:	84 81       	ldd	r24, Z+4	; 0x04
     a2c:	87 ff       	sbrs	r24, 7
     a2e:	00 c0       	rjmp	.+0      	; 0xa30 <_ZN6SdFile4syncEv+0x18>
     a30:	c8 01       	movw	r24, r16
     a32:	61 e0       	ldi	r22, 0x01	; 1
     a34:	0e 94 00 00 	call	0	; 0x0 <_ZN6SdFile10addClusterEv>
     a38:	ec 01       	movw	r28, r24
     a3a:	00 97       	sbiw	r24, 0x00	; 0
     a3c:	01 f0       	breq	.+0      	; 0xa3e <_ZN6SdFile4syncEv+0x26>
     a3e:	f8 01       	movw	r30, r16
     a40:	85 81       	ldd	r24, Z+5	; 0x05
     a42:	82 30       	cpi	r24, 0x02	; 2
     a44:	00 f4       	brcc	.+0      	; 0xa46 <_ZN6SdFile4syncEv+0x2e>
     a46:	83 89       	ldd	r24, Z+19	; 0x13
     a48:	94 89       	ldd	r25, Z+20	; 0x14
     a4a:	a5 89       	ldd	r26, Z+21	; 0x15
     a4c:	b6 89       	ldd	r27, Z+22	; 0x16
     a4e:	8c 8f       	std	Y+28, r24	; 0x1c
     a50:	9d 8f       	std	Y+29, r25	; 0x1d
     a52:	ae 8f       	std	Y+30, r26	; 0x1e
     a54:	bf 8f       	std	Y+31, r27	; 0x1f
     a56:	f8 01       	movw	r30, r16
     a58:	87 89       	ldd	r24, Z+23	; 0x17
     a5a:	90 8d       	ldd	r25, Z+24	; 0x18
     a5c:	a1 8d       	ldd	r26, Z+25	; 0x19
     a5e:	b2 8d       	ldd	r27, Z+26	; 0x1a
     a60:	9b 8f       	std	Y+27, r25	; 0x1b
     a62:	8a 8f       	std	Y+26, r24	; 0x1a
     a64:	bd 8b       	std	Y+21, r27	; 0x15
     a66:	ac 8b       	std	Y+20, r26	; 0x14
     a68:	e0 91 00 00 	lds	r30, 0x0000
     a6c:	f0 91 00 00 	lds	r31, 0x0000
     a70:	30 97       	sbiw	r30, 0x00	; 0
     a72:	01 f0       	breq	.+0      	; 0xa74 <_ZN6SdFile4syncEv+0x5c>
     a74:	be 01       	movw	r22, r28
     a76:	6a 5e       	subi	r22, 0xEA	; 234
     a78:	7f 4f       	sbci	r23, 0xFF	; 255
     a7a:	ce 01       	movw	r24, r28
     a7c:	48 96       	adiw	r24, 0x18	; 24
     a7e:	09 95       	icall
     a80:	88 8d       	ldd	r24, Y+24	; 0x18
     a82:	99 8d       	ldd	r25, Y+25	; 0x19
     a84:	9b 8b       	std	Y+19, r25	; 0x13
     a86:	8a 8b       	std	Y+18, r24	; 0x12
     a88:	f8 01       	movw	r30, r16
     a8a:	84 81       	ldd	r24, Z+4	; 0x04
     a8c:	8f 77       	andi	r24, 0x7F	; 127
     a8e:	84 83       	std	Z+4, r24	; 0x04
     a90:	0e 94 00 00 	call	0	; 0x0 <_ZN6SdFile10addClusterEv>
     a94:	00 c0       	rjmp	.+0      	; 0xa96 <_ZN6SdFile4syncEv+0x7e>
     a96:	80 e0       	ldi	r24, 0x00	; 0
     a98:	df 91       	pop	r29
     a9a:	cf 91       	pop	r28
     a9c:	1f 91       	pop	r17
     a9e:	0f 91       	pop	r16
     aa0:	08 95       	ret

00000aa2 <_ZN6SdFile8dirEntryEP14directoryEntry>:
     aa2:	0f 93       	push	r16
     aa4:	1f 93       	push	r17
     aa6:	cf 93       	push	r28
     aa8:	df 93       	push	r29
     aaa:	ec 01       	movw	r28, r24
     aac:	16 2f       	mov	r17, r22
     aae:	07 2f       	mov	r16, r23
     ab0:	0e 94 00 00 	call	0	; 0x0 <_ZN6SdFile10addClusterEv>
     ab4:	88 23       	and	r24, r24
     ab6:	01 f0       	breq	.+0      	; 0xab8 <_ZN6SdFile8dirEntryEP14directoryEntry+0x16>
     ab8:	ce 01       	movw	r24, r28
     aba:	60 e0       	ldi	r22, 0x00	; 0
     abc:	0e 94 00 00 	call	0	; 0x0 <_ZN6SdFile10addClusterEv>
     ac0:	00 97       	sbiw	r24, 0x00	; 0
     ac2:	01 f0       	breq	.+0      	; 0xac4 <_ZN6SdFile8dirEntryEP14directoryEntry+0x22>
     ac4:	e1 2f       	mov	r30, r17
     ac6:	f0 2f       	mov	r31, r16
     ac8:	dc 01       	movw	r26, r24
     aca:	80 e2       	ldi	r24, 0x20	; 32
     acc:	0d 90       	ld	r0, X+
     ace:	01 92       	st	Z+, r0
     ad0:	81 50       	subi	r24, 0x01	; 1
     ad2:	01 f4       	brne	.+0      	; 0xad4 <_ZN6SdFile8dirEntryEP14directoryEntry+0x32>
     ad4:	81 e0       	ldi	r24, 0x01	; 1
     ad6:	00 c0       	rjmp	.+0      	; 0xad8 <_ZN6SdFile8dirEntryEP14directoryEntry+0x36>
     ad8:	80 e0       	ldi	r24, 0x00	; 0
     ada:	df 91       	pop	r29
     adc:	cf 91       	pop	r28
     ade:	1f 91       	pop	r17
     ae0:	0f 91       	pop	r16
     ae2:	08 95       	ret

00000ae4 <_ZN6SdFile5closeEv>:
     ae4:	cf 93       	push	r28
     ae6:	df 93       	push	r29
     ae8:	ec 01       	movw	r28, r24
     aea:	0e 94 00 00 	call	0	; 0x0 <_ZN6SdFile10addClusterEv>
     aee:	88 23       	and	r24, r24
     af0:	01 f0       	breq	.+0      	; 0xaf2 <_ZN6SdFile5closeEv+0xe>
     af2:	1d 82       	std	Y+5, r1	; 0x05
     af4:	81 e0       	ldi	r24, 0x01	; 1
     af6:	00 c0       	rjmp	.+0      	; 0xaf8 <_ZN6SdFile5closeEv+0x14>
     af8:	80 e0       	ldi	r24, 0x00	; 0
     afa:	df 91       	pop	r29
     afc:	cf 91       	pop	r28
     afe:	08 95       	ret

00000b00 <_ZN6SdFile9timestampEhjhhhhh>:
     b00:	6f 92       	push	r6
     b02:	7f 92       	push	r7
     b04:	8f 92       	push	r8
     b06:	9f 92       	push	r9
     b08:	af 92       	push	r10
     b0a:	bf 92       	push	r11
     b0c:	cf 92       	push	r12
     b0e:	ef 92       	push	r14
     b10:	ff 92       	push	r15
     b12:	0f 93       	push	r16
     b14:	1f 93       	push	r17
     b16:	cf 93       	push	r28
     b18:	df 93       	push	r29
     b1a:	0f 92       	push	r0
     b1c:	cd b7       	in	r28, 0x3d	; 61
     b1e:	de b7       	in	r29, 0x3e	; 62
     b20:	4c 01       	movw	r8, r24
     b22:	f6 2e       	mov	r15, r22
     b24:	3a 01       	movw	r6, r20
     b26:	dc 01       	movw	r26, r24
     b28:	15 96       	adiw	r26, 0x05	; 5
     b2a:	8c 91       	ld	r24, X
     b2c:	15 97       	sbiw	r26, 0x05	; 5
     b2e:	88 23       	and	r24, r24
     b30:	01 f4       	brne	.+0      	; 0xb32 <_ZN6SdFile9timestampEhjhhhhh+0x32>
     b32:	00 c0       	rjmp	.+0      	; 0xb34 <_ZN6SdFile9timestampEhjhhhhh+0x34>
     b34:	b7 e0       	ldi	r27, 0x07	; 7
     b36:	4c 3b       	cpi	r20, 0xBC	; 188
     b38:	5b 07       	cpc	r21, r27
     b3a:	00 f4       	brcc	.+0      	; 0xb3c <_ZN6SdFile9timestampEhjhhhhh+0x3c>
     b3c:	00 c0       	rjmp	.+0      	; 0xb3e <_ZN6SdFile9timestampEhjhhhhh+0x3e>
     b3e:	e8 e0       	ldi	r30, 0x08	; 8
     b40:	4c 33       	cpi	r20, 0x3C	; 60
     b42:	5e 07       	cpc	r21, r30
     b44:	00 f0       	brcs	.+0      	; 0xb46 <_ZN6SdFile9timestampEhjhhhhh+0x46>
     b46:	00 c0       	rjmp	.+0      	; 0xb48 <_ZN6SdFile9timestampEhjhhhhh+0x48>
     b48:	22 23       	and	r18, r18
     b4a:	01 f4       	brne	.+0      	; 0xb4c <_ZN6SdFile9timestampEhjhhhhh+0x4c>
     b4c:	00 c0       	rjmp	.+0      	; 0xb4e <_ZN6SdFile9timestampEhjhhhhh+0x4e>
     b4e:	2d 30       	cpi	r18, 0x0D	; 13
     b50:	00 f0       	brcs	.+0      	; 0xb52 <_ZN6SdFile9timestampEhjhhhhh+0x52>
     b52:	00 c0       	rjmp	.+0      	; 0xb54 <_ZN6SdFile9timestampEhjhhhhh+0x54>
     b54:	00 23       	and	r16, r16
     b56:	01 f4       	brne	.+0      	; 0xb58 <_ZN6SdFile9timestampEhjhhhhh+0x58>
     b58:	00 c0       	rjmp	.+0      	; 0xb5a <_ZN6SdFile9timestampEhjhhhhh+0x5a>
     b5a:	00 32       	cpi	r16, 0x20	; 32
     b5c:	00 f0       	brcs	.+0      	; 0xb5e <_ZN6SdFile9timestampEhjhhhhh+0x5e>
     b5e:	00 c0       	rjmp	.+0      	; 0xb60 <_ZN6SdFile9timestampEhjhhhhh+0x60>
     b60:	f7 e1       	ldi	r31, 0x17	; 23
     b62:	fe 15       	cp	r31, r14
     b64:	00 f4       	brcc	.+0      	; 0xb66 <_ZN6SdFile9timestampEhjhhhhh+0x66>
     b66:	00 c0       	rjmp	.+0      	; 0xb68 <_ZN6SdFile9timestampEhjhhhhh+0x68>
     b68:	8b e3       	ldi	r24, 0x3B	; 59
     b6a:	8c 15       	cp	r24, r12
     b6c:	00 f4       	brcc	.+0      	; 0xb6e <_ZN6SdFile9timestampEhjhhhhh+0x6e>
     b6e:	00 c0       	rjmp	.+0      	; 0xb70 <_ZN6SdFile9timestampEhjhhhhh+0x70>
     b70:	8a 15       	cp	r24, r10
     b72:	00 f4       	brcc	.+0      	; 0xb74 <_ZN6SdFile9timestampEhjhhhhh+0x74>
     b74:	00 c0       	rjmp	.+0      	; 0xb76 <_ZN6SdFile9timestampEhjhhhhh+0x76>
     b76:	00 c0       	rjmp	.+0      	; 0xb78 <_ZN6SdFile9timestampEhjhhhhh+0x78>
     b78:	10 e0       	ldi	r17, 0x00	; 0
     b7a:	c3 01       	movw	r24, r6
     b7c:	8c 5b       	subi	r24, 0xBC	; 188
     b7e:	97 40       	sbci	r25, 0x07	; 7
     b80:	98 2f       	mov	r25, r24
     b82:	88 27       	eor	r24, r24
     b84:	99 0f       	add	r25, r25
     b86:	08 2b       	or	r16, r24
     b88:	19 2b       	or	r17, r25
     b8a:	82 2f       	mov	r24, r18
     b8c:	90 e0       	ldi	r25, 0x00	; 0
     b8e:	55 e0       	ldi	r21, 0x05	; 5
     b90:	88 0f       	add	r24, r24
     b92:	99 1f       	adc	r25, r25
     b94:	5a 95       	dec	r21
     b96:	01 f4       	brne	.+0      	; 0xb98 <_ZN6SdFile9timestampEhjhhhhh+0x98>
     b98:	08 2b       	or	r16, r24
     b9a:	19 2b       	or	r17, r25
     b9c:	bb 24       	eor	r11, r11
     b9e:	2c 2d       	mov	r18, r12
     ba0:	30 e0       	ldi	r19, 0x00	; 0
     ba2:	65 e0       	ldi	r22, 0x05	; 5
     ba4:	22 0f       	add	r18, r18
     ba6:	33 1f       	adc	r19, r19
     ba8:	6a 95       	dec	r22
     baa:	01 f4       	brne	.+0      	; 0xbac <_ZN6SdFile9timestampEhjhhhhh+0xac>
     bac:	9e 2d       	mov	r25, r14
     bae:	99 0f       	add	r25, r25
     bb0:	99 0f       	add	r25, r25
     bb2:	99 0f       	add	r25, r25
     bb4:	80 e0       	ldi	r24, 0x00	; 0
     bb6:	28 2b       	or	r18, r24
     bb8:	39 2b       	or	r19, r25
     bba:	c5 01       	movw	r24, r10
     bbc:	95 95       	asr	r25
     bbe:	87 95       	ror	r24
     bc0:	28 2b       	or	r18, r24
     bc2:	39 2b       	or	r19, r25
     bc4:	f0 fe       	sbrs	r15, 0
     bc6:	00 c0       	rjmp	.+0      	; 0xbc8 <_ZN6SdFile9timestampEhjhhhhh+0xc8>
     bc8:	13 8b       	std	Z+19, r17	; 0x13
     bca:	02 8b       	std	Z+18, r16	; 0x12
     bcc:	f1 fe       	sbrs	r15, 1
     bce:	00 c0       	rjmp	.+0      	; 0xbd0 <_ZN6SdFile9timestampEhjhhhhh+0xd0>
     bd0:	11 8b       	std	Z+17, r17	; 0x11
     bd2:	00 8b       	std	Z+16, r16	; 0x10
     bd4:	37 87       	std	Z+15, r19	; 0x0f
     bd6:	26 87       	std	Z+14, r18	; 0x0e
     bd8:	a0 fe       	sbrs	r10, 0
     bda:	00 c0       	rjmp	.+0      	; 0xbdc <_ZN6SdFile9timestampEhjhhhhh+0xdc>
     bdc:	84 e6       	ldi	r24, 0x64	; 100
     bde:	00 c0       	rjmp	.+0      	; 0xbe0 <_ZN6SdFile9timestampEhjhhhhh+0xe0>
     be0:	80 e0       	ldi	r24, 0x00	; 0
     be2:	85 87       	std	Z+13, r24	; 0x0d
     be4:	f2 fe       	sbrs	r15, 2
     be6:	00 c0       	rjmp	.+0      	; 0xbe8 <_ZN6SdFile9timestampEhjhhhhh+0xe8>
     be8:	11 8f       	std	Z+25, r17	; 0x19
     bea:	00 8f       	std	Z+24, r16	; 0x18
     bec:	37 8b       	std	Z+23, r19	; 0x17
     bee:	26 8b       	std	Z+22, r18	; 0x16
     bf0:	80 91 00 00 	lds	r24, 0x0000
     bf4:	81 60       	ori	r24, 0x01	; 1
     bf6:	80 93 00 00 	sts	0x0000, r24
     bfa:	c4 01       	movw	r24, r8
     bfc:	0e 94 00 00 	call	0	; 0x0 <_ZN6SdFile10addClusterEv>
     c00:	00 c0       	rjmp	.+0      	; 0xc02 <_ZN6SdFile9timestampEhjhhhhh+0x102>
     c02:	80 e0       	ldi	r24, 0x00	; 0
     c04:	0f 90       	pop	r0
     c06:	df 91       	pop	r29
     c08:	cf 91       	pop	r28
     c0a:	1f 91       	pop	r17
     c0c:	0f 91       	pop	r16
     c0e:	ff 90       	pop	r15
     c10:	ef 90       	pop	r14
     c12:	cf 90       	pop	r12
     c14:	bf 90       	pop	r11
     c16:	af 90       	pop	r10
     c18:	9f 90       	pop	r9
     c1a:	8f 90       	pop	r8
     c1c:	7f 90       	pop	r7
     c1e:	6f 90       	pop	r6
     c20:	08 95       	ret
     c22:	c4 01       	movw	r24, r8
     c24:	61 e0       	ldi	r22, 0x01	; 1
     c26:	29 83       	std	Y+1, r18	; 0x01
     c28:	0e 94 00 00 	call	0	; 0x0 <_ZN6SdFile10addClusterEv>
     c2c:	fc 01       	movw	r30, r24
     c2e:	29 81       	ldd	r18, Y+1	; 0x01
     c30:	00 97       	sbiw	r24, 0x00	; 0
     c32:	01 f0       	breq	.+0      	; 0xc34 <_ZN6SdFile9timestampEhjhhhhh+0x134>
     c34:	00 c0       	rjmp	.+0      	; 0xc36 <_ZN6SdFile9timestampEhjhhhhh+0x136>
     c36:	00 c0       	rjmp	.+0      	; 0xc38 <_ZN6SdFile8truncateEm>

00000c38 <_ZN6SdFile8truncateEm>:
     c38:	4f 92       	push	r4
     c3a:	5f 92       	push	r5
     c3c:	6f 92       	push	r6
     c3e:	7f 92       	push	r7
     c40:	8f 92       	push	r8
     c42:	9f 92       	push	r9
     c44:	af 92       	push	r10
     c46:	bf 92       	push	r11
     c48:	ef 92       	push	r14
     c4a:	ff 92       	push	r15
     c4c:	0f 93       	push	r16
     c4e:	1f 93       	push	r17
     c50:	cf 93       	push	r28
     c52:	df 93       	push	r29
     c54:	00 d0       	rcall	.+0      	; 0xc56 <_ZN6SdFile8truncateEm+0x1e>
     c56:	00 d0       	rcall	.+0      	; 0xc58 <_ZN6SdFile8truncateEm+0x20>
     c58:	cd b7       	in	r28, 0x3d	; 61
     c5a:	de b7       	in	r29, 0x3e	; 62
     c5c:	7c 01       	movw	r14, r24
     c5e:	4a 01       	movw	r8, r20
     c60:	5b 01       	movw	r10, r22
     c62:	dc 01       	movw	r26, r24
     c64:	15 96       	adiw	r26, 0x05	; 5
     c66:	8c 91       	ld	r24, X
     c68:	15 97       	sbiw	r26, 0x05	; 5
     c6a:	81 30       	cpi	r24, 0x01	; 1
     c6c:	01 f0       	breq	.+0      	; 0xc6e <_ZN6SdFile8truncateEm+0x36>
     c6e:	00 c0       	rjmp	.+0      	; 0xc70 <_ZN6SdFile8truncateEm+0x38>
     c70:	14 96       	adiw	r26, 0x04	; 4
     c72:	8c 91       	ld	r24, X
     c74:	14 97       	sbiw	r26, 0x04	; 4
     c76:	81 ff       	sbrs	r24, 1
     c78:	00 c0       	rjmp	.+0      	; 0xc7a <_ZN6SdFile8truncateEm+0x42>
     c7a:	00 c0       	rjmp	.+0      	; 0xc7c <_ZN6SdFile8truncateEm+0x44>
     c7c:	00 97       	sbiw	r24, 0x00	; 0
     c7e:	a1 05       	cpc	r26, r1
     c80:	b1 05       	cpc	r27, r1
     c82:	01 f4       	brne	.+0      	; 0xc84 <_ZN6SdFile8truncateEm+0x4c>
     c84:	00 c0       	rjmp	.+0      	; 0xc86 <_ZN6SdFile8truncateEm+0x4e>
     c86:	f7 01       	movw	r30, r14
     c88:	42 84       	ldd	r4, Z+10	; 0x0a
     c8a:	53 84       	ldd	r5, Z+11	; 0x0b
     c8c:	64 84       	ldd	r6, Z+12	; 0x0c
     c8e:	75 84       	ldd	r7, Z+13	; 0x0d
     c90:	c7 01       	movw	r24, r14
     c92:	b5 01       	movw	r22, r10
     c94:	a4 01       	movw	r20, r8
     c96:	0e 94 00 00 	call	0	; 0x0 <_ZN6SdFile10addClusterEv>
     c9a:	88 23       	and	r24, r24
     c9c:	01 f4       	brne	.+0      	; 0xc9e <_ZN6SdFile8truncateEm+0x66>
     c9e:	00 c0       	rjmp	.+0      	; 0xca0 <_ZN6SdFile8truncateEm+0x68>
     ca0:	d7 01       	movw	r26, r14
     ca2:	5b 96       	adiw	r26, 0x1b	; 27
     ca4:	8d 91       	ld	r24, X+
     ca6:	9c 91       	ld	r25, X
     ca8:	5c 97       	sbiw	r26, 0x1c	; 28
     caa:	81 14       	cp	r8, r1
     cac:	91 04       	cpc	r9, r1
     cae:	a1 04       	cpc	r10, r1
     cb0:	b1 04       	cpc	r11, r1
     cb2:	01 f4       	brne	.+0      	; 0xcb4 <_ZN6SdFile8truncateEm+0x7c>
     cb4:	57 96       	adiw	r26, 0x17	; 23
     cb6:	4d 91       	ld	r20, X+
     cb8:	5d 91       	ld	r21, X+
     cba:	6d 91       	ld	r22, X+
     cbc:	7c 91       	ld	r23, X
     cbe:	5a 97       	sbiw	r26, 0x1a	; 26
     cc0:	0e 94 00 00 	call	0	; 0x0 <_ZN6SdFile10addClusterEv>
     cc4:	88 23       	and	r24, r24
     cc6:	01 f4       	brne	.+0      	; 0xcc8 <_ZN6SdFile8truncateEm+0x90>
     cc8:	00 c0       	rjmp	.+0      	; 0xcca <_ZN6SdFile8truncateEm+0x92>
     cca:	f7 01       	movw	r30, r14
     ccc:	17 8a       	std	Z+23, r1	; 0x17
     cce:	10 8e       	std	Z+24, r1	; 0x18
     cd0:	11 8e       	std	Z+25, r1	; 0x19
     cd2:	12 8e       	std	Z+26, r1	; 0x1a
     cd4:	00 c0       	rjmp	.+0      	; 0xcd6 <_ZN6SdFile8truncateEm+0x9e>
     cd6:	d7 01       	movw	r26, r14
     cd8:	16 96       	adiw	r26, 0x06	; 6
     cda:	4d 91       	ld	r20, X+
     cdc:	5d 91       	ld	r21, X+
     cde:	6d 91       	ld	r22, X+
     ce0:	7c 91       	ld	r23, X
     ce2:	19 97       	sbiw	r26, 0x09	; 9
     ce4:	9e 01       	movw	r18, r28
     ce6:	2f 5f       	subi	r18, 0xFF	; 255
     ce8:	3f 4f       	sbci	r19, 0xFF	; 255
     cea:	0e 94 00 00 	call	0	; 0x0 <_ZN6SdFile10addClusterEv>
     cee:	88 23       	and	r24, r24
     cf0:	01 f4       	brne	.+0      	; 0xcf2 <_ZN6SdFile8truncateEm+0xba>
     cf2:	00 c0       	rjmp	.+0      	; 0xcf4 <_ZN6SdFile8truncateEm+0xbc>
     cf4:	d7 01       	movw	r26, r14
     cf6:	5b 96       	adiw	r26, 0x1b	; 27
     cf8:	ed 91       	ld	r30, X+
     cfa:	fc 91       	ld	r31, X
     cfc:	5c 97       	sbiw	r26, 0x1c	; 28
     cfe:	49 81       	ldd	r20, Y+1	; 0x01
     d00:	5a 81       	ldd	r21, Y+2	; 0x02
     d02:	6b 81       	ldd	r22, Y+3	; 0x03
     d04:	7c 81       	ldd	r23, Y+4	; 0x04
     d06:	87 89       	ldd	r24, Z+23	; 0x17
     d08:	80 31       	cpi	r24, 0x10	; 16
     d0a:	01 f4       	brne	.+0      	; 0xd0c <_ZN6SdFile8truncateEm+0xd4>
     d0c:	88 ef       	ldi	r24, 0xF8	; 248
     d0e:	9f ef       	ldi	r25, 0xFF	; 255
     d10:	a0 e0       	ldi	r26, 0x00	; 0
     d12:	b0 e0       	ldi	r27, 0x00	; 0
     d14:	00 c0       	rjmp	.+0      	; 0xd16 <_ZN6SdFile8truncateEm+0xde>
     d16:	88 ef       	ldi	r24, 0xF8	; 248
     d18:	9f ef       	ldi	r25, 0xFF	; 255
     d1a:	af ef       	ldi	r26, 0xFF	; 255
     d1c:	bf e0       	ldi	r27, 0x0F	; 15
     d1e:	48 17       	cp	r20, r24
     d20:	59 07       	cpc	r21, r25
     d22:	6a 07       	cpc	r22, r26
     d24:	7b 07       	cpc	r23, r27
     d26:	00 f4       	brcc	.+0      	; 0xd28 <_ZN6SdFile8truncateEm+0xf0>
     d28:	cf 01       	movw	r24, r30
     d2a:	0e 94 00 00 	call	0	; 0x0 <_ZN6SdFile10addClusterEv>
     d2e:	88 23       	and	r24, r24
     d30:	01 f0       	breq	.+0      	; 0xd32 <_ZN6SdFile8truncateEm+0xfa>
     d32:	f7 01       	movw	r30, r14
     d34:	46 81       	ldd	r20, Z+6	; 0x06
     d36:	57 81       	ldd	r21, Z+7	; 0x07
     d38:	60 85       	ldd	r22, Z+8	; 0x08
     d3a:	71 85       	ldd	r23, Z+9	; 0x09
     d3c:	83 8d       	ldd	r24, Z+27	; 0x1b
     d3e:	94 8d       	ldd	r25, Z+28	; 0x1c
     d40:	0f ef       	ldi	r16, 0xFF	; 255
     d42:	1f ef       	ldi	r17, 0xFF	; 255
     d44:	2f ef       	ldi	r18, 0xFF	; 255
     d46:	3f e0       	ldi	r19, 0x0F	; 15
     d48:	0e 94 00 00 	call	0	; 0x0 <_ZN6SdFile10addClusterEv>
     d4c:	88 23       	and	r24, r24
     d4e:	01 f0       	breq	.+0      	; 0xd50 <_ZN6SdFile8truncateEm+0x118>
     d50:	d7 01       	movw	r26, r14
     d52:	53 96       	adiw	r26, 0x13	; 19
     d54:	8d 92       	st	X+, r8
     d56:	9d 92       	st	X+, r9
     d58:	ad 92       	st	X+, r10
     d5a:	bc 92       	st	X, r11
     d5c:	56 97       	sbiw	r26, 0x16	; 22
     d5e:	14 96       	adiw	r26, 0x04	; 4
     d60:	8c 91       	ld	r24, X
     d62:	14 97       	sbiw	r26, 0x04	; 4
     d64:	80 68       	ori	r24, 0x80	; 128
     d66:	14 96       	adiw	r26, 0x04	; 4
     d68:	8c 93       	st	X, r24
     d6a:	c7 01       	movw	r24, r14
     d6c:	0e 94 00 00 	call	0	; 0x0 <_ZN6SdFile10addClusterEv>
     d70:	88 23       	and	r24, r24
     d72:	01 f0       	breq	.+0      	; 0xd74 <_ZN6SdFile8truncateEm+0x13c>
     d74:	b5 01       	movw	r22, r10
     d76:	a4 01       	movw	r20, r8
     d78:	48 14       	cp	r4, r8
     d7a:	59 04       	cpc	r5, r9
     d7c:	6a 04       	cpc	r6, r10
     d7e:	7b 04       	cpc	r7, r11
     d80:	00 f4       	brcc	.+0      	; 0xd82 <_ZN6SdFile8truncateEm+0x14a>
     d82:	b3 01       	movw	r22, r6
     d84:	a2 01       	movw	r20, r4
     d86:	c7 01       	movw	r24, r14
     d88:	0e 94 00 00 	call	0	; 0x0 <_ZN6SdFile10addClusterEv>
     d8c:	00 c0       	rjmp	.+0      	; 0xd8e <_ZN6SdFile8truncateEm+0x156>
     d8e:	81 e0       	ldi	r24, 0x01	; 1
     d90:	00 c0       	rjmp	.+0      	; 0xd92 <_ZN6SdFile8truncateEm+0x15a>
     d92:	80 e0       	ldi	r24, 0x00	; 0
     d94:	0f 90       	pop	r0
     d96:	0f 90       	pop	r0
     d98:	0f 90       	pop	r0
     d9a:	0f 90       	pop	r0
     d9c:	df 91       	pop	r29
     d9e:	cf 91       	pop	r28
     da0:	1f 91       	pop	r17
     da2:	0f 91       	pop	r16
     da4:	ff 90       	pop	r15
     da6:	ef 90       	pop	r14
     da8:	bf 90       	pop	r11
     daa:	af 90       	pop	r10
     dac:	9f 90       	pop	r9
     dae:	8f 90       	pop	r8
     db0:	7f 90       	pop	r7
     db2:	6f 90       	pop	r6
     db4:	5f 90       	pop	r5
     db6:	4f 90       	pop	r4
     db8:	08 95       	ret
     dba:	f7 01       	movw	r30, r14
     dbc:	83 89       	ldd	r24, Z+19	; 0x13
     dbe:	94 89       	ldd	r25, Z+20	; 0x14
     dc0:	a5 89       	ldd	r26, Z+21	; 0x15
     dc2:	b6 89       	ldd	r27, Z+22	; 0x16
     dc4:	84 17       	cp	r24, r20
     dc6:	95 07       	cpc	r25, r21
     dc8:	a6 07       	cpc	r26, r22
     dca:	b7 07       	cpc	r27, r23
     dcc:	00 f0       	brcs	.+0      	; 0xdce <_ZN6SdFile8truncateEm+0x196>
     dce:	00 c0       	rjmp	.+0      	; 0xdd0 <_ZN6SdFile8truncateEm+0x198>
     dd0:	00 c0       	rjmp	.+0      	; 0xdd2 <_ZN6SdFile6removeEv>

00000dd2 <_ZN6SdFile6removeEv>:
     dd2:	cf 93       	push	r28
     dd4:	df 93       	push	r29
     dd6:	ec 01       	movw	r28, r24
     dd8:	40 e0       	ldi	r20, 0x00	; 0
     dda:	50 e0       	ldi	r21, 0x00	; 0
     ddc:	60 e0       	ldi	r22, 0x00	; 0
     dde:	70 e0       	ldi	r23, 0x00	; 0
     de0:	0e 94 00 00 	call	0	; 0x0 <_ZN6SdFile10addClusterEv>
     de4:	88 23       	and	r24, r24
     de6:	01 f0       	breq	.+0      	; 0xde8 <_ZN6SdFile6removeEv+0x16>
     de8:	ce 01       	movw	r24, r28
     dea:	61 e0       	ldi	r22, 0x01	; 1
     dec:	0e 94 00 00 	call	0	; 0x0 <_ZN6SdFile10addClusterEv>
     df0:	00 97       	sbiw	r24, 0x00	; 0
     df2:	01 f0       	breq	.+0      	; 0xdf4 <_ZN6SdFile6removeEv+0x22>
     df4:	25 ee       	ldi	r18, 0xE5	; 229
     df6:	fc 01       	movw	r30, r24
     df8:	20 83       	st	Z, r18
     dfa:	1d 82       	std	Y+5, r1	; 0x05
     dfc:	0e 94 00 00 	call	0	; 0x0 <_ZN6SdFile10addClusterEv>
     e00:	00 c0       	rjmp	.+0      	; 0xe02 <_ZN6SdFile6removeEv+0x30>
     e02:	80 e0       	ldi	r24, 0x00	; 0
     e04:	df 91       	pop	r29
     e06:	cf 91       	pop	r28
     e08:	08 95       	ret

00000e0a <_ZN6SdFile5rmDirEv>:
     e0a:	cf 93       	push	r28
     e0c:	df 93       	push	r29
     e0e:	ec 01       	movw	r28, r24
     e10:	8d 81       	ldd	r24, Y+5	; 0x05
     e12:	84 30       	cpi	r24, 0x04	; 4
     e14:	01 f4       	brne	.+0      	; 0xe16 <_ZN6SdFile5rmDirEv+0xc>
     e16:	1e 82       	std	Y+6, r1	; 0x06
     e18:	1f 82       	std	Y+7, r1	; 0x07
     e1a:	18 86       	std	Y+8, r1	; 0x08
     e1c:	19 86       	std	Y+9, r1	; 0x09
     e1e:	1a 86       	std	Y+10, r1	; 0x0a
     e20:	1b 86       	std	Y+11, r1	; 0x0b
     e22:	1c 86       	std	Y+12, r1	; 0x0c
     e24:	1d 86       	std	Y+13, r1	; 0x0d
     e26:	00 c0       	rjmp	.+0      	; 0xe28 <_ZN6SdFile5rmDirEv+0x1e>
     e28:	ce 01       	movw	r24, r28
     e2a:	0e 94 00 00 	call	0	; 0x0 <_ZN6SdFile10addClusterEv>
     e2e:	fc 01       	movw	r30, r24
     e30:	00 97       	sbiw	r24, 0x00	; 0
     e32:	01 f0       	breq	.+0      	; 0xe34 <_ZN6SdFile5rmDirEv+0x2a>
     e34:	80 81       	ld	r24, Z
     e36:	88 23       	and	r24, r24
     e38:	01 f0       	breq	.+0      	; 0xe3a <_ZN6SdFile5rmDirEv+0x30>
     e3a:	85 3e       	cpi	r24, 0xE5	; 229
     e3c:	01 f0       	breq	.+0      	; 0xe3e <_ZN6SdFile5rmDirEv+0x34>
     e3e:	8e 32       	cpi	r24, 0x2E	; 46
     e40:	01 f0       	breq	.+0      	; 0xe42 <_ZN6SdFile5rmDirEv+0x38>
     e42:	83 85       	ldd	r24, Z+11	; 0x0b
     e44:	83 ff       	sbrs	r24, 3
     e46:	00 c0       	rjmp	.+0      	; 0xe48 <_ZN6SdFile5rmDirEv+0x3e>
     e48:	4a 85       	ldd	r20, Y+10	; 0x0a
     e4a:	5b 85       	ldd	r21, Y+11	; 0x0b
     e4c:	6c 85       	ldd	r22, Y+12	; 0x0c
     e4e:	7d 85       	ldd	r23, Y+13	; 0x0d
     e50:	8b 89       	ldd	r24, Y+19	; 0x13
     e52:	9c 89       	ldd	r25, Y+20	; 0x14
     e54:	ad 89       	ldd	r26, Y+21	; 0x15
     e56:	be 89       	ldd	r27, Y+22	; 0x16
     e58:	48 17       	cp	r20, r24
     e5a:	59 07       	cpc	r21, r25
     e5c:	6a 07       	cpc	r22, r26
     e5e:	7b 07       	cpc	r23, r27
     e60:	00 f0       	brcs	.+0      	; 0xe62 <_ZN6SdFile5rmDirEv+0x58>
     e62:	81 e0       	ldi	r24, 0x01	; 1
     e64:	8d 83       	std	Y+5, r24	; 0x05
     e66:	8c 81       	ldd	r24, Y+4	; 0x04
     e68:	82 60       	ori	r24, 0x02	; 2
     e6a:	8c 83       	std	Y+4, r24	; 0x04
     e6c:	ce 01       	movw	r24, r28
     e6e:	0e 94 00 00 	call	0	; 0x0 <_ZN6SdFile10addClusterEv>
     e72:	00 c0       	rjmp	.+0      	; 0xe74 <_ZN6SdFile5rmDirEv+0x6a>
     e74:	80 e0       	ldi	r24, 0x00	; 0
     e76:	df 91       	pop	r29
     e78:	cf 91       	pop	r28
     e7a:	08 95       	ret

00000e7c <_ZN6SdFile15openCachedEntryEhh>:
     e7c:	1f 93       	push	r17
     e7e:	cf 93       	push	r28
     e80:	df 93       	push	r29
     e82:	ec 01       	movw	r28, r24
     e84:	14 2f       	mov	r17, r20
     e86:	e6 2f       	mov	r30, r22
     e88:	f0 e0       	ldi	r31, 0x00	; 0
     e8a:	35 e0       	ldi	r19, 0x05	; 5
     e8c:	ee 0f       	add	r30, r30
     e8e:	ff 1f       	adc	r31, r31
     e90:	3a 95       	dec	r19
     e92:	01 f4       	brne	.+0      	; 0xe94 <_ZN6SdFile15openCachedEntryEhh+0x18>
     e94:	e0 50       	subi	r30, 0x00	; 0
     e96:	f0 40       	sbci	r31, 0x00	; 0
     e98:	83 85       	ldd	r24, Z+11	; 0x0b
     e9a:	81 71       	andi	r24, 0x11	; 17
     e9c:	01 f0       	breq	.+0      	; 0xe9e <_ZN6SdFile15openCachedEntryEhh+0x22>
     e9e:	84 2f       	mov	r24, r20
     ea0:	82 74       	andi	r24, 0x42	; 66
     ea2:	01 f0       	breq	.+0      	; 0xea4 <_ZN6SdFile15openCachedEntryEhh+0x28>
     ea4:	00 c0       	rjmp	.+0      	; 0xea6 <_ZN6SdFile15openCachedEntryEhh+0x2a>
     ea6:	6a 8b       	std	Y+18, r22	; 0x12
     ea8:	80 91 00 00 	lds	r24, 0x0000
     eac:	90 91 00 00 	lds	r25, 0x0000
     eb0:	a0 91 00 00 	lds	r26, 0x0000
     eb4:	b0 91 00 00 	lds	r27, 0x0000
     eb8:	8e 87       	std	Y+14, r24	; 0x0e
     eba:	9f 87       	std	Y+15, r25	; 0x0f
     ebc:	a8 8b       	std	Y+16, r26	; 0x10
     ebe:	b9 8b       	std	Y+17, r27	; 0x11
     ec0:	44 89       	ldd	r20, Z+20	; 0x14
     ec2:	55 89       	ldd	r21, Z+21	; 0x15
     ec4:	60 e0       	ldi	r22, 0x00	; 0
     ec6:	70 e0       	ldi	r23, 0x00	; 0
     ec8:	ba 01       	movw	r22, r20
     eca:	55 27       	eor	r21, r21
     ecc:	44 27       	eor	r20, r20
     ece:	82 8d       	ldd	r24, Z+26	; 0x1a
     ed0:	93 8d       	ldd	r25, Z+27	; 0x1b
     ed2:	a0 e0       	ldi	r26, 0x00	; 0
     ed4:	b0 e0       	ldi	r27, 0x00	; 0
     ed6:	48 2b       	or	r20, r24
     ed8:	59 2b       	or	r21, r25
     eda:	6a 2b       	or	r22, r26
     edc:	7b 2b       	or	r23, r27
     ede:	4f 8b       	std	Y+23, r20	; 0x17
     ee0:	58 8f       	std	Y+24, r21	; 0x18
     ee2:	69 8f       	std	Y+25, r22	; 0x19
     ee4:	7a 8f       	std	Y+26, r23	; 0x1a
     ee6:	83 85       	ldd	r24, Z+11	; 0x0b
     ee8:	90 e0       	ldi	r25, 0x00	; 0
     eea:	88 71       	andi	r24, 0x18	; 24
     eec:	90 70       	andi	r25, 0x00	; 0
     eee:	00 97       	sbiw	r24, 0x00	; 0
     ef0:	01 f4       	brne	.+0      	; 0xef2 <_ZN6SdFile15openCachedEntryEhh+0x76>
     ef2:	84 8d       	ldd	r24, Z+28	; 0x1c
     ef4:	95 8d       	ldd	r25, Z+29	; 0x1d
     ef6:	a6 8d       	ldd	r26, Z+30	; 0x1e
     ef8:	b7 8d       	ldd	r27, Z+31	; 0x1f
     efa:	8b 8b       	std	Y+19, r24	; 0x13
     efc:	9c 8b       	std	Y+20, r25	; 0x14
     efe:	ad 8b       	std	Y+21, r26	; 0x15
     f00:	be 8b       	std	Y+22, r27	; 0x16
     f02:	81 e0       	ldi	r24, 0x01	; 1
     f04:	00 c0       	rjmp	.+0      	; 0xf06 <_ZN6SdFile15openCachedEntryEhh+0x8a>
     f06:	80 31       	cpi	r24, 0x10	; 16
     f08:	91 05       	cpc	r25, r1
     f0a:	01 f4       	brne	.+0      	; 0xf0c <_ZN6SdFile15openCachedEntryEhh+0x90>
     f0c:	9e 01       	movw	r18, r28
     f0e:	2d 5e       	subi	r18, 0xED	; 237
     f10:	3f 4f       	sbci	r19, 0xFF	; 255
     f12:	8b 8d       	ldd	r24, Y+27	; 0x1b
     f14:	9c 8d       	ldd	r25, Y+28	; 0x1c
     f16:	0e 94 00 00 	call	0	; 0x0 <_ZN6SdFile10addClusterEv>
     f1a:	88 23       	and	r24, r24
     f1c:	01 f0       	breq	.+0      	; 0xf1e <_ZN6SdFile15openCachedEntryEhh+0xa2>
     f1e:	84 e0       	ldi	r24, 0x04	; 4
     f20:	8d 83       	std	Y+5, r24	; 0x05
     f22:	81 2f       	mov	r24, r17
     f24:	8f 70       	andi	r24, 0x0F	; 15
     f26:	8c 83       	std	Y+4, r24	; 0x04
     f28:	1e 82       	std	Y+6, r1	; 0x06
     f2a:	1f 82       	std	Y+7, r1	; 0x07
     f2c:	18 86       	std	Y+8, r1	; 0x08
     f2e:	19 86       	std	Y+9, r1	; 0x09
     f30:	1a 86       	std	Y+10, r1	; 0x0a
     f32:	1b 86       	std	Y+11, r1	; 0x0b
     f34:	1c 86       	std	Y+12, r1	; 0x0c
     f36:	1d 86       	std	Y+13, r1	; 0x0d
     f38:	16 ff       	sbrs	r17, 6
     f3a:	00 c0       	rjmp	.+0      	; 0xf3c <_ZN6SdFile15openCachedEntryEhh+0xc0>
     f3c:	ce 01       	movw	r24, r28
     f3e:	40 e0       	ldi	r20, 0x00	; 0
     f40:	50 e0       	ldi	r21, 0x00	; 0
     f42:	60 e0       	ldi	r22, 0x00	; 0
     f44:	70 e0       	ldi	r23, 0x00	; 0
     f46:	0e 94 00 00 	call	0	; 0x0 <_ZN6SdFile10addClusterEv>
     f4a:	00 c0       	rjmp	.+0      	; 0xf4c <_ZN6SdFile15openCachedEntryEhh+0xd0>
     f4c:	80 e0       	ldi	r24, 0x00	; 0
     f4e:	00 c0       	rjmp	.+0      	; 0xf50 <_ZN6SdFile15openCachedEntryEhh+0xd4>
     f50:	81 e0       	ldi	r24, 0x01	; 1
     f52:	df 91       	pop	r29
     f54:	cf 91       	pop	r28
     f56:	1f 91       	pop	r17
     f58:	08 95       	ret

00000f5a <_ZN6SdFile4openEPS_jh>:
     f5a:	cf 92       	push	r12
     f5c:	df 92       	push	r13
     f5e:	ff 92       	push	r15
     f60:	0f 93       	push	r16
     f62:	1f 93       	push	r17
     f64:	cf 93       	push	r28
     f66:	df 93       	push	r29
     f68:	8c 01       	movw	r16, r24
     f6a:	eb 01       	movw	r28, r22
     f6c:	6a 01       	movw	r12, r20
     f6e:	f2 2e       	mov	r15, r18
     f70:	fc 01       	movw	r30, r24
     f72:	85 81       	ldd	r24, Z+5	; 0x05
     f74:	88 23       	and	r24, r24
     f76:	01 f4       	brne	.+0      	; 0xf78 <_ZN6SdFile4openEPS_jh+0x1e>
     f78:	82 2f       	mov	r24, r18
     f7a:	80 73       	andi	r24, 0x30	; 48
     f7c:	80 33       	cpi	r24, 0x30	; 48
     f7e:	01 f0       	breq	.+0      	; 0xf80 <_ZN6SdFile4openEPS_jh+0x26>
     f80:	8b 8d       	ldd	r24, Y+27	; 0x1b
     f82:	9c 8d       	ldd	r25, Y+28	; 0x1c
     f84:	94 8f       	std	Z+28, r25	; 0x1c
     f86:	83 8f       	std	Z+27, r24	; 0x1b
     f88:	65 e0       	ldi	r22, 0x05	; 5
     f8a:	44 0f       	add	r20, r20
     f8c:	55 1f       	adc	r21, r21
     f8e:	6a 95       	dec	r22
     f90:	01 f4       	brne	.+0      	; 0xf92 <_ZN6SdFile4openEPS_jh+0x38>
     f92:	60 e0       	ldi	r22, 0x00	; 0
     f94:	70 e0       	ldi	r23, 0x00	; 0
     f96:	ce 01       	movw	r24, r28
     f98:	0e 94 00 00 	call	0	; 0x0 <_ZN6SdFile10addClusterEv>
     f9c:	88 23       	and	r24, r24
     f9e:	01 f0       	breq	.+0      	; 0xfa0 <_ZN6SdFile4openEPS_jh+0x46>
     fa0:	ce 01       	movw	r24, r28
     fa2:	0e 94 00 00 	call	0	; 0x0 <_ZN6SdFile10addClusterEv>
     fa6:	00 97       	sbiw	r24, 0x00	; 0
     fa8:	01 f0       	breq	.+0      	; 0xfaa <_ZN6SdFile4openEPS_jh+0x50>
     faa:	fc 01       	movw	r30, r24
     fac:	80 81       	ld	r24, Z
     fae:	88 23       	and	r24, r24
     fb0:	01 f0       	breq	.+0      	; 0xfb2 <_ZN6SdFile4openEPS_jh+0x58>
     fb2:	85 3e       	cpi	r24, 0xE5	; 229
     fb4:	01 f0       	breq	.+0      	; 0xfb6 <_ZN6SdFile4openEPS_jh+0x5c>
     fb6:	8e 32       	cpi	r24, 0x2E	; 46
     fb8:	01 f0       	breq	.+0      	; 0xfba <_ZN6SdFile4openEPS_jh+0x60>
     fba:	6c 2d       	mov	r22, r12
     fbc:	6f 70       	andi	r22, 0x0F	; 15
     fbe:	c8 01       	movw	r24, r16
     fc0:	4f 2d       	mov	r20, r15
     fc2:	0e 94 00 00 	call	0	; 0x0 <_ZN6SdFile10addClusterEv>
     fc6:	00 c0       	rjmp	.+0      	; 0xfc8 <_ZN6SdFile4openEPS_jh+0x6e>
     fc8:	80 e0       	ldi	r24, 0x00	; 0
     fca:	df 91       	pop	r29
     fcc:	cf 91       	pop	r28
     fce:	1f 91       	pop	r17
     fd0:	0f 91       	pop	r16
     fd2:	ff 90       	pop	r15
     fd4:	df 90       	pop	r13
     fd6:	cf 90       	pop	r12
     fd8:	08 95       	ret

00000fda <_ZN6SdFile8rmRfStarEv>:
     fda:	8f 92       	push	r8
     fdc:	9f 92       	push	r9
     fde:	af 92       	push	r10
     fe0:	bf 92       	push	r11
     fe2:	cf 92       	push	r12
     fe4:	df 92       	push	r13
     fe6:	ef 92       	push	r14
     fe8:	ff 92       	push	r15
     fea:	0f 93       	push	r16
     fec:	1f 93       	push	r17
     fee:	cf 93       	push	r28
     ff0:	df 93       	push	r29
     ff2:	cd b7       	in	r28, 0x3d	; 61
     ff4:	de b7       	in	r29, 0x3e	; 62
     ff6:	6d 97       	sbiw	r28, 0x1d	; 29
     ff8:	0f b6       	in	r0, 0x3f	; 63
     ffa:	f8 94       	cli
     ffc:	de bf       	out	0x3e, r29	; 62
     ffe:	0f be       	out	0x3f, r0	; 63
    1000:	cd bf       	out	0x3d, r28	; 61
    1002:	7c 01       	movw	r14, r24
    1004:	fc 01       	movw	r30, r24
    1006:	16 82       	std	Z+6, r1	; 0x06
    1008:	17 82       	std	Z+7, r1	; 0x07
    100a:	10 86       	std	Z+8, r1	; 0x08
    100c:	11 86       	std	Z+9, r1	; 0x09
    100e:	12 86       	std	Z+10, r1	; 0x0a
    1010:	13 86       	std	Z+11, r1	; 0x0b
    1012:	14 86       	std	Z+12, r1	; 0x0c
    1014:	15 86       	std	Z+13, r1	; 0x0d
    1016:	a0 e0       	ldi	r26, 0x00	; 0
    1018:	ca 2e       	mov	r12, r26
    101a:	a0 e0       	ldi	r26, 0x00	; 0
    101c:	da 2e       	mov	r13, r26
    101e:	00 c0       	rjmp	.+0      	; 0x1020 <_ZN6SdFile8rmRfStarEv+0x46>
    1020:	1c 82       	std	Y+4, r1	; 0x04
    1022:	1b 82       	std	Y+3, r1	; 0x03
    1024:	da 82       	std	Y+2, r13	; 0x02
    1026:	c9 82       	std	Y+1, r12	; 0x01
    1028:	1e 82       	std	Y+6, r1	; 0x06
    102a:	c7 01       	movw	r24, r14
    102c:	0e 94 00 00 	call	0	; 0x0 <_ZN6SdFile10addClusterEv>
    1030:	fc 01       	movw	r30, r24
    1032:	00 97       	sbiw	r24, 0x00	; 0
    1034:	01 f4       	brne	.+0      	; 0x1036 <_ZN6SdFile8rmRfStarEv+0x5c>
    1036:	00 c0       	rjmp	.+0      	; 0x1038 <_ZN6SdFile8rmRfStarEv+0x5e>
    1038:	80 81       	ld	r24, Z
    103a:	88 23       	and	r24, r24
    103c:	01 f4       	brne	.+0      	; 0x103e <_ZN6SdFile8rmRfStarEv+0x64>
    103e:	00 c0       	rjmp	.+0      	; 0x1040 <_ZN6SdFile8rmRfStarEv+0x66>
    1040:	85 3e       	cpi	r24, 0xE5	; 229
    1042:	01 f4       	brne	.+0      	; 0x1044 <_ZN6SdFile8rmRfStarEv+0x6a>
    1044:	00 c0       	rjmp	.+0      	; 0x1046 <_ZN6SdFile8rmRfStarEv+0x6c>
    1046:	8e 32       	cpi	r24, 0x2E	; 46
    1048:	01 f4       	brne	.+0      	; 0x104a <_ZN6SdFile8rmRfStarEv+0x70>
    104a:	00 c0       	rjmp	.+0      	; 0x104c <_ZN6SdFile8rmRfStarEv+0x72>
    104c:	83 85       	ldd	r24, Z+11	; 0x0b
    104e:	83 fd       	sbrc	r24, 3
    1050:	00 c0       	rjmp	.+0      	; 0x1052 <_ZN6SdFile8rmRfStarEv+0x78>
    1052:	95 01       	movw	r18, r10
    1054:	84 01       	movw	r16, r8
    1056:	e5 e0       	ldi	r30, 0x05	; 5
    1058:	36 95       	lsr	r19
    105a:	27 95       	ror	r18
    105c:	17 95       	ror	r17
    105e:	07 95       	ror	r16
    1060:	ea 95       	dec	r30
    1062:	01 f4       	brne	.+0      	; 0x1064 <_ZN6SdFile8rmRfStarEv+0x8a>
    1064:	48 01       	movw	r8, r16
    1066:	ce 01       	movw	r24, r28
    1068:	01 96       	adiw	r24, 0x01	; 1
    106a:	b7 01       	movw	r22, r14
    106c:	a8 01       	movw	r20, r16
    106e:	21 e0       	ldi	r18, 0x01	; 1
    1070:	0e 94 00 00 	call	0	; 0x0 <_ZN6SdFile10addClusterEv>
    1074:	88 23       	and	r24, r24
    1076:	01 f4       	brne	.+0      	; 0x1078 <_ZN6SdFile8rmRfStarEv+0x9e>
    1078:	00 c0       	rjmp	.+0      	; 0x107a <_ZN6SdFile8rmRfStarEv+0xa0>
    107a:	8e 81       	ldd	r24, Y+6	; 0x06
    107c:	84 30       	cpi	r24, 0x04	; 4
    107e:	01 f4       	brne	.+0      	; 0x1080 <_ZN6SdFile8rmRfStarEv+0xa6>
    1080:	ce 01       	movw	r24, r28
    1082:	01 96       	adiw	r24, 0x01	; 1
    1084:	0e 94 00 00 	call	0	; 0x0 <_ZN6SdFile10addClusterEv>
    1088:	00 c0       	rjmp	.+0      	; 0x108a <_ZN6SdFile8rmRfStarEv+0xb0>
    108a:	8d 81       	ldd	r24, Y+5	; 0x05
    108c:	82 60       	ori	r24, 0x02	; 2
    108e:	8d 83       	std	Y+5, r24	; 0x05
    1090:	ce 01       	movw	r24, r28
    1092:	01 96       	adiw	r24, 0x01	; 1
    1094:	0e 94 00 00 	call	0	; 0x0 <_ZN6SdFile10addClusterEv>
    1098:	88 23       	and	r24, r24
    109a:	01 f0       	breq	.+0      	; 0x109c <_ZN6SdFile8rmRfStarEv+0xc2>
    109c:	08 94       	sec
    109e:	81 1c       	adc	r8, r1
    10a0:	91 1c       	adc	r9, r1
    10a2:	75 e0       	ldi	r23, 0x05	; 5
    10a4:	88 0c       	add	r8, r8
    10a6:	99 1c       	adc	r9, r9
    10a8:	7a 95       	dec	r23
    10aa:	01 f4       	brne	.+0      	; 0x10ac <_ZN6SdFile8rmRfStarEv+0xd2>
    10ac:	a4 01       	movw	r20, r8
    10ae:	60 e0       	ldi	r22, 0x00	; 0
    10b0:	70 e0       	ldi	r23, 0x00	; 0
    10b2:	f7 01       	movw	r30, r14
    10b4:	82 85       	ldd	r24, Z+10	; 0x0a
    10b6:	93 85       	ldd	r25, Z+11	; 0x0b
    10b8:	a4 85       	ldd	r26, Z+12	; 0x0c
    10ba:	b5 85       	ldd	r27, Z+13	; 0x0d
    10bc:	84 17       	cp	r24, r20
    10be:	95 07       	cpc	r25, r21
    10c0:	a6 07       	cpc	r26, r22
    10c2:	b7 07       	cpc	r27, r23
    10c4:	01 f0       	breq	.+0      	; 0x10c6 <_ZN6SdFile8rmRfStarEv+0xec>
    10c6:	c7 01       	movw	r24, r14
    10c8:	0e 94 00 00 	call	0	; 0x0 <_ZN6SdFile10addClusterEv>
    10cc:	88 23       	and	r24, r24
    10ce:	01 f0       	breq	.+0      	; 0x10d0 <_ZN6SdFile8rmRfStarEv+0xf6>
    10d0:	f7 01       	movw	r30, r14
    10d2:	82 84       	ldd	r8, Z+10	; 0x0a
    10d4:	93 84       	ldd	r9, Z+11	; 0x0b
    10d6:	a4 84       	ldd	r10, Z+12	; 0x0c
    10d8:	b5 84       	ldd	r11, Z+13	; 0x0d
    10da:	83 89       	ldd	r24, Z+19	; 0x13
    10dc:	94 89       	ldd	r25, Z+20	; 0x14
    10de:	a5 89       	ldd	r26, Z+21	; 0x15
    10e0:	b6 89       	ldd	r27, Z+22	; 0x16
    10e2:	88 16       	cp	r8, r24
    10e4:	99 06       	cpc	r9, r25
    10e6:	aa 06       	cpc	r10, r26
    10e8:	bb 06       	cpc	r11, r27
    10ea:	00 f4       	brcc	.+0      	; 0x10ec <_ZN6SdFile8rmRfStarEv+0x112>
    10ec:	00 c0       	rjmp	.+0      	; 0x10ee <_ZN6SdFile8rmRfStarEv+0x114>
    10ee:	f7 01       	movw	r30, r14
    10f0:	85 81       	ldd	r24, Z+5	; 0x05
    10f2:	82 50       	subi	r24, 0x02	; 2
    10f4:	82 30       	cpi	r24, 0x02	; 2
    10f6:	00 f0       	brcs	.+0      	; 0x10f8 <_ZN6SdFile8rmRfStarEv+0x11e>
    10f8:	c7 01       	movw	r24, r14
    10fa:	0e 94 00 00 	call	0	; 0x0 <_ZN6SdFile10addClusterEv>
    10fe:	00 c0       	rjmp	.+0      	; 0x1100 <_ZN6SdFile8rmRfStarEv+0x126>
    1100:	80 e0       	ldi	r24, 0x00	; 0
    1102:	00 c0       	rjmp	.+0      	; 0x1104 <_ZN6SdFile8rmRfStarEv+0x12a>
    1104:	81 e0       	ldi	r24, 0x01	; 1
    1106:	6d 96       	adiw	r28, 0x1d	; 29
    1108:	0f b6       	in	r0, 0x3f	; 63
    110a:	f8 94       	cli
    110c:	de bf       	out	0x3e, r29	; 62
    110e:	0f be       	out	0x3f, r0	; 63
    1110:	cd bf       	out	0x3d, r28	; 61
    1112:	df 91       	pop	r29
    1114:	cf 91       	pop	r28
    1116:	1f 91       	pop	r17
    1118:	0f 91       	pop	r16
    111a:	ff 90       	pop	r15
    111c:	ef 90       	pop	r14
    111e:	df 90       	pop	r13
    1120:	cf 90       	pop	r12
    1122:	bf 90       	pop	r11
    1124:	af 90       	pop	r10
    1126:	9f 90       	pop	r9
    1128:	8f 90       	pop	r8
    112a:	08 95       	ret

0000112c <_ZN6SdFile2lsEhh>:
    112c:	2f 92       	push	r2
    112e:	3f 92       	push	r3
    1130:	4f 92       	push	r4
    1132:	5f 92       	push	r5
    1134:	6f 92       	push	r6
    1136:	7f 92       	push	r7
    1138:	8f 92       	push	r8
    113a:	9f 92       	push	r9
    113c:	af 92       	push	r10
    113e:	bf 92       	push	r11
    1140:	cf 92       	push	r12
    1142:	df 92       	push	r13
    1144:	ef 92       	push	r14
    1146:	ff 92       	push	r15
    1148:	0f 93       	push	r16
    114a:	1f 93       	push	r17
    114c:	cf 93       	push	r28
    114e:	df 93       	push	r29
    1150:	cd b7       	in	r28, 0x3d	; 61
    1152:	de b7       	in	r29, 0x3e	; 62
    1154:	6f 97       	sbiw	r28, 0x1f	; 31
    1156:	0f b6       	in	r0, 0x3f	; 63
    1158:	f8 94       	cli
    115a:	de bf       	out	0x3e, r29	; 62
    115c:	0f be       	out	0x3f, r0	; 63
    115e:	cd bf       	out	0x3d, r28	; 61
    1160:	6c 01       	movw	r12, r24
    1162:	b6 2e       	mov	r11, r22
    1164:	fc 01       	movw	r30, r24
    1166:	16 82       	std	Z+6, r1	; 0x06
    1168:	17 82       	std	Z+7, r1	; 0x07
    116a:	10 86       	std	Z+8, r1	; 0x08
    116c:	11 86       	std	Z+9, r1	; 0x09
    116e:	12 86       	std	Z+10, r1	; 0x0a
    1170:	13 86       	std	Z+11, r1	; 0x0b
    1172:	14 86       	std	Z+12, r1	; 0x0c
    1174:	15 86       	std	Z+13, r1	; 0x0d
    1176:	64 2e       	mov	r6, r20
    1178:	77 24       	eor	r7, r7
    117a:	86 2f       	mov	r24, r22
    117c:	90 e0       	ldi	r25, 0x00	; 0
    117e:	03 e0       	ldi	r16, 0x03	; 3
    1180:	40 2e       	mov	r4, r16
    1182:	51 2c       	mov	r5, r1
    1184:	48 22       	and	r4, r24
    1186:	59 22       	and	r5, r25
    1188:	21 e0       	ldi	r18, 0x01	; 1
    118a:	22 2e       	mov	r2, r18
    118c:	31 2c       	mov	r3, r1
    118e:	28 22       	and	r2, r24
    1190:	39 22       	and	r3, r25
    1192:	9c 01       	movw	r18, r24
    1194:	24 70       	andi	r18, 0x04	; 4
    1196:	30 70       	andi	r19, 0x00	; 0
    1198:	3f 8f       	std	Y+31, r19	; 0x1f
    119a:	2e 8f       	std	Y+30, r18	; 0x1e
    119c:	52 e0       	ldi	r21, 0x02	; 2
    119e:	a5 2e       	mov	r10, r21
    11a0:	a4 0e       	add	r10, r20
    11a2:	62 e0       	ldi	r22, 0x02	; 2
    11a4:	86 2e       	mov	r8, r22
    11a6:	91 2c       	mov	r9, r1
    11a8:	88 22       	and	r8, r24
    11aa:	99 22       	and	r9, r25
    11ac:	00 c0       	rjmp	.+0      	; 0x11ae <_ZN6SdFile2lsEhh+0x82>
    11ae:	f8 01       	movw	r30, r16
    11b0:	80 81       	ld	r24, Z
    11b2:	88 23       	and	r24, r24
    11b4:	01 f4       	brne	.+0      	; 0x11b6 <_ZN6SdFile2lsEhh+0x8a>
    11b6:	00 c0       	rjmp	.+0      	; 0x11b8 <_ZN6SdFile2lsEhh+0x8c>
    11b8:	85 3e       	cpi	r24, 0xE5	; 229
    11ba:	01 f4       	brne	.+0      	; 0x11bc <_ZN6SdFile2lsEhh+0x90>
    11bc:	00 c0       	rjmp	.+0      	; 0x11be <_ZN6SdFile2lsEhh+0x92>
    11be:	8e 32       	cpi	r24, 0x2E	; 46
    11c0:	01 f4       	brne	.+0      	; 0x11c2 <_ZN6SdFile2lsEhh+0x96>
    11c2:	00 c0       	rjmp	.+0      	; 0x11c4 <_ZN6SdFile2lsEhh+0x98>
    11c4:	83 85       	ldd	r24, Z+11	; 0x0b
    11c6:	83 fd       	sbrc	r24, 3
    11c8:	00 c0       	rjmp	.+0      	; 0x11ca <_ZN6SdFile2lsEhh+0x9e>
    11ca:	ee 24       	eor	r14, r14
    11cc:	ff 24       	eor	r15, r15
    11ce:	00 c0       	rjmp	.+0      	; 0x11d0 <_ZN6SdFile2lsEhh+0xa4>
    11d0:	80 e0       	ldi	r24, 0x00	; 0
    11d2:	90 e0       	ldi	r25, 0x00	; 0
    11d4:	60 e2       	ldi	r22, 0x20	; 32
    11d6:	0e 94 00 00 	call	0	; 0x0 <_ZN6SdFile10addClusterEv>
    11da:	08 94       	sec
    11dc:	e1 1c       	adc	r14, r1
    11de:	f1 1c       	adc	r15, r1
    11e0:	e6 14       	cp	r14, r6
    11e2:	f7 04       	cpc	r15, r7
    11e4:	04 f0       	brlt	.+0      	; 0x11e6 <_ZN6SdFile2lsEhh+0xba>
    11e6:	41 14       	cp	r4, r1
    11e8:	51 04       	cpc	r5, r1
    11ea:	01 f0       	breq	.+0      	; 0x11ec <_ZN6SdFile2lsEhh+0xc0>
    11ec:	6e e0       	ldi	r22, 0x0E	; 14
    11ee:	00 c0       	rjmp	.+0      	; 0x11f0 <_ZN6SdFile2lsEhh+0xc4>
    11f0:	60 e0       	ldi	r22, 0x00	; 0
    11f2:	c8 01       	movw	r24, r16
    11f4:	0e 94 00 00 	call	0	; 0x0 <_ZN6SdFile10addClusterEv>
    11f8:	21 14       	cp	r2, r1
    11fa:	31 04       	cpc	r3, r1
    11fc:	01 f0       	breq	.+0      	; 0x11fe <_ZN6SdFile2lsEhh+0xd2>
    11fe:	f8 01       	movw	r30, r16
    1200:	80 8d       	ldd	r24, Z+24	; 0x18
    1202:	91 8d       	ldd	r25, Z+25	; 0x19
    1204:	0e 94 00 00 	call	0	; 0x0 <_ZN6SdFile10addClusterEv>
    1208:	80 e0       	ldi	r24, 0x00	; 0
    120a:	90 e0       	ldi	r25, 0x00	; 0
    120c:	60 e2       	ldi	r22, 0x20	; 32
    120e:	0e 94 00 00 	call	0	; 0x0 <_ZN6SdFile10addClusterEv>
    1212:	f8 01       	movw	r30, r16
    1214:	86 89       	ldd	r24, Z+22	; 0x16
    1216:	97 89       	ldd	r25, Z+23	; 0x17
    1218:	0e 94 00 00 	call	0	; 0x0 <_ZN6SdFile10addClusterEv>
    121c:	f8 01       	movw	r30, r16
    121e:	83 85       	ldd	r24, Z+11	; 0x0b
    1220:	88 71       	andi	r24, 0x18	; 24
    1222:	80 31       	cpi	r24, 0x10	; 16
    1224:	01 f0       	breq	.+0      	; 0x1226 <_ZN6SdFile2lsEhh+0xfa>
    1226:	81 14       	cp	r8, r1
    1228:	91 04       	cpc	r9, r1
    122a:	01 f0       	breq	.+0      	; 0x122c <_ZN6SdFile2lsEhh+0x100>
    122c:	80 e0       	ldi	r24, 0x00	; 0
    122e:	90 e0       	ldi	r25, 0x00	; 0
    1230:	60 e2       	ldi	r22, 0x20	; 32
    1232:	0e 94 00 00 	call	0	; 0x0 <_ZN6SdFile10addClusterEv>
    1236:	f8 01       	movw	r30, r16
    1238:	44 8d       	ldd	r20, Z+28	; 0x1c
    123a:	55 8d       	ldd	r21, Z+29	; 0x1d
    123c:	66 8d       	ldd	r22, Z+30	; 0x1e
    123e:	77 8d       	ldd	r23, Z+31	; 0x1f
    1240:	80 e0       	ldi	r24, 0x00	; 0
    1242:	90 e0       	ldi	r25, 0x00	; 0
    1244:	2a e0       	ldi	r18, 0x0A	; 10
    1246:	30 e0       	ldi	r19, 0x00	; 0
    1248:	0e 94 00 00 	call	0	; 0x0 <_ZN6SdFile10addClusterEv>
    124c:	80 e0       	ldi	r24, 0x00	; 0
    124e:	90 e0       	ldi	r25, 0x00	; 0
    1250:	0e 94 00 00 	call	0	; 0x0 <_ZN6SdFile10addClusterEv>
    1254:	2e 8d       	ldd	r18, Y+30	; 0x1e
    1256:	3f 8d       	ldd	r19, Y+31	; 0x1f
    1258:	21 15       	cp	r18, r1
    125a:	31 05       	cpc	r19, r1
    125c:	01 f0       	breq	.+0      	; 0x125e <_ZN6SdFile2lsEhh+0x132>
    125e:	f8 01       	movw	r30, r16
    1260:	83 85       	ldd	r24, Z+11	; 0x0b
    1262:	88 71       	andi	r24, 0x18	; 24
    1264:	80 31       	cpi	r24, 0x10	; 16
    1266:	01 f4       	brne	.+0      	; 0x1268 <_ZN6SdFile2lsEhh+0x13c>
    1268:	f6 01       	movw	r30, r12
    126a:	82 85       	ldd	r24, Z+10	; 0x0a
    126c:	93 85       	ldd	r25, Z+11	; 0x0b
    126e:	a4 85       	ldd	r26, Z+12	; 0x0c
    1270:	b5 85       	ldd	r27, Z+13	; 0x0d
    1272:	15 e0       	ldi	r17, 0x05	; 5
    1274:	b6 95       	lsr	r27
    1276:	a7 95       	ror	r26
    1278:	97 95       	ror	r25
    127a:	87 95       	ror	r24
    127c:	1a 95       	dec	r17
    127e:	01 f4       	brne	.+0      	; 0x1280 <_ZN6SdFile2lsEhh+0x154>
    1280:	8c 01       	movw	r16, r24
    1282:	1c 82       	std	Y+4, r1	; 0x04
    1284:	1b 82       	std	Y+3, r1	; 0x03
    1286:	20 e0       	ldi	r18, 0x00	; 0
    1288:	30 e0       	ldi	r19, 0x00	; 0
    128a:	3a 83       	std	Y+2, r19	; 0x02
    128c:	29 83       	std	Y+1, r18	; 0x01
    128e:	1e 82       	std	Y+6, r1	; 0x06
    1290:	ac 01       	movw	r20, r24
    1292:	41 50       	subi	r20, 0x01	; 1
    1294:	50 40       	sbci	r21, 0x00	; 0
    1296:	ce 01       	movw	r24, r28
    1298:	01 96       	adiw	r24, 0x01	; 1
    129a:	b6 01       	movw	r22, r12
    129c:	21 e0       	ldi	r18, 0x01	; 1
    129e:	0e 94 00 00 	call	0	; 0x0 <_ZN6SdFile10addClusterEv>
    12a2:	88 23       	and	r24, r24
    12a4:	01 f0       	breq	.+0      	; 0x12a6 <_ZN6SdFile2lsEhh+0x17a>
    12a6:	ce 01       	movw	r24, r28
    12a8:	01 96       	adiw	r24, 0x01	; 1
    12aa:	6b 2d       	mov	r22, r11
    12ac:	4a 2d       	mov	r20, r10
    12ae:	0e 94 00 00 	call	0	; 0x0 <_ZN6SdFile10addClusterEv>
    12b2:	a8 01       	movw	r20, r16
    12b4:	b5 e0       	ldi	r27, 0x05	; 5
    12b6:	44 0f       	add	r20, r20
    12b8:	55 1f       	adc	r21, r21
    12ba:	ba 95       	dec	r27
    12bc:	01 f4       	brne	.+0      	; 0x12be <_ZN6SdFile2lsEhh+0x192>
    12be:	60 e0       	ldi	r22, 0x00	; 0
    12c0:	70 e0       	ldi	r23, 0x00	; 0
    12c2:	c6 01       	movw	r24, r12
    12c4:	0e 94 00 00 	call	0	; 0x0 <_ZN6SdFile10addClusterEv>
    12c8:	c6 01       	movw	r24, r12
    12ca:	0e 94 00 00 	call	0	; 0x0 <_ZN6SdFile10addClusterEv>
    12ce:	8c 01       	movw	r16, r24
    12d0:	00 97       	sbiw	r24, 0x00	; 0
    12d2:	01 f0       	breq	.+0      	; 0x12d4 <_ZN6SdFile2lsEhh+0x1a8>
    12d4:	00 c0       	rjmp	.+0      	; 0x12d6 <_ZN6SdFile2lsEhh+0x1aa>
    12d6:	6f 96       	adiw	r28, 0x1f	; 31
    12d8:	0f b6       	in	r0, 0x3f	; 63
    12da:	f8 94       	cli
    12dc:	de bf       	out	0x3e, r29	; 62
    12de:	0f be       	out	0x3f, r0	; 63
    12e0:	cd bf       	out	0x3d, r28	; 61
    12e2:	df 91       	pop	r29
    12e4:	cf 91       	pop	r28
    12e6:	1f 91       	pop	r17
    12e8:	0f 91       	pop	r16
    12ea:	ff 90       	pop	r15
    12ec:	ef 90       	pop	r14
    12ee:	df 90       	pop	r13
    12f0:	cf 90       	pop	r12
    12f2:	bf 90       	pop	r11
    12f4:	af 90       	pop	r10
    12f6:	9f 90       	pop	r9
    12f8:	8f 90       	pop	r8
    12fa:	7f 90       	pop	r7
    12fc:	6f 90       	pop	r6
    12fe:	5f 90       	pop	r5
    1300:	4f 90       	pop	r4
    1302:	3f 90       	pop	r3
    1304:	2f 90       	pop	r2
    1306:	08 95       	ret

00001308 <_ZN6SdFile4openEPS_PKch>:
    1308:	4f 92       	push	r4
    130a:	5f 92       	push	r5
    130c:	6f 92       	push	r6
    130e:	7f 92       	push	r7
    1310:	8f 92       	push	r8
    1312:	9f 92       	push	r9
    1314:	af 92       	push	r10
    1316:	bf 92       	push	r11
    1318:	cf 92       	push	r12
    131a:	df 92       	push	r13
    131c:	ef 92       	push	r14
    131e:	ff 92       	push	r15
    1320:	0f 93       	push	r16
    1322:	1f 93       	push	r17
    1324:	cf 93       	push	r28
    1326:	df 93       	push	r29
    1328:	cd b7       	in	r28, 0x3d	; 61
    132a:	de b7       	in	r29, 0x3e	; 62
    132c:	2b 97       	sbiw	r28, 0x0b	; 11
    132e:	0f b6       	in	r0, 0x3f	; 63
    1330:	f8 94       	cli
    1332:	de bf       	out	0x3e, r29	; 62
    1334:	0f be       	out	0x3f, r0	; 63
    1336:	cd bf       	out	0x3d, r28	; 61
    1338:	3c 01       	movw	r6, r24
    133a:	5b 01       	movw	r10, r22
    133c:	ca 01       	movw	r24, r20
    133e:	82 2e       	mov	r8, r18
    1340:	f3 01       	movw	r30, r6
    1342:	25 81       	ldd	r18, Z+5	; 0x05
    1344:	22 23       	and	r18, r18
    1346:	01 f0       	breq	.+0      	; 0x1348 <_ZN6SdFile4openEPS_PKch+0x40>
    1348:	00 c0       	rjmp	.+0      	; 0x134a <_ZN6SdFile4openEPS_PKch+0x42>
    134a:	8e 01       	movw	r16, r28
    134c:	0f 5f       	subi	r16, 0xFF	; 255
    134e:	1f 4f       	sbci	r17, 0xFF	; 255
    1350:	b8 01       	movw	r22, r16
    1352:	0e 94 00 00 	call	0	; 0x0 <_ZN6SdFile10addClusterEv>
    1356:	88 23       	and	r24, r24
    1358:	01 f4       	brne	.+0      	; 0x135a <_ZN6SdFile4openEPS_PKch+0x52>
    135a:	00 c0       	rjmp	.+0      	; 0x135c <_ZN6SdFile4openEPS_PKch+0x54>
    135c:	f5 01       	movw	r30, r10
    135e:	83 8d       	ldd	r24, Z+27	; 0x1b
    1360:	94 8d       	ldd	r25, Z+28	; 0x1c
    1362:	f3 01       	movw	r30, r6
    1364:	94 8f       	std	Z+28, r25	; 0x1c
    1366:	83 8f       	std	Z+27, r24	; 0x1b
    1368:	f5 01       	movw	r30, r10
    136a:	16 82       	std	Z+6, r1	; 0x06
    136c:	17 82       	std	Z+7, r1	; 0x07
    136e:	10 86       	std	Z+8, r1	; 0x08
    1370:	11 86       	std	Z+9, r1	; 0x09
    1372:	12 86       	std	Z+10, r1	; 0x0a
    1374:	13 86       	std	Z+11, r1	; 0x0b
    1376:	14 86       	std	Z+12, r1	; 0x0c
    1378:	15 86       	std	Z+13, r1	; 0x0d
    137a:	99 24       	eor	r9, r9
    137c:	28 01       	movw	r4, r16
    137e:	00 c0       	rjmp	.+0      	; 0x1380 <_ZN6SdFile4openEPS_PKch+0x78>
    1380:	c5 01       	movw	r24, r10
    1382:	0e 94 00 00 	call	0	; 0x0 <_ZN6SdFile10addClusterEv>
    1386:	bc 01       	movw	r22, r24
    1388:	00 97       	sbiw	r24, 0x00	; 0
    138a:	01 f4       	brne	.+0      	; 0x138c <_ZN6SdFile4openEPS_PKch+0x84>
    138c:	00 c0       	rjmp	.+0      	; 0x138e <_ZN6SdFile4openEPS_PKch+0x86>
    138e:	97 01       	movw	r18, r14
    1390:	86 01       	movw	r16, r12
    1392:	e5 e0       	ldi	r30, 0x05	; 5
    1394:	36 95       	lsr	r19
    1396:	27 95       	ror	r18
    1398:	17 95       	ror	r17
    139a:	07 95       	ror	r16
    139c:	ea 95       	dec	r30
    139e:	01 f4       	brne	.+0      	; 0x13a0 <_ZN6SdFile4openEPS_PKch+0x98>
    13a0:	0f 70       	andi	r16, 0x0F	; 15
    13a2:	fc 01       	movw	r30, r24
    13a4:	80 81       	ld	r24, Z
    13a6:	88 23       	and	r24, r24
    13a8:	01 f0       	breq	.+0      	; 0x13aa <_ZN6SdFile4openEPS_PKch+0xa2>
    13aa:	85 3e       	cpi	r24, 0xE5	; 229
    13ac:	01 f4       	brne	.+0      	; 0x13ae <_ZN6SdFile4openEPS_PKch+0xa6>
    13ae:	99 20       	and	r9, r9
    13b0:	01 f4       	brne	.+0      	; 0x13b2 <_ZN6SdFile4openEPS_PKch+0xaa>
    13b2:	f3 01       	movw	r30, r6
    13b4:	02 8b       	std	Z+18, r16	; 0x12
    13b6:	80 91 00 00 	lds	r24, 0x0000
    13ba:	90 91 00 00 	lds	r25, 0x0000
    13be:	a0 91 00 00 	lds	r26, 0x0000
    13c2:	b0 91 00 00 	lds	r27, 0x0000
    13c6:	86 87       	std	Z+14, r24	; 0x0e
    13c8:	97 87       	std	Z+15, r25	; 0x0f
    13ca:	a0 8b       	std	Z+16, r26	; 0x10
    13cc:	b1 8b       	std	Z+17, r27	; 0x11
    13ce:	99 24       	eor	r9, r9
    13d0:	93 94       	inc	r9
    13d2:	fb 01       	movw	r30, r22
    13d4:	80 81       	ld	r24, Z
    13d6:	88 23       	and	r24, r24
    13d8:	01 f4       	brne	.+0      	; 0x13da <_ZN6SdFile4openEPS_PKch+0xd2>
    13da:	00 c0       	rjmp	.+0      	; 0x13dc <_ZN6SdFile4openEPS_PKch+0xd4>
    13dc:	c2 01       	movw	r24, r4
    13de:	4b e0       	ldi	r20, 0x0B	; 11
    13e0:	50 e0       	ldi	r21, 0x00	; 0
    13e2:	0e 94 00 00 	call	0	; 0x0 <_ZN6SdFile10addClusterEv>
    13e6:	00 97       	sbiw	r24, 0x00	; 0
    13e8:	01 f4       	brne	.+0      	; 0x13ea <_ZN6SdFile4openEPS_PKch+0xe2>
    13ea:	88 2d       	mov	r24, r8
    13ec:	80 73       	andi	r24, 0x30	; 48
    13ee:	80 33       	cpi	r24, 0x30	; 48
    13f0:	01 f4       	brne	.+0      	; 0x13f2 <_ZN6SdFile4openEPS_PKch+0xea>
    13f2:	00 c0       	rjmp	.+0      	; 0x13f4 <_ZN6SdFile4openEPS_PKch+0xec>
    13f4:	c3 01       	movw	r24, r6
    13f6:	60 2f       	mov	r22, r16
    13f8:	00 c0       	rjmp	.+0      	; 0x13fa <_ZN6SdFile4openEPS_PKch+0xf2>
    13fa:	f5 01       	movw	r30, r10
    13fc:	c2 84       	ldd	r12, Z+10	; 0x0a
    13fe:	d3 84       	ldd	r13, Z+11	; 0x0b
    1400:	e4 84       	ldd	r14, Z+12	; 0x0c
    1402:	f5 84       	ldd	r15, Z+13	; 0x0d
    1404:	83 89       	ldd	r24, Z+19	; 0x13
    1406:	94 89       	ldd	r25, Z+20	; 0x14
    1408:	a5 89       	ldd	r26, Z+21	; 0x15
    140a:	b6 89       	ldd	r27, Z+22	; 0x16
    140c:	c8 16       	cp	r12, r24
    140e:	d9 06       	cpc	r13, r25
    1410:	ea 06       	cpc	r14, r26
    1412:	fb 06       	cpc	r15, r27
    1414:	00 f4       	brcc	.+0      	; 0x1416 <_ZN6SdFile4openEPS_PKch+0x10e>
    1416:	00 c0       	rjmp	.+0      	; 0x1418 <_ZN6SdFile4openEPS_PKch+0x110>
    1418:	88 2d       	mov	r24, r8
    141a:	82 71       	andi	r24, 0x12	; 18
    141c:	82 31       	cpi	r24, 0x12	; 18
    141e:	01 f0       	breq	.+0      	; 0x1420 <_ZN6SdFile4openEPS_PKch+0x118>
    1420:	00 c0       	rjmp	.+0      	; 0x1422 <_ZN6SdFile4openEPS_PKch+0x11a>
    1422:	99 20       	and	r9, r9
    1424:	01 f0       	breq	.+0      	; 0x1426 <_ZN6SdFile4openEPS_PKch+0x11e>
    1426:	c3 01       	movw	r24, r6
    1428:	61 e0       	ldi	r22, 0x01	; 1
    142a:	0e 94 00 00 	call	0	; 0x0 <_ZN6SdFile10addClusterEv>
    142e:	8c 01       	movw	r16, r24
    1430:	00 97       	sbiw	r24, 0x00	; 0
    1432:	01 f4       	brne	.+0      	; 0x1434 <_ZN6SdFile4openEPS_PKch+0x12c>
    1434:	00 c0       	rjmp	.+0      	; 0x1436 <_ZN6SdFile4openEPS_PKch+0x12e>
    1436:	f5 01       	movw	r30, r10
    1438:	85 81       	ldd	r24, Z+5	; 0x05
    143a:	82 30       	cpi	r24, 0x02	; 2
    143c:	01 f4       	brne	.+0      	; 0x143e <_ZN6SdFile4openEPS_PKch+0x136>
    143e:	00 c0       	rjmp	.+0      	; 0x1440 <_ZN6SdFile4openEPS_PKch+0x138>
    1440:	c5 01       	movw	r24, r10
    1442:	0e 94 00 00 	call	0	; 0x0 <_ZN6SdFile10addClusterEv>
    1446:	88 23       	and	r24, r24
    1448:	01 f0       	breq	.+0      	; 0x144a <_ZN6SdFile4openEPS_PKch+0x142>
    144a:	f3 01       	movw	r30, r6
    144c:	12 8a       	std	Z+18, r1	; 0x12
    144e:	00 e0       	ldi	r16, 0x00	; 0
    1450:	10 e0       	ldi	r17, 0x00	; 0
    1452:	80 e2       	ldi	r24, 0x20	; 32
    1454:	f8 01       	movw	r30, r16
    1456:	11 92       	st	Z+, r1
    1458:	8a 95       	dec	r24
    145a:	01 f4       	brne	.+0      	; 0x145c <_ZN6SdFile4openEPS_PKch+0x154>
    145c:	d8 01       	movw	r26, r16
    145e:	fe 01       	movw	r30, r28
    1460:	31 96       	adiw	r30, 0x01	; 1
    1462:	8b e0       	ldi	r24, 0x0B	; 11
    1464:	01 90       	ld	r0, Z+
    1466:	0d 92       	st	X+, r0
    1468:	81 50       	subi	r24, 0x01	; 1
    146a:	01 f4       	brne	.+0      	; 0x146c <_ZN6SdFile4openEPS_PKch+0x164>
    146c:	e0 91 00 00 	lds	r30, 0x0000
    1470:	f0 91 00 00 	lds	r31, 0x0000
    1474:	30 97       	sbiw	r30, 0x00	; 0
    1476:	01 f0       	breq	.+0      	; 0x1478 <_ZN6SdFile4openEPS_PKch+0x170>
    1478:	b8 01       	movw	r22, r16
    147a:	62 5f       	subi	r22, 0xF2	; 242
    147c:	7f 4f       	sbci	r23, 0xFF	; 255
    147e:	c8 01       	movw	r24, r16
    1480:	40 96       	adiw	r24, 0x10	; 16
    1482:	09 95       	icall
    1484:	00 c0       	rjmp	.+0      	; 0x1486 <_ZN6SdFile4openEPS_PKch+0x17e>
    1486:	81 e2       	ldi	r24, 0x21	; 33
    1488:	98 e2       	ldi	r25, 0x28	; 40
    148a:	f8 01       	movw	r30, r16
    148c:	91 8b       	std	Z+17, r25	; 0x11
    148e:	80 8b       	std	Z+16, r24	; 0x10
    1490:	80 e0       	ldi	r24, 0x00	; 0
    1492:	98 e0       	ldi	r25, 0x08	; 8
    1494:	97 87       	std	Z+15, r25	; 0x0f
    1496:	86 87       	std	Z+14, r24	; 0x0e
    1498:	f8 01       	movw	r30, r16
    149a:	80 89       	ldd	r24, Z+16	; 0x10
    149c:	91 89       	ldd	r25, Z+17	; 0x11
    149e:	93 8b       	std	Z+19, r25	; 0x13
    14a0:	82 8b       	std	Z+18, r24	; 0x12
    14a2:	91 8f       	std	Z+25, r25	; 0x19
    14a4:	80 8f       	std	Z+24, r24	; 0x18
    14a6:	86 85       	ldd	r24, Z+14	; 0x0e
    14a8:	97 85       	ldd	r25, Z+15	; 0x0f
    14aa:	97 8b       	std	Z+23, r25	; 0x17
    14ac:	86 8b       	std	Z+22, r24	; 0x16
    14ae:	0e 94 00 00 	call	0	; 0x0 <_ZN6SdFile10addClusterEv>
    14b2:	88 23       	and	r24, r24
    14b4:	01 f0       	breq	.+0      	; 0x14b6 <_ZN6SdFile4openEPS_PKch+0x1ae>
    14b6:	c3 01       	movw	r24, r6
    14b8:	f3 01       	movw	r30, r6
    14ba:	62 89       	ldd	r22, Z+18	; 0x12
    14bc:	48 2d       	mov	r20, r8
    14be:	0e 94 00 00 	call	0	; 0x0 <_ZN6SdFile10addClusterEv>
    14c2:	00 c0       	rjmp	.+0      	; 0x14c4 <_ZN6SdFile4openEPS_PKch+0x1bc>
    14c4:	80 e0       	ldi	r24, 0x00	; 0
    14c6:	2b 96       	adiw	r28, 0x0b	; 11
    14c8:	0f b6       	in	r0, 0x3f	; 63
    14ca:	f8 94       	cli
    14cc:	de bf       	out	0x3e, r29	; 62
    14ce:	0f be       	out	0x3f, r0	; 63
    14d0:	cd bf       	out	0x3d, r28	; 61
    14d2:	df 91       	pop	r29
    14d4:	cf 91       	pop	r28
    14d6:	1f 91       	pop	r17
    14d8:	0f 91       	pop	r16
    14da:	ff 90       	pop	r15
    14dc:	ef 90       	pop	r14
    14de:	df 90       	pop	r13
    14e0:	cf 90       	pop	r12
    14e2:	bf 90       	pop	r11
    14e4:	af 90       	pop	r10
    14e6:	9f 90       	pop	r9
    14e8:	8f 90       	pop	r8
    14ea:	7f 90       	pop	r7
    14ec:	6f 90       	pop	r6
    14ee:	5f 90       	pop	r5
    14f0:	4f 90       	pop	r4
    14f2:	08 95       	ret

000014f4 <_ZN6SdFile6removeEPS_PKc>:
    14f4:	cf 93       	push	r28
    14f6:	df 93       	push	r29
    14f8:	cd b7       	in	r28, 0x3d	; 61
    14fa:	de b7       	in	r29, 0x3e	; 62
    14fc:	6d 97       	sbiw	r28, 0x1d	; 29
    14fe:	0f b6       	in	r0, 0x3f	; 63
    1500:	f8 94       	cli
    1502:	de bf       	out	0x3e, r29	; 62
    1504:	0f be       	out	0x3f, r0	; 63
    1506:	cd bf       	out	0x3d, r28	; 61
    1508:	9c 01       	movw	r18, r24
    150a:	ab 01       	movw	r20, r22
    150c:	1c 82       	std	Y+4, r1	; 0x04
    150e:	1b 82       	std	Y+3, r1	; 0x03
    1510:	80 e0       	ldi	r24, 0x00	; 0
    1512:	90 e0       	ldi	r25, 0x00	; 0
    1514:	9a 83       	std	Y+2, r25	; 0x02
    1516:	89 83       	std	Y+1, r24	; 0x01
    1518:	1e 82       	std	Y+6, r1	; 0x06
    151a:	ce 01       	movw	r24, r28
    151c:	01 96       	adiw	r24, 0x01	; 1
    151e:	b9 01       	movw	r22, r18
    1520:	22 e0       	ldi	r18, 0x02	; 2
    1522:	0e 94 00 00 	call	0	; 0x0 <_ZN6SdFile10addClusterEv>
    1526:	88 23       	and	r24, r24
    1528:	01 f0       	breq	.+0      	; 0x152a <_ZN6SdFile6removeEPS_PKc+0x36>
    152a:	ce 01       	movw	r24, r28
    152c:	01 96       	adiw	r24, 0x01	; 1
    152e:	0e 94 00 00 	call	0	; 0x0 <_ZN6SdFile10addClusterEv>
    1532:	00 c0       	rjmp	.+0      	; 0x1534 <_ZN6SdFile6removeEPS_PKc+0x40>
    1534:	80 e0       	ldi	r24, 0x00	; 0
    1536:	6d 96       	adiw	r28, 0x1d	; 29
    1538:	0f b6       	in	r0, 0x3f	; 63
    153a:	f8 94       	cli
    153c:	de bf       	out	0x3e, r29	; 62
    153e:	0f be       	out	0x3f, r0	; 63
    1540:	cd bf       	out	0x3d, r28	; 61
    1542:	df 91       	pop	r29
    1544:	cf 91       	pop	r28
    1546:	08 95       	ret

00001548 <_ZN6SdFile7makeDirEPS_PKc>:
    1548:	af 92       	push	r10
    154a:	bf 92       	push	r11
    154c:	cf 92       	push	r12
    154e:	df 92       	push	r13
    1550:	ef 92       	push	r14
    1552:	ff 92       	push	r15
    1554:	0f 93       	push	r16
    1556:	1f 93       	push	r17
    1558:	cf 93       	push	r28
    155a:	df 93       	push	r29
    155c:	cd b7       	in	r28, 0x3d	; 61
    155e:	de b7       	in	r29, 0x3e	; 62
    1560:	a0 97       	sbiw	r28, 0x20	; 32
    1562:	0f b6       	in	r0, 0x3f	; 63
    1564:	f8 94       	cli
    1566:	de bf       	out	0x3e, r29	; 62
    1568:	0f be       	out	0x3f, r0	; 63
    156a:	cd bf       	out	0x3d, r28	; 61
    156c:	8c 01       	movw	r16, r24
    156e:	7b 01       	movw	r14, r22
    1570:	23 e3       	ldi	r18, 0x33	; 51
    1572:	0e 94 00 00 	call	0	; 0x0 <_ZN6SdFile10addClusterEv>
    1576:	88 23       	and	r24, r24
    1578:	01 f4       	brne	.+0      	; 0x157a <_ZN6SdFile7makeDirEPS_PKc+0x32>
    157a:	00 c0       	rjmp	.+0      	; 0x157c <_ZN6SdFile7makeDirEPS_PKc+0x34>
    157c:	81 e0       	ldi	r24, 0x01	; 1
    157e:	d8 01       	movw	r26, r16
    1580:	14 96       	adiw	r26, 0x04	; 4
    1582:	8c 93       	st	X, r24
    1584:	14 97       	sbiw	r26, 0x04	; 4
    1586:	84 e0       	ldi	r24, 0x04	; 4
    1588:	15 96       	adiw	r26, 0x05	; 5
    158a:	8c 93       	st	X, r24
    158c:	c8 01       	movw	r24, r16
    158e:	0e 94 00 00 	call	0	; 0x0 <_ZN6SdFile10addClusterEv>
    1592:	88 23       	and	r24, r24
    1594:	01 f4       	brne	.+0      	; 0x1596 <_ZN6SdFile7makeDirEPS_PKc+0x4e>
    1596:	00 c0       	rjmp	.+0      	; 0x1598 <_ZN6SdFile7makeDirEPS_PKc+0x50>
    1598:	c8 01       	movw	r24, r16
    159a:	0e 94 00 00 	call	0	; 0x0 <_ZN6SdFile10addClusterEv>
    159e:	88 23       	and	r24, r24
    15a0:	01 f4       	brne	.+0      	; 0x15a2 <_ZN6SdFile7makeDirEPS_PKc+0x5a>
    15a2:	00 c0       	rjmp	.+0      	; 0x15a4 <_ZN6SdFile7makeDirEPS_PKc+0x5c>
    15a4:	c8 01       	movw	r24, r16
    15a6:	61 e0       	ldi	r22, 0x01	; 1
    15a8:	0e 94 00 00 	call	0	; 0x0 <_ZN6SdFile10addClusterEv>
    15ac:	dc 01       	movw	r26, r24
    15ae:	00 97       	sbiw	r24, 0x00	; 0
    15b0:	01 f4       	brne	.+0      	; 0x15b2 <_ZN6SdFile7makeDirEPS_PKc+0x6a>
    15b2:	00 c0       	rjmp	.+0      	; 0x15b4 <_ZN6SdFile7makeDirEPS_PKc+0x6c>
    15b4:	80 e1       	ldi	r24, 0x10	; 16
    15b6:	1b 96       	adiw	r26, 0x0b	; 11
    15b8:	8c 93       	st	X, r24
    15ba:	1b 97       	sbiw	r26, 0x0b	; 11
    15bc:	ae 01       	movw	r20, r28
    15be:	4f 5f       	subi	r20, 0xFF	; 255
    15c0:	5f 4f       	sbci	r21, 0xFF	; 255
    15c2:	cd 01       	movw	r24, r26
    15c4:	20 e2       	ldi	r18, 0x20	; 32
    15c6:	fc 01       	movw	r30, r24
    15c8:	01 90       	ld	r0, Z+
    15ca:	cf 01       	movw	r24, r30
    15cc:	fa 01       	movw	r30, r20
    15ce:	01 92       	st	Z+, r0
    15d0:	af 01       	movw	r20, r30
    15d2:	21 50       	subi	r18, 0x01	; 1
    15d4:	01 f4       	brne	.+0      	; 0x15d6 <_ZN6SdFile7makeDirEPS_PKc+0x8e>
    15d6:	54 96       	adiw	r26, 0x14	; 20
    15d8:	ad 90       	ld	r10, X+
    15da:	bc 90       	ld	r11, X
    15dc:	55 97       	sbiw	r26, 0x15	; 21
    15de:	5a 96       	adiw	r26, 0x1a	; 26
    15e0:	cd 90       	ld	r12, X+
    15e2:	dc 90       	ld	r13, X
    15e4:	5b 97       	sbiw	r26, 0x1b	; 27
    15e6:	fe 01       	movw	r30, r28
    15e8:	32 96       	adiw	r30, 0x02	; 2
    15ea:	8a e0       	ldi	r24, 0x0A	; 10
    15ec:	90 e2       	ldi	r25, 0x20	; 32
    15ee:	91 93       	st	Z+, r25
    15f0:	81 50       	subi	r24, 0x01	; 1
    15f2:	01 f4       	brne	.+0      	; 0x15f4 <_ZN6SdFile7makeDirEPS_PKc+0xac>
    15f4:	8e e2       	ldi	r24, 0x2E	; 46
    15f6:	89 83       	std	Y+1, r24	; 0x01
    15f8:	d8 01       	movw	r26, r16
    15fa:	5b 96       	adiw	r26, 0x1b	; 27
    15fc:	ed 91       	ld	r30, X+
    15fe:	fc 91       	ld	r31, X
    1600:	5c 97       	sbiw	r26, 0x1c	; 28
    1602:	57 96       	adiw	r26, 0x17	; 23
    1604:	4d 91       	ld	r20, X+
    1606:	5d 91       	ld	r21, X+
    1608:	6d 91       	ld	r22, X+
    160a:	7c 91       	ld	r23, X
    160c:	5a 97       	sbiw	r26, 0x1a	; 26
    160e:	42 50       	subi	r20, 0x02	; 2
    1610:	50 40       	sbci	r21, 0x00	; 0
    1612:	60 40       	sbci	r22, 0x00	; 0
    1614:	70 40       	sbci	r23, 0x00	; 0
    1616:	05 84       	ldd	r0, Z+13	; 0x0d
    1618:	00 c0       	rjmp	.+0      	; 0x161a <_ZN6SdFile7makeDirEPS_PKc+0xd2>
    161a:	44 0f       	add	r20, r20
    161c:	55 1f       	adc	r21, r21
    161e:	66 1f       	adc	r22, r22
    1620:	77 1f       	adc	r23, r23
    1622:	0a 94       	dec	r0
    1624:	02 f4       	brpl	.+0      	; 0x1626 <_ZN6SdFile7makeDirEPS_PKc+0xde>
    1626:	86 85       	ldd	r24, Z+14	; 0x0e
    1628:	97 85       	ldd	r25, Z+15	; 0x0f
    162a:	a0 89       	ldd	r26, Z+16	; 0x10
    162c:	b1 89       	ldd	r27, Z+17	; 0x11
    162e:	48 0f       	add	r20, r24
    1630:	59 1f       	adc	r21, r25
    1632:	6a 1f       	adc	r22, r26
    1634:	7b 1f       	adc	r23, r27
    1636:	cb 01       	movw	r24, r22
    1638:	ba 01       	movw	r22, r20
    163a:	41 e0       	ldi	r20, 0x01	; 1
    163c:	0e 94 00 00 	call	0	; 0x0 <_ZN6SdFile10addClusterEv>
    1640:	88 23       	and	r24, r24
    1642:	01 f4       	brne	.+0      	; 0x1644 <_ZN6SdFile7makeDirEPS_PKc+0xfc>
    1644:	00 c0       	rjmp	.+0      	; 0x1646 <_ZN6SdFile7makeDirEPS_PKc+0xfe>
    1646:	a0 e0       	ldi	r26, 0x00	; 0
    1648:	b0 e0       	ldi	r27, 0x00	; 0
    164a:	fe 01       	movw	r30, r28
    164c:	31 96       	adiw	r30, 0x01	; 1
    164e:	80 e2       	ldi	r24, 0x20	; 32
    1650:	01 90       	ld	r0, Z+
    1652:	0d 92       	st	X+, r0
    1654:	81 50       	subi	r24, 0x01	; 1
    1656:	01 f4       	brne	.+0      	; 0x1658 <_ZN6SdFile7makeDirEPS_PKc+0x110>
    1658:	b0 92 00 00 	sts	0x0000, r11
    165c:	a0 92 00 00 	sts	0x0000, r10
    1660:	d0 92 00 00 	sts	0x0000, r13
    1664:	c0 92 00 00 	sts	0x0000, r12
    1668:	8e e2       	ldi	r24, 0x2E	; 46
    166a:	8a 83       	std	Y+2, r24	; 0x02
    166c:	f7 01       	movw	r30, r14
    166e:	85 81       	ldd	r24, Z+5	; 0x05
    1670:	82 50       	subi	r24, 0x02	; 2
    1672:	82 30       	cpi	r24, 0x02	; 2
    1674:	00 f0       	brcs	.+0      	; 0x1676 <_ZN6SdFile7makeDirEPS_PKc+0x12e>
    1676:	87 89       	ldd	r24, Z+23	; 0x17
    1678:	90 8d       	ldd	r25, Z+24	; 0x18
    167a:	a1 8d       	ldd	r26, Z+25	; 0x19
    167c:	b2 8d       	ldd	r27, Z+26	; 0x1a
    167e:	9c 01       	movw	r18, r24
    1680:	cd 01       	movw	r24, r26
    1682:	00 c0       	rjmp	.+0      	; 0x1684 <_ZN6SdFile7makeDirEPS_PKc+0x13c>
    1684:	20 e0       	ldi	r18, 0x00	; 0
    1686:	30 e0       	ldi	r19, 0x00	; 0
    1688:	80 e0       	ldi	r24, 0x00	; 0
    168a:	90 e0       	ldi	r25, 0x00	; 0
    168c:	a0 e0       	ldi	r26, 0x00	; 0
    168e:	b0 e0       	ldi	r27, 0x00	; 0
    1690:	fe 01       	movw	r30, r28
    1692:	31 96       	adiw	r30, 0x01	; 1
    1694:	40 e2       	ldi	r20, 0x20	; 32
    1696:	01 90       	ld	r0, Z+
    1698:	0d 92       	st	X+, r0
    169a:	41 50       	subi	r20, 0x01	; 1
    169c:	01 f4       	brne	.+0      	; 0x169e <_ZN6SdFile7makeDirEPS_PKc+0x156>
    169e:	90 93 00 00 	sts	0x0000, r25
    16a2:	80 93 00 00 	sts	0x0000, r24
    16a6:	30 93 00 00 	sts	0x0000, r19
    16aa:	20 93 00 00 	sts	0x0000, r18
    16ae:	80 e4       	ldi	r24, 0x40	; 64
    16b0:	90 e0       	ldi	r25, 0x00	; 0
    16b2:	a0 e0       	ldi	r26, 0x00	; 0
    16b4:	b0 e0       	ldi	r27, 0x00	; 0
    16b6:	f8 01       	movw	r30, r16
    16b8:	82 87       	std	Z+10, r24	; 0x0a
    16ba:	93 87       	std	Z+11, r25	; 0x0b
    16bc:	a4 87       	std	Z+12, r26	; 0x0c
    16be:	b5 87       	std	Z+13, r27	; 0x0d
    16c0:	0e 94 00 00 	call	0	; 0x0 <_ZN6SdFile10addClusterEv>
    16c4:	00 c0       	rjmp	.+0      	; 0x16c6 <_ZN6SdFile7makeDirEPS_PKc+0x17e>
    16c6:	80 e0       	ldi	r24, 0x00	; 0
    16c8:	a0 96       	adiw	r28, 0x20	; 32
    16ca:	0f b6       	in	r0, 0x3f	; 63
    16cc:	f8 94       	cli
    16ce:	de bf       	out	0x3e, r29	; 62
    16d0:	0f be       	out	0x3f, r0	; 63
    16d2:	cd bf       	out	0x3d, r28	; 61
    16d4:	df 91       	pop	r29
    16d6:	cf 91       	pop	r28
    16d8:	1f 91       	pop	r17
    16da:	0f 91       	pop	r16
    16dc:	ff 90       	pop	r15
    16de:	ef 90       	pop	r14
    16e0:	df 90       	pop	r13
    16e2:	cf 90       	pop	r12
    16e4:	bf 90       	pop	r11
    16e6:	af 90       	pop	r10
    16e8:	08 95       	ret

000016ea <_ZN6SdFile16createContiguousEPS_PKcm>:
    16ea:	cf 92       	push	r12
    16ec:	df 92       	push	r13
    16ee:	ef 92       	push	r14
    16f0:	ff 92       	push	r15
    16f2:	0f 93       	push	r16
    16f4:	1f 93       	push	r17
    16f6:	cf 93       	push	r28
    16f8:	df 93       	push	r29
    16fa:	ec 01       	movw	r28, r24
    16fc:	68 01       	movw	r12, r16
    16fe:	79 01       	movw	r14, r18
    1700:	01 15       	cp	r16, r1
    1702:	11 05       	cpc	r17, r1
    1704:	21 05       	cpc	r18, r1
    1706:	31 05       	cpc	r19, r1
    1708:	01 f0       	breq	.+0      	; 0x170a <_ZN6SdFile16createContiguousEPS_PKcm+0x20>
    170a:	23 e3       	ldi	r18, 0x33	; 51
    170c:	0e 94 00 00 	call	0	; 0x0 <_ZN6SdFile10addClusterEv>
    1710:	88 23       	and	r24, r24
    1712:	01 f0       	breq	.+0      	; 0x1714 <_ZN6SdFile16createContiguousEPS_PKcm+0x2a>
    1714:	eb 8d       	ldd	r30, Y+27	; 0x1b
    1716:	fc 8d       	ldd	r31, Y+28	; 0x1c
    1718:	b7 01       	movw	r22, r14
    171a:	a6 01       	movw	r20, r12
    171c:	41 50       	subi	r20, 0x01	; 1
    171e:	50 40       	sbci	r21, 0x00	; 0
    1720:	60 40       	sbci	r22, 0x00	; 0
    1722:	70 40       	sbci	r23, 0x00	; 0
    1724:	85 85       	ldd	r24, Z+13	; 0x0d
    1726:	90 e0       	ldi	r25, 0x00	; 0
    1728:	09 96       	adiw	r24, 0x09	; 9
    172a:	00 c0       	rjmp	.+0      	; 0x172c <_ZN6SdFile16createContiguousEPS_PKcm+0x42>
    172c:	76 95       	lsr	r23
    172e:	67 95       	ror	r22
    1730:	57 95       	ror	r21
    1732:	47 95       	ror	r20
    1734:	8a 95       	dec	r24
    1736:	02 f4       	brpl	.+0      	; 0x1738 <_ZN6SdFile16createContiguousEPS_PKcm+0x4e>
    1738:	4f 5f       	subi	r20, 0xFF	; 255
    173a:	5f 4f       	sbci	r21, 0xFF	; 255
    173c:	6f 4f       	sbci	r22, 0xFF	; 255
    173e:	7f 4f       	sbci	r23, 0xFF	; 255
    1740:	9e 01       	movw	r18, r28
    1742:	29 5e       	subi	r18, 0xE9	; 233
    1744:	3f 4f       	sbci	r19, 0xFF	; 255
    1746:	cf 01       	movw	r24, r30
    1748:	0e 94 00 00 	call	0	; 0x0 <_ZN6SdFile10addClusterEv>
    174c:	88 23       	and	r24, r24
    174e:	01 f4       	brne	.+0      	; 0x1750 <_ZN6SdFile16createContiguousEPS_PKcm+0x66>
    1750:	ce 01       	movw	r24, r28
    1752:	0e 94 00 00 	call	0	; 0x0 <_ZN6SdFile10addClusterEv>
    1756:	00 c0       	rjmp	.+0      	; 0x1758 <_ZN6SdFile16createContiguousEPS_PKcm+0x6e>
    1758:	cb 8a       	std	Y+19, r12	; 0x13
    175a:	dc 8a       	std	Y+20, r13	; 0x14
    175c:	ed 8a       	std	Y+21, r14	; 0x15
    175e:	fe 8a       	std	Y+22, r15	; 0x16
    1760:	8c 81       	ldd	r24, Y+4	; 0x04
    1762:	80 68       	ori	r24, 0x80	; 128
    1764:	8c 83       	std	Y+4, r24	; 0x04
    1766:	ce 01       	movw	r24, r28
    1768:	0e 94 00 00 	call	0	; 0x0 <_ZN6SdFile10addClusterEv>
    176c:	00 c0       	rjmp	.+0      	; 0x176e <_ZN6SdFile16createContiguousEPS_PKcm+0x84>
    176e:	80 e0       	ldi	r24, 0x00	; 0
    1770:	df 91       	pop	r29
    1772:	cf 91       	pop	r28
    1774:	1f 91       	pop	r17
    1776:	0f 91       	pop	r16
    1778:	ff 90       	pop	r15
    177a:	ef 90       	pop	r14
    177c:	df 90       	pop	r13
    177e:	cf 90       	pop	r12
    1780:	08 95       	ret

00001782 <_ZN6SdFile5writeEPKvj>:
    1782:	2f 92       	push	r2
    1784:	3f 92       	push	r3
    1786:	4f 92       	push	r4
    1788:	5f 92       	push	r5
    178a:	6f 92       	push	r6
    178c:	7f 92       	push	r7
    178e:	8f 92       	push	r8
    1790:	9f 92       	push	r9
    1792:	bf 92       	push	r11
    1794:	cf 92       	push	r12
    1796:	df 92       	push	r13
    1798:	ef 92       	push	r14
    179a:	ff 92       	push	r15
    179c:	0f 93       	push	r16
    179e:	1f 93       	push	r17
    17a0:	cf 93       	push	r28
    17a2:	df 93       	push	r29
    17a4:	00 d0       	rcall	.+0      	; 0x17a6 <_ZN6SdFile5writeEPKvj+0x24>
    17a6:	00 d0       	rcall	.+0      	; 0x17a8 <_ZN6SdFile5writeEPKvj+0x26>
    17a8:	00 d0       	rcall	.+0      	; 0x17aa <_ZN6SdFile5writeEPKvj+0x28>
    17aa:	cd b7       	in	r28, 0x3d	; 61
    17ac:	de b7       	in	r29, 0x3e	; 62
    17ae:	8c 01       	movw	r16, r24
    17b0:	b6 2e       	mov	r11, r22
    17b2:	c7 2e       	mov	r12, r23
    17b4:	5e 83       	std	Y+6, r21	; 0x06
    17b6:	4d 83       	std	Y+5, r20	; 0x05
    17b8:	dc 01       	movw	r26, r24
    17ba:	15 96       	adiw	r26, 0x05	; 5
    17bc:	8c 91       	ld	r24, X
    17be:	15 97       	sbiw	r26, 0x05	; 5
    17c0:	81 30       	cpi	r24, 0x01	; 1
    17c2:	01 f0       	breq	.+0      	; 0x17c4 <_ZN6SdFile5writeEPKvj+0x42>
    17c4:	00 c0       	rjmp	.+0      	; 0x17c6 <_ZN6SdFile5writeEPKvj+0x44>
    17c6:	14 96       	adiw	r26, 0x04	; 4
    17c8:	8c 91       	ld	r24, X
    17ca:	14 97       	sbiw	r26, 0x04	; 4
    17cc:	81 ff       	sbrs	r24, 1
    17ce:	00 c0       	rjmp	.+0      	; 0x17d0 <_ZN6SdFile5writeEPKvj+0x4e>
    17d0:	00 c0       	rjmp	.+0      	; 0x17d2 <_ZN6SdFile5writeEPKvj+0x50>
    17d2:	f8 01       	movw	r30, r16
    17d4:	43 89       	ldd	r20, Z+19	; 0x13
    17d6:	54 89       	ldd	r21, Z+20	; 0x14
    17d8:	65 89       	ldd	r22, Z+21	; 0x15
    17da:	76 89       	ldd	r23, Z+22	; 0x16
    17dc:	82 85       	ldd	r24, Z+10	; 0x0a
    17de:	93 85       	ldd	r25, Z+11	; 0x0b
    17e0:	a4 85       	ldd	r26, Z+12	; 0x0c
    17e2:	b5 85       	ldd	r27, Z+13	; 0x0d
    17e4:	84 17       	cp	r24, r20
    17e6:	95 07       	cpc	r25, r21
    17e8:	a6 07       	cpc	r26, r22
    17ea:	b7 07       	cpc	r27, r23
    17ec:	01 f0       	breq	.+0      	; 0x17ee <_ZN6SdFile5writeEPKvj+0x6c>
    17ee:	c8 01       	movw	r24, r16
    17f0:	0e 94 00 00 	call	0	; 0x0 <_ZN6SdFile10addClusterEv>
    17f4:	88 23       	and	r24, r24
    17f6:	01 f4       	brne	.+0      	; 0x17f8 <_ZN6SdFile5writeEPKvj+0x76>
    17f8:	00 c0       	rjmp	.+0      	; 0x17fa <_ZN6SdFile5writeEPKvj+0x78>
    17fa:	2d 80       	ldd	r2, Y+5	; 0x05
    17fc:	3e 80       	ldd	r3, Y+6	; 0x06
    17fe:	4b 2c       	mov	r4, r11
    1800:	5c 2c       	mov	r5, r12
    1802:	00 c0       	rjmp	.+0      	; 0x1804 <_ZN6SdFile5writeEPKvj+0x82>
    1804:	f8 01       	movw	r30, r16
    1806:	23 8d       	ldd	r18, Z+27	; 0x1b
    1808:	34 8d       	ldd	r19, Z+28	; 0x1c
    180a:	f9 01       	movw	r30, r18
    180c:	b4 80       	ldd	r11, Z+4	; 0x04
    180e:	ba 94       	dec	r11
    1810:	ac 01       	movw	r20, r24
    1812:	bd 01       	movw	r22, r26
    1814:	03 2e       	mov	r0, r19
    1816:	39 e0       	ldi	r19, 0x09	; 9
    1818:	76 95       	lsr	r23
    181a:	67 95       	ror	r22
    181c:	57 95       	ror	r21
    181e:	47 95       	ror	r20
    1820:	3a 95       	dec	r19
    1822:	01 f4       	brne	.+0      	; 0x1824 <_ZN6SdFile5writeEPKvj+0xa2>
    1824:	30 2d       	mov	r19, r0
    1826:	b4 22       	and	r11, r20
    1828:	4f ef       	ldi	r20, 0xFF	; 255
    182a:	64 2e       	mov	r6, r20
    182c:	41 e0       	ldi	r20, 0x01	; 1
    182e:	74 2e       	mov	r7, r20
    1830:	68 22       	and	r6, r24
    1832:	79 22       	and	r7, r25
    1834:	bb 20       	and	r11, r11
    1836:	01 f0       	breq	.+0      	; 0x1838 <_ZN6SdFile5writeEPKvj+0xb6>
    1838:	00 c0       	rjmp	.+0      	; 0x183a <_ZN6SdFile5writeEPKvj+0xb8>
    183a:	61 14       	cp	r6, r1
    183c:	71 04       	cpc	r7, r1
    183e:	01 f0       	breq	.+0      	; 0x1840 <_ZN6SdFile5writeEPKvj+0xbe>
    1840:	00 c0       	rjmp	.+0      	; 0x1842 <_ZN6SdFile5writeEPKvj+0xc0>
    1842:	d8 01       	movw	r26, r16
    1844:	16 96       	adiw	r26, 0x06	; 6
    1846:	4d 91       	ld	r20, X+
    1848:	5d 91       	ld	r21, X+
    184a:	6d 91       	ld	r22, X+
    184c:	7c 91       	ld	r23, X
    184e:	19 97       	sbiw	r26, 0x09	; 9
    1850:	41 15       	cp	r20, r1
    1852:	51 05       	cpc	r21, r1
    1854:	61 05       	cpc	r22, r1
    1856:	71 05       	cpc	r23, r1
    1858:	01 f4       	brne	.+0      	; 0x185a <_ZN6SdFile5writeEPKvj+0xd8>
    185a:	57 96       	adiw	r26, 0x17	; 23
    185c:	8d 91       	ld	r24, X+
    185e:	9d 91       	ld	r25, X+
    1860:	0d 90       	ld	r0, X+
    1862:	bc 91       	ld	r27, X
    1864:	a0 2d       	mov	r26, r0
    1866:	00 97       	sbiw	r24, 0x00	; 0
    1868:	a1 05       	cpc	r26, r1
    186a:	b1 05       	cpc	r27, r1
    186c:	01 f0       	breq	.+0      	; 0x186e <_ZN6SdFile5writeEPKvj+0xec>
    186e:	f8 01       	movw	r30, r16
    1870:	86 83       	std	Z+6, r24	; 0x06
    1872:	97 83       	std	Z+7, r25	; 0x07
    1874:	a0 87       	std	Z+8, r26	; 0x08
    1876:	b1 87       	std	Z+9, r27	; 0x09
    1878:	00 c0       	rjmp	.+0      	; 0x187a <_ZN6SdFile5writeEPKvj+0xf8>
    187a:	c9 01       	movw	r24, r18
    187c:	9e 01       	movw	r18, r28
    187e:	2f 5f       	subi	r18, 0xFF	; 255
    1880:	3f 4f       	sbci	r19, 0xFF	; 255
    1882:	0e 94 00 00 	call	0	; 0x0 <_ZN6SdFile10addClusterEv>
    1886:	88 23       	and	r24, r24
    1888:	01 f4       	brne	.+0      	; 0x188a <_ZN6SdFile5writeEPKvj+0x108>
    188a:	00 c0       	rjmp	.+0      	; 0x188c <_ZN6SdFile5writeEPKvj+0x10a>
    188c:	49 81       	ldd	r20, Y+1	; 0x01
    188e:	5a 81       	ldd	r21, Y+2	; 0x02
    1890:	6b 81       	ldd	r22, Y+3	; 0x03
    1892:	7c 81       	ldd	r23, Y+4	; 0x04
    1894:	d8 01       	movw	r26, r16
    1896:	5b 96       	adiw	r26, 0x1b	; 27
    1898:	ed 91       	ld	r30, X+
    189a:	fc 91       	ld	r31, X
    189c:	5c 97       	sbiw	r26, 0x1c	; 28
    189e:	87 89       	ldd	r24, Z+23	; 0x17
    18a0:	80 31       	cpi	r24, 0x10	; 16
    18a2:	01 f4       	brne	.+0      	; 0x18a4 <_ZN6SdFile5writeEPKvj+0x122>
    18a4:	88 ef       	ldi	r24, 0xF8	; 248
    18a6:	9f ef       	ldi	r25, 0xFF	; 255
    18a8:	a0 e0       	ldi	r26, 0x00	; 0
    18aa:	b0 e0       	ldi	r27, 0x00	; 0
    18ac:	00 c0       	rjmp	.+0      	; 0x18ae <_ZN6SdFile5writeEPKvj+0x12c>
    18ae:	88 ef       	ldi	r24, 0xF8	; 248
    18b0:	9f ef       	ldi	r25, 0xFF	; 255
    18b2:	af ef       	ldi	r26, 0xFF	; 255
    18b4:	bf e0       	ldi	r27, 0x0F	; 15
    18b6:	48 17       	cp	r20, r24
    18b8:	59 07       	cpc	r21, r25
    18ba:	6a 07       	cpc	r22, r26
    18bc:	7b 07       	cpc	r23, r27
    18be:	00 f0       	brcs	.+0      	; 0x18c0 <_ZN6SdFile5writeEPKvj+0x13e>
    18c0:	c8 01       	movw	r24, r16
    18c2:	0e 94 00 00 	call	0	; 0x0 <_ZN6SdFile10addClusterEv>
    18c6:	88 23       	and	r24, r24
    18c8:	01 f4       	brne	.+0      	; 0x18ca <_ZN6SdFile5writeEPKvj+0x148>
    18ca:	00 c0       	rjmp	.+0      	; 0x18cc <_ZN6SdFile5writeEPKvj+0x14a>
    18cc:	f8 01       	movw	r30, r16
    18ce:	46 83       	std	Z+6, r20	; 0x06
    18d0:	57 83       	std	Z+7, r21	; 0x07
    18d2:	60 87       	std	Z+8, r22	; 0x08
    18d4:	71 87       	std	Z+9, r23	; 0x09
    18d6:	80 e0       	ldi	r24, 0x00	; 0
    18d8:	92 e0       	ldi	r25, 0x02	; 2
    18da:	86 19       	sub	r24, r6
    18dc:	97 09       	sbc	r25, r7
    18de:	41 01       	movw	r8, r2
    18e0:	82 15       	cp	r24, r2
    18e2:	93 05       	cpc	r25, r3
    18e4:	00 f4       	brcc	.+0      	; 0x18e6 <_ZN6SdFile5writeEPKvj+0x164>
    18e6:	4c 01       	movw	r8, r24
    18e8:	d8 01       	movw	r26, r16
    18ea:	5b 96       	adiw	r26, 0x1b	; 27
    18ec:	ed 91       	ld	r30, X+
    18ee:	fc 91       	ld	r31, X
    18f0:	5c 97       	sbiw	r26, 0x1c	; 28
    18f2:	16 96       	adiw	r26, 0x06	; 6
    18f4:	cd 90       	ld	r12, X+
    18f6:	dd 90       	ld	r13, X+
    18f8:	ed 90       	ld	r14, X+
    18fa:	fc 90       	ld	r15, X
    18fc:	19 97       	sbiw	r26, 0x09	; 9
    18fe:	8e ef       	ldi	r24, 0xFE	; 254
    1900:	9f ef       	ldi	r25, 0xFF	; 255
    1902:	af ef       	ldi	r26, 0xFF	; 255
    1904:	bf ef       	ldi	r27, 0xFF	; 255
    1906:	c8 0e       	add	r12, r24
    1908:	d9 1e       	adc	r13, r25
    190a:	ea 1e       	adc	r14, r26
    190c:	fb 1e       	adc	r15, r27
    190e:	05 84       	ldd	r0, Z+13	; 0x0d
    1910:	00 c0       	rjmp	.+0      	; 0x1912 <_ZN6SdFile5writeEPKvj+0x190>
    1912:	cc 0c       	add	r12, r12
    1914:	dd 1c       	adc	r13, r13
    1916:	ee 1c       	adc	r14, r14
    1918:	ff 1c       	adc	r15, r15
    191a:	0a 94       	dec	r0
    191c:	02 f4       	brpl	.+0      	; 0x191e <_ZN6SdFile5writeEPKvj+0x19c>
    191e:	86 85       	ldd	r24, Z+14	; 0x0e
    1920:	97 85       	ldd	r25, Z+15	; 0x0f
    1922:	a0 89       	ldd	r26, Z+16	; 0x10
    1924:	b1 89       	ldd	r27, Z+17	; 0x11
    1926:	c8 0e       	add	r12, r24
    1928:	d9 1e       	adc	r13, r25
    192a:	ea 1e       	adc	r14, r26
    192c:	fb 1e       	adc	r15, r27
    192e:	cb 0c       	add	r12, r11
    1930:	d1 1c       	adc	r13, r1
    1932:	e1 1c       	adc	r14, r1
    1934:	f1 1c       	adc	r15, r1
    1936:	90 e0       	ldi	r25, 0x00	; 0
    1938:	89 16       	cp	r8, r25
    193a:	92 e0       	ldi	r25, 0x02	; 2
    193c:	99 06       	cpc	r9, r25
    193e:	01 f4       	brne	.+0      	; 0x1940 <_ZN6SdFile5writeEPKvj+0x1be>
    1940:	80 91 00 00 	lds	r24, 0x0000
    1944:	90 91 00 00 	lds	r25, 0x0000
    1948:	a0 91 00 00 	lds	r26, 0x0000
    194c:	b0 91 00 00 	lds	r27, 0x0000
    1950:	8c 15       	cp	r24, r12
    1952:	9d 05       	cpc	r25, r13
    1954:	ae 05       	cpc	r26, r14
    1956:	bf 05       	cpc	r27, r15
    1958:	01 f4       	brne	.+0      	; 0x195a <_ZN6SdFile5writeEPKvj+0x1d8>
    195a:	8f ef       	ldi	r24, 0xFF	; 255
    195c:	9f ef       	ldi	r25, 0xFF	; 255
    195e:	af ef       	ldi	r26, 0xFF	; 255
    1960:	bf ef       	ldi	r27, 0xFF	; 255
    1962:	80 93 00 00 	sts	0x0000, r24
    1966:	90 93 00 00 	sts	0x0000, r25
    196a:	a0 93 00 00 	sts	0x0000, r26
    196e:	b0 93 00 00 	sts	0x0000, r27
    1972:	80 91 00 00 	lds	r24, 0x0000
    1976:	90 91 00 00 	lds	r25, 0x0000
    197a:	b7 01       	movw	r22, r14
    197c:	a6 01       	movw	r20, r12
    197e:	92 01       	movw	r18, r4
    1980:	0e 94 00 00 	call	0	; 0x0 <_ZN6SdFile10addClusterEv>
    1984:	88 23       	and	r24, r24
    1986:	01 f4       	brne	.+0      	; 0x1988 <_ZN6SdFile5writeEPKvj+0x206>
    1988:	00 c0       	rjmp	.+0      	; 0x198a <_ZN6SdFile5writeEPKvj+0x208>
    198a:	a0 e0       	ldi	r26, 0x00	; 0
    198c:	b2 e0       	ldi	r27, 0x02	; 2
    198e:	4a 0e       	add	r4, r26
    1990:	5b 1e       	adc	r5, r27
    1992:	00 c0       	rjmp	.+0      	; 0x1994 <_ZN6SdFile5writeEPKvj+0x212>
    1994:	61 14       	cp	r6, r1
    1996:	71 04       	cpc	r7, r1
    1998:	01 f4       	brne	.+0      	; 0x199a <_ZN6SdFile5writeEPKvj+0x218>
    199a:	f8 01       	movw	r30, r16
    199c:	82 85       	ldd	r24, Z+10	; 0x0a
    199e:	93 85       	ldd	r25, Z+11	; 0x0b
    19a0:	a4 85       	ldd	r26, Z+12	; 0x0c
    19a2:	b5 85       	ldd	r27, Z+13	; 0x0d
    19a4:	43 89       	ldd	r20, Z+19	; 0x13
    19a6:	54 89       	ldd	r21, Z+20	; 0x14
    19a8:	65 89       	ldd	r22, Z+21	; 0x15
    19aa:	76 89       	ldd	r23, Z+22	; 0x16
    19ac:	84 17       	cp	r24, r20
    19ae:	95 07       	cpc	r25, r21
    19b0:	a6 07       	cpc	r26, r22
    19b2:	b7 07       	cpc	r27, r23
    19b4:	00 f0       	brcs	.+0      	; 0x19b6 <_ZN6SdFile5writeEPKvj+0x234>
    19b6:	0e 94 00 00 	call	0	; 0x0 <_ZN6SdFile10addClusterEv>
    19ba:	88 23       	and	r24, r24
    19bc:	01 f4       	brne	.+0      	; 0x19be <_ZN6SdFile5writeEPKvj+0x23c>
    19be:	00 c0       	rjmp	.+0      	; 0x19c0 <_ZN6SdFile5writeEPKvj+0x23e>
    19c0:	c0 92 00 00 	sts	0x0000, r12
    19c4:	d0 92 00 00 	sts	0x0000, r13
    19c8:	e0 92 00 00 	sts	0x0000, r14
    19cc:	f0 92 00 00 	sts	0x0000, r15
    19d0:	80 91 00 00 	lds	r24, 0x0000
    19d4:	81 60       	ori	r24, 0x01	; 1
    19d6:	80 93 00 00 	sts	0x0000, r24
    19da:	00 c0       	rjmp	.+0      	; 0x19dc <_ZN6SdFile5writeEPKvj+0x25a>
    19dc:	c7 01       	movw	r24, r14
    19de:	b6 01       	movw	r22, r12
    19e0:	41 e0       	ldi	r20, 0x01	; 1
    19e2:	0e 94 00 00 	call	0	; 0x0 <_ZN6SdFile10addClusterEv>
    19e6:	88 23       	and	r24, r24
    19e8:	01 f4       	brne	.+0      	; 0x19ea <_ZN6SdFile5writeEPKvj+0x268>
    19ea:	00 c0       	rjmp	.+0      	; 0x19ec <_ZN6SdFile5writeEPKvj+0x26a>
    19ec:	93 01       	movw	r18, r6
    19ee:	20 50       	subi	r18, 0x00	; 0
    19f0:	30 40       	sbci	r19, 0x00	; 0
    19f2:	c9 01       	movw	r24, r18
    19f4:	88 0d       	add	r24, r8
    19f6:	99 1d       	adc	r25, r9
    19f8:	d2 01       	movw	r26, r4
    19fa:	f9 01       	movw	r30, r18
    19fc:	00 c0       	rjmp	.+0      	; 0x19fe <_ZN6SdFile5writeEPKvj+0x27c>
    19fe:	4d 91       	ld	r20, X+
    1a00:	41 93       	st	Z+, r20
    1a02:	e8 17       	cp	r30, r24
    1a04:	f9 07       	cpc	r31, r25
    1a06:	01 f4       	brne	.+0      	; 0x1a08 <_ZN6SdFile5writeEPKvj+0x286>
    1a08:	e2 1b       	sub	r30, r18
    1a0a:	f3 0b       	sbc	r31, r19
    1a0c:	4e 0e       	add	r4, r30
    1a0e:	5f 1e       	adc	r5, r31
    1a10:	28 18       	sub	r2, r8
    1a12:	39 08       	sbc	r3, r9
    1a14:	a4 01       	movw	r20, r8
    1a16:	60 e0       	ldi	r22, 0x00	; 0
    1a18:	70 e0       	ldi	r23, 0x00	; 0
    1a1a:	f8 01       	movw	r30, r16
    1a1c:	82 85       	ldd	r24, Z+10	; 0x0a
    1a1e:	93 85       	ldd	r25, Z+11	; 0x0b
    1a20:	a4 85       	ldd	r26, Z+12	; 0x0c
    1a22:	b5 85       	ldd	r27, Z+13	; 0x0d
    1a24:	84 0f       	add	r24, r20
    1a26:	95 1f       	adc	r25, r21
    1a28:	a6 1f       	adc	r26, r22
    1a2a:	b7 1f       	adc	r27, r23
    1a2c:	82 87       	std	Z+10, r24	; 0x0a
    1a2e:	93 87       	std	Z+11, r25	; 0x0b
    1a30:	a4 87       	std	Z+12, r26	; 0x0c
    1a32:	b5 87       	std	Z+13, r27	; 0x0d
    1a34:	f8 01       	movw	r30, r16
    1a36:	82 85       	ldd	r24, Z+10	; 0x0a
    1a38:	93 85       	ldd	r25, Z+11	; 0x0b
    1a3a:	a4 85       	ldd	r26, Z+12	; 0x0c
    1a3c:	b5 85       	ldd	r27, Z+13	; 0x0d
    1a3e:	21 14       	cp	r2, r1
    1a40:	31 04       	cpc	r3, r1
    1a42:	01 f0       	breq	.+0      	; 0x1a44 <_ZN6SdFile5writeEPKvj+0x2c2>
    1a44:	00 c0       	rjmp	.+0      	; 0x1a46 <_ZN6SdFile5writeEPKvj+0x2c4>
    1a46:	43 89       	ldd	r20, Z+19	; 0x13
    1a48:	54 89       	ldd	r21, Z+20	; 0x14
    1a4a:	65 89       	ldd	r22, Z+21	; 0x15
    1a4c:	76 89       	ldd	r23, Z+22	; 0x16
    1a4e:	48 17       	cp	r20, r24
    1a50:	59 07       	cpc	r21, r25
    1a52:	6a 07       	cpc	r22, r26
    1a54:	7b 07       	cpc	r23, r27
    1a56:	00 f4       	brcc	.+0      	; 0x1a58 <_ZN6SdFile5writeEPKvj+0x2d6>
    1a58:	83 8b       	std	Z+19, r24	; 0x13
    1a5a:	94 8b       	std	Z+20, r25	; 0x14
    1a5c:	a5 8b       	std	Z+21, r26	; 0x15
    1a5e:	b6 8b       	std	Z+22, r27	; 0x16
    1a60:	84 81       	ldd	r24, Z+4	; 0x04
    1a62:	80 68       	ori	r24, 0x80	; 128
    1a64:	84 83       	std	Z+4, r24	; 0x04
    1a66:	00 c0       	rjmp	.+0      	; 0x1a68 <_ZN6SdFile5writeEPKvj+0x2e6>
    1a68:	80 91 00 00 	lds	r24, 0x0000
    1a6c:	90 91 00 00 	lds	r25, 0x0000
    1a70:	00 97       	sbiw	r24, 0x00	; 0
    1a72:	01 f0       	breq	.+0      	; 0x1a74 <_ZN6SdFile5writeEPKvj+0x2f2>
    1a74:	8d 81       	ldd	r24, Y+5	; 0x05
    1a76:	9e 81       	ldd	r25, Y+6	; 0x06
    1a78:	00 97       	sbiw	r24, 0x00	; 0
    1a7a:	01 f0       	breq	.+0      	; 0x1a7c <_ZN6SdFile5writeEPKvj+0x2fa>
    1a7c:	84 81       	ldd	r24, Z+4	; 0x04
    1a7e:	80 68       	ori	r24, 0x80	; 128
    1a80:	84 83       	std	Z+4, r24	; 0x04
    1a82:	f8 01       	movw	r30, r16
    1a84:	84 81       	ldd	r24, Z+4	; 0x04
    1a86:	83 ff       	sbrs	r24, 3
    1a88:	00 c0       	rjmp	.+0      	; 0x1a8a <_ZN6SdFile5writeEPKvj+0x308>
    1a8a:	c8 01       	movw	r24, r16
    1a8c:	0e 94 00 00 	call	0	; 0x0 <_ZN6SdFile10addClusterEv>
    1a90:	88 23       	and	r24, r24
    1a92:	01 f4       	brne	.+0      	; 0x1a94 <_ZN6SdFile5writeEPKvj+0x312>
    1a94:	81 e0       	ldi	r24, 0x01	; 1
    1a96:	90 e0       	ldi	r25, 0x00	; 0
    1a98:	d8 01       	movw	r26, r16
    1a9a:	13 96       	adiw	r26, 0x03	; 3
    1a9c:	9c 93       	st	X, r25
    1a9e:	8e 93       	st	-X, r24
    1aa0:	12 97       	sbiw	r26, 0x02	; 2
    1aa2:	1e 82       	std	Y+6, r1	; 0x06
    1aa4:	1d 82       	std	Y+5, r1	; 0x05
    1aa6:	8d 81       	ldd	r24, Y+5	; 0x05
    1aa8:	9e 81       	ldd	r25, Y+6	; 0x06
    1aaa:	26 96       	adiw	r28, 0x06	; 6
    1aac:	0f b6       	in	r0, 0x3f	; 63
    1aae:	f8 94       	cli
    1ab0:	de bf       	out	0x3e, r29	; 62
    1ab2:	0f be       	out	0x3f, r0	; 63
    1ab4:	cd bf       	out	0x3d, r28	; 61
    1ab6:	df 91       	pop	r29
    1ab8:	cf 91       	pop	r28
    1aba:	1f 91       	pop	r17
    1abc:	0f 91       	pop	r16
    1abe:	ff 90       	pop	r15
    1ac0:	ef 90       	pop	r14
    1ac2:	df 90       	pop	r13
    1ac4:	cf 90       	pop	r12
    1ac6:	bf 90       	pop	r11
    1ac8:	9f 90       	pop	r9
    1aca:	8f 90       	pop	r8
    1acc:	7f 90       	pop	r7
    1ace:	6f 90       	pop	r6
    1ad0:	5f 90       	pop	r5
    1ad2:	4f 90       	pop	r4
    1ad4:	3f 90       	pop	r3
    1ad6:	2f 90       	pop	r2
    1ad8:	08 95       	ret
    1ada:	82 fd       	sbrc	r24, 2
    1adc:	00 c0       	rjmp	.+0      	; 0x1ade <_ZN6SdFile5writeEPKvj+0x35c>
    1ade:	00 c0       	rjmp	.+0      	; 0x1ae0 <_ZN6SdFile5writeEh>

00001ae0 <_ZN6SdFile5writeEh>:
    1ae0:	cf 93       	push	r28
    1ae2:	df 93       	push	r29
    1ae4:	0f 92       	push	r0
    1ae6:	cd b7       	in	r28, 0x3d	; 61
    1ae8:	de b7       	in	r29, 0x3e	; 62
    1aea:	69 83       	std	Y+1, r22	; 0x01
    1aec:	be 01       	movw	r22, r28
    1aee:	6f 5f       	subi	r22, 0xFF	; 255
    1af0:	7f 4f       	sbci	r23, 0xFF	; 255
    1af2:	41 e0       	ldi	r20, 0x01	; 1
    1af4:	50 e0       	ldi	r21, 0x00	; 0
    1af6:	0e 94 00 00 	call	0	; 0x0 <_ZN6SdFile10addClusterEv>
    1afa:	0f 90       	pop	r0
    1afc:	df 91       	pop	r29
    1afe:	cf 91       	pop	r28
    1b00:	08 95       	ret

00001b02 <_ZN6SdFile5writeEPKc>:
    1b02:	db 01       	movw	r26, r22
    1b04:	0d 90       	ld	r0, X+
    1b06:	00 20       	and	r0, r0
    1b08:	01 f4       	brne	.+0      	; 0x1b0a <_ZN6SdFile5writeEPKc+0x8>
    1b0a:	ad 01       	movw	r20, r26
    1b0c:	41 50       	subi	r20, 0x01	; 1
    1b0e:	50 40       	sbci	r21, 0x00	; 0
    1b10:	46 1b       	sub	r20, r22
    1b12:	57 0b       	sbc	r21, r23
    1b14:	0e 94 00 00 	call	0	; 0x0 <_ZN6SdFile10addClusterEv>
    1b18:	08 95       	ret

00001b1a <_ZN6SdFile7write_PEPKc>:
    1b1a:	0f 93       	push	r16
    1b1c:	1f 93       	push	r17
    1b1e:	cf 93       	push	r28
    1b20:	df 93       	push	r29
    1b22:	8c 01       	movw	r16, r24
    1b24:	eb 01       	movw	r28, r22
    1b26:	00 c0       	rjmp	.+0      	; 0x1b28 <_ZN6SdFile7write_PEPKc+0xe>
    1b28:	d8 01       	movw	r26, r16
    1b2a:	ed 91       	ld	r30, X+
    1b2c:	fc 91       	ld	r31, X
    1b2e:	01 90       	ld	r0, Z+
    1b30:	f0 81       	ld	r31, Z
    1b32:	e0 2d       	mov	r30, r0
    1b34:	c8 01       	movw	r24, r16
    1b36:	09 95       	icall
    1b38:	21 96       	adiw	r28, 0x01	; 1
    1b3a:	fe 01       	movw	r30, r28
    1b3c:	64 91       	lpm	r22, Z
    1b3e:	66 23       	and	r22, r22
    1b40:	01 f4       	brne	.+0      	; 0x1b42 <_ZN6SdFile7write_PEPKc+0x28>
    1b42:	df 91       	pop	r29
    1b44:	cf 91       	pop	r28
    1b46:	1f 91       	pop	r17
    1b48:	0f 91       	pop	r16
    1b4a:	08 95       	ret

00001b4c <_ZN6SdFile9writeln_PEPKc>:
    1b4c:	cf 93       	push	r28
    1b4e:	df 93       	push	r29
    1b50:	ec 01       	movw	r28, r24
    1b52:	0e 94 00 00 	call	0	; 0x0 <_ZN6SdFile10addClusterEv>
    1b56:	ce 01       	movw	r24, r28
    1b58:	0e 94 00 00 	call	0	; 0x0 <_ZN6SdFile10addClusterEv>
    1b5c:	df 91       	pop	r29
    1b5e:	cf 91       	pop	r28
    1b60:	08 95       	ret

SdVolume.o:     file format elf32-avr

Sections:
Idx Name          Size      VMA       LMA       File off  Algn
  0 .text         000009ac  00000000  00000000  00000034  2**0
                  CONTENTS, ALLOC, LOAD, RELOC, READONLY, CODE
  1 .data         00000004  00000000  00000000  000009e0  2**0
                  CONTENTS, ALLOC, LOAD, DATA
  2 .bss          00000207  00000000  00000000  000009e4  2**0
                  ALLOC

Disassembly of section .text:

00000000 <_ZN8SdVolume10cacheFlushEv>:
   0:	80 91 00 00 	lds	r24, 0x0000
   4:	88 23       	and	r24, r24
   6:	01 f0       	breq	.+0      	; 0x8 <_ZN8SdVolume10cacheFlushEv+0x8>
   8:	40 91 00 00 	lds	r20, 0x0000
   c:	50 91 00 00 	lds	r21, 0x0000
  10:	60 91 00 00 	lds	r22, 0x0000
  14:	70 91 00 00 	lds	r23, 0x0000
  18:	80 91 00 00 	lds	r24, 0x0000
  1c:	90 91 00 00 	lds	r25, 0x0000
  20:	20 e0       	ldi	r18, 0x00	; 0
  22:	30 e0       	ldi	r19, 0x00	; 0
  24:	0e 94 00 00 	call	0	; 0x0 <_ZN8SdVolume10cacheFlushEv>
  28:	88 23       	and	r24, r24
  2a:	01 f0       	breq	.+0      	; 0x2c <_ZN8SdVolume10cacheFlushEv+0x2c>
  2c:	40 91 00 00 	lds	r20, 0x0000
  30:	50 91 00 00 	lds	r21, 0x0000
  34:	60 91 00 00 	lds	r22, 0x0000
  38:	70 91 00 00 	lds	r23, 0x0000
  3c:	41 15       	cp	r20, r1
  3e:	51 05       	cpc	r21, r1
  40:	61 05       	cpc	r22, r1
  42:	71 05       	cpc	r23, r1
  44:	01 f0       	breq	.+0      	; 0x46 <_ZN8SdVolume10cacheFlushEv+0x46>
  46:	80 91 00 00 	lds	r24, 0x0000
  4a:	90 91 00 00 	lds	r25, 0x0000
  4e:	20 e0       	ldi	r18, 0x00	; 0
  50:	30 e0       	ldi	r19, 0x00	; 0
  52:	0e 94 00 00 	call	0	; 0x0 <_ZN8SdVolume10cacheFlushEv>
  56:	88 23       	and	r24, r24
  58:	01 f0       	breq	.+0      	; 0x5a <_ZN8SdVolume10cacheFlushEv+0x5a>
  5a:	10 92 00 00 	sts	0x0000, r1
  5e:	10 92 00 00 	sts	0x0000, r1
  62:	10 92 00 00 	sts	0x0000, r1
  66:	10 92 00 00 	sts	0x0000, r1
  6a:	10 92 00 00 	sts	0x0000, r1
  6e:	00 c0       	rjmp	.+0      	; 0x70 <_ZN8SdVolume10cacheFlushEv+0x70>
  70:	80 e0       	ldi	r24, 0x00	; 0
  72:	08 95       	ret
  74:	81 e0       	ldi	r24, 0x01	; 1
  76:	08 95       	ret
  78:	80 e0       	ldi	r24, 0x00	; 0
  7a:	08 95       	ret

0000007c <_ZN8SdVolume13cacheRawBlockEmh>:
  7c:	cf 92       	push	r12
  7e:	df 92       	push	r13
  80:	ef 92       	push	r14
  82:	ff 92       	push	r15
  84:	cf 93       	push	r28
  86:	6b 01       	movw	r12, r22
  88:	7c 01       	movw	r14, r24
  8a:	c4 2f       	mov	r28, r20
  8c:	80 91 00 00 	lds	r24, 0x0000
  90:	90 91 00 00 	lds	r25, 0x0000
  94:	a0 91 00 00 	lds	r26, 0x0000
  98:	b0 91 00 00 	lds	r27, 0x0000
  9c:	8c 15       	cp	r24, r12
  9e:	9d 05       	cpc	r25, r13
  a0:	ae 05       	cpc	r26, r14
  a2:	bf 05       	cpc	r27, r15
  a4:	01 f0       	breq	.+0      	; 0xa6 <_ZN8SdVolume13cacheRawBlockEmh+0x2a>
  a6:	0e 94 00 00 	call	0	; 0x0 <_ZN8SdVolume10cacheFlushEv>
  aa:	88 23       	and	r24, r24
  ac:	01 f0       	breq	.+0      	; 0xae <_ZN8SdVolume13cacheRawBlockEmh+0x32>
  ae:	80 91 00 00 	lds	r24, 0x0000
  b2:	90 91 00 00 	lds	r25, 0x0000
  b6:	b7 01       	movw	r22, r14
  b8:	a6 01       	movw	r20, r12
  ba:	20 e0       	ldi	r18, 0x00	; 0
  bc:	30 e0       	ldi	r19, 0x00	; 0
  be:	0e 94 00 00 	call	0	; 0x0 <_ZN8SdVolume10cacheFlushEv>
  c2:	88 23       	and	r24, r24
  c4:	01 f0       	breq	.+0      	; 0xc6 <_ZN8SdVolume13cacheRawBlockEmh+0x4a>
  c6:	c0 92 00 00 	sts	0x0000, r12
  ca:	d0 92 00 00 	sts	0x0000, r13
  ce:	e0 92 00 00 	sts	0x0000, r14
  d2:	f0 92 00 00 	sts	0x0000, r15
  d6:	80 91 00 00 	lds	r24, 0x0000
  da:	8c 2b       	or	r24, r28
  dc:	80 93 00 00 	sts	0x0000, r24
  e0:	81 e0       	ldi	r24, 0x01	; 1
  e2:	00 c0       	rjmp	.+0      	; 0xe4 <_ZN8SdVolume13cacheRawBlockEmh+0x68>
  e4:	80 e0       	ldi	r24, 0x00	; 0
  e6:	cf 91       	pop	r28
  e8:	ff 90       	pop	r15
  ea:	ef 90       	pop	r14
  ec:	df 90       	pop	r13
  ee:	cf 90       	pop	r12
  f0:	08 95       	ret

000000f2 <_ZN8SdVolume14cacheZeroBlockEm>:
  f2:	cf 92       	push	r12
  f4:	df 92       	push	r13
  f6:	ef 92       	push	r14
  f8:	ff 92       	push	r15
  fa:	6b 01       	movw	r12, r22
  fc:	7c 01       	movw	r14, r24
  fe:	0e 94 00 00 	call	0	; 0x0 <_ZN8SdVolume10cacheFlushEv>
 102:	88 23       	and	r24, r24
 104:	01 f0       	breq	.+0      	; 0x106 <_ZN8SdVolume14cacheZeroBlockEm+0x14>
 106:	e0 e0       	ldi	r30, 0x00	; 0
 108:	f0 e0       	ldi	r31, 0x00	; 0
 10a:	80 e0       	ldi	r24, 0x00	; 0
 10c:	90 e0       	ldi	r25, 0x00	; 0
 10e:	11 92       	st	Z+, r1
 110:	01 96       	adiw	r24, 0x01	; 1
 112:	22 e0       	ldi	r18, 0x02	; 2
 114:	80 30       	cpi	r24, 0x00	; 0
 116:	92 07       	cpc	r25, r18
 118:	01 f4       	brne	.+0      	; 0x11a <_ZN8SdVolume14cacheZeroBlockEm+0x28>
 11a:	c0 92 00 00 	sts	0x0000, r12
 11e:	d0 92 00 00 	sts	0x0000, r13
 122:	e0 92 00 00 	sts	0x0000, r14
 126:	f0 92 00 00 	sts	0x0000, r15
 12a:	80 91 00 00 	lds	r24, 0x0000
 12e:	81 60       	ori	r24, 0x01	; 1
 130:	80 93 00 00 	sts	0x0000, r24
 134:	81 e0       	ldi	r24, 0x01	; 1
 136:	00 c0       	rjmp	.+0      	; 0x138 <_ZN8SdVolume14cacheZeroBlockEm+0x46>
 138:	80 e0       	ldi	r24, 0x00	; 0
 13a:	ff 90       	pop	r15
 13c:	ef 90       	pop	r14
 13e:	df 90       	pop	r13
 140:	cf 90       	pop	r12
 142:	08 95       	ret

00000144 <_ZNK8SdVolume6fatGetEmPm>:
 144:	af 92       	push	r10
 146:	bf 92       	push	r11
 148:	cf 92       	push	r12
 14a:	df 92       	push	r13
 14c:	ef 92       	push	r14
 14e:	ff 92       	push	r15
 150:	0f 93       	push	r16
 152:	1f 93       	push	r17
 154:	cf 93       	push	r28
 156:	df 93       	push	r29
 158:	ec 01       	movw	r28, r24
 15a:	6a 01       	movw	r12, r20
 15c:	7b 01       	movw	r14, r22
 15e:	59 01       	movw	r10, r18
 160:	89 85       	ldd	r24, Y+9	; 0x09
 162:	9a 85       	ldd	r25, Y+10	; 0x0a
 164:	ab 85       	ldd	r26, Y+11	; 0x0b
 166:	bc 85       	ldd	r27, Y+12	; 0x0c
 168:	01 96       	adiw	r24, 0x01	; 1
 16a:	a1 1d       	adc	r26, r1
 16c:	b1 1d       	adc	r27, r1
 16e:	84 17       	cp	r24, r20
 170:	95 07       	cpc	r25, r21
 172:	a6 07       	cpc	r26, r22
 174:	b7 07       	cpc	r27, r23
 176:	00 f4       	brcc	.+0      	; 0x178 <_ZNK8SdVolume6fatGetEmPm+0x34>
 178:	00 c0       	rjmp	.+0      	; 0x17a <_ZNK8SdVolume6fatGetEmPm+0x36>
 17a:	4b 89       	ldd	r20, Y+19	; 0x13
 17c:	5c 89       	ldd	r21, Y+20	; 0x14
 17e:	6d 89       	ldd	r22, Y+21	; 0x15
 180:	7e 89       	ldd	r23, Y+22	; 0x16
 182:	8f 89       	ldd	r24, Y+23	; 0x17
 184:	80 31       	cpi	r24, 0x10	; 16
 186:	01 f4       	brne	.+0      	; 0x188 <_ZNK8SdVolume6fatGetEmPm+0x44>
 188:	bb 27       	eor	r27, r27
 18a:	af 2d       	mov	r26, r15
 18c:	9e 2d       	mov	r25, r14
 18e:	8d 2d       	mov	r24, r13
 190:	00 c0       	rjmp	.+0      	; 0x192 <_ZNK8SdVolume6fatGetEmPm+0x4e>
 192:	d7 01       	movw	r26, r14
 194:	c6 01       	movw	r24, r12
 196:	37 e0       	ldi	r19, 0x07	; 7
 198:	b6 95       	lsr	r27
 19a:	a7 95       	ror	r26
 19c:	97 95       	ror	r25
 19e:	87 95       	ror	r24
 1a0:	3a 95       	dec	r19
 1a2:	01 f4       	brne	.+0      	; 0x1a4 <_ZNK8SdVolume6fatGetEmPm+0x60>
 1a4:	8c 01       	movw	r16, r24
 1a6:	9d 01       	movw	r18, r26
 1a8:	04 0f       	add	r16, r20
 1aa:	15 1f       	adc	r17, r21
 1ac:	26 1f       	adc	r18, r22
 1ae:	37 1f       	adc	r19, r23
 1b0:	c9 01       	movw	r24, r18
 1b2:	b8 01       	movw	r22, r16
 1b4:	00 91 00 00 	lds	r16, 0x0000
 1b8:	10 91 00 00 	lds	r17, 0x0000
 1bc:	20 91 00 00 	lds	r18, 0x0000
 1c0:	30 91 00 00 	lds	r19, 0x0000
 1c4:	60 17       	cp	r22, r16
 1c6:	71 07       	cpc	r23, r17
 1c8:	82 07       	cpc	r24, r18
 1ca:	93 07       	cpc	r25, r19
 1cc:	01 f0       	breq	.+0      	; 0x1ce <_ZNK8SdVolume6fatGetEmPm+0x8a>
 1ce:	40 e0       	ldi	r20, 0x00	; 0
 1d0:	0e 94 00 00 	call	0	; 0x0 <_ZN8SdVolume10cacheFlushEv>
 1d4:	88 23       	and	r24, r24
 1d6:	01 f0       	breq	.+0      	; 0x1d8 <_ZNK8SdVolume6fatGetEmPm+0x94>
 1d8:	8f 89       	ldd	r24, Y+23	; 0x17
 1da:	80 31       	cpi	r24, 0x10	; 16
 1dc:	01 f4       	brne	.+0      	; 0x1de <_ZNK8SdVolume6fatGetEmPm+0x9a>
 1de:	8f ef       	ldi	r24, 0xFF	; 255
 1e0:	90 e0       	ldi	r25, 0x00	; 0
 1e2:	a0 e0       	ldi	r26, 0x00	; 0
 1e4:	b0 e0       	ldi	r27, 0x00	; 0
 1e6:	c8 22       	and	r12, r24
 1e8:	d9 22       	and	r13, r25
 1ea:	ea 22       	and	r14, r26
 1ec:	fb 22       	and	r15, r27
 1ee:	f6 01       	movw	r30, r12
 1f0:	ee 0f       	add	r30, r30
 1f2:	ff 1f       	adc	r31, r31
 1f4:	e0 50       	subi	r30, 0x00	; 0
 1f6:	f0 40       	sbci	r31, 0x00	; 0
 1f8:	80 81       	ld	r24, Z
 1fa:	91 81       	ldd	r25, Z+1	; 0x01
 1fc:	a0 e0       	ldi	r26, 0x00	; 0
 1fe:	b0 e0       	ldi	r27, 0x00	; 0
 200:	00 c0       	rjmp	.+0      	; 0x202 <_ZNK8SdVolume6fatGetEmPm+0xbe>
 202:	0f e7       	ldi	r16, 0x7F	; 127
 204:	10 e0       	ldi	r17, 0x00	; 0
 206:	20 e0       	ldi	r18, 0x00	; 0
 208:	30 e0       	ldi	r19, 0x00	; 0
 20a:	c0 22       	and	r12, r16
 20c:	d1 22       	and	r13, r17
 20e:	e2 22       	and	r14, r18
 210:	f3 22       	and	r15, r19
 212:	f6 01       	movw	r30, r12
 214:	ee 0f       	add	r30, r30
 216:	ff 1f       	adc	r31, r31
 218:	ee 0f       	add	r30, r30
 21a:	ff 1f       	adc	r31, r31
 21c:	e0 50       	subi	r30, 0x00	; 0
 21e:	f0 40       	sbci	r31, 0x00	; 0
 220:	80 81       	ld	r24, Z
 222:	91 81       	ldd	r25, Z+1	; 0x01
 224:	a2 81       	ldd	r26, Z+2	; 0x02
 226:	b3 81       	ldd	r27, Z+3	; 0x03
 228:	bf 70       	andi	r27, 0x0F	; 15
 22a:	f5 01       	movw	r30, r10
 22c:	80 83       	st	Z, r24
 22e:	91 83       	std	Z+1, r25	; 0x01
 230:	a2 83       	std	Z+2, r26	; 0x02
 232:	b3 83       	std	Z+3, r27	; 0x03
 234:	81 e0       	ldi	r24, 0x01	; 1
 236:	00 c0       	rjmp	.+0      	; 0x238 <_ZNK8SdVolume6fatGetEmPm+0xf4>
 238:	80 e0       	ldi	r24, 0x00	; 0
 23a:	df 91       	pop	r29
 23c:	cf 91       	pop	r28
 23e:	1f 91       	pop	r17
 240:	0f 91       	pop	r16
 242:	ff 90       	pop	r15
 244:	ef 90       	pop	r14
 246:	df 90       	pop	r13
 248:	cf 90       	pop	r12
 24a:	bf 90       	pop	r11
 24c:	af 90       	pop	r10
 24e:	08 95       	ret

00000250 <_ZNK8SdVolume9chainSizeEmPm>:
 250:	6f 92       	push	r6
 252:	7f 92       	push	r7
 254:	8f 92       	push	r8
 256:	9f 92       	push	r9
 258:	af 92       	push	r10
 25a:	bf 92       	push	r11
 25c:	cf 92       	push	r12
 25e:	df 92       	push	r13
 260:	ef 92       	push	r14
 262:	ff 92       	push	r15
 264:	0f 93       	push	r16
 266:	1f 93       	push	r17
 268:	cf 93       	push	r28
 26a:	df 93       	push	r29
 26c:	00 d0       	rcall	.+0      	; 0x26e <_ZNK8SdVolume9chainSizeEmPm+0x1e>
 26e:	00 d0       	rcall	.+0      	; 0x270 <_ZNK8SdVolume9chainSizeEmPm+0x20>
 270:	cd b7       	in	r28, 0x3d	; 61
 272:	de b7       	in	r29, 0x3e	; 62
 274:	8c 01       	movw	r16, r24
 276:	49 83       	std	Y+1, r20	; 0x01
 278:	5a 83       	std	Y+2, r21	; 0x02
 27a:	6b 83       	std	Y+3, r22	; 0x03
 27c:	7c 83       	std	Y+4, r23	; 0x04
 27e:	39 01       	movw	r6, r18
 280:	cc 24       	eor	r12, r12
 282:	dd 24       	eor	r13, r13
 284:	76 01       	movw	r14, r12
 286:	81 2c       	mov	r8, r1
 288:	f2 e0       	ldi	r31, 0x02	; 2
 28a:	9f 2e       	mov	r9, r31
 28c:	a1 2c       	mov	r10, r1
 28e:	b1 2c       	mov	r11, r1
 290:	49 81       	ldd	r20, Y+1	; 0x01
 292:	5a 81       	ldd	r21, Y+2	; 0x02
 294:	6b 81       	ldd	r22, Y+3	; 0x03
 296:	7c 81       	ldd	r23, Y+4	; 0x04
 298:	c8 01       	movw	r24, r16
 29a:	9e 01       	movw	r18, r28
 29c:	2f 5f       	subi	r18, 0xFF	; 255
 29e:	3f 4f       	sbci	r19, 0xFF	; 255
 2a0:	0e 94 00 00 	call	0	; 0x0 <_ZN8SdVolume10cacheFlushEv>
 2a4:	88 23       	and	r24, r24
 2a6:	01 f0       	breq	.+0      	; 0x2a8 <_ZNK8SdVolume9chainSizeEmPm+0x58>
 2a8:	d5 01       	movw	r26, r10
 2aa:	c4 01       	movw	r24, r8
 2ac:	f8 01       	movw	r30, r16
 2ae:	05 84       	ldd	r0, Z+13	; 0x0d
 2b0:	00 c0       	rjmp	.+0      	; 0x2b2 <_ZNK8SdVolume9chainSizeEmPm+0x62>
 2b2:	88 0f       	add	r24, r24
 2b4:	99 1f       	adc	r25, r25
 2b6:	aa 1f       	adc	r26, r26
 2b8:	bb 1f       	adc	r27, r27
 2ba:	0a 94       	dec	r0
 2bc:	02 f4       	brpl	.+0      	; 0x2be <_ZNK8SdVolume9chainSizeEmPm+0x6e>
 2be:	c8 0e       	add	r12, r24
 2c0:	d9 1e       	adc	r13, r25
 2c2:	ea 1e       	adc	r14, r26
 2c4:	fb 1e       	adc	r15, r27
 2c6:	49 81       	ldd	r20, Y+1	; 0x01
 2c8:	5a 81       	ldd	r21, Y+2	; 0x02
 2ca:	6b 81       	ldd	r22, Y+3	; 0x03
 2cc:	7c 81       	ldd	r23, Y+4	; 0x04
 2ce:	87 89       	ldd	r24, Z+23	; 0x17
 2d0:	80 31       	cpi	r24, 0x10	; 16
 2d2:	01 f4       	brne	.+0      	; 0x2d4 <_ZNK8SdVolume9chainSizeEmPm+0x84>
 2d4:	88 ef       	ldi	r24, 0xF8	; 248
 2d6:	9f ef       	ldi	r25, 0xFF	; 255
 2d8:	a0 e0       	ldi	r26, 0x00	; 0
 2da:	b0 e0       	ldi	r27, 0x00	; 0
 2dc:	00 c0       	rjmp	.+0      	; 0x2de <_ZNK8SdVolume9chainSizeEmPm+0x8e>
 2de:	88 ef       	ldi	r24, 0xF8	; 248
 2e0:	9f ef       	ldi	r25, 0xFF	; 255
 2e2:	af ef       	ldi	r26, 0xFF	; 255
 2e4:	bf e0       	ldi	r27, 0x0F	; 15
 2e6:	48 17       	cp	r20, r24
 2e8:	59 07       	cpc	r21, r25
 2ea:	6a 07       	cpc	r22, r26
 2ec:	7b 07       	cpc	r23, r27
 2ee:	00 f0       	brcs	.+0      	; 0x2f0 <_ZNK8SdVolume9chainSizeEmPm+0xa0>
 2f0:	f3 01       	movw	r30, r6
 2f2:	c0 82       	st	Z, r12
 2f4:	d1 82       	std	Z+1, r13	; 0x01
 2f6:	e2 82       	std	Z+2, r14	; 0x02
 2f8:	f3 82       	std	Z+3, r15	; 0x03
 2fa:	81 e0       	ldi	r24, 0x01	; 1
 2fc:	00 c0       	rjmp	.+0      	; 0x2fe <_ZNK8SdVolume9chainSizeEmPm+0xae>
 2fe:	80 e0       	ldi	r24, 0x00	; 0
 300:	0f 90       	pop	r0
 302:	0f 90       	pop	r0
 304:	0f 90       	pop	r0
 306:	0f 90       	pop	r0
 308:	df 91       	pop	r29
 30a:	cf 91       	pop	r28
 30c:	1f 91       	pop	r17
 30e:	0f 91       	pop	r16
 310:	ff 90       	pop	r15
 312:	ef 90       	pop	r14
 314:	df 90       	pop	r13
 316:	cf 90       	pop	r12
 318:	bf 90       	pop	r11
 31a:	af 90       	pop	r10
 31c:	9f 90       	pop	r9
 31e:	8f 90       	pop	r8
 320:	7f 90       	pop	r7
 322:	6f 90       	pop	r6
 324:	08 95       	ret

00000326 <_ZN8SdVolume6fatPutEmm>:
 326:	4f 92       	push	r4
 328:	5f 92       	push	r5
 32a:	6f 92       	push	r6
 32c:	7f 92       	push	r7
 32e:	8f 92       	push	r8
 330:	9f 92       	push	r9
 332:	af 92       	push	r10
 334:	bf 92       	push	r11
 336:	cf 92       	push	r12
 338:	df 92       	push	r13
 33a:	ef 92       	push	r14
 33c:	ff 92       	push	r15
 33e:	0f 93       	push	r16
 340:	1f 93       	push	r17
 342:	cf 93       	push	r28
 344:	df 93       	push	r29
 346:	ec 01       	movw	r28, r24
 348:	6a 01       	movw	r12, r20
 34a:	7b 01       	movw	r14, r22
 34c:	28 01       	movw	r4, r16
 34e:	39 01       	movw	r6, r18
 350:	42 30       	cpi	r20, 0x02	; 2
 352:	51 05       	cpc	r21, r1
 354:	61 05       	cpc	r22, r1
 356:	71 05       	cpc	r23, r1
 358:	00 f4       	brcc	.+0      	; 0x35a <_ZN8SdVolume6fatPutEmm+0x34>
 35a:	00 c0       	rjmp	.+0      	; 0x35c <_ZN8SdVolume6fatPutEmm+0x36>
 35c:	89 85       	ldd	r24, Y+9	; 0x09
 35e:	9a 85       	ldd	r25, Y+10	; 0x0a
 360:	ab 85       	ldd	r26, Y+11	; 0x0b
 362:	bc 85       	ldd	r27, Y+12	; 0x0c
 364:	01 96       	adiw	r24, 0x01	; 1
 366:	a1 1d       	adc	r26, r1
 368:	b1 1d       	adc	r27, r1
 36a:	84 17       	cp	r24, r20
 36c:	95 07       	cpc	r25, r21
 36e:	a6 07       	cpc	r26, r22
 370:	b7 07       	cpc	r27, r23
 372:	00 f4       	brcc	.+0      	; 0x374 <_ZN8SdVolume6fatPutEmm+0x4e>
 374:	00 c0       	rjmp	.+0      	; 0x376 <_ZN8SdVolume6fatPutEmm+0x50>
 376:	4b 89       	ldd	r20, Y+19	; 0x13
 378:	5c 89       	ldd	r21, Y+20	; 0x14
 37a:	6d 89       	ldd	r22, Y+21	; 0x15
 37c:	7e 89       	ldd	r23, Y+22	; 0x16
 37e:	8f 89       	ldd	r24, Y+23	; 0x17
 380:	80 31       	cpi	r24, 0x10	; 16
 382:	01 f4       	brne	.+0      	; 0x384 <_ZN8SdVolume6fatPutEmm+0x5e>
 384:	bb 27       	eor	r27, r27
 386:	af 2d       	mov	r26, r15
 388:	9e 2d       	mov	r25, r14
 38a:	8d 2d       	mov	r24, r13
 38c:	00 c0       	rjmp	.+0      	; 0x38e <_ZN8SdVolume6fatPutEmm+0x68>
 38e:	d7 01       	movw	r26, r14
 390:	c6 01       	movw	r24, r12
 392:	27 e0       	ldi	r18, 0x07	; 7
 394:	b6 95       	lsr	r27
 396:	a7 95       	ror	r26
 398:	97 95       	ror	r25
 39a:	87 95       	ror	r24
 39c:	2a 95       	dec	r18
 39e:	01 f4       	brne	.+0      	; 0x3a0 <_ZN8SdVolume6fatPutEmm+0x7a>
 3a0:	4c 01       	movw	r8, r24
 3a2:	5d 01       	movw	r10, r26
 3a4:	84 0e       	add	r8, r20
 3a6:	95 1e       	adc	r9, r21
 3a8:	a6 1e       	adc	r10, r22
 3aa:	b7 1e       	adc	r11, r23
 3ac:	80 91 00 00 	lds	r24, 0x0000
 3b0:	90 91 00 00 	lds	r25, 0x0000
 3b4:	a0 91 00 00 	lds	r26, 0x0000
 3b8:	b0 91 00 00 	lds	r27, 0x0000
 3bc:	88 16       	cp	r8, r24
 3be:	99 06       	cpc	r9, r25
 3c0:	aa 06       	cpc	r10, r26
 3c2:	bb 06       	cpc	r11, r27
 3c4:	01 f0       	breq	.+0      	; 0x3c6 <_ZN8SdVolume6fatPutEmm+0xa0>
 3c6:	c5 01       	movw	r24, r10
 3c8:	b4 01       	movw	r22, r8
 3ca:	40 e0       	ldi	r20, 0x00	; 0
 3cc:	0e 94 00 00 	call	0	; 0x0 <_ZN8SdVolume10cacheFlushEv>
 3d0:	88 23       	and	r24, r24
 3d2:	01 f4       	brne	.+0      	; 0x3d4 <_ZN8SdVolume6fatPutEmm+0xae>
 3d4:	00 c0       	rjmp	.+0      	; 0x3d6 <_ZN8SdVolume6fatPutEmm+0xb0>
 3d6:	8f 89       	ldd	r24, Y+23	; 0x17
 3d8:	80 31       	cpi	r24, 0x10	; 16
 3da:	01 f4       	brne	.+0      	; 0x3dc <_ZN8SdVolume6fatPutEmm+0xb6>
 3dc:	8f ef       	ldi	r24, 0xFF	; 255
 3de:	90 e0       	ldi	r25, 0x00	; 0
 3e0:	a0 e0       	ldi	r26, 0x00	; 0
 3e2:	b0 e0       	ldi	r27, 0x00	; 0
 3e4:	c8 22       	and	r12, r24
 3e6:	d9 22       	and	r13, r25
 3e8:	ea 22       	and	r14, r26
 3ea:	fb 22       	and	r15, r27
 3ec:	f6 01       	movw	r30, r12
 3ee:	ee 0f       	add	r30, r30
 3f0:	ff 1f       	adc	r31, r31
 3f2:	e0 50       	subi	r30, 0x00	; 0
 3f4:	f0 40       	sbci	r31, 0x00	; 0
 3f6:	51 82       	std	Z+1, r5	; 0x01
 3f8:	40 82       	st	Z, r4
 3fa:	00 c0       	rjmp	.+0      	; 0x3fc <_ZN8SdVolume6fatPutEmm+0xd6>
 3fc:	8f e7       	ldi	r24, 0x7F	; 127
 3fe:	90 e0       	ldi	r25, 0x00	; 0
 400:	a0 e0       	ldi	r26, 0x00	; 0
 402:	b0 e0       	ldi	r27, 0x00	; 0
 404:	c8 22       	and	r12, r24
 406:	d9 22       	and	r13, r25
 408:	ea 22       	and	r14, r26
 40a:	fb 22       	and	r15, r27
 40c:	f6 01       	movw	r30, r12
 40e:	ee 0f       	add	r30, r30
 410:	ff 1f       	adc	r31, r31
 412:	ee 0f       	add	r30, r30
 414:	ff 1f       	adc	r31, r31
 416:	e0 50       	subi	r30, 0x00	; 0
 418:	f0 40       	sbci	r31, 0x00	; 0
 41a:	40 82       	st	Z, r4
 41c:	51 82       	std	Z+1, r5	; 0x01
 41e:	62 82       	std	Z+2, r6	; 0x02
 420:	73 82       	std	Z+3, r7	; 0x03
 422:	80 91 00 00 	lds	r24, 0x0000
 426:	81 60       	ori	r24, 0x01	; 1
 428:	80 93 00 00 	sts	0x0000, r24
 42c:	8a 89       	ldd	r24, Y+18	; 0x12
 42e:	82 30       	cpi	r24, 0x02	; 2
 430:	00 f0       	brcs	.+0      	; 0x432 <_ZN8SdVolume6fatPutEmm+0x10c>
 432:	8d 81       	ldd	r24, Y+5	; 0x05
 434:	9e 81       	ldd	r25, Y+6	; 0x06
 436:	af 81       	ldd	r26, Y+7	; 0x07
 438:	b8 85       	ldd	r27, Y+8	; 0x08
 43a:	88 0d       	add	r24, r8
 43c:	99 1d       	adc	r25, r9
 43e:	aa 1d       	adc	r26, r10
 440:	bb 1d       	adc	r27, r11
 442:	80 93 00 00 	sts	0x0000, r24
 446:	90 93 00 00 	sts	0x0000, r25
 44a:	a0 93 00 00 	sts	0x0000, r26
 44e:	b0 93 00 00 	sts	0x0000, r27
 452:	81 e0       	ldi	r24, 0x01	; 1
 454:	00 c0       	rjmp	.+0      	; 0x456 <_ZN8SdVolume6fatPutEmm+0x130>
 456:	80 e0       	ldi	r24, 0x00	; 0
 458:	df 91       	pop	r29
 45a:	cf 91       	pop	r28
 45c:	1f 91       	pop	r17
 45e:	0f 91       	pop	r16
 460:	ff 90       	pop	r15
 462:	ef 90       	pop	r14
 464:	df 90       	pop	r13
 466:	cf 90       	pop	r12
 468:	bf 90       	pop	r11
 46a:	af 90       	pop	r10
 46c:	9f 90       	pop	r9
 46e:	8f 90       	pop	r8
 470:	7f 90       	pop	r7
 472:	6f 90       	pop	r6
 474:	5f 90       	pop	r5
 476:	4f 90       	pop	r4
 478:	08 95       	ret

0000047a <_ZN8SdVolume15allocContiguousEmPm>:
 47a:	2f 92       	push	r2
 47c:	3f 92       	push	r3
 47e:	4f 92       	push	r4
 480:	5f 92       	push	r5
 482:	6f 92       	push	r6
 484:	7f 92       	push	r7
 486:	8f 92       	push	r8
 488:	9f 92       	push	r9
 48a:	af 92       	push	r10
 48c:	bf 92       	push	r11
 48e:	cf 92       	push	r12
 490:	df 92       	push	r13
 492:	ef 92       	push	r14
 494:	ff 92       	push	r15
 496:	0f 93       	push	r16
 498:	1f 93       	push	r17
 49a:	cf 93       	push	r28
 49c:	df 93       	push	r29
 49e:	cd b7       	in	r28, 0x3d	; 61
 4a0:	de b7       	in	r29, 0x3e	; 62
 4a2:	2f 97       	sbiw	r28, 0x0f	; 15
 4a4:	0f b6       	in	r0, 0x3f	; 63
 4a6:	f8 94       	cli
 4a8:	de bf       	out	0x3e, r29	; 62
 4aa:	0f be       	out	0x3f, r0	; 63
 4ac:	cd bf       	out	0x3d, r28	; 61
 4ae:	1c 01       	movw	r2, r24
 4b0:	4c 87       	std	Y+12, r20	; 0x0c
 4b2:	5d 87       	std	Y+13, r21	; 0x0d
 4b4:	6e 87       	std	Y+14, r22	; 0x0e
 4b6:	7f 87       	std	Y+15, r23	; 0x0f
 4b8:	3b 87       	std	Y+11, r19	; 0x0b
 4ba:	2a 87       	std	Y+10, r18	; 0x0a
 4bc:	d9 01       	movw	r26, r18
 4be:	4d 90       	ld	r4, X+
 4c0:	5d 90       	ld	r5, X+
 4c2:	6d 90       	ld	r6, X+
 4c4:	7c 90       	ld	r7, X
 4c6:	13 97       	sbiw	r26, 0x03	; 3
 4c8:	41 14       	cp	r4, r1
 4ca:	51 04       	cpc	r5, r1
 4cc:	61 04       	cpc	r6, r1
 4ce:	71 04       	cpc	r7, r1
 4d0:	01 f0       	breq	.+0      	; 0x4d2 <_ZN8SdVolume15allocContiguousEmPm+0x58>
 4d2:	08 94       	sec
 4d4:	41 1c       	adc	r4, r1
 4d6:	51 1c       	adc	r5, r1
 4d8:	61 1c       	adc	r6, r1
 4da:	71 1c       	adc	r7, r1
 4dc:	00 c0       	rjmp	.+0      	; 0x4de <_ZN8SdVolume15allocContiguousEmPm+0x64>
 4de:	fc 01       	movw	r30, r24
 4e0:	40 80       	ld	r4, Z
 4e2:	51 80       	ldd	r5, Z+1	; 0x01
 4e4:	62 80       	ldd	r6, Z+2	; 0x02
 4e6:	73 80       	ldd	r7, Z+3	; 0x03
 4e8:	f1 e0       	ldi	r31, 0x01	; 1
 4ea:	fd 83       	std	Y+5, r31	; 0x05
 4ec:	2c 85       	ldd	r18, Y+12	; 0x0c
 4ee:	3d 85       	ldd	r19, Y+13	; 0x0d
 4f0:	4e 85       	ldd	r20, Y+14	; 0x0e
 4f2:	5f 85       	ldd	r21, Y+15	; 0x0f
 4f4:	21 30       	cpi	r18, 0x01	; 1
 4f6:	31 05       	cpc	r19, r1
 4f8:	41 05       	cpc	r20, r1
 4fa:	51 05       	cpc	r21, r1
 4fc:	01 f0       	breq	.+0      	; 0x4fe <_ZN8SdVolume15allocContiguousEmPm+0x84>
 4fe:	1d 82       	std	Y+5, r1	; 0x05
 500:	d1 01       	movw	r26, r2
 502:	19 96       	adiw	r26, 0x09	; 9
 504:	cd 90       	ld	r12, X+
 506:	dd 90       	ld	r13, X+
 508:	ed 90       	ld	r14, X+
 50a:	fc 90       	ld	r15, X
 50c:	1c 97       	sbiw	r26, 0x0c	; 12
 50e:	08 94       	sec
 510:	c1 1c       	adc	r12, r1
 512:	d1 1c       	adc	r13, r1
 514:	e1 1c       	adc	r14, r1
 516:	f1 1c       	adc	r15, r1
 518:	53 01       	movw	r10, r6
 51a:	42 01       	movw	r8, r4
 51c:	1e 82       	std	Y+6, r1	; 0x06
 51e:	1f 82       	std	Y+7, r1	; 0x07
 520:	18 86       	std	Y+8, r1	; 0x08
 522:	19 86       	std	Y+9, r1	; 0x09
 524:	f1 01       	movw	r30, r2
 526:	81 85       	ldd	r24, Z+9	; 0x09
 528:	92 85       	ldd	r25, Z+10	; 0x0a
 52a:	a3 85       	ldd	r26, Z+11	; 0x0b
 52c:	b4 85       	ldd	r27, Z+12	; 0x0c
 52e:	2e 81       	ldd	r18, Y+6	; 0x06
 530:	3f 81       	ldd	r19, Y+7	; 0x07
 532:	48 85       	ldd	r20, Y+8	; 0x08
 534:	59 85       	ldd	r21, Y+9	; 0x09
 536:	28 17       	cp	r18, r24
 538:	39 07       	cpc	r19, r25
 53a:	4a 07       	cpc	r20, r26
 53c:	5b 07       	cpc	r21, r27
 53e:	00 f0       	brcs	.+0      	; 0x540 <_ZN8SdVolume15allocContiguousEmPm+0xc6>
 540:	00 c0       	rjmp	.+0      	; 0x542 <_ZN8SdVolume15allocContiguousEmPm+0xc8>
 542:	c8 14       	cp	r12, r8
 544:	d9 04       	cpc	r13, r9
 546:	ea 04       	cpc	r14, r10
 548:	fb 04       	cpc	r15, r11
 54a:	00 f4       	brcc	.+0      	; 0x54c <_ZN8SdVolume15allocContiguousEmPm+0xd2>
 54c:	42 e0       	ldi	r20, 0x02	; 2
 54e:	84 2e       	mov	r8, r20
 550:	91 2c       	mov	r9, r1
 552:	a1 2c       	mov	r10, r1
 554:	b1 2c       	mov	r11, r1
 556:	52 e0       	ldi	r21, 0x02	; 2
 558:	45 2e       	mov	r4, r21
 55a:	51 2c       	mov	r5, r1
 55c:	61 2c       	mov	r6, r1
 55e:	71 2c       	mov	r7, r1
 560:	c1 01       	movw	r24, r2
 562:	b5 01       	movw	r22, r10
 564:	a4 01       	movw	r20, r8
 566:	9e 01       	movw	r18, r28
 568:	2f 5f       	subi	r18, 0xFF	; 255
 56a:	3f 4f       	sbci	r19, 0xFF	; 255
 56c:	0e 94 00 00 	call	0	; 0x0 <_ZN8SdVolume10cacheFlushEv>
 570:	88 23       	and	r24, r24
 572:	01 f4       	brne	.+0      	; 0x574 <_ZN8SdVolume15allocContiguousEmPm+0xfa>
 574:	00 c0       	rjmp	.+0      	; 0x576 <_ZN8SdVolume15allocContiguousEmPm+0xfc>
 576:	49 81       	ldd	r20, Y+1	; 0x01
 578:	5a 81       	ldd	r21, Y+2	; 0x02
 57a:	6b 81       	ldd	r22, Y+3	; 0x03
 57c:	7c 81       	ldd	r23, Y+4	; 0x04
 57e:	d5 01       	movw	r26, r10
 580:	c4 01       	movw	r24, r8
 582:	01 96       	adiw	r24, 0x01	; 1
 584:	a1 1d       	adc	r26, r1
 586:	b1 1d       	adc	r27, r1
 588:	41 15       	cp	r20, r1
 58a:	51 05       	cpc	r21, r1
 58c:	61 05       	cpc	r22, r1
 58e:	71 05       	cpc	r23, r1
 590:	01 f0       	breq	.+0      	; 0x592 <_ZN8SdVolume15allocContiguousEmPm+0x118>
 592:	2c 01       	movw	r4, r24
 594:	3d 01       	movw	r6, r26
 596:	00 c0       	rjmp	.+0      	; 0x598 <_ZN8SdVolume15allocContiguousEmPm+0x11e>
 598:	84 19       	sub	r24, r4
 59a:	95 09       	sbc	r25, r5
 59c:	a6 09       	sbc	r26, r6
 59e:	b7 09       	sbc	r27, r7
 5a0:	2c 85       	ldd	r18, Y+12	; 0x0c
 5a2:	3d 85       	ldd	r19, Y+13	; 0x0d
 5a4:	4e 85       	ldd	r20, Y+14	; 0x0e
 5a6:	5f 85       	ldd	r21, Y+15	; 0x0f
 5a8:	82 17       	cp	r24, r18
 5aa:	93 07       	cpc	r25, r19
 5ac:	a4 07       	cpc	r26, r20
 5ae:	b5 07       	cpc	r27, r21
 5b0:	01 f0       	breq	.+0      	; 0x5b2 <_ZN8SdVolume15allocContiguousEmPm+0x138>
 5b2:	8e 81       	ldd	r24, Y+6	; 0x06
 5b4:	9f 81       	ldd	r25, Y+7	; 0x07
 5b6:	a8 85       	ldd	r26, Y+8	; 0x08
 5b8:	b9 85       	ldd	r27, Y+9	; 0x09
 5ba:	01 96       	adiw	r24, 0x01	; 1
 5bc:	a1 1d       	adc	r26, r1
 5be:	b1 1d       	adc	r27, r1
 5c0:	8e 83       	std	Y+6, r24	; 0x06
 5c2:	9f 83       	std	Y+7, r25	; 0x07
 5c4:	a8 87       	std	Y+8, r26	; 0x08
 5c6:	b9 87       	std	Y+9, r27	; 0x09
 5c8:	08 94       	sec
 5ca:	81 1c       	adc	r8, r1
 5cc:	91 1c       	adc	r9, r1
 5ce:	a1 1c       	adc	r10, r1
 5d0:	b1 1c       	adc	r11, r1
 5d2:	00 c0       	rjmp	.+0      	; 0x5d4 <_ZN8SdVolume15allocContiguousEmPm+0x15a>
 5d4:	c1 01       	movw	r24, r2
 5d6:	a4 01       	movw	r20, r8
 5d8:	b5 01       	movw	r22, r10
 5da:	0f ef       	ldi	r16, 0xFF	; 255
 5dc:	1f ef       	ldi	r17, 0xFF	; 255
 5de:	2f ef       	ldi	r18, 0xFF	; 255
 5e0:	3f e0       	ldi	r19, 0x0F	; 15
 5e2:	0e 94 00 00 	call	0	; 0x0 <_ZN8SdVolume10cacheFlushEv>
 5e6:	88 23       	and	r24, r24
 5e8:	01 f4       	brne	.+0      	; 0x5ea <_ZN8SdVolume15allocContiguousEmPm+0x170>
 5ea:	00 c0       	rjmp	.+0      	; 0x5ec <_ZN8SdVolume15allocContiguousEmPm+0x172>
 5ec:	68 01       	movw	r12, r16
 5ee:	79 01       	movw	r14, r18
 5f0:	08 94       	sec
 5f2:	c1 08       	sbc	r12, r1
 5f4:	d1 08       	sbc	r13, r1
 5f6:	e1 08       	sbc	r14, r1
 5f8:	f1 08       	sbc	r15, r1
 5fa:	c1 01       	movw	r24, r2
 5fc:	b7 01       	movw	r22, r14
 5fe:	a6 01       	movw	r20, r12
 600:	0e 94 00 00 	call	0	; 0x0 <_ZN8SdVolume10cacheFlushEv>
 604:	88 23       	and	r24, r24
 606:	01 f0       	breq	.+0      	; 0x608 <_ZN8SdVolume15allocContiguousEmPm+0x18e>
 608:	97 01       	movw	r18, r14
 60a:	86 01       	movw	r16, r12
 60c:	00 c0       	rjmp	.+0      	; 0x60e <_ZN8SdVolume15allocContiguousEmPm+0x194>
 60e:	95 01       	movw	r18, r10
 610:	84 01       	movw	r16, r8
 612:	40 16       	cp	r4, r16
 614:	51 06       	cpc	r5, r17
 616:	62 06       	cpc	r6, r18
 618:	73 06       	cpc	r7, r19
 61a:	00 f0       	brcs	.+0      	; 0x61c <_ZN8SdVolume15allocContiguousEmPm+0x1a2>
 61c:	aa 85       	ldd	r26, Y+10	; 0x0a
 61e:	bb 85       	ldd	r27, Y+11	; 0x0b
 620:	4d 91       	ld	r20, X+
 622:	5d 91       	ld	r21, X+
 624:	6d 91       	ld	r22, X+
 626:	7c 91       	ld	r23, X
 628:	13 97       	sbiw	r26, 0x03	; 3
 62a:	41 15       	cp	r20, r1
 62c:	51 05       	cpc	r21, r1
 62e:	61 05       	cpc	r22, r1
 630:	71 05       	cpc	r23, r1
 632:	01 f0       	breq	.+0      	; 0x634 <_ZN8SdVolume15allocContiguousEmPm+0x1ba>
 634:	c1 01       	movw	r24, r2
 636:	93 01       	movw	r18, r6
 638:	82 01       	movw	r16, r4
 63a:	0e 94 00 00 	call	0	; 0x0 <_ZN8SdVolume10cacheFlushEv>
 63e:	88 23       	and	r24, r24
 640:	01 f0       	breq	.+0      	; 0x642 <_ZN8SdVolume15allocContiguousEmPm+0x1c8>
 642:	ea 85       	ldd	r30, Y+10	; 0x0a
 644:	fb 85       	ldd	r31, Y+11	; 0x0b
 646:	40 82       	st	Z, r4
 648:	51 82       	std	Z+1, r5	; 0x01
 64a:	62 82       	std	Z+2, r6	; 0x02
 64c:	73 82       	std	Z+3, r7	; 0x03
 64e:	fd 81       	ldd	r31, Y+5	; 0x05
 650:	ff 23       	and	r31, r31
 652:	01 f0       	breq	.+0      	; 0x654 <_ZN8SdVolume15allocContiguousEmPm+0x1da>
 654:	08 94       	sec
 656:	41 1c       	adc	r4, r1
 658:	51 1c       	adc	r5, r1
 65a:	61 1c       	adc	r6, r1
 65c:	71 1c       	adc	r7, r1
 65e:	d1 01       	movw	r26, r2
 660:	4d 92       	st	X+, r4
 662:	5d 92       	st	X+, r5
 664:	6d 92       	st	X+, r6
 666:	7c 92       	st	X, r7
 668:	13 97       	sbiw	r26, 0x03	; 3
 66a:	00 c0       	rjmp	.+0      	; 0x66c <_ZN8SdVolume15allocContiguousEmPm+0x1f2>
 66c:	80 e0       	ldi	r24, 0x00	; 0
 66e:	00 c0       	rjmp	.+0      	; 0x670 <_ZN8SdVolume15allocContiguousEmPm+0x1f6>
 670:	81 e0       	ldi	r24, 0x01	; 1
 672:	2f 96       	adiw	r28, 0x0f	; 15
 674:	0f b6       	in	r0, 0x3f	; 63
 676:	f8 94       	cli
 678:	de bf       	out	0x3e, r29	; 62
 67a:	0f be       	out	0x3f, r0	; 63
 67c:	cd bf       	out	0x3d, r28	; 61
 67e:	df 91       	pop	r29
 680:	cf 91       	pop	r28
 682:	1f 91       	pop	r17
 684:	0f 91       	pop	r16
 686:	ff 90       	pop	r15
 688:	ef 90       	pop	r14
 68a:	df 90       	pop	r13
 68c:	cf 90       	pop	r12
 68e:	bf 90       	pop	r11
 690:	af 90       	pop	r10
 692:	9f 90       	pop	r9
 694:	8f 90       	pop	r8
 696:	7f 90       	pop	r7
 698:	6f 90       	pop	r6
 69a:	5f 90       	pop	r5
 69c:	4f 90       	pop	r4
 69e:	3f 90       	pop	r3
 6a0:	2f 90       	pop	r2
 6a2:	08 95       	ret

000006a4 <_ZN8SdVolume9freeChainEm>:
 6a4:	af 92       	push	r10
 6a6:	bf 92       	push	r11
 6a8:	cf 92       	push	r12
 6aa:	df 92       	push	r13
 6ac:	ef 92       	push	r14
 6ae:	ff 92       	push	r15
 6b0:	0f 93       	push	r16
 6b2:	1f 93       	push	r17
 6b4:	cf 93       	push	r28
 6b6:	df 93       	push	r29
 6b8:	00 d0       	rcall	.+0      	; 0x6ba <_ZN8SdVolume9freeChainEm+0x16>
 6ba:	00 d0       	rcall	.+0      	; 0x6bc <_ZN8SdVolume9freeChainEm+0x18>
 6bc:	cd b7       	in	r28, 0x3d	; 61
 6be:	de b7       	in	r29, 0x3e	; 62
 6c0:	5c 01       	movw	r10, r24
 6c2:	6a 01       	movw	r12, r20
 6c4:	7b 01       	movw	r14, r22
 6c6:	82 e0       	ldi	r24, 0x02	; 2
 6c8:	90 e0       	ldi	r25, 0x00	; 0
 6ca:	a0 e0       	ldi	r26, 0x00	; 0
 6cc:	b0 e0       	ldi	r27, 0x00	; 0
 6ce:	f5 01       	movw	r30, r10
 6d0:	80 83       	st	Z, r24
 6d2:	91 83       	std	Z+1, r25	; 0x01
 6d4:	a2 83       	std	Z+2, r26	; 0x02
 6d6:	b3 83       	std	Z+3, r27	; 0x03
 6d8:	c5 01       	movw	r24, r10
 6da:	b7 01       	movw	r22, r14
 6dc:	a6 01       	movw	r20, r12
 6de:	9e 01       	movw	r18, r28
 6e0:	2f 5f       	subi	r18, 0xFF	; 255
 6e2:	3f 4f       	sbci	r19, 0xFF	; 255
 6e4:	0e 94 00 00 	call	0	; 0x0 <_ZN8SdVolume10cacheFlushEv>
 6e8:	88 23       	and	r24, r24
 6ea:	01 f0       	breq	.+0      	; 0x6ec <_ZN8SdVolume9freeChainEm+0x48>
 6ec:	c5 01       	movw	r24, r10
 6ee:	b7 01       	movw	r22, r14
 6f0:	a6 01       	movw	r20, r12
 6f2:	00 e0       	ldi	r16, 0x00	; 0
 6f4:	10 e0       	ldi	r17, 0x00	; 0
 6f6:	20 e0       	ldi	r18, 0x00	; 0
 6f8:	30 e0       	ldi	r19, 0x00	; 0
 6fa:	0e 94 00 00 	call	0	; 0x0 <_ZN8SdVolume10cacheFlushEv>
 6fe:	88 23       	and	r24, r24
 700:	01 f0       	breq	.+0      	; 0x702 <_ZN8SdVolume9freeChainEm+0x5e>
 702:	c9 80       	ldd	r12, Y+1	; 0x01
 704:	da 80       	ldd	r13, Y+2	; 0x02
 706:	eb 80       	ldd	r14, Y+3	; 0x03
 708:	fc 80       	ldd	r15, Y+4	; 0x04
 70a:	f5 01       	movw	r30, r10
 70c:	87 89       	ldd	r24, Z+23	; 0x17
 70e:	80 31       	cpi	r24, 0x10	; 16
 710:	01 f4       	brne	.+0      	; 0x712 <_ZN8SdVolume9freeChainEm+0x6e>
 712:	88 ef       	ldi	r24, 0xF8	; 248
 714:	9f ef       	ldi	r25, 0xFF	; 255
 716:	a0 e0       	ldi	r26, 0x00	; 0
 718:	b0 e0       	ldi	r27, 0x00	; 0
 71a:	00 c0       	rjmp	.+0      	; 0x71c <_ZN8SdVolume9freeChainEm+0x78>
 71c:	88 ef       	ldi	r24, 0xF8	; 248
 71e:	9f ef       	ldi	r25, 0xFF	; 255
 720:	af ef       	ldi	r26, 0xFF	; 255
 722:	bf e0       	ldi	r27, 0x0F	; 15
 724:	c8 16       	cp	r12, r24
 726:	d9 06       	cpc	r13, r25
 728:	ea 06       	cpc	r14, r26
 72a:	fb 06       	cpc	r15, r27
 72c:	00 f0       	brcs	.+0      	; 0x72e <_ZN8SdVolume9freeChainEm+0x8a>
 72e:	81 e0       	ldi	r24, 0x01	; 1
 730:	00 c0       	rjmp	.+0      	; 0x732 <_ZN8SdVolume9freeChainEm+0x8e>
 732:	80 e0       	ldi	r24, 0x00	; 0
 734:	0f 90       	pop	r0
 736:	0f 90       	pop	r0
 738:	0f 90       	pop	r0
 73a:	0f 90       	pop	r0
 73c:	df 91       	pop	r29
 73e:	cf 91       	pop	r28
 740:	1f 91       	pop	r17
 742:	0f 91       	pop	r16
 744:	ff 90       	pop	r15
 746:	ef 90       	pop	r14
 748:	df 90       	pop	r13
 74a:	cf 90       	pop	r12
 74c:	bf 90       	pop	r11
 74e:	af 90       	pop	r10
 750:	08 95       	ret

00000752 <_ZN8SdVolume4initEP7Sd2Cardh>:
 752:	6f 92       	push	r6
 754:	7f 92       	push	r7
 756:	8f 92       	push	r8
 758:	9f 92       	push	r9
 75a:	af 92       	push	r10
 75c:	bf 92       	push	r11
 75e:	cf 92       	push	r12
 760:	df 92       	push	r13
 762:	ef 92       	push	r14
 764:	ff 92       	push	r15
 766:	1f 93       	push	r17
 768:	cf 93       	push	r28
 76a:	df 93       	push	r29
 76c:	ec 01       	movw	r28, r24
 76e:	14 2f       	mov	r17, r20
 770:	70 93 00 00 	sts	0x0000, r23
 774:	60 93 00 00 	sts	0x0000, r22
 778:	44 23       	and	r20, r20
 77a:	01 f0       	breq	.+0      	; 0x77c <_ZN8SdVolume4initEP7Sd2Cardh+0x2a>
 77c:	45 30       	cpi	r20, 0x05	; 5
 77e:	00 f0       	brcs	.+0      	; 0x780 <_ZN8SdVolume4initEP7Sd2Cardh+0x2e>
 780:	00 c0       	rjmp	.+0      	; 0x782 <_ZN8SdVolume4initEP7Sd2Cardh+0x30>
 782:	60 e0       	ldi	r22, 0x00	; 0
 784:	70 e0       	ldi	r23, 0x00	; 0
 786:	80 e0       	ldi	r24, 0x00	; 0
 788:	90 e0       	ldi	r25, 0x00	; 0
 78a:	40 e0       	ldi	r20, 0x00	; 0
 78c:	0e 94 00 00 	call	0	; 0x0 <_ZN8SdVolume10cacheFlushEv>
 790:	88 23       	and	r24, r24
 792:	01 f4       	brne	.+0      	; 0x794 <_ZN8SdVolume4initEP7Sd2Cardh+0x42>
 794:	00 c0       	rjmp	.+0      	; 0x796 <_ZN8SdVolume4initEP7Sd2Cardh+0x44>
 796:	e1 2f       	mov	r30, r17
 798:	f0 e0       	ldi	r31, 0x00	; 0
 79a:	a4 e0       	ldi	r26, 0x04	; 4
 79c:	ee 0f       	add	r30, r30
 79e:	ff 1f       	adc	r31, r31
 7a0:	aa 95       	dec	r26
 7a2:	01 f4       	brne	.+0      	; 0x7a4 <_ZN8SdVolume4initEP7Sd2Cardh+0x52>
 7a4:	e0 50       	subi	r30, 0x00	; 0
 7a6:	f0 40       	sbci	r31, 0x00	; 0
 7a8:	80 81       	ld	r24, Z
 7aa:	90 e0       	ldi	r25, 0x00	; 0
 7ac:	8f 77       	andi	r24, 0x7F	; 127
 7ae:	90 70       	andi	r25, 0x00	; 0
 7b0:	00 97       	sbiw	r24, 0x00	; 0
 7b2:	01 f0       	breq	.+0      	; 0x7b4 <_ZN8SdVolume4initEP7Sd2Cardh+0x62>
 7b4:	00 c0       	rjmp	.+0      	; 0x7b6 <_ZN8SdVolume4initEP7Sd2Cardh+0x64>
 7b6:	84 85       	ldd	r24, Z+12	; 0x0c
 7b8:	95 85       	ldd	r25, Z+13	; 0x0d
 7ba:	a6 85       	ldd	r26, Z+14	; 0x0e
 7bc:	b7 85       	ldd	r27, Z+15	; 0x0f
 7be:	84 36       	cpi	r24, 0x64	; 100
 7c0:	91 05       	cpc	r25, r1
 7c2:	a1 05       	cpc	r26, r1
 7c4:	b1 05       	cpc	r27, r1
 7c6:	00 f4       	brcc	.+0      	; 0x7c8 <_ZN8SdVolume4initEP7Sd2Cardh+0x76>
 7c8:	00 c0       	rjmp	.+0      	; 0x7ca <_ZN8SdVolume4initEP7Sd2Cardh+0x78>
 7ca:	80 84       	ldd	r8, Z+8	; 0x08
 7cc:	91 84       	ldd	r9, Z+9	; 0x09
 7ce:	a2 84       	ldd	r10, Z+10	; 0x0a
 7d0:	b3 84       	ldd	r11, Z+11	; 0x0b
 7d2:	81 14       	cp	r8, r1
 7d4:	91 04       	cpc	r9, r1
 7d6:	a1 04       	cpc	r10, r1
 7d8:	b1 04       	cpc	r11, r1
 7da:	01 f4       	brne	.+0      	; 0x7dc <_ZN8SdVolume4initEP7Sd2Cardh+0x8a>
 7dc:	00 c0       	rjmp	.+0      	; 0x7de <_ZN8SdVolume4initEP7Sd2Cardh+0x8c>
 7de:	88 24       	eor	r8, r8
 7e0:	99 24       	eor	r9, r9
 7e2:	54 01       	movw	r10, r8
 7e4:	c5 01       	movw	r24, r10
 7e6:	b4 01       	movw	r22, r8
 7e8:	40 e0       	ldi	r20, 0x00	; 0
 7ea:	0e 94 00 00 	call	0	; 0x0 <_ZN8SdVolume10cacheFlushEv>
 7ee:	88 23       	and	r24, r24
 7f0:	01 f4       	brne	.+0      	; 0x7f2 <_ZN8SdVolume4initEP7Sd2Cardh+0xa0>
 7f2:	00 c0       	rjmp	.+0      	; 0x7f4 <_ZN8SdVolume4initEP7Sd2Cardh+0xa2>
 7f4:	80 91 00 00 	lds	r24, 0x0000
 7f8:	90 91 00 00 	lds	r25, 0x0000
 7fc:	22 e0       	ldi	r18, 0x02	; 2
 7fe:	80 30       	cpi	r24, 0x00	; 0
 800:	92 07       	cpc	r25, r18
 802:	01 f0       	breq	.+0      	; 0x804 <_ZN8SdVolume4initEP7Sd2Cardh+0xb2>
 804:	00 c0       	rjmp	.+0      	; 0x806 <_ZN8SdVolume4initEP7Sd2Cardh+0xb4>
 806:	30 91 00 00 	lds	r19, 0x0000
 80a:	33 23       	and	r19, r19
 80c:	01 f4       	brne	.+0      	; 0x80e <_ZN8SdVolume4initEP7Sd2Cardh+0xbc>
 80e:	00 c0       	rjmp	.+0      	; 0x810 <_ZN8SdVolume4initEP7Sd2Cardh+0xbe>
 810:	80 91 00 00 	lds	r24, 0x0000
 814:	90 91 00 00 	lds	r25, 0x0000
 818:	00 97       	sbiw	r24, 0x00	; 0
 81a:	01 f4       	brne	.+0      	; 0x81c <_ZN8SdVolume4initEP7Sd2Cardh+0xca>
 81c:	00 c0       	rjmp	.+0      	; 0x81e <_ZN8SdVolume4initEP7Sd2Cardh+0xcc>
 81e:	20 91 00 00 	lds	r18, 0x0000
 822:	22 23       	and	r18, r18
 824:	01 f4       	brne	.+0      	; 0x826 <_ZN8SdVolume4initEP7Sd2Cardh+0xd4>
 826:	00 c0       	rjmp	.+0      	; 0x828 <_ZN8SdVolume4initEP7Sd2Cardh+0xd6>
 828:	3a 8b       	std	Y+18, r19	; 0x12
 82a:	2c 83       	std	Y+4, r18	; 0x04
 82c:	1d 86       	std	Y+13, r1	; 0x0d
 82e:	30 e0       	ldi	r19, 0x00	; 0
 830:	41 e0       	ldi	r20, 0x01	; 1
 832:	50 e0       	ldi	r21, 0x00	; 0
 834:	00 c0       	rjmp	.+0      	; 0x836 <_ZN8SdVolume4initEP7Sd2Cardh+0xe4>
 836:	81 2f       	mov	r24, r17
 838:	8f 5f       	subi	r24, 0xFF	; 255
 83a:	8d 87       	std	Y+13, r24	; 0x0d
 83c:	18 30       	cpi	r17, 0x08	; 8
 83e:	00 f0       	brcs	.+0      	; 0x840 <_ZN8SdVolume4initEP7Sd2Cardh+0xee>
 840:	00 c0       	rjmp	.+0      	; 0x842 <_ZN8SdVolume4initEP7Sd2Cardh+0xf0>
 842:	1d 85       	ldd	r17, Y+13	; 0x0d
 844:	ca 01       	movw	r24, r20
 846:	01 2e       	mov	r0, r17
 848:	00 c0       	rjmp	.+0      	; 0x84a <_ZN8SdVolume4initEP7Sd2Cardh+0xf8>
 84a:	88 0f       	add	r24, r24
 84c:	99 1f       	adc	r25, r25
 84e:	0a 94       	dec	r0
 850:	02 f4       	brpl	.+0      	; 0x852 <_ZN8SdVolume4initEP7Sd2Cardh+0x100>
 852:	28 17       	cp	r18, r24
 854:	39 07       	cpc	r19, r25
 856:	01 f4       	brne	.+0      	; 0x858 <_ZN8SdVolume4initEP7Sd2Cardh+0x106>
 858:	80 91 00 00 	lds	r24, 0x0000
 85c:	90 91 00 00 	lds	r25, 0x0000
 860:	00 97       	sbiw	r24, 0x00	; 0
 862:	01 f0       	breq	.+0      	; 0x864 <_ZN8SdVolume4initEP7Sd2Cardh+0x112>
 864:	a0 e0       	ldi	r26, 0x00	; 0
 866:	b0 e0       	ldi	r27, 0x00	; 0
 868:	00 c0       	rjmp	.+0      	; 0x86a <_ZN8SdVolume4initEP7Sd2Cardh+0x118>
 86a:	80 91 00 00 	lds	r24, 0x0000
 86e:	90 91 00 00 	lds	r25, 0x0000
 872:	a0 91 00 00 	lds	r26, 0x0000
 876:	b0 91 00 00 	lds	r27, 0x0000
 87a:	8d 83       	std	Y+5, r24	; 0x05
 87c:	9e 83       	std	Y+6, r25	; 0x06
 87e:	af 83       	std	Y+7, r26	; 0x07
 880:	b8 87       	std	Y+8, r27	; 0x08
 882:	c0 90 00 00 	lds	r12, 0x0000
 886:	d0 90 00 00 	lds	r13, 0x0000
 88a:	ee 24       	eor	r14, r14
 88c:	ff 24       	eor	r15, r15
 88e:	c8 0c       	add	r12, r8
 890:	d9 1c       	adc	r13, r9
 892:	ea 1c       	adc	r14, r10
 894:	fb 1c       	adc	r15, r11
 896:	cb 8a       	std	Y+19, r12	; 0x13
 898:	dc 8a       	std	Y+20, r13	; 0x14
 89a:	ed 8a       	std	Y+21, r14	; 0x15
 89c:	fe 8a       	std	Y+22, r15	; 0x16
 89e:	60 90 00 00 	lds	r6, 0x0000
 8a2:	70 90 00 00 	lds	r7, 0x0000
 8a6:	79 8e       	std	Y+25, r7	; 0x19
 8a8:	68 8e       	std	Y+24, r6	; 0x18
 8aa:	20 91 00 00 	lds	r18, 0x0000
 8ae:	30 e0       	ldi	r19, 0x00	; 0
 8b0:	40 e0       	ldi	r20, 0x00	; 0
 8b2:	50 e0       	ldi	r21, 0x00	; 0
 8b4:	bc 01       	movw	r22, r24
 8b6:	cd 01       	movw	r24, r26
 8b8:	0e 94 00 00 	call	0	; 0x0 <_ZN8SdVolume10cacheFlushEv>
 8bc:	dc 01       	movw	r26, r24
 8be:	cb 01       	movw	r24, r22
 8c0:	8c 0d       	add	r24, r12
 8c2:	9d 1d       	adc	r25, r13
 8c4:	ae 1d       	adc	r26, r14
 8c6:	bf 1d       	adc	r27, r15
 8c8:	8a 8f       	std	Y+26, r24	; 0x1a
 8ca:	9b 8f       	std	Y+27, r25	; 0x1b
 8cc:	ac 8f       	std	Y+28, r26	; 0x1c
 8ce:	bd 8f       	std	Y+29, r27	; 0x1d
 8d0:	a3 01       	movw	r20, r6
 8d2:	e5 e0       	ldi	r30, 0x05	; 5
 8d4:	44 0f       	add	r20, r20
 8d6:	55 1f       	adc	r21, r21
 8d8:	ea 95       	dec	r30
 8da:	01 f4       	brne	.+0      	; 0x8dc <_ZN8SdVolume4initEP7Sd2Cardh+0x18a>
 8dc:	41 50       	subi	r20, 0x01	; 1
 8de:	5e 4f       	sbci	r21, 0xFE	; 254
 8e0:	45 2f       	mov	r20, r21
 8e2:	55 27       	eor	r21, r21
 8e4:	46 95       	lsr	r20
 8e6:	60 e0       	ldi	r22, 0x00	; 0
 8e8:	70 e0       	ldi	r23, 0x00	; 0
 8ea:	48 0f       	add	r20, r24
 8ec:	59 1f       	adc	r21, r25
 8ee:	6a 1f       	adc	r22, r26
 8f0:	7b 1f       	adc	r23, r27
 8f2:	4e 87       	std	Y+14, r20	; 0x0e
 8f4:	5f 87       	std	Y+15, r21	; 0x0f
 8f6:	68 8b       	std	Y+16, r22	; 0x10
 8f8:	79 8b       	std	Y+17, r23	; 0x11
 8fa:	80 91 00 00 	lds	r24, 0x0000
 8fe:	90 91 00 00 	lds	r25, 0x0000
 902:	00 97       	sbiw	r24, 0x00	; 0
 904:	01 f0       	breq	.+0      	; 0x906 <_ZN8SdVolume4initEP7Sd2Cardh+0x1b4>
 906:	a0 e0       	ldi	r26, 0x00	; 0
 908:	b0 e0       	ldi	r27, 0x00	; 0
 90a:	00 c0       	rjmp	.+0      	; 0x90c <_ZN8SdVolume4initEP7Sd2Cardh+0x1ba>
 90c:	80 91 00 00 	lds	r24, 0x0000
 910:	90 91 00 00 	lds	r25, 0x0000
 914:	a0 91 00 00 	lds	r26, 0x0000
 918:	b0 91 00 00 	lds	r27, 0x0000
 91c:	84 1a       	sub	r8, r20
 91e:	95 0a       	sbc	r9, r21
 920:	a6 0a       	sbc	r10, r22
 922:	b7 0a       	sbc	r11, r23
 924:	88 0e       	add	r8, r24
 926:	99 1e       	adc	r9, r25
 928:	aa 1e       	adc	r10, r26
 92a:	bb 1e       	adc	r11, r27
 92c:	00 c0       	rjmp	.+0      	; 0x92e <_ZN8SdVolume4initEP7Sd2Cardh+0x1dc>
 92e:	b6 94       	lsr	r11
 930:	a7 94       	ror	r10
 932:	97 94       	ror	r9
 934:	87 94       	ror	r8
 936:	1a 95       	dec	r17
 938:	02 f4       	brpl	.+0      	; 0x93a <_ZN8SdVolume4initEP7Sd2Cardh+0x1e8>
 93a:	89 86       	std	Y+9, r8	; 0x09
 93c:	9a 86       	std	Y+10, r9	; 0x0a
 93e:	ab 86       	std	Y+11, r10	; 0x0b
 940:	bc 86       	std	Y+12, r11	; 0x0c
 942:	85 ef       	ldi	r24, 0xF5	; 245
 944:	88 16       	cp	r8, r24
 946:	8f e0       	ldi	r24, 0x0F	; 15
 948:	98 06       	cpc	r9, r24
 94a:	80 e0       	ldi	r24, 0x00	; 0
 94c:	a8 06       	cpc	r10, r24
 94e:	80 e0       	ldi	r24, 0x00	; 0
 950:	b8 06       	cpc	r11, r24
 952:	00 f4       	brcc	.+0      	; 0x954 <_ZN8SdVolume4initEP7Sd2Cardh+0x202>
 954:	8c e0       	ldi	r24, 0x0C	; 12
 956:	00 c0       	rjmp	.+0      	; 0x958 <_ZN8SdVolume4initEP7Sd2Cardh+0x206>
 958:	25 ef       	ldi	r18, 0xF5	; 245
 95a:	82 16       	cp	r8, r18
 95c:	2f ef       	ldi	r18, 0xFF	; 255
 95e:	92 06       	cpc	r9, r18
 960:	20 e0       	ldi	r18, 0x00	; 0
 962:	a2 06       	cpc	r10, r18
 964:	20 e0       	ldi	r18, 0x00	; 0
 966:	b2 06       	cpc	r11, r18
 968:	00 f4       	brcc	.+0      	; 0x96a <_ZN8SdVolume4initEP7Sd2Cardh+0x218>
 96a:	80 e1       	ldi	r24, 0x10	; 16
 96c:	00 c0       	rjmp	.+0      	; 0x96e <_ZN8SdVolume4initEP7Sd2Cardh+0x21c>
 96e:	80 91 00 00 	lds	r24, 0x0000
 972:	90 91 00 00 	lds	r25, 0x0000
 976:	a0 91 00 00 	lds	r26, 0x0000
 97a:	b0 91 00 00 	lds	r27, 0x0000
 97e:	8a 8f       	std	Y+26, r24	; 0x1a
 980:	9b 8f       	std	Y+27, r25	; 0x1b
 982:	ac 8f       	std	Y+28, r26	; 0x1c
 984:	bd 8f       	std	Y+29, r27	; 0x1d
 986:	80 e2       	ldi	r24, 0x20	; 32
 988:	8f 8b       	std	Y+23, r24	; 0x17
 98a:	81 e0       	ldi	r24, 0x01	; 1
 98c:	00 c0       	rjmp	.+0      	; 0x98e <_ZN8SdVolume4initEP7Sd2Cardh+0x23c>
 98e:	80 e0       	ldi	r24, 0x00	; 0
 990:	df 91       	pop	r29
 992:	cf 91       	pop	r28
 994:	1f 91       	pop	r17
 996:	ff 90       	pop	r15
 998:	ef 90       	pop	r14
 99a:	df 90       	pop	r13
 99c:	cf 90       	pop	r12
 99e:	bf 90       	pop	r11
 9a0:	af 90       	pop	r10
 9a2:	9f 90       	pop	r9
 9a4:	8f 90       	pop	r8
 9a6:	7f 90       	pop	r7
 9a8:	6f 90       	pop	r6
 9aa:	08 95       	ret

File.o:     file format elf32-avr

Sections:
Idx Name          Size      VMA       LMA       File off  Algn
  0 .text         00000312  00000000  00000000  00000034  2**0
                  CONTENTS, ALLOC, LOAD, RELOC, READONLY, CODE
  1 .data         00000020  00000000  00000000  00000346  2**0
                  CONTENTS, ALLOC, LOAD, RELOC, DATA
  2 .bss          00000000  00000000  00000000  00000366  2**0
                  ALLOC

Disassembly of section .text:

00000000 <_ZN4File5writeEh>:
   0:	cf 93       	push	r28
   2:	df 93       	push	r29
   4:	0f 92       	push	r0
   6:	cd b7       	in	r28, 0x3d	; 61
   8:	de b7       	in	r29, 0x3e	; 62
   a:	69 83       	std	Y+1, r22	; 0x01
   c:	dc 01       	movw	r26, r24
   e:	ed 91       	ld	r30, X+
  10:	fc 91       	ld	r31, X
  12:	02 80       	ldd	r0, Z+2	; 0x02
  14:	f3 81       	ldd	r31, Z+3	; 0x03
  16:	e0 2d       	mov	r30, r0
  18:	be 01       	movw	r22, r28
  1a:	6f 5f       	subi	r22, 0xFF	; 255
  1c:	7f 4f       	sbci	r23, 0xFF	; 255
  1e:	41 e0       	ldi	r20, 0x01	; 1
  20:	50 e0       	ldi	r21, 0x00	; 0
  22:	09 95       	icall
  24:	0f 90       	pop	r0
  26:	df 91       	pop	r29
  28:	cf 91       	pop	r28
  2a:	08 95       	ret

0000002c <_ZN4File5flushEv>:
  2c:	fc 01       	movw	r30, r24
  2e:	81 8d       	ldd	r24, Z+25	; 0x19
  30:	92 8d       	ldd	r25, Z+26	; 0x1a
  32:	00 97       	sbiw	r24, 0x00	; 0
  34:	01 f0       	breq	.+0      	; 0x36 <_ZN4File5flushEv+0xa>
  36:	0e 94 00 00 	call	0	; 0x0 <_ZN4File5writeEh>
  3a:	08 95       	ret

0000003c <_ZN4File5writeEPKhj>:
  3c:	cf 93       	push	r28
  3e:	df 93       	push	r29
  40:	ec 01       	movw	r28, r24
  42:	89 8d       	ldd	r24, Y+25	; 0x19
  44:	9a 8d       	ldd	r25, Y+26	; 0x1a
  46:	00 97       	sbiw	r24, 0x00	; 0
  48:	01 f0       	breq	.+0      	; 0x4a <_ZN4File5writeEPKhj+0xe>
  4a:	fc 01       	movw	r30, r24
  4c:	13 82       	std	Z+3, r1	; 0x03
  4e:	12 82       	std	Z+2, r1	; 0x02
  50:	0e 94 00 00 	call	0	; 0x0 <_ZN4File5writeEh>
  54:	e9 8d       	ldd	r30, Y+25	; 0x19
  56:	fa 8d       	ldd	r31, Y+26	; 0x1a
  58:	22 81       	ldd	r18, Z+2	; 0x02
  5a:	33 81       	ldd	r19, Z+3	; 0x03
  5c:	21 15       	cp	r18, r1
  5e:	31 05       	cpc	r19, r1
  60:	01 f0       	breq	.+0      	; 0x62 <_ZN4File5writeEPKhj+0x26>
  62:	81 e0       	ldi	r24, 0x01	; 1
  64:	90 e0       	ldi	r25, 0x00	; 0
  66:	9b 83       	std	Y+3, r25	; 0x03
  68:	8a 83       	std	Y+2, r24	; 0x02
  6a:	80 e0       	ldi	r24, 0x00	; 0
  6c:	90 e0       	ldi	r25, 0x00	; 0
  6e:	df 91       	pop	r29
  70:	cf 91       	pop	r28
  72:	08 95       	ret

00000074 <_ZN6SdFile4readEv>:
  74:	cf 93       	push	r28
  76:	df 93       	push	r29
  78:	0f 92       	push	r0
  7a:	cd b7       	in	r28, 0x3d	; 61
  7c:	de b7       	in	r29, 0x3e	; 62
  7e:	be 01       	movw	r22, r28
  80:	6f 5f       	subi	r22, 0xFF	; 255
  82:	7f 4f       	sbci	r23, 0xFF	; 255
  84:	41 e0       	ldi	r20, 0x01	; 1
  86:	50 e0       	ldi	r21, 0x00	; 0
  88:	0e 94 00 00 	call	0	; 0x0 <_ZN4File5writeEh>
  8c:	81 30       	cpi	r24, 0x01	; 1
  8e:	91 05       	cpc	r25, r1
  90:	01 f4       	brne	.+0      	; 0x92 <_ZN6SdFile4readEv+0x1e>
  92:	89 81       	ldd	r24, Y+1	; 0x01
  94:	90 e0       	ldi	r25, 0x00	; 0
  96:	00 c0       	rjmp	.+0      	; 0x98 <_ZN6SdFile4readEv+0x24>
  98:	8f ef       	ldi	r24, 0xFF	; 255
  9a:	9f ef       	ldi	r25, 0xFF	; 255
  9c:	0f 90       	pop	r0
  9e:	df 91       	pop	r29
  a0:	cf 91       	pop	r28
  a2:	08 95       	ret

000000a4 <_ZN4File4readEv>:
  a4:	fc 01       	movw	r30, r24
  a6:	81 8d       	ldd	r24, Z+25	; 0x19
  a8:	92 8d       	ldd	r25, Z+26	; 0x1a
  aa:	00 97       	sbiw	r24, 0x00	; 0
  ac:	01 f0       	breq	.+0      	; 0xae <_ZN4File4readEv+0xa>
  ae:	0e 94 00 00 	call	0	; 0x0 <_ZN4File5writeEh>
  b2:	08 95       	ret
  b4:	8f ef       	ldi	r24, 0xFF	; 255
  b6:	9f ef       	ldi	r25, 0xFF	; 255
  b8:	08 95       	ret

000000ba <_ZN4File4peekEv>:
  ba:	0f 93       	push	r16
  bc:	1f 93       	push	r17
  be:	cf 93       	push	r28
  c0:	df 93       	push	r29
  c2:	ec 01       	movw	r28, r24
  c4:	89 8d       	ldd	r24, Y+25	; 0x19
  c6:	9a 8d       	ldd	r25, Y+26	; 0x1a
  c8:	00 97       	sbiw	r24, 0x00	; 0
  ca:	01 f0       	breq	.+0      	; 0xcc <_ZN4File4peekEv+0x12>
  cc:	0e 94 00 00 	call	0	; 0x0 <_ZN4File5writeEh>
  d0:	8c 01       	movw	r16, r24
  d2:	8f ef       	ldi	r24, 0xFF	; 255
  d4:	0f 3f       	cpi	r16, 0xFF	; 255
  d6:	18 07       	cpc	r17, r24
  d8:	01 f0       	breq	.+0      	; 0xda <_ZN4File4peekEv+0x20>
  da:	89 8d       	ldd	r24, Y+25	; 0x19
  dc:	9a 8d       	ldd	r25, Y+26	; 0x1a
  de:	fc 01       	movw	r30, r24
  e0:	42 85       	ldd	r20, Z+10	; 0x0a
  e2:	53 85       	ldd	r21, Z+11	; 0x0b
  e4:	64 85       	ldd	r22, Z+12	; 0x0c
  e6:	75 85       	ldd	r23, Z+13	; 0x0d
  e8:	41 50       	subi	r20, 0x01	; 1
  ea:	50 40       	sbci	r21, 0x00	; 0
  ec:	60 40       	sbci	r22, 0x00	; 0
  ee:	70 40       	sbci	r23, 0x00	; 0
  f0:	0e 94 00 00 	call	0	; 0x0 <_ZN4File5writeEh>
  f4:	00 c0       	rjmp	.+0      	; 0xf6 <_ZN4File4peekEv+0x3c>
  f6:	00 e0       	ldi	r16, 0x00	; 0
  f8:	10 e0       	ldi	r17, 0x00	; 0
  fa:	c8 01       	movw	r24, r16
  fc:	df 91       	pop	r29
  fe:	cf 91       	pop	r28
 100:	1f 91       	pop	r17
 102:	0f 91       	pop	r16
 104:	08 95       	ret

00000106 <_ZN4FileC1E6SdFilePKc>:
 106:	ef 92       	push	r14
 108:	ff 92       	push	r15
 10a:	0f 93       	push	r16
 10c:	1f 93       	push	r17
 10e:	cf 93       	push	r28
 110:	df 93       	push	r29
 112:	00 d0       	rcall	.+0      	; 0x114 <_ZN4FileC1E6SdFilePKc+0xe>
 114:	cd b7       	in	r28, 0x3d	; 61
 116:	de b7       	in	r29, 0x3e	; 62
 118:	7c 01       	movw	r14, r24
 11a:	8a 01       	movw	r16, r20
 11c:	dc 01       	movw	r26, r24
 11e:	13 96       	adiw	r26, 0x03	; 3
 120:	1c 92       	st	X, r1
 122:	1e 92       	st	-X, r1
 124:	12 97       	sbiw	r26, 0x02	; 2
 126:	88 ee       	ldi	r24, 0xE8	; 232
 128:	93 e0       	ldi	r25, 0x03	; 3
 12a:	a0 e0       	ldi	r26, 0x00	; 0
 12c:	b0 e0       	ldi	r27, 0x00	; 0
 12e:	f7 01       	movw	r30, r14
 130:	84 83       	std	Z+4, r24	; 0x04
 132:	95 83       	std	Z+5, r25	; 0x05
 134:	a6 83       	std	Z+6, r26	; 0x06
 136:	b7 83       	std	Z+7, r27	; 0x07
 138:	80 e0       	ldi	r24, 0x00	; 0
 13a:	90 e0       	ldi	r25, 0x00	; 0
 13c:	91 83       	std	Z+1, r25	; 0x01
 13e:	80 83       	st	Z, r24
 140:	8d e1       	ldi	r24, 0x1D	; 29
 142:	90 e0       	ldi	r25, 0x00	; 0
 144:	69 83       	std	Y+1, r22	; 0x01
 146:	7a 83       	std	Y+2, r23	; 0x02
 148:	0e 94 00 00 	call	0	; 0x0 <_ZN4File5writeEh>
 14c:	fc 01       	movw	r30, r24
 14e:	d7 01       	movw	r26, r14
 150:	5a 96       	adiw	r26, 0x1a	; 26
 152:	9c 93       	st	X, r25
 154:	8e 93       	st	-X, r24
 156:	59 97       	sbiw	r26, 0x19	; 25
 158:	69 81       	ldd	r22, Y+1	; 0x01
 15a:	7a 81       	ldd	r23, Y+2	; 0x02
 15c:	00 97       	sbiw	r24, 0x00	; 0
 15e:	01 f0       	breq	.+0      	; 0x160 <_ZN4FileC1E6SdFilePKc+0x5a>
 160:	db 01       	movw	r26, r22
 162:	8d e1       	ldi	r24, 0x1D	; 29
 164:	0d 90       	ld	r0, X+
 166:	01 92       	st	Z+, r0
 168:	81 50       	subi	r24, 0x01	; 1
 16a:	01 f4       	brne	.+0      	; 0x16c <_ZN4FileC1E6SdFilePKc+0x66>
 16c:	c7 01       	movw	r24, r14
 16e:	0c 96       	adiw	r24, 0x0c	; 12
 170:	b8 01       	movw	r22, r16
 172:	4c e0       	ldi	r20, 0x0C	; 12
 174:	50 e0       	ldi	r21, 0x00	; 0
 176:	0e 94 00 00 	call	0	; 0x0 <_ZN4File5writeEh>
 17a:	f7 01       	movw	r30, r14
 17c:	10 8e       	std	Z+24, r1	; 0x18
 17e:	0f 90       	pop	r0
 180:	0f 90       	pop	r0
 182:	df 91       	pop	r29
 184:	cf 91       	pop	r28
 186:	1f 91       	pop	r17
 188:	0f 91       	pop	r16
 18a:	ff 90       	pop	r15
 18c:	ef 90       	pop	r14
 18e:	08 95       	ret

00000190 <_ZN4FileC1Ev>:
 190:	fc 01       	movw	r30, r24
 192:	13 82       	std	Z+3, r1	; 0x03
 194:	12 82       	std	Z+2, r1	; 0x02
 196:	48 ee       	ldi	r20, 0xE8	; 232
 198:	53 e0       	ldi	r21, 0x03	; 3
 19a:	60 e0       	ldi	r22, 0x00	; 0
 19c:	70 e0       	ldi	r23, 0x00	; 0
 19e:	44 83       	std	Z+4, r20	; 0x04
 1a0:	55 83       	std	Z+5, r21	; 0x05
 1a2:	66 83       	std	Z+6, r22	; 0x06
 1a4:	77 83       	std	Z+7, r23	; 0x07
 1a6:	80 e0       	ldi	r24, 0x00	; 0
 1a8:	90 e0       	ldi	r25, 0x00	; 0
 1aa:	91 83       	std	Z+1, r25	; 0x01
 1ac:	80 83       	st	Z, r24
 1ae:	12 8e       	std	Z+26, r1	; 0x1a
 1b0:	11 8e       	std	Z+25, r1	; 0x19
 1b2:	14 86       	std	Z+12, r1	; 0x0c
 1b4:	08 95       	ret

000001b6 <_ZN4FileD1Ev>:
 1b6:	20 e0       	ldi	r18, 0x00	; 0
 1b8:	30 e0       	ldi	r19, 0x00	; 0
 1ba:	fc 01       	movw	r30, r24
 1bc:	31 83       	std	Z+1, r19	; 0x01
 1be:	20 83       	st	Z, r18
 1c0:	08 95       	ret

000001c2 <_ZN4File4nameEv>:
 1c2:	0c 96       	adiw	r24, 0x0c	; 12
 1c4:	08 95       	ret

000001c6 <_ZN4File11isDirectoryEv>:
 1c6:	dc 01       	movw	r26, r24
 1c8:	59 96       	adiw	r26, 0x19	; 25
 1ca:	ed 91       	ld	r30, X+
 1cc:	fc 91       	ld	r31, X
 1ce:	5a 97       	sbiw	r26, 0x1a	; 26
 1d0:	30 97       	sbiw	r30, 0x00	; 0
 1d2:	01 f0       	breq	.+0      	; 0x1d4 <_ZN4File11isDirectoryEv+0xe>
 1d4:	81 e0       	ldi	r24, 0x01	; 1
 1d6:	95 81       	ldd	r25, Z+5	; 0x05
 1d8:	92 30       	cpi	r25, 0x02	; 2
 1da:	00 f4       	brcc	.+0      	; 0x1dc <_ZN4File11isDirectoryEv+0x16>
 1dc:	80 e0       	ldi	r24, 0x00	; 0
 1de:	08 95       	ret
 1e0:	80 e0       	ldi	r24, 0x00	; 0
 1e2:	08 95       	ret

000001e4 <_ZN4File4readEPvj>:
 1e4:	fc 01       	movw	r30, r24
 1e6:	81 8d       	ldd	r24, Z+25	; 0x19
 1e8:	92 8d       	ldd	r25, Z+26	; 0x1a
 1ea:	00 97       	sbiw	r24, 0x00	; 0
 1ec:	01 f0       	breq	.+0      	; 0x1ee <_ZN4File4readEPvj+0xa>
 1ee:	0e 94 00 00 	call	0	; 0x0 <_ZN4File5writeEh>
 1f2:	08 95       	ret
 1f4:	80 e0       	ldi	r24, 0x00	; 0
 1f6:	90 e0       	ldi	r25, 0x00	; 0
 1f8:	08 95       	ret

000001fa <_ZN4File4seekEm>:
 1fa:	fc 01       	movw	r30, r24
 1fc:	81 8d       	ldd	r24, Z+25	; 0x19
 1fe:	92 8d       	ldd	r25, Z+26	; 0x1a
 200:	00 97       	sbiw	r24, 0x00	; 0
 202:	01 f0       	breq	.+0      	; 0x204 <_ZN4File4seekEm+0xa>
 204:	0e 94 00 00 	call	0	; 0x0 <_ZN4File5writeEh>
 208:	08 95       	ret
 20a:	80 e0       	ldi	r24, 0x00	; 0
 20c:	08 95       	ret

0000020e <_ZN4File8positionEv>:
 20e:	0f 93       	push	r16
 210:	1f 93       	push	r17
 212:	dc 01       	movw	r26, r24
 214:	59 96       	adiw	r26, 0x19	; 25
 216:	ed 91       	ld	r30, X+
 218:	fc 91       	ld	r31, X
 21a:	5a 97       	sbiw	r26, 0x1a	; 26
 21c:	30 97       	sbiw	r30, 0x00	; 0
 21e:	01 f0       	breq	.+0      	; 0x220 <_ZN4File8positionEv+0x12>
 220:	02 85       	ldd	r16, Z+10	; 0x0a
 222:	13 85       	ldd	r17, Z+11	; 0x0b
 224:	24 85       	ldd	r18, Z+12	; 0x0c
 226:	35 85       	ldd	r19, Z+13	; 0x0d
 228:	00 c0       	rjmp	.+0      	; 0x22a <_ZN4File8positionEv+0x1c>
 22a:	0f ef       	ldi	r16, 0xFF	; 255
 22c:	1f ef       	ldi	r17, 0xFF	; 255
 22e:	2f ef       	ldi	r18, 0xFF	; 255
 230:	3f ef       	ldi	r19, 0xFF	; 255
 232:	b8 01       	movw	r22, r16
 234:	c9 01       	movw	r24, r18
 236:	1f 91       	pop	r17
 238:	0f 91       	pop	r16
 23a:	08 95       	ret

0000023c <_ZN4File4sizeEv>:
 23c:	0f 93       	push	r16
 23e:	1f 93       	push	r17
 240:	dc 01       	movw	r26, r24
 242:	59 96       	adiw	r26, 0x19	; 25
 244:	ed 91       	ld	r30, X+
 246:	fc 91       	ld	r31, X
 248:	5a 97       	sbiw	r26, 0x1a	; 26
 24a:	30 97       	sbiw	r30, 0x00	; 0
 24c:	01 f0       	breq	.+0      	; 0x24e <_ZN4File4sizeEv+0x12>
 24e:	03 89       	ldd	r16, Z+19	; 0x13
 250:	14 89       	ldd	r17, Z+20	; 0x14
 252:	25 89       	ldd	r18, Z+21	; 0x15
 254:	36 89       	ldd	r19, Z+22	; 0x16
 256:	00 c0       	rjmp	.+0      	; 0x258 <_ZN4File4sizeEv+0x1c>
 258:	00 e0       	ldi	r16, 0x00	; 0
 25a:	10 e0       	ldi	r17, 0x00	; 0
 25c:	20 e0       	ldi	r18, 0x00	; 0
 25e:	30 e0       	ldi	r19, 0x00	; 0
 260:	b8 01       	movw	r22, r16
 262:	c9 01       	movw	r24, r18
 264:	1f 91       	pop	r17
 266:	0f 91       	pop	r16
 268:	08 95       	ret

0000026a <_ZN4File9availableEv>:
 26a:	cf 92       	push	r12
 26c:	df 92       	push	r13
 26e:	ef 92       	push	r14
 270:	ff 92       	push	r15
 272:	cf 93       	push	r28
 274:	df 93       	push	r29
 276:	ec 01       	movw	r28, r24
 278:	89 8d       	ldd	r24, Y+25	; 0x19
 27a:	9a 8d       	ldd	r25, Y+26	; 0x1a
 27c:	00 97       	sbiw	r24, 0x00	; 0
 27e:	01 f0       	breq	.+0      	; 0x280 <_ZN4File9availableEv+0x16>
 280:	ce 01       	movw	r24, r28
 282:	0e 94 00 00 	call	0	; 0x0 <_ZN4File5writeEh>
 286:	6b 01       	movw	r12, r22
 288:	7c 01       	movw	r14, r24
 28a:	ce 01       	movw	r24, r28
 28c:	0e 94 00 00 	call	0	; 0x0 <_ZN4File5writeEh>
 290:	dc 01       	movw	r26, r24
 292:	cb 01       	movw	r24, r22
 294:	c8 1a       	sub	r12, r24
 296:	d9 0a       	sbc	r13, r25
 298:	ea 0a       	sbc	r14, r26
 29a:	fb 0a       	sbc	r15, r27
 29c:	80 e0       	ldi	r24, 0x00	; 0
 29e:	c8 16       	cp	r12, r24
 2a0:	80 e8       	ldi	r24, 0x80	; 128
 2a2:	d8 06       	cpc	r13, r24
 2a4:	80 e0       	ldi	r24, 0x00	; 0
 2a6:	e8 06       	cpc	r14, r24
 2a8:	80 e0       	ldi	r24, 0x00	; 0
 2aa:	f8 06       	cpc	r15, r24
 2ac:	00 f0       	brcs	.+0      	; 0x2ae <_ZN4File9availableEv+0x44>
 2ae:	8f ef       	ldi	r24, 0xFF	; 255
 2b0:	c8 2e       	mov	r12, r24
 2b2:	8f e7       	ldi	r24, 0x7F	; 127
 2b4:	d8 2e       	mov	r13, r24
 2b6:	e1 2c       	mov	r14, r1
 2b8:	f1 2c       	mov	r15, r1
 2ba:	00 c0       	rjmp	.+0      	; 0x2bc <_ZN4File9availableEv+0x52>
 2bc:	cc 24       	eor	r12, r12
 2be:	dd 24       	eor	r13, r13
 2c0:	c6 01       	movw	r24, r12
 2c2:	df 91       	pop	r29
 2c4:	cf 91       	pop	r28
 2c6:	ff 90       	pop	r15
 2c8:	ef 90       	pop	r14
 2ca:	df 90       	pop	r13
 2cc:	cf 90       	pop	r12
 2ce:	08 95       	ret

000002d0 <_ZN4File5closeEv>:
 2d0:	cf 93       	push	r28
 2d2:	df 93       	push	r29
 2d4:	ec 01       	movw	r28, r24
 2d6:	89 8d       	ldd	r24, Y+25	; 0x19
 2d8:	9a 8d       	ldd	r25, Y+26	; 0x1a
 2da:	00 97       	sbiw	r24, 0x00	; 0
 2dc:	01 f0       	breq	.+0      	; 0x2de <_ZN4File5closeEv+0xe>
 2de:	0e 94 00 00 	call	0	; 0x0 <_ZN4File5writeEh>
 2e2:	89 8d       	ldd	r24, Y+25	; 0x19
 2e4:	9a 8d       	ldd	r25, Y+26	; 0x1a
 2e6:	0e 94 00 00 	call	0	; 0x0 <_ZN4File5writeEh>
 2ea:	1a 8e       	std	Y+26, r1	; 0x1a
 2ec:	19 8e       	std	Y+25, r1	; 0x19
 2ee:	df 91       	pop	r29
 2f0:	cf 91       	pop	r28
 2f2:	08 95       	ret

000002f4 <_ZN4FilecvbEv>:
 2f4:	dc 01       	movw	r26, r24
 2f6:	59 96       	adiw	r26, 0x19	; 25
 2f8:	ed 91       	ld	r30, X+
 2fa:	fc 91       	ld	r31, X
 2fc:	5a 97       	sbiw	r26, 0x1a	; 26
 2fe:	30 97       	sbiw	r30, 0x00	; 0
 300:	01 f0       	breq	.+0      	; 0x302 <_ZN4FilecvbEv+0xe>
 302:	81 e0       	ldi	r24, 0x01	; 1
 304:	95 81       	ldd	r25, Z+5	; 0x05
 306:	99 23       	and	r25, r25
 308:	01 f4       	brne	.+0      	; 0x30a <_ZN4FilecvbEv+0x16>
 30a:	80 e0       	ldi	r24, 0x00	; 0
 30c:	08 95       	ret
 30e:	80 e0       	ldi	r24, 0x00	; 0
 310:	08 95       	ret

SD.o:     file format elf32-avr

Sections:
Idx Name          Size      VMA       LMA       File off  Algn
  0 .text         00000768  00000000  00000000  00000034  2**0
                  CONTENTS, ALLOC, LOAD, RELOC, READONLY, CODE
  1 .data         00000002  00000000  00000000  0000079c  2**0
                  CONTENTS, ALLOC, LOAD, DATA
  2 .bss          00000049  00000000  00000000  0000079e  2**0
                  ALLOC
  3 .text.startup 00000046  00000000  00000000  0000079e  2**0
                  CONTENTS, ALLOC, LOAD, RELOC, READONLY, CODE
  4 .ctors        00000002  00000000  00000000  000007e4  2**0
                  CONTENTS, ALLOC, LOAD, RELOC, READONLY, DATA

Disassembly of section .text:

00000000 <_Z19callback_pathExistsR6SdFilePchPv>:
   0:	1f 93       	push	r17
   2:	cf 93       	push	r28
   4:	df 93       	push	r29
   6:	cd b7       	in	r28, 0x3d	; 61
   8:	de b7       	in	r29, 0x3e	; 62
   a:	6d 97       	sbiw	r28, 0x1d	; 29
   c:	0f b6       	in	r0, 0x3f	; 63
   e:	f8 94       	cli
  10:	de bf       	out	0x3e, r29	; 62
  12:	0f be       	out	0x3f, r0	; 63
  14:	cd bf       	out	0x3d, r28	; 61
  16:	9c 01       	movw	r18, r24
  18:	ab 01       	movw	r20, r22
  1a:	1c 82       	std	Y+4, r1	; 0x04
  1c:	1b 82       	std	Y+3, r1	; 0x03
  1e:	80 e0       	ldi	r24, 0x00	; 0
  20:	90 e0       	ldi	r25, 0x00	; 0
  22:	9a 83       	std	Y+2, r25	; 0x02
  24:	89 83       	std	Y+1, r24	; 0x01
  26:	1e 82       	std	Y+6, r1	; 0x06
  28:	ce 01       	movw	r24, r28
  2a:	01 96       	adiw	r24, 0x01	; 1
  2c:	b9 01       	movw	r22, r18
  2e:	21 e0       	ldi	r18, 0x01	; 1
  30:	0e 94 00 00 	call	0	; 0x0 <_Z19callback_pathExistsR6SdFilePchPv>
  34:	18 2f       	mov	r17, r24
  36:	88 23       	and	r24, r24
  38:	01 f0       	breq	.+0      	; 0x3a <_Z19callback_pathExistsR6SdFilePchPv+0x3a>
  3a:	ce 01       	movw	r24, r28
  3c:	01 96       	adiw	r24, 0x01	; 1
  3e:	0e 94 00 00 	call	0	; 0x0 <_Z19callback_pathExistsR6SdFilePchPv>
  42:	81 2f       	mov	r24, r17
  44:	6d 96       	adiw	r28, 0x1d	; 29
  46:	0f b6       	in	r0, 0x3f	; 63
  48:	f8 94       	cli
  4a:	de bf       	out	0x3e, r29	; 62
  4c:	0f be       	out	0x3f, r0	; 63
  4e:	cd bf       	out	0x3d, r28	; 61
  50:	df 91       	pop	r29
  52:	cf 91       	pop	r28
  54:	1f 91       	pop	r17
  56:	08 95       	ret

00000058 <_Z15callback_removeR6SdFilePchPv>:
  58:	44 23       	and	r20, r20
  5a:	01 f0       	breq	.+0      	; 0x5c <_Z15callback_removeR6SdFilePchPv+0x4>
  5c:	0e 94 00 00 	call	0	; 0x0 <_Z19callback_pathExistsR6SdFilePchPv>
  60:	08 95       	ret
  62:	81 e0       	ldi	r24, 0x01	; 1
  64:	08 95       	ret

00000066 <_Z20callback_makeDirPathR6SdFilePchPv>:
  66:	ef 92       	push	r14
  68:	ff 92       	push	r15
  6a:	0f 93       	push	r16
  6c:	1f 93       	push	r17
  6e:	cf 93       	push	r28
  70:	df 93       	push	r29
  72:	cd b7       	in	r28, 0x3d	; 61
  74:	de b7       	in	r29, 0x3e	; 62
  76:	6d 97       	sbiw	r28, 0x1d	; 29
  78:	0f b6       	in	r0, 0x3f	; 63
  7a:	f8 94       	cli
  7c:	de bf       	out	0x3e, r29	; 62
  7e:	0f be       	out	0x3f, r0	; 63
  80:	cd bf       	out	0x3d, r28	; 61
  82:	8c 01       	movw	r16, r24
  84:	7b 01       	movw	r14, r22
  86:	1c 82       	std	Y+4, r1	; 0x04
  88:	1b 82       	std	Y+3, r1	; 0x03
  8a:	80 e0       	ldi	r24, 0x00	; 0
  8c:	90 e0       	ldi	r25, 0x00	; 0
  8e:	9a 83       	std	Y+2, r25	; 0x02
  90:	89 83       	std	Y+1, r24	; 0x01
  92:	1e 82       	std	Y+6, r1	; 0x06
  94:	c8 01       	movw	r24, r16
  96:	0e 94 00 00 	call	0	; 0x0 <_Z19callback_pathExistsR6SdFilePchPv>
  9a:	88 23       	and	r24, r24
  9c:	01 f4       	brne	.+0      	; 0x9e <_Z20callback_makeDirPathR6SdFilePchPv+0x38>
  9e:	ce 01       	movw	r24, r28
  a0:	01 96       	adiw	r24, 0x01	; 1
  a2:	b8 01       	movw	r22, r16
  a4:	a7 01       	movw	r20, r14
  a6:	0e 94 00 00 	call	0	; 0x0 <_Z19callback_pathExistsR6SdFilePchPv>
  aa:	6d 96       	adiw	r28, 0x1d	; 29
  ac:	0f b6       	in	r0, 0x3f	; 63
  ae:	f8 94       	cli
  b0:	de bf       	out	0x3e, r29	; 62
  b2:	0f be       	out	0x3f, r0	; 63
  b4:	cd bf       	out	0x3d, r28	; 61
  b6:	df 91       	pop	r29
  b8:	cf 91       	pop	r28
  ba:	1f 91       	pop	r17
  bc:	0f 91       	pop	r16
  be:	ff 90       	pop	r15
  c0:	ef 90       	pop	r14
  c2:	08 95       	ret

000000c4 <_Z14callback_rmdirR6SdFilePchPv>:
  c4:	cf 93       	push	r28
  c6:	df 93       	push	r29
  c8:	cd b7       	in	r28, 0x3d	; 61
  ca:	de b7       	in	r29, 0x3e	; 62
  cc:	6d 97       	sbiw	r28, 0x1d	; 29
  ce:	0f b6       	in	r0, 0x3f	; 63
  d0:	f8 94       	cli
  d2:	de bf       	out	0x3e, r29	; 62
  d4:	0f be       	out	0x3f, r0	; 63
  d6:	cd bf       	out	0x3d, r28	; 61
  d8:	9c 01       	movw	r18, r24
  da:	fb 01       	movw	r30, r22
  dc:	44 23       	and	r20, r20
  de:	01 f0       	breq	.+0      	; 0xe0 <_Z14callback_rmdirR6SdFilePchPv+0x1c>
  e0:	1c 82       	std	Y+4, r1	; 0x04
  e2:	1b 82       	std	Y+3, r1	; 0x03
  e4:	80 e0       	ldi	r24, 0x00	; 0
  e6:	90 e0       	ldi	r25, 0x00	; 0
  e8:	9a 83       	std	Y+2, r25	; 0x02
  ea:	89 83       	std	Y+1, r24	; 0x01
  ec:	1e 82       	std	Y+6, r1	; 0x06
  ee:	ce 01       	movw	r24, r28
  f0:	01 96       	adiw	r24, 0x01	; 1
  f2:	b9 01       	movw	r22, r18
  f4:	af 01       	movw	r20, r30
  f6:	21 e0       	ldi	r18, 0x01	; 1
  f8:	0e 94 00 00 	call	0	; 0x0 <_Z19callback_pathExistsR6SdFilePchPv>
  fc:	88 23       	and	r24, r24
  fe:	01 f0       	breq	.+0      	; 0x100 <_Z14callback_rmdirR6SdFilePchPv+0x3c>
 100:	ce 01       	movw	r24, r28
 102:	01 96       	adiw	r24, 0x01	; 1
 104:	0e 94 00 00 	call	0	; 0x0 <_Z19callback_pathExistsR6SdFilePchPv>
 108:	00 c0       	rjmp	.+0      	; 0x10a <_Z14callback_rmdirR6SdFilePchPv+0x46>
 10a:	80 e0       	ldi	r24, 0x00	; 0
 10c:	00 c0       	rjmp	.+0      	; 0x10e <_Z14callback_rmdirR6SdFilePchPv+0x4a>
 10e:	81 e0       	ldi	r24, 0x01	; 1
 110:	6d 96       	adiw	r28, 0x1d	; 29
 112:	0f b6       	in	r0, 0x3f	; 63
 114:	f8 94       	cli
 116:	de bf       	out	0x3e, r29	; 62
 118:	0f be       	out	0x3f, r0	; 63
 11a:	cd bf       	out	0x3d, r28	; 61
 11c:	df 91       	pop	r29
 11e:	cf 91       	pop	r28
 120:	08 95       	ret

00000122 <_Z20getNextPathComponentPcPjS_>:
 122:	cf 93       	push	r28
 124:	df 93       	push	r29
 126:	dc 01       	movw	r26, r24
 128:	fb 01       	movw	r30, r22
 12a:	80 81       	ld	r24, Z
 12c:	91 81       	ldd	r25, Z+1	; 0x01
 12e:	fd 01       	movw	r30, r26
 130:	e8 0f       	add	r30, r24
 132:	f9 1f       	adc	r31, r25
 134:	20 81       	ld	r18, Z
 136:	2f 32       	cpi	r18, 0x2F	; 47
 138:	01 f4       	brne	.+0      	; 0x13a <_Z20getNextPathComponentPcPjS_+0x18>
 13a:	01 96       	adiw	r24, 0x01	; 1
 13c:	ea 01       	movw	r28, r20
 13e:	20 e0       	ldi	r18, 0x00	; 0
 140:	30 e0       	ldi	r19, 0x00	; 0
 142:	fd 01       	movw	r30, r26
 144:	e8 0f       	add	r30, r24
 146:	f9 1f       	adc	r31, r25
 148:	e0 81       	ld	r30, Z
 14a:	ef 32       	cpi	r30, 0x2F	; 47
 14c:	01 f0       	breq	.+0      	; 0x14e <_Z20getNextPathComponentPcPjS_+0x2c>
 14e:	ee 23       	and	r30, r30
 150:	01 f0       	breq	.+0      	; 0x152 <_Z20getNextPathComponentPcPjS_+0x30>
 152:	e9 93       	st	Y+, r30
 154:	2f 5f       	subi	r18, 0xFF	; 255
 156:	3f 4f       	sbci	r19, 0xFF	; 255
 158:	01 96       	adiw	r24, 0x01	; 1
 15a:	2c 30       	cpi	r18, 0x0C	; 12
 15c:	31 05       	cpc	r19, r1
 15e:	01 f0       	breq	.+0      	; 0x160 <_Z20getNextPathComponentPcPjS_+0x3e>
 160:	00 c0       	rjmp	.+0      	; 0x162 <_Z20getNextPathComponentPcPjS_+0x40>
 162:	01 96       	adiw	r24, 0x01	; 1
 164:	fb 01       	movw	r30, r22
 166:	91 83       	std	Z+1, r25	; 0x01
 168:	80 83       	st	Z, r24
 16a:	a8 0f       	add	r26, r24
 16c:	b9 1f       	adc	r27, r25
 16e:	81 e0       	ldi	r24, 0x01	; 1
 170:	9c 91       	ld	r25, X
 172:	99 23       	and	r25, r25
 174:	01 f4       	brne	.+0      	; 0x176 <_Z20getNextPathComponentPcPjS_+0x54>
 176:	80 e0       	ldi	r24, 0x00	; 0
 178:	df 91       	pop	r29
 17a:	cf 91       	pop	r28
 17c:	08 95       	ret
 17e:	24 0f       	add	r18, r20
 180:	35 1f       	adc	r19, r21
 182:	f9 01       	movw	r30, r18
 184:	10 82       	st	Z, r1
 186:	fd 01       	movw	r30, r26
 188:	e8 0f       	add	r30, r24
 18a:	f9 1f       	adc	r31, r25
 18c:	20 81       	ld	r18, Z
 18e:	2f 32       	cpi	r18, 0x2F	; 47
 190:	01 f4       	brne	.+0      	; 0x192 <_Z20getNextPathComponentPcPjS_+0x70>
 192:	00 c0       	rjmp	.+0      	; 0x194 <_Z8walkPathPcR6SdFilePFhS1_S_hPvES2_>

00000194 <_Z8walkPathPcR6SdFilePFhS1_S_hPvES2_>:
 194:	2f 92       	push	r2
 196:	3f 92       	push	r3
 198:	4f 92       	push	r4
 19a:	5f 92       	push	r5
 19c:	6f 92       	push	r6
 19e:	7f 92       	push	r7
 1a0:	8f 92       	push	r8
 1a2:	9f 92       	push	r9
 1a4:	af 92       	push	r10
 1a6:	bf 92       	push	r11
 1a8:	cf 92       	push	r12
 1aa:	df 92       	push	r13
 1ac:	ef 92       	push	r14
 1ae:	ff 92       	push	r15
 1b0:	0f 93       	push	r16
 1b2:	1f 93       	push	r17
 1b4:	cf 93       	push	r28
 1b6:	df 93       	push	r29
 1b8:	cd b7       	in	r28, 0x3d	; 61
 1ba:	de b7       	in	r29, 0x3e	; 62
 1bc:	c9 54       	subi	r28, 0x49	; 73
 1be:	d0 40       	sbci	r29, 0x00	; 0
 1c0:	0f b6       	in	r0, 0x3f	; 63
 1c2:	f8 94       	cli
 1c4:	de bf       	out	0x3e, r29	; 62
 1c6:	0f be       	out	0x3f, r0	; 63
 1c8:	cd bf       	out	0x3d, r28	; 61
 1ca:	3c 01       	movw	r6, r24
 1cc:	6b 01       	movw	r12, r22
 1ce:	1a 01       	movw	r2, r20
 1d0:	29 01       	movw	r4, r18
 1d2:	18 aa       	std	Y+48, r1	; 0x30
 1d4:	1f a6       	std	Y+47, r1	; 0x2f
 1d6:	80 e0       	ldi	r24, 0x00	; 0
 1d8:	90 e0       	ldi	r25, 0x00	; 0
 1da:	9e a7       	std	Y+46, r25	; 0x2e
 1dc:	8d a7       	std	Y+45, r24	; 0x2d
 1de:	1a aa       	std	Y+50, r1	; 0x32
 1e0:	1b 8a       	std	Y+19, r1	; 0x13
 1e2:	1a 8a       	std	Y+18, r1	; 0x12
 1e4:	99 8b       	std	Y+17, r25	; 0x11
 1e6:	88 8b       	std	Y+16, r24	; 0x10
 1e8:	1d 8a       	std	Y+21, r1	; 0x15
 1ea:	1a 82       	std	Y+2, r1	; 0x02
 1ec:	19 82       	std	Y+1, r1	; 0x01
 1ee:	7b 01       	movw	r14, r22
 1f0:	ed e2       	ldi	r30, 0x2D	; 45
 1f2:	ae 2e       	mov	r10, r30
 1f4:	b1 2c       	mov	r11, r1
 1f6:	ac 0e       	add	r10, r28
 1f8:	bd 1e       	adc	r11, r29
 1fa:	01 e0       	ldi	r16, 0x01	; 1
 1fc:	f0 e1       	ldi	r31, 0x10	; 16
 1fe:	8f 2e       	mov	r8, r31
 200:	91 2c       	mov	r9, r1
 202:	8c 0e       	add	r8, r28
 204:	9d 1e       	adc	r9, r29
 206:	00 c0       	rjmp	.+0      	; 0x208 <_Z8walkPathPcR6SdFilePFhS1_S_hPvES2_+0x74>
 208:	9e 2d       	mov	r25, r14
 20a:	8f 2d       	mov	r24, r15
 20c:	00 c0       	rjmp	.+0      	; 0x20e <_Z8walkPathPcR6SdFilePFhS1_S_hPvES2_+0x7a>
 20e:	98 2d       	mov	r25, r8
 210:	89 2d       	mov	r24, r9
 212:	75 01       	movw	r14, r10
 214:	a9 2e       	mov	r10, r25
 216:	b8 2e       	mov	r11, r24
 218:	c3 01       	movw	r24, r6
 21a:	be 01       	movw	r22, r28
 21c:	6f 5f       	subi	r22, 0xFF	; 255
 21e:	7f 4f       	sbci	r23, 0xFF	; 255
 220:	ae 01       	movw	r20, r28
 222:	4d 5f       	subi	r20, 0xFD	; 253
 224:	5f 4f       	sbci	r21, 0xFF	; 255
 226:	0e 94 00 00 	call	0	; 0x0 <_Z19callback_pathExistsR6SdFilePchPv>
 22a:	18 2f       	mov	r17, r24
 22c:	48 2f       	mov	r20, r24
 22e:	40 27       	eor	r20, r16
 230:	c7 01       	movw	r24, r14
 232:	be 01       	movw	r22, r28
 234:	6d 5f       	subi	r22, 0xFD	; 253
 236:	7f 4f       	sbci	r23, 0xFF	; 255
 238:	92 01       	movw	r18, r4
 23a:	f1 01       	movw	r30, r2
 23c:	09 95       	icall
 23e:	88 23       	and	r24, r24
 240:	01 f4       	brne	.+0      	; 0x242 <_Z8walkPathPcR6SdFilePFhS1_S_hPvES2_+0xae>
 242:	ec 14       	cp	r14, r12
 244:	fd 04       	cpc	r15, r13
 246:	01 f0       	breq	.+0      	; 0x248 <_Z8walkPathPcR6SdFilePFhS1_S_hPvES2_+0xb4>
 248:	c7 01       	movw	r24, r14
 24a:	0e 94 00 00 	call	0	; 0x0 <_Z19callback_pathExistsR6SdFilePchPv>
 24e:	00 c0       	rjmp	.+0      	; 0x250 <_Z8walkPathPcR6SdFilePFhS1_S_hPvES2_+0xbc>
 250:	11 23       	and	r17, r17
 252:	01 f0       	breq	.+0      	; 0x254 <_Z8walkPathPcR6SdFilePFhS1_S_hPvES2_+0xc0>
 254:	c5 01       	movw	r24, r10
 256:	b7 01       	movw	r22, r14
 258:	ae 01       	movw	r20, r28
 25a:	4d 5f       	subi	r20, 0xFD	; 253
 25c:	5f 4f       	sbci	r21, 0xFF	; 255
 25e:	21 e0       	ldi	r18, 0x01	; 1
 260:	0e 94 00 00 	call	0	; 0x0 <_Z19callback_pathExistsR6SdFilePchPv>
 264:	18 2f       	mov	r17, r24
 266:	ec 14       	cp	r14, r12
 268:	fd 04       	cpc	r15, r13
 26a:	01 f0       	breq	.+0      	; 0x26c <_Z8walkPathPcR6SdFilePFhS1_S_hPvES2_+0xd8>
 26c:	c7 01       	movw	r24, r14
 26e:	0e 94 00 00 	call	0	; 0x0 <_Z19callback_pathExistsR6SdFilePchPv>
 272:	11 23       	and	r17, r17
 274:	01 f0       	breq	.+0      	; 0x276 <_Z8walkPathPcR6SdFilePFhS1_S_hPvES2_+0xe2>
 276:	ec 14       	cp	r14, r12
 278:	fd 04       	cpc	r15, r13
 27a:	01 f4       	brne	.+0      	; 0x27c <_Z8walkPathPcR6SdFilePFhS1_S_hPvES2_+0xe8>
 27c:	00 c0       	rjmp	.+0      	; 0x27e <_Z8walkPathPcR6SdFilePFhS1_S_hPvES2_+0xea>
 27e:	ec 14       	cp	r14, r12
 280:	fd 04       	cpc	r15, r13
 282:	01 f0       	breq	.+0      	; 0x284 <_Z8walkPathPcR6SdFilePFhS1_S_hPvES2_+0xf0>
 284:	c7 01       	movw	r24, r14
 286:	0e 94 00 00 	call	0	; 0x0 <_Z19callback_pathExistsR6SdFilePchPv>
 28a:	00 c0       	rjmp	.+0      	; 0x28c <_Z8walkPathPcR6SdFilePFhS1_S_hPvES2_+0xf8>
 28c:	80 e0       	ldi	r24, 0x00	; 0
 28e:	00 c0       	rjmp	.+0      	; 0x290 <_Z8walkPathPcR6SdFilePFhS1_S_hPvES2_+0xfc>
 290:	81 e0       	ldi	r24, 0x01	; 1
 292:	c7 5b       	subi	r28, 0xB7	; 183
 294:	df 4f       	sbci	r29, 0xFF	; 255
 296:	0f b6       	in	r0, 0x3f	; 63
 298:	f8 94       	cli
 29a:	de bf       	out	0x3e, r29	; 62
 29c:	0f be       	out	0x3f, r0	; 63
 29e:	cd bf       	out	0x3d, r28	; 61
 2a0:	df 91       	pop	r29
 2a2:	cf 91       	pop	r28
 2a4:	1f 91       	pop	r17
 2a6:	0f 91       	pop	r16
 2a8:	ff 90       	pop	r15
 2aa:	ef 90       	pop	r14
 2ac:	df 90       	pop	r13
 2ae:	cf 90       	pop	r12
 2b0:	bf 90       	pop	r11
 2b2:	af 90       	pop	r10
 2b4:	9f 90       	pop	r9
 2b6:	8f 90       	pop	r8
 2b8:	7f 90       	pop	r7
 2ba:	6f 90       	pop	r6
 2bc:	5f 90       	pop	r5
 2be:	4f 90       	pop	r4
 2c0:	3f 90       	pop	r3
 2c2:	2f 90       	pop	r2
 2c4:	08 95       	ret

000002c6 <_ZN7SDClass5beginEh>:
 2c6:	0f 93       	push	r16
 2c8:	1f 93       	push	r17
 2ca:	cf 93       	push	r28
 2cc:	df 93       	push	r29
 2ce:	8c 01       	movw	r16, r24
 2d0:	46 2f       	mov	r20, r22
 2d2:	61 e0       	ldi	r22, 0x01	; 1
 2d4:	0e 94 00 00 	call	0	; 0x0 <_Z19callback_pathExistsR6SdFilePchPv>
 2d8:	88 23       	and	r24, r24
 2da:	01 f0       	breq	.+0      	; 0x2dc <_ZN7SDClass5beginEh+0x16>
 2dc:	e8 01       	movw	r28, r16
 2de:	2c 96       	adiw	r28, 0x0c	; 12
 2e0:	ce 01       	movw	r24, r28
 2e2:	b8 01       	movw	r22, r16
 2e4:	41 e0       	ldi	r20, 0x01	; 1
 2e6:	0e 94 00 00 	call	0	; 0x0 <_Z19callback_pathExistsR6SdFilePchPv>
 2ea:	88 23       	and	r24, r24
 2ec:	01 f4       	brne	.+0      	; 0x2ee <_ZN7SDClass5beginEh+0x28>
 2ee:	ce 01       	movw	r24, r28
 2f0:	b8 01       	movw	r22, r16
 2f2:	40 e0       	ldi	r20, 0x00	; 0
 2f4:	0e 94 00 00 	call	0	; 0x0 <_Z19callback_pathExistsR6SdFilePchPv>
 2f8:	88 23       	and	r24, r24
 2fa:	01 f0       	breq	.+0      	; 0x2fc <_ZN7SDClass5beginEh+0x36>
 2fc:	c8 01       	movw	r24, r16
 2fe:	8a 96       	adiw	r24, 0x2a	; 42
 300:	be 01       	movw	r22, r28
 302:	0e 94 00 00 	call	0	; 0x0 <_Z19callback_pathExistsR6SdFilePchPv>
 306:	91 e0       	ldi	r25, 0x01	; 1
 308:	88 23       	and	r24, r24
 30a:	01 f4       	brne	.+0      	; 0x30c <_ZN7SDClass5beginEh+0x46>
 30c:	90 e0       	ldi	r25, 0x00	; 0
 30e:	89 2f       	mov	r24, r25
 310:	df 91       	pop	r29
 312:	cf 91       	pop	r28
 314:	1f 91       	pop	r17
 316:	0f 91       	pop	r16
 318:	08 95       	ret

0000031a <_ZN6SdFileC1ERKS_>:
 31a:	fc 01       	movw	r30, r24
 31c:	db 01       	movw	r26, r22
 31e:	12 96       	adiw	r26, 0x02	; 2
 320:	8d 91       	ld	r24, X+
 322:	9c 91       	ld	r25, X
 324:	13 97       	sbiw	r26, 0x03	; 3
 326:	93 83       	std	Z+3, r25	; 0x03
 328:	82 83       	std	Z+2, r24	; 0x02
 32a:	80 e0       	ldi	r24, 0x00	; 0
 32c:	90 e0       	ldi	r25, 0x00	; 0
 32e:	91 83       	std	Z+1, r25	; 0x01
 330:	80 83       	st	Z, r24
 332:	14 96       	adiw	r26, 0x04	; 4
 334:	8c 91       	ld	r24, X
 336:	14 97       	sbiw	r26, 0x04	; 4
 338:	84 83       	std	Z+4, r24	; 0x04
 33a:	15 96       	adiw	r26, 0x05	; 5
 33c:	8c 91       	ld	r24, X
 33e:	15 97       	sbiw	r26, 0x05	; 5
 340:	85 83       	std	Z+5, r24	; 0x05
 342:	16 96       	adiw	r26, 0x06	; 6
 344:	4d 91       	ld	r20, X+
 346:	5d 91       	ld	r21, X+
 348:	6d 91       	ld	r22, X+
 34a:	7c 91       	ld	r23, X
 34c:	19 97       	sbiw	r26, 0x09	; 9
 34e:	46 83       	std	Z+6, r20	; 0x06
 350:	57 83       	std	Z+7, r21	; 0x07
 352:	60 87       	std	Z+8, r22	; 0x08
 354:	71 87       	std	Z+9, r23	; 0x09
 356:	1a 96       	adiw	r26, 0x0a	; 10
 358:	4d 91       	ld	r20, X+
 35a:	5d 91       	ld	r21, X+
 35c:	6d 91       	ld	r22, X+
 35e:	7c 91       	ld	r23, X
 360:	1d 97       	sbiw	r26, 0x0d	; 13
 362:	42 87       	std	Z+10, r20	; 0x0a
 364:	53 87       	std	Z+11, r21	; 0x0b
 366:	64 87       	std	Z+12, r22	; 0x0c
 368:	75 87       	std	Z+13, r23	; 0x0d
 36a:	1e 96       	adiw	r26, 0x0e	; 14
 36c:	4d 91       	ld	r20, X+
 36e:	5d 91       	ld	r21, X+
 370:	6d 91       	ld	r22, X+
 372:	7c 91       	ld	r23, X
 374:	51 97       	sbiw	r26, 0x11	; 17
 376:	46 87       	std	Z+14, r20	; 0x0e
 378:	57 87       	std	Z+15, r21	; 0x0f
 37a:	60 8b       	std	Z+16, r22	; 0x10
 37c:	71 8b       	std	Z+17, r23	; 0x11
 37e:	52 96       	adiw	r26, 0x12	; 18
 380:	8c 91       	ld	r24, X
 382:	52 97       	sbiw	r26, 0x12	; 18
 384:	82 8b       	std	Z+18, r24	; 0x12
 386:	53 96       	adiw	r26, 0x13	; 19
 388:	4d 91       	ld	r20, X+
 38a:	5d 91       	ld	r21, X+
 38c:	6d 91       	ld	r22, X+
 38e:	7c 91       	ld	r23, X
 390:	56 97       	sbiw	r26, 0x16	; 22
 392:	43 8b       	std	Z+19, r20	; 0x13
 394:	54 8b       	std	Z+20, r21	; 0x14
 396:	65 8b       	std	Z+21, r22	; 0x15
 398:	76 8b       	std	Z+22, r23	; 0x16
 39a:	57 96       	adiw	r26, 0x17	; 23
 39c:	4d 91       	ld	r20, X+
 39e:	5d 91       	ld	r21, X+
 3a0:	6d 91       	ld	r22, X+
 3a2:	7c 91       	ld	r23, X
 3a4:	5a 97       	sbiw	r26, 0x1a	; 26
 3a6:	47 8b       	std	Z+23, r20	; 0x17
 3a8:	50 8f       	std	Z+24, r21	; 0x18
 3aa:	61 8f       	std	Z+25, r22	; 0x19
 3ac:	72 8f       	std	Z+26, r23	; 0x1a
 3ae:	5b 96       	adiw	r26, 0x1b	; 27
 3b0:	8d 91       	ld	r24, X+
 3b2:	9c 91       	ld	r25, X
 3b4:	5c 97       	sbiw	r26, 0x1c	; 28
 3b6:	94 8f       	std	Z+28, r25	; 0x1c
 3b8:	83 8f       	std	Z+27, r24	; 0x1b
 3ba:	08 95       	ret

000003bc <_ZN7SDClass12getParentDirEPKcPi>:
 3bc:	4f 92       	push	r4
 3be:	5f 92       	push	r5
 3c0:	6f 92       	push	r6
 3c2:	7f 92       	push	r7
 3c4:	8f 92       	push	r8
 3c6:	9f 92       	push	r9
 3c8:	af 92       	push	r10
 3ca:	bf 92       	push	r11
 3cc:	cf 92       	push	r12
 3ce:	df 92       	push	r13
 3d0:	ef 92       	push	r14
 3d2:	ff 92       	push	r15
 3d4:	0f 93       	push	r16
 3d6:	1f 93       	push	r17
 3d8:	cf 93       	push	r28
 3da:	df 93       	push	r29
 3dc:	cd b7       	in	r28, 0x3d	; 61
 3de:	de b7       	in	r29, 0x3e	; 62
 3e0:	c7 54       	subi	r28, 0x47	; 71
 3e2:	d0 40       	sbci	r29, 0x00	; 0
 3e4:	0f b6       	in	r0, 0x3f	; 63
 3e6:	f8 94       	cli
 3e8:	de bf       	out	0x3e, r29	; 62
 3ea:	0f be       	out	0x3f, r0	; 63
 3ec:	cd bf       	out	0x3d, r28	; 61
 3ee:	4c 01       	movw	r8, r24
 3f0:	3a 01       	movw	r6, r20
 3f2:	29 01       	movw	r4, r18
 3f4:	8e 01       	movw	r16, r28
 3f6:	05 5d       	subi	r16, 0xD5	; 213
 3f8:	1f 4f       	sbci	r17, 0xFF	; 255
 3fa:	66 5d       	subi	r22, 0xD6	; 214
 3fc:	7f 4f       	sbci	r23, 0xFF	; 255
 3fe:	c8 01       	movw	r24, r16
 400:	0e 94 00 00 	call	0	; 0x0 <_Z19callback_pathExistsR6SdFilePchPv>
 404:	19 8a       	std	Y+17, r1	; 0x11
 406:	18 8a       	std	Y+16, r1	; 0x10
 408:	80 e0       	ldi	r24, 0x00	; 0
 40a:	90 e0       	ldi	r25, 0x00	; 0
 40c:	9f 87       	std	Y+15, r25	; 0x0f
 40e:	8e 87       	std	Y+14, r24	; 0x0e
 410:	1b 8a       	std	Y+19, r1	; 0x13
 412:	73 01       	movw	r14, r6
 414:	ae e0       	ldi	r26, 0x0E	; 14
 416:	aa 2e       	mov	r10, r26
 418:	b1 2c       	mov	r11, r1
 41a:	ac 0e       	add	r10, r28
 41c:	bd 1e       	adc	r11, r29
 41e:	68 01       	movw	r12, r16
 420:	00 c0       	rjmp	.+0      	; 0x422 <_ZN7SDClass12getParentDirEPKcPi+0x66>
 422:	f7 01       	movw	r30, r14
 424:	20 81       	ld	r18, Z
 426:	2f 32       	cpi	r18, 0x2F	; 47
 428:	01 f4       	brne	.+0      	; 0x42a <_ZN7SDClass12getParentDirEPKcPi+0x6e>
 42a:	08 94       	sec
 42c:	e1 1c       	adc	r14, r1
 42e:	f1 1c       	adc	r15, r1
 430:	00 c0       	rjmp	.+0      	; 0x432 <_ZN7SDClass12getParentDirEPKcPi+0x76>
 432:	8e 19       	sub	r24, r14
 434:	8d 30       	cpi	r24, 0x0D	; 13
 436:	00 f0       	brcs	.+0      	; 0x438 <_ZN7SDClass12getParentDirEPKcPi+0x7c>
 438:	8c e0       	ldi	r24, 0x0C	; 12
 43a:	08 2f       	mov	r16, r24
 43c:	10 e0       	ldi	r17, 0x00	; 0
 43e:	ce 01       	movw	r24, r28
 440:	01 96       	adiw	r24, 0x01	; 1
 442:	b7 01       	movw	r22, r14
 444:	a8 01       	movw	r20, r16
 446:	0e 94 00 00 	call	0	; 0x0 <_Z19callback_pathExistsR6SdFilePchPv>
 44a:	e1 e0       	ldi	r30, 0x01	; 1
 44c:	f0 e0       	ldi	r31, 0x00	; 0
 44e:	ec 0f       	add	r30, r28
 450:	fd 1f       	adc	r31, r29
 452:	e0 0f       	add	r30, r16
 454:	f1 1f       	adc	r31, r17
 456:	10 82       	st	Z, r1
 458:	c5 01       	movw	r24, r10
 45a:	0e 94 00 00 	call	0	; 0x0 <_Z19callback_pathExistsR6SdFilePchPv>
 45e:	c5 01       	movw	r24, r10
 460:	b6 01       	movw	r22, r12
 462:	ae 01       	movw	r20, r28
 464:	4f 5f       	subi	r20, 0xFF	; 255
 466:	5f 4f       	sbci	r21, 0xFF	; 255
 468:	21 e0       	ldi	r18, 0x01	; 1
 46a:	0e 94 00 00 	call	0	; 0x0 <_Z19callback_pathExistsR6SdFilePchPv>
 46e:	88 23       	and	r24, r24
 470:	01 f4       	brne	.+0      	; 0x472 <_ZN7SDClass12getParentDirEPKcPi+0xb6>
 472:	f4 01       	movw	r30, r8
 474:	13 82       	std	Z+3, r1	; 0x03
 476:	12 82       	std	Z+2, r1	; 0x02
 478:	80 e0       	ldi	r24, 0x00	; 0
 47a:	90 e0       	ldi	r25, 0x00	; 0
 47c:	91 83       	std	Z+1, r25	; 0x01
 47e:	80 83       	st	Z, r24
 480:	15 82       	std	Z+5, r1	; 0x05
 482:	00 c0       	rjmp	.+0      	; 0x484 <_ZN7SDClass12getParentDirEPKcPi+0xc8>
 484:	e0 0e       	add	r14, r16
 486:	f1 1e       	adc	r15, r17
 488:	c6 01       	movw	r24, r12
 48a:	0e 94 00 00 	call	0	; 0x0 <_Z19callback_pathExistsR6SdFilePchPv>
 48e:	9c 2d       	mov	r25, r12
 490:	8d 2d       	mov	r24, r13
 492:	65 01       	movw	r12, r10
 494:	a9 2e       	mov	r10, r25
 496:	b8 2e       	mov	r11, r24
 498:	c7 01       	movw	r24, r14
 49a:	6f e2       	ldi	r22, 0x2F	; 47
 49c:	70 e0       	ldi	r23, 0x00	; 0
 49e:	0e 94 00 00 	call	0	; 0x0 <_Z19callback_pathExistsR6SdFilePchPv>
 4a2:	00 97       	sbiw	r24, 0x00	; 0
 4a4:	01 f0       	breq	.+0      	; 0x4a6 <_ZN7SDClass12getParentDirEPKcPi+0xea>
 4a6:	00 c0       	rjmp	.+0      	; 0x4a8 <_ZN7SDClass12getParentDirEPKcPi+0xec>
 4a8:	e6 18       	sub	r14, r6
 4aa:	f7 08       	sbc	r15, r7
 4ac:	f2 01       	movw	r30, r4
 4ae:	f1 82       	std	Z+1, r15	; 0x01
 4b0:	e0 82       	st	Z, r14
 4b2:	c4 01       	movw	r24, r8
 4b4:	b6 01       	movw	r22, r12
 4b6:	0e 94 00 00 	call	0	; 0x0 <_Z19callback_pathExistsR6SdFilePchPv>
 4ba:	c4 01       	movw	r24, r8
 4bc:	c9 5b       	subi	r28, 0xB9	; 185
 4be:	df 4f       	sbci	r29, 0xFF	; 255
 4c0:	0f b6       	in	r0, 0x3f	; 63
 4c2:	f8 94       	cli
 4c4:	de bf       	out	0x3e, r29	; 62
 4c6:	0f be       	out	0x3f, r0	; 63
 4c8:	cd bf       	out	0x3d, r28	; 61
 4ca:	df 91       	pop	r29
 4cc:	cf 91       	pop	r28
 4ce:	1f 91       	pop	r17
 4d0:	0f 91       	pop	r16
 4d2:	ff 90       	pop	r15
 4d4:	ef 90       	pop	r14
 4d6:	df 90       	pop	r13
 4d8:	cf 90       	pop	r12
 4da:	bf 90       	pop	r11
 4dc:	af 90       	pop	r10
 4de:	9f 90       	pop	r9
 4e0:	8f 90       	pop	r8
 4e2:	7f 90       	pop	r7
 4e4:	6f 90       	pop	r6
 4e6:	5f 90       	pop	r5
 4e8:	4f 90       	pop	r4
 4ea:	08 95       	ret

000004ec <_ZN7SDClass4openEPKch>:
 4ec:	af 92       	push	r10
 4ee:	bf 92       	push	r11
 4f0:	df 92       	push	r13
 4f2:	ef 92       	push	r14
 4f4:	ff 92       	push	r15
 4f6:	0f 93       	push	r16
 4f8:	1f 93       	push	r17
 4fa:	cf 93       	push	r28
 4fc:	df 93       	push	r29
 4fe:	cd b7       	in	r28, 0x3d	; 61
 500:	de b7       	in	r29, 0x3e	; 62
 502:	c6 57       	subi	r28, 0x76	; 118
 504:	d0 40       	sbci	r29, 0x00	; 0
 506:	0f b6       	in	r0, 0x3f	; 63
 508:	f8 94       	cli
 50a:	de bf       	out	0x3e, r29	; 62
 50c:	0f be       	out	0x3f, r0	; 63
 50e:	cd bf       	out	0x3d, r28	; 61
 510:	7c 01       	movw	r14, r24
 512:	5a 01       	movw	r10, r20
 514:	d2 2e       	mov	r13, r18
 516:	ce 01       	movw	r24, r28
 518:	86 5a       	subi	r24, 0xA6	; 166
 51a:	9f 4f       	sbci	r25, 0xFF	; 255
 51c:	9e 01       	movw	r18, r28
 51e:	2f 5f       	subi	r18, 0xFF	; 255
 520:	3f 4f       	sbci	r19, 0xFF	; 255
 522:	0e 94 00 00 	call	0	; 0x0 <_Z19callback_pathExistsR6SdFilePchPv>
 526:	09 81       	ldd	r16, Y+1	; 0x01
 528:	1a 81       	ldd	r17, Y+2	; 0x02
 52a:	0a 0d       	add	r16, r10
 52c:	1b 1d       	adc	r17, r11
 52e:	f8 01       	movw	r30, r16
 530:	80 81       	ld	r24, Z
 532:	88 23       	and	r24, r24
 534:	01 f4       	brne	.+0      	; 0x536 <_ZN7SDClass4openEPKch+0x4a>
 536:	ce 01       	movw	r24, r28
 538:	cd 96       	adiw	r24, 0x3d	; 61
 53a:	be 01       	movw	r22, r28
 53c:	66 5a       	subi	r22, 0xA6	; 166
 53e:	7f 4f       	sbci	r23, 0xFF	; 255
 540:	0e 94 00 00 	call	0	; 0x0 <_Z19callback_pathExistsR6SdFilePchPv>
 544:	c7 01       	movw	r24, r14
 546:	be 01       	movw	r22, r28
 548:	63 5c       	subi	r22, 0xC3	; 195
 54a:	7f 4f       	sbci	r23, 0xFF	; 255
 54c:	40 e0       	ldi	r20, 0x00	; 0
 54e:	50 e0       	ldi	r21, 0x00	; 0
 550:	00 c0       	rjmp	.+0      	; 0x552 <_ZN7SDClass4openEPKch+0x66>
 552:	1b a2       	std	Y+35, r1	; 0x23
 554:	1a a2       	std	Y+34, r1	; 0x22
 556:	80 e0       	ldi	r24, 0x00	; 0
 558:	90 e0       	ldi	r25, 0x00	; 0
 55a:	99 a3       	std	Y+33, r25	; 0x21
 55c:	88 a3       	std	Y+32, r24	; 0x20
 55e:	1d a2       	std	Y+37, r1	; 0x25
 560:	a0 96       	adiw	r28, 0x20	; 32
 562:	8f ad       	ldd	r24, Y+63	; 0x3f
 564:	a0 97       	sbiw	r28, 0x20	; 32
 566:	88 23       	and	r24, r24
 568:	01 f0       	breq	.+0      	; 0x56a <_ZN7SDClass4openEPKch+0x7e>
 56a:	82 50       	subi	r24, 0x02	; 2
 56c:	82 30       	cpi	r24, 0x02	; 2
 56e:	00 f4       	brcc	.+0      	; 0x570 <_ZN7SDClass4openEPKch+0x84>
 570:	ce 01       	movw	r24, r28
 572:	80 96       	adiw	r24, 0x20	; 32
 574:	60 e0       	ldi	r22, 0x00	; 0
 576:	70 e0       	ldi	r23, 0x00	; 0
 578:	a8 01       	movw	r20, r16
 57a:	2d 2d       	mov	r18, r13
 57c:	0e 94 00 00 	call	0	; 0x0 <_Z19callback_pathExistsR6SdFilePchPv>
 580:	88 23       	and	r24, r24
 582:	01 f4       	brne	.+0      	; 0x584 <_ZN7SDClass4openEPKch+0x98>
 584:	00 c0       	rjmp	.+0      	; 0x586 <_ZN7SDClass4openEPKch+0x9a>
 586:	ce 01       	movw	r24, r28
 588:	80 96       	adiw	r24, 0x20	; 32
 58a:	be 01       	movw	r22, r28
 58c:	66 5a       	subi	r22, 0xA6	; 166
 58e:	7f 4f       	sbci	r23, 0xFF	; 255
 590:	a8 01       	movw	r20, r16
 592:	2d 2d       	mov	r18, r13
 594:	0e 94 00 00 	call	0	; 0x0 <_Z19callback_pathExistsR6SdFilePchPv>
 598:	88 23       	and	r24, r24
 59a:	01 f4       	brne	.+0      	; 0x59c <_ZN7SDClass4openEPKch+0xb0>
 59c:	c7 01       	movw	r24, r14
 59e:	0e 94 00 00 	call	0	; 0x0 <_Z19callback_pathExistsR6SdFilePchPv>
 5a2:	00 c0       	rjmp	.+0      	; 0x5a4 <_ZN7SDClass4openEPKch+0xb8>
 5a4:	ce 01       	movw	r24, r28
 5a6:	86 5a       	subi	r24, 0xA6	; 166
 5a8:	9f 4f       	sbci	r25, 0xFF	; 255
 5aa:	0e 94 00 00 	call	0	; 0x0 <_Z19callback_pathExistsR6SdFilePchPv>
 5ae:	8d 2d       	mov	r24, r13
 5b0:	86 70       	andi	r24, 0x06	; 6
 5b2:	01 f0       	breq	.+0      	; 0x5b4 <_ZN7SDClass4openEPKch+0xc8>
 5b4:	4b a9       	ldd	r20, Y+51	; 0x33
 5b6:	5c a9       	ldd	r21, Y+52	; 0x34
 5b8:	6d a9       	ldd	r22, Y+53	; 0x35
 5ba:	7e a9       	ldd	r23, Y+54	; 0x36
 5bc:	ce 01       	movw	r24, r28
 5be:	80 96       	adiw	r24, 0x20	; 32
 5c0:	0e 94 00 00 	call	0	; 0x0 <_Z19callback_pathExistsR6SdFilePchPv>
 5c4:	ce 01       	movw	r24, r28
 5c6:	03 96       	adiw	r24, 0x03	; 3
 5c8:	be 01       	movw	r22, r28
 5ca:	60 5e       	subi	r22, 0xE0	; 224
 5cc:	7f 4f       	sbci	r23, 0xFF	; 255
 5ce:	0e 94 00 00 	call	0	; 0x0 <_Z19callback_pathExistsR6SdFilePchPv>
 5d2:	c7 01       	movw	r24, r14
 5d4:	be 01       	movw	r22, r28
 5d6:	6d 5f       	subi	r22, 0xFD	; 253
 5d8:	7f 4f       	sbci	r23, 0xFF	; 255
 5da:	a8 01       	movw	r20, r16
 5dc:	0e 94 00 00 	call	0	; 0x0 <_Z19callback_pathExistsR6SdFilePchPv>
 5e0:	c7 01       	movw	r24, r14
 5e2:	ca 58       	subi	r28, 0x8A	; 138
 5e4:	df 4f       	sbci	r29, 0xFF	; 255
 5e6:	0f b6       	in	r0, 0x3f	; 63
 5e8:	f8 94       	cli
 5ea:	de bf       	out	0x3e, r29	; 62
 5ec:	0f be       	out	0x3f, r0	; 63
 5ee:	cd bf       	out	0x3d, r28	; 61
 5f0:	df 91       	pop	r29
 5f2:	cf 91       	pop	r28
 5f4:	1f 91       	pop	r17
 5f6:	0f 91       	pop	r16
 5f8:	ff 90       	pop	r15
 5fa:	ef 90       	pop	r14
 5fc:	df 90       	pop	r13
 5fe:	bf 90       	pop	r11
 600:	af 90       	pop	r10
 602:	08 95       	ret

00000604 <_ZN7SDClass6existsEPc>:
 604:	9c 01       	movw	r18, r24
 606:	26 5d       	subi	r18, 0xD6	; 214
 608:	3f 4f       	sbci	r19, 0xFF	; 255
 60a:	cb 01       	movw	r24, r22
 60c:	b9 01       	movw	r22, r18
 60e:	40 e0       	ldi	r20, 0x00	; 0
 610:	50 e0       	ldi	r21, 0x00	; 0
 612:	20 e0       	ldi	r18, 0x00	; 0
 614:	30 e0       	ldi	r19, 0x00	; 0
 616:	0e 94 00 00 	call	0	; 0x0 <_Z19callback_pathExistsR6SdFilePchPv>
 61a:	08 95       	ret

0000061c <_ZN7SDClass5mkdirEPc>:
 61c:	9c 01       	movw	r18, r24
 61e:	26 5d       	subi	r18, 0xD6	; 214
 620:	3f 4f       	sbci	r19, 0xFF	; 255
 622:	cb 01       	movw	r24, r22
 624:	b9 01       	movw	r22, r18
 626:	40 e0       	ldi	r20, 0x00	; 0
 628:	50 e0       	ldi	r21, 0x00	; 0
 62a:	20 e0       	ldi	r18, 0x00	; 0
 62c:	30 e0       	ldi	r19, 0x00	; 0
 62e:	0e 94 00 00 	call	0	; 0x0 <_Z19callback_pathExistsR6SdFilePchPv>
 632:	08 95       	ret

00000634 <_ZN7SDClass5rmdirEPc>:
 634:	9c 01       	movw	r18, r24
 636:	26 5d       	subi	r18, 0xD6	; 214
 638:	3f 4f       	sbci	r19, 0xFF	; 255
 63a:	cb 01       	movw	r24, r22
 63c:	b9 01       	movw	r22, r18
 63e:	40 e0       	ldi	r20, 0x00	; 0
 640:	50 e0       	ldi	r21, 0x00	; 0
 642:	20 e0       	ldi	r18, 0x00	; 0
 644:	30 e0       	ldi	r19, 0x00	; 0
 646:	0e 94 00 00 	call	0	; 0x0 <_Z19callback_pathExistsR6SdFilePchPv>
 64a:	08 95       	ret

0000064c <_ZN7SDClass6removeEPc>:
 64c:	9c 01       	movw	r18, r24
 64e:	26 5d       	subi	r18, 0xD6	; 214
 650:	3f 4f       	sbci	r19, 0xFF	; 255
 652:	cb 01       	movw	r24, r22
 654:	b9 01       	movw	r22, r18
 656:	40 e0       	ldi	r20, 0x00	; 0
 658:	50 e0       	ldi	r21, 0x00	; 0
 65a:	20 e0       	ldi	r18, 0x00	; 0
 65c:	30 e0       	ldi	r19, 0x00	; 0
 65e:	0e 94 00 00 	call	0	; 0x0 <_Z19callback_pathExistsR6SdFilePchPv>
 662:	08 95       	ret

00000664 <_ZN4File12openNextFileEh>:
 664:	df 92       	push	r13
 666:	ef 92       	push	r14
 668:	ff 92       	push	r15
 66a:	0f 93       	push	r16
 66c:	1f 93       	push	r17
 66e:	cf 93       	push	r28
 670:	df 93       	push	r29
 672:	cd b7       	in	r28, 0x3d	; 61
 674:	de b7       	in	r29, 0x3e	; 62
 676:	c7 56       	subi	r28, 0x67	; 103
 678:	d0 40       	sbci	r29, 0x00	; 0
 67a:	0f b6       	in	r0, 0x3f	; 63
 67c:	f8 94       	cli
 67e:	de bf       	out	0x3e, r29	; 62
 680:	0f be       	out	0x3f, r0	; 63
 682:	cd bf       	out	0x3d, r28	; 61
 684:	8c 01       	movw	r16, r24
 686:	7b 01       	movw	r14, r22
 688:	d4 2e       	mov	r13, r20
 68a:	00 c0       	rjmp	.+0      	; 0x68c <_ZN4File12openNextFileEh+0x28>
 68c:	29 96       	adiw	r28, 0x09	; 9
 68e:	8f ad       	ldd	r24, Y+63	; 0x3f
 690:	29 97       	sbiw	r28, 0x09	; 9
 692:	88 23       	and	r24, r24
 694:	01 f4       	brne	.+0      	; 0x696 <_ZN4File12openNextFileEh+0x32>
 696:	00 c0       	rjmp	.+0      	; 0x698 <_ZN4File12openNextFileEh+0x34>
 698:	85 3e       	cpi	r24, 0xE5	; 229
 69a:	01 f0       	breq	.+0      	; 0x69c <_ZN4File12openNextFileEh+0x38>
 69c:	8e 32       	cpi	r24, 0x2E	; 46
 69e:	01 f0       	breq	.+0      	; 0x6a0 <_ZN4File12openNextFileEh+0x3c>
 6a0:	64 96       	adiw	r28, 0x14	; 20
 6a2:	8f ad       	ldd	r24, Y+63	; 0x3f
 6a4:	64 97       	sbiw	r28, 0x14	; 20
 6a6:	83 fd       	sbrc	r24, 3
 6a8:	00 c0       	rjmp	.+0      	; 0x6aa <_ZN4File12openNextFileEh+0x46>
 6aa:	1e a6       	std	Y+46, r1	; 0x2e
 6ac:	1d a6       	std	Y+45, r1	; 0x2d
 6ae:	80 e0       	ldi	r24, 0x00	; 0
 6b0:	90 e0       	ldi	r25, 0x00	; 0
 6b2:	9c a7       	std	Y+44, r25	; 0x2c
 6b4:	8b a7       	std	Y+43, r24	; 0x2b
 6b6:	18 aa       	std	Y+48, r1	; 0x30
 6b8:	ce 01       	movw	r24, r28
 6ba:	88 5b       	subi	r24, 0xB8	; 184
 6bc:	9f 4f       	sbci	r25, 0xFF	; 255
 6be:	be 01       	movw	r22, r28
 6c0:	6f 5f       	subi	r22, 0xFF	; 255
 6c2:	7f 4f       	sbci	r23, 0xFF	; 255
 6c4:	0e 94 00 00 	call	0	; 0x0 <_Z19callback_pathExistsR6SdFilePchPv>
 6c8:	f7 01       	movw	r30, r14
 6ca:	61 8d       	ldd	r22, Z+25	; 0x19
 6cc:	72 8d       	ldd	r23, Z+26	; 0x1a
 6ce:	ce 01       	movw	r24, r28
 6d0:	8b 96       	adiw	r24, 0x2b	; 43
 6d2:	ae 01       	movw	r20, r28
 6d4:	4f 5f       	subi	r20, 0xFF	; 255
 6d6:	5f 4f       	sbci	r21, 0xFF	; 255
 6d8:	2d 2d       	mov	r18, r13
 6da:	0e 94 00 00 	call	0	; 0x0 <_Z19callback_pathExistsR6SdFilePchPv>
 6de:	88 23       	and	r24, r24
 6e0:	01 f0       	breq	.+0      	; 0x6e2 <_ZN4File12openNextFileEh+0x7e>
 6e2:	ce 01       	movw	r24, r28
 6e4:	0e 96       	adiw	r24, 0x0e	; 14
 6e6:	be 01       	movw	r22, r28
 6e8:	65 5d       	subi	r22, 0xD5	; 213
 6ea:	7f 4f       	sbci	r23, 0xFF	; 255
 6ec:	0e 94 00 00 	call	0	; 0x0 <_Z19callback_pathExistsR6SdFilePchPv>
 6f0:	c8 01       	movw	r24, r16
 6f2:	be 01       	movw	r22, r28
 6f4:	62 5f       	subi	r22, 0xF2	; 242
 6f6:	7f 4f       	sbci	r23, 0xFF	; 255
 6f8:	ae 01       	movw	r20, r28
 6fa:	4f 5f       	subi	r20, 0xFF	; 255
 6fc:	5f 4f       	sbci	r21, 0xFF	; 255
 6fe:	0e 94 00 00 	call	0	; 0x0 <_Z19callback_pathExistsR6SdFilePchPv>
 702:	00 c0       	rjmp	.+0      	; 0x704 <_ZN4File12openNextFileEh+0xa0>
 704:	f7 01       	movw	r30, r14
 706:	81 8d       	ldd	r24, Z+25	; 0x19
 708:	92 8d       	ldd	r25, Z+26	; 0x1a
 70a:	be 01       	movw	r22, r28
 70c:	68 5b       	subi	r22, 0xB8	; 184
 70e:	7f 4f       	sbci	r23, 0xFF	; 255
 710:	0e 94 00 00 	call	0	; 0x0 <_Z19callback_pathExistsR6SdFilePchPv>
 714:	18 16       	cp	r1, r24
 716:	04 f4       	brge	.+0      	; 0x718 <_ZN4File12openNextFileEh+0xb4>
 718:	00 c0       	rjmp	.+0      	; 0x71a <_ZN4File12openNextFileEh+0xb6>
 71a:	c8 01       	movw	r24, r16
 71c:	0e 94 00 00 	call	0	; 0x0 <_Z19callback_pathExistsR6SdFilePchPv>
 720:	c8 01       	movw	r24, r16
 722:	c9 59       	subi	r28, 0x99	; 153
 724:	df 4f       	sbci	r29, 0xFF	; 255
 726:	0f b6       	in	r0, 0x3f	; 63
 728:	f8 94       	cli
 72a:	de bf       	out	0x3e, r29	; 62
 72c:	0f be       	out	0x3f, r0	; 63
 72e:	cd bf       	out	0x3d, r28	; 61
 730:	df 91       	pop	r29
 732:	cf 91       	pop	r28
 734:	1f 91       	pop	r17
 736:	0f 91       	pop	r16
 738:	ff 90       	pop	r15
 73a:	ef 90       	pop	r14
 73c:	df 90       	pop	r13
 73e:	08 95       	ret

00000740 <_ZN4File15rewindDirectoryEv>:
 740:	cf 93       	push	r28
 742:	df 93       	push	r29
 744:	ec 01       	movw	r28, r24
 746:	0e 94 00 00 	call	0	; 0x0 <_Z19callback_pathExistsR6SdFilePchPv>
 74a:	88 23       	and	r24, r24
 74c:	01 f0       	breq	.+0      	; 0x74e <_ZN4File15rewindDirectoryEv+0xe>
 74e:	e9 8d       	ldd	r30, Y+25	; 0x19
 750:	fa 8d       	ldd	r31, Y+26	; 0x1a
 752:	16 82       	std	Z+6, r1	; 0x06
 754:	17 82       	std	Z+7, r1	; 0x07
 756:	10 86       	std	Z+8, r1	; 0x08
 758:	11 86       	std	Z+9, r1	; 0x09
 75a:	12 86       	std	Z+10, r1	; 0x0a
 75c:	13 86       	std	Z+11, r1	; 0x0b
 75e:	14 86       	std	Z+12, r1	; 0x0c
 760:	15 86       	std	Z+13, r1	; 0x0d
 762:	df 91       	pop	r29
 764:	cf 91       	pop	r28
 766:	08 95       	ret

Disassembly of section .text.startup:

00000000 <_GLOBAL__sub_I__Z20getNextPathComponentPcPjS_>:
   0:	10 92 00 00 	sts	0x0000, r1
   4:	10 92 00 00 	sts	0x0000, r1
   8:	10 92 00 00 	sts	0x0000, r1
   c:	10 92 00 00 	sts	0x0000, r1
  10:	82 e0       	ldi	r24, 0x02	; 2
  12:	90 e0       	ldi	r25, 0x00	; 0
  14:	a0 e0       	ldi	r26, 0x00	; 0
  16:	b0 e0       	ldi	r27, 0x00	; 0
  18:	80 93 00 00 	sts	0x0000, r24
  1c:	90 93 00 00 	sts	0x0000, r25
  20:	a0 93 00 00 	sts	0x0000, r26
  24:	b0 93 00 00 	sts	0x0000, r27
  28:	10 92 00 00 	sts	0x0000, r1
  2c:	10 92 00 00 	sts	0x0000, r1
  30:	10 92 00 00 	sts	0x0000, r1
  34:	80 e0       	ldi	r24, 0x00	; 0
  36:	90 e0       	ldi	r25, 0x00	; 0
  38:	90 93 00 00 	sts	0x0000, r25
  3c:	80 93 00 00 	sts	0x0000, r24
  40:	10 92 00 00 	sts	0x0000, r1
  44:	08 95       	ret

LiquidCrystal.o:     file format elf32-avr

Sections:
Idx Name          Size      VMA       LMA       File off  Algn
  0 .text         0000068c  00000000  00000000  00000034  2**0
                  CONTENTS, ALLOC, LOAD, RELOC, READONLY, CODE
  1 .data         00000010  00000000  00000000  000006c0  2**0
                  CONTENTS, ALLOC, LOAD, RELOC, DATA
  2 .bss          00000000  00000000  00000000  000006d0  2**0
                  ALLOC

Disassembly of section .text:

00000000 <_ZN13LiquidCrystal11pulseEnableEv>:
   0:	cf 93       	push	r28
   2:	df 93       	push	r29
   4:	ec 01       	movw	r28, r24
   6:	8e 81       	ldd	r24, Y+6	; 0x06
   8:	60 e0       	ldi	r22, 0x00	; 0
   a:	0e 94 00 00 	call	0	; 0x0 <_ZN13LiquidCrystal11pulseEnableEv>
   e:	81 e0       	ldi	r24, 0x01	; 1
  10:	90 e0       	ldi	r25, 0x00	; 0
  12:	0e 94 00 00 	call	0	; 0x0 <_ZN13LiquidCrystal11pulseEnableEv>
  16:	8e 81       	ldd	r24, Y+6	; 0x06
  18:	61 e0       	ldi	r22, 0x01	; 1
  1a:	0e 94 00 00 	call	0	; 0x0 <_ZN13LiquidCrystal11pulseEnableEv>
  1e:	81 e0       	ldi	r24, 0x01	; 1
  20:	90 e0       	ldi	r25, 0x00	; 0
  22:	0e 94 00 00 	call	0	; 0x0 <_ZN13LiquidCrystal11pulseEnableEv>
  26:	8e 81       	ldd	r24, Y+6	; 0x06
  28:	60 e0       	ldi	r22, 0x00	; 0
  2a:	0e 94 00 00 	call	0	; 0x0 <_ZN13LiquidCrystal11pulseEnableEv>
  2e:	84 e6       	ldi	r24, 0x64	; 100
  30:	90 e0       	ldi	r25, 0x00	; 0
  32:	0e 94 00 00 	call	0	; 0x0 <_ZN13LiquidCrystal11pulseEnableEv>
  36:	df 91       	pop	r29
  38:	cf 91       	pop	r28
  3a:	08 95       	ret

0000003c <_ZN13LiquidCrystal10write4bitsEh>:
  3c:	cf 92       	push	r12
  3e:	df 92       	push	r13
  40:	ef 92       	push	r14
  42:	ff 92       	push	r15
  44:	0f 93       	push	r16
  46:	1f 93       	push	r17
  48:	cf 93       	push	r28
  4a:	df 93       	push	r29
  4c:	8c 01       	movw	r16, r24
  4e:	c0 e0       	ldi	r28, 0x00	; 0
  50:	d0 e0       	ldi	r29, 0x00	; 0
  52:	c6 2e       	mov	r12, r22
  54:	dd 24       	eor	r13, r13
  56:	78 01       	movw	r14, r16
  58:	ec 0e       	add	r14, r28
  5a:	fd 1e       	adc	r15, r29
  5c:	f7 01       	movw	r30, r14
  5e:	87 81       	ldd	r24, Z+7	; 0x07
  60:	61 e0       	ldi	r22, 0x01	; 1
  62:	0e 94 00 00 	call	0	; 0x0 <_ZN13LiquidCrystal11pulseEnableEv>
  66:	b6 01       	movw	r22, r12
  68:	0c 2e       	mov	r0, r28
  6a:	00 c0       	rjmp	.+0      	; 0x6c <_ZN13LiquidCrystal10write4bitsEh+0x30>
  6c:	75 95       	asr	r23
  6e:	67 95       	ror	r22
  70:	0a 94       	dec	r0
  72:	02 f4       	brpl	.+0      	; 0x74 <_ZN13LiquidCrystal10write4bitsEh+0x38>
  74:	61 70       	andi	r22, 0x01	; 1
  76:	f7 01       	movw	r30, r14
  78:	87 81       	ldd	r24, Z+7	; 0x07
  7a:	0e 94 00 00 	call	0	; 0x0 <_ZN13LiquidCrystal11pulseEnableEv>
  7e:	21 96       	adiw	r28, 0x01	; 1
  80:	c4 30       	cpi	r28, 0x04	; 4
  82:	d1 05       	cpc	r29, r1
  84:	01 f4       	brne	.+0      	; 0x86 <_ZN13LiquidCrystal10write4bitsEh+0x4a>
  86:	c8 01       	movw	r24, r16
  88:	0e 94 00 00 	call	0	; 0x0 <_ZN13LiquidCrystal11pulseEnableEv>
  8c:	df 91       	pop	r29
  8e:	cf 91       	pop	r28
  90:	1f 91       	pop	r17
  92:	0f 91       	pop	r16
  94:	ff 90       	pop	r15
  96:	ef 90       	pop	r14
  98:	df 90       	pop	r13
  9a:	cf 90       	pop	r12
  9c:	08 95       	ret

0000009e <_ZN13LiquidCrystal10write8bitsEh>:
  9e:	cf 92       	push	r12
  a0:	df 92       	push	r13
  a2:	ef 92       	push	r14
  a4:	ff 92       	push	r15
  a6:	0f 93       	push	r16
  a8:	1f 93       	push	r17
  aa:	cf 93       	push	r28
  ac:	df 93       	push	r29
  ae:	8c 01       	movw	r16, r24
  b0:	c0 e0       	ldi	r28, 0x00	; 0
  b2:	d0 e0       	ldi	r29, 0x00	; 0
  b4:	c6 2e       	mov	r12, r22
  b6:	dd 24       	eor	r13, r13
  b8:	78 01       	movw	r14, r16
  ba:	ec 0e       	add	r14, r28
  bc:	fd 1e       	adc	r15, r29
  be:	f7 01       	movw	r30, r14
  c0:	87 81       	ldd	r24, Z+7	; 0x07
  c2:	61 e0       	ldi	r22, 0x01	; 1
  c4:	0e 94 00 00 	call	0	; 0x0 <_ZN13LiquidCrystal11pulseEnableEv>
  c8:	b6 01       	movw	r22, r12
  ca:	0c 2e       	mov	r0, r28
  cc:	00 c0       	rjmp	.+0      	; 0xce <_ZN13LiquidCrystal10write8bitsEh+0x30>
  ce:	75 95       	asr	r23
  d0:	67 95       	ror	r22
  d2:	0a 94       	dec	r0
  d4:	02 f4       	brpl	.+0      	; 0xd6 <_ZN13LiquidCrystal10write8bitsEh+0x38>
  d6:	61 70       	andi	r22, 0x01	; 1
  d8:	f7 01       	movw	r30, r14
  da:	87 81       	ldd	r24, Z+7	; 0x07
  dc:	0e 94 00 00 	call	0	; 0x0 <_ZN13LiquidCrystal11pulseEnableEv>
  e0:	21 96       	adiw	r28, 0x01	; 1
  e2:	c8 30       	cpi	r28, 0x08	; 8
  e4:	d1 05       	cpc	r29, r1
  e6:	01 f4       	brne	.+0      	; 0xe8 <_ZN13LiquidCrystal10write8bitsEh+0x4a>
  e8:	c8 01       	movw	r24, r16
  ea:	0e 94 00 00 	call	0	; 0x0 <_ZN13LiquidCrystal11pulseEnableEv>
  ee:	df 91       	pop	r29
  f0:	cf 91       	pop	r28
  f2:	1f 91       	pop	r17
  f4:	0f 91       	pop	r16
  f6:	ff 90       	pop	r15
  f8:	ef 90       	pop	r14
  fa:	df 90       	pop	r13
  fc:	cf 90       	pop	r12
  fe:	08 95       	ret

00000100 <_ZN13LiquidCrystal4sendEhh>:
 100:	1f 93       	push	r17
 102:	cf 93       	push	r28
 104:	df 93       	push	r29
 106:	ec 01       	movw	r28, r24
 108:	16 2f       	mov	r17, r22
 10a:	8c 81       	ldd	r24, Y+4	; 0x04
 10c:	64 2f       	mov	r22, r20
 10e:	0e 94 00 00 	call	0	; 0x0 <_ZN13LiquidCrystal11pulseEnableEv>
 112:	8d 81       	ldd	r24, Y+5	; 0x05
 114:	8f 3f       	cpi	r24, 0xFF	; 255
 116:	01 f0       	breq	.+0      	; 0x118 <_ZN13LiquidCrystal4sendEhh+0x18>
 118:	60 e0       	ldi	r22, 0x00	; 0
 11a:	0e 94 00 00 	call	0	; 0x0 <_ZN13LiquidCrystal11pulseEnableEv>
 11e:	8f 85       	ldd	r24, Y+15	; 0x0f
 120:	84 ff       	sbrs	r24, 4
 122:	00 c0       	rjmp	.+0      	; 0x124 <_ZN13LiquidCrystal4sendEhh+0x24>
 124:	ce 01       	movw	r24, r28
 126:	61 2f       	mov	r22, r17
 128:	0e 94 00 00 	call	0	; 0x0 <_ZN13LiquidCrystal11pulseEnableEv>
 12c:	00 c0       	rjmp	.+0      	; 0x12e <_ZN13LiquidCrystal4sendEhh+0x2e>
 12e:	21 2f       	mov	r18, r17
 130:	30 e0       	ldi	r19, 0x00	; 0
 132:	84 e0       	ldi	r24, 0x04	; 4
 134:	35 95       	asr	r19
 136:	27 95       	ror	r18
 138:	8a 95       	dec	r24
 13a:	01 f4       	brne	.+0      	; 0x13c <_ZN13LiquidCrystal4sendEhh+0x3c>
 13c:	ce 01       	movw	r24, r28
 13e:	62 2f       	mov	r22, r18
 140:	0e 94 00 00 	call	0	; 0x0 <_ZN13LiquidCrystal11pulseEnableEv>
 144:	ce 01       	movw	r24, r28
 146:	61 2f       	mov	r22, r17
 148:	0e 94 00 00 	call	0	; 0x0 <_ZN13LiquidCrystal11pulseEnableEv>
 14c:	df 91       	pop	r29
 14e:	cf 91       	pop	r28
 150:	1f 91       	pop	r17
 152:	08 95       	ret

00000154 <_ZN13LiquidCrystal5writeEh>:
 154:	41 e0       	ldi	r20, 0x01	; 1
 156:	0e 94 00 00 	call	0	; 0x0 <_ZN13LiquidCrystal11pulseEnableEv>
 15a:	81 e0       	ldi	r24, 0x01	; 1
 15c:	90 e0       	ldi	r25, 0x00	; 0
 15e:	08 95       	ret

00000160 <_ZN13LiquidCrystal7commandEh>:
 160:	40 e0       	ldi	r20, 0x00	; 0
 162:	0e 94 00 00 	call	0	; 0x0 <_ZN13LiquidCrystal11pulseEnableEv>
 166:	08 95       	ret

00000168 <_ZN13LiquidCrystal10createCharEhPh>:
 168:	cf 92       	push	r12
 16a:	df 92       	push	r13
 16c:	ef 92       	push	r14
 16e:	ff 92       	push	r15
 170:	0f 93       	push	r16
 172:	1f 93       	push	r17
 174:	cf 93       	push	r28
 176:	df 93       	push	r29
 178:	00 d0       	rcall	.+0      	; 0x17a <_ZN13LiquidCrystal10createCharEhPh+0x12>
 17a:	cd b7       	in	r28, 0x3d	; 61
 17c:	de b7       	in	r29, 0x3e	; 62
 17e:	8c 01       	movw	r16, r24
 180:	67 70       	andi	r22, 0x07	; 7
 182:	66 0f       	add	r22, r22
 184:	66 0f       	add	r22, r22
 186:	66 0f       	add	r22, r22
 188:	60 64       	ori	r22, 0x40	; 64
 18a:	49 83       	std	Y+1, r20	; 0x01
 18c:	5a 83       	std	Y+2, r21	; 0x02
 18e:	0e 94 00 00 	call	0	; 0x0 <_ZN13LiquidCrystal11pulseEnableEv>
 192:	49 81       	ldd	r20, Y+1	; 0x01
 194:	e4 2e       	mov	r14, r20
 196:	5a 81       	ldd	r21, Y+2	; 0x02
 198:	f5 2e       	mov	r15, r21
 19a:	cc 24       	eor	r12, r12
 19c:	dd 24       	eor	r13, r13
 19e:	d7 01       	movw	r26, r14
 1a0:	6d 91       	ld	r22, X+
 1a2:	7d 01       	movw	r14, r26
 1a4:	d8 01       	movw	r26, r16
 1a6:	ed 91       	ld	r30, X+
 1a8:	fc 91       	ld	r31, X
 1aa:	01 90       	ld	r0, Z+
 1ac:	f0 81       	ld	r31, Z
 1ae:	e0 2d       	mov	r30, r0
 1b0:	c8 01       	movw	r24, r16
 1b2:	09 95       	icall
 1b4:	08 94       	sec
 1b6:	c1 1c       	adc	r12, r1
 1b8:	d1 1c       	adc	r13, r1
 1ba:	b8 e0       	ldi	r27, 0x08	; 8
 1bc:	cb 16       	cp	r12, r27
 1be:	d1 04       	cpc	r13, r1
 1c0:	01 f4       	brne	.+0      	; 0x1c2 <_ZN13LiquidCrystal10createCharEhPh+0x5a>
 1c2:	0f 90       	pop	r0
 1c4:	0f 90       	pop	r0
 1c6:	df 91       	pop	r29
 1c8:	cf 91       	pop	r28
 1ca:	1f 91       	pop	r17
 1cc:	0f 91       	pop	r16
 1ce:	ff 90       	pop	r15
 1d0:	ef 90       	pop	r14
 1d2:	df 90       	pop	r13
 1d4:	cf 90       	pop	r12
 1d6:	08 95       	ret

000001d8 <_ZN13LiquidCrystal12noAutoscrollEv>:
 1d8:	fc 01       	movw	r30, r24
 1da:	61 89       	ldd	r22, Z+17	; 0x11
 1dc:	6e 7f       	andi	r22, 0xFE	; 254
 1de:	61 8b       	std	Z+17, r22	; 0x11
 1e0:	64 60       	ori	r22, 0x04	; 4
 1e2:	0e 94 00 00 	call	0	; 0x0 <_ZN13LiquidCrystal11pulseEnableEv>
 1e6:	08 95       	ret

000001e8 <_ZN13LiquidCrystal10autoscrollEv>:
 1e8:	fc 01       	movw	r30, r24
 1ea:	61 89       	ldd	r22, Z+17	; 0x11
 1ec:	26 2f       	mov	r18, r22
 1ee:	21 60       	ori	r18, 0x01	; 1
 1f0:	21 8b       	std	Z+17, r18	; 0x11
 1f2:	65 60       	ori	r22, 0x05	; 5
 1f4:	0e 94 00 00 	call	0	; 0x0 <_ZN13LiquidCrystal11pulseEnableEv>
 1f8:	08 95       	ret

000001fa <_ZN13LiquidCrystal11rightToLeftEv>:
 1fa:	fc 01       	movw	r30, r24
 1fc:	61 89       	ldd	r22, Z+17	; 0x11
 1fe:	6d 7f       	andi	r22, 0xFD	; 253
 200:	61 8b       	std	Z+17, r22	; 0x11
 202:	64 60       	ori	r22, 0x04	; 4
 204:	0e 94 00 00 	call	0	; 0x0 <_ZN13LiquidCrystal11pulseEnableEv>
 208:	08 95       	ret

0000020a <_ZN13LiquidCrystal11leftToRightEv>:
 20a:	fc 01       	movw	r30, r24
 20c:	61 89       	ldd	r22, Z+17	; 0x11
 20e:	26 2f       	mov	r18, r22
 210:	22 60       	ori	r18, 0x02	; 2
 212:	21 8b       	std	Z+17, r18	; 0x11
 214:	66 60       	ori	r22, 0x06	; 6
 216:	0e 94 00 00 	call	0	; 0x0 <_ZN13LiquidCrystal11pulseEnableEv>
 21a:	08 95       	ret

0000021c <_ZN13LiquidCrystal18scrollDisplayRightEv>:
 21c:	6c e1       	ldi	r22, 0x1C	; 28
 21e:	0e 94 00 00 	call	0	; 0x0 <_ZN13LiquidCrystal11pulseEnableEv>
 222:	08 95       	ret

00000224 <_ZN13LiquidCrystal17scrollDisplayLeftEv>:
 224:	68 e1       	ldi	r22, 0x18	; 24
 226:	0e 94 00 00 	call	0	; 0x0 <_ZN13LiquidCrystal11pulseEnableEv>
 22a:	08 95       	ret

0000022c <_ZN13LiquidCrystal5blinkEv>:
 22c:	fc 01       	movw	r30, r24
 22e:	60 89       	ldd	r22, Z+16	; 0x10
 230:	26 2f       	mov	r18, r22
 232:	21 60       	ori	r18, 0x01	; 1
 234:	20 8b       	std	Z+16, r18	; 0x10
 236:	69 60       	ori	r22, 0x09	; 9
 238:	0e 94 00 00 	call	0	; 0x0 <_ZN13LiquidCrystal11pulseEnableEv>
 23c:	08 95       	ret

0000023e <_ZN13LiquidCrystal7noBlinkEv>:
 23e:	fc 01       	movw	r30, r24
 240:	60 89       	ldd	r22, Z+16	; 0x10
 242:	6e 7f       	andi	r22, 0xFE	; 254
 244:	60 8b       	std	Z+16, r22	; 0x10
 246:	68 60       	ori	r22, 0x08	; 8
 248:	0e 94 00 00 	call	0	; 0x0 <_ZN13LiquidCrystal11pulseEnableEv>
 24c:	08 95       	ret

0000024e <_ZN13LiquidCrystal6cursorEv>:
 24e:	fc 01       	movw	r30, r24
 250:	60 89       	ldd	r22, Z+16	; 0x10
 252:	26 2f       	mov	r18, r22
 254:	22 60       	ori	r18, 0x02	; 2
 256:	20 8b       	std	Z+16, r18	; 0x10
 258:	6a 60       	ori	r22, 0x0A	; 10
 25a:	0e 94 00 00 	call	0	; 0x0 <_ZN13LiquidCrystal11pulseEnableEv>
 25e:	08 95       	ret

00000260 <_ZN13LiquidCrystal8noCursorEv>:
 260:	fc 01       	movw	r30, r24
 262:	60 89       	ldd	r22, Z+16	; 0x10
 264:	6d 7f       	andi	r22, 0xFD	; 253
 266:	60 8b       	std	Z+16, r22	; 0x10
 268:	68 60       	ori	r22, 0x08	; 8
 26a:	0e 94 00 00 	call	0	; 0x0 <_ZN13LiquidCrystal11pulseEnableEv>
 26e:	08 95       	ret

00000270 <_ZN13LiquidCrystal7displayEv>:
 270:	fc 01       	movw	r30, r24
 272:	60 89       	ldd	r22, Z+16	; 0x10
 274:	26 2f       	mov	r18, r22
 276:	24 60       	ori	r18, 0x04	; 4
 278:	20 8b       	std	Z+16, r18	; 0x10
 27a:	6c 60       	ori	r22, 0x0C	; 12
 27c:	0e 94 00 00 	call	0	; 0x0 <_ZN13LiquidCrystal11pulseEnableEv>
 280:	08 95       	ret

00000282 <_ZN13LiquidCrystal9noDisplayEv>:
 282:	fc 01       	movw	r30, r24
 284:	60 89       	ldd	r22, Z+16	; 0x10
 286:	6b 7f       	andi	r22, 0xFB	; 251
 288:	60 8b       	std	Z+16, r22	; 0x10
 28a:	68 60       	ori	r22, 0x08	; 8
 28c:	0e 94 00 00 	call	0	; 0x0 <_ZN13LiquidCrystal11pulseEnableEv>
 290:	08 95       	ret

00000292 <_ZN13LiquidCrystal9setCursorEhh>:
 292:	cf 93       	push	r28
 294:	df 93       	push	r29
 296:	cd b7       	in	r28, 0x3d	; 61
 298:	de b7       	in	r29, 0x3e	; 62
 29a:	28 97       	sbiw	r28, 0x08	; 8
 29c:	0f b6       	in	r0, 0x3f	; 63
 29e:	f8 94       	cli
 2a0:	de bf       	out	0x3e, r29	; 62
 2a2:	0f be       	out	0x3f, r0	; 63
 2a4:	cd bf       	out	0x3d, r28	; 61
 2a6:	fe 01       	movw	r30, r28
 2a8:	31 96       	adiw	r30, 0x01	; 1
 2aa:	a0 e0       	ldi	r26, 0x00	; 0
 2ac:	b0 e0       	ldi	r27, 0x00	; 0
 2ae:	28 e0       	ldi	r18, 0x08	; 8
 2b0:	0d 90       	ld	r0, X+
 2b2:	01 92       	st	Z+, r0
 2b4:	21 50       	subi	r18, 0x01	; 1
 2b6:	01 f4       	brne	.+0      	; 0x2b8 <_ZN13LiquidCrystal9setCursorEhh+0x26>
 2b8:	fc 01       	movw	r30, r24
 2ba:	23 89       	ldd	r18, Z+19	; 0x13
 2bc:	42 17       	cp	r20, r18
 2be:	00 f0       	brcs	.+0      	; 0x2c0 <_ZN13LiquidCrystal9setCursorEhh+0x2e>
 2c0:	42 2f       	mov	r20, r18
 2c2:	41 50       	subi	r20, 0x01	; 1
 2c4:	e4 2f       	mov	r30, r20
 2c6:	f0 e0       	ldi	r31, 0x00	; 0
 2c8:	ee 0f       	add	r30, r30
 2ca:	ff 1f       	adc	r31, r31
 2cc:	ec 0f       	add	r30, r28
 2ce:	fd 1f       	adc	r31, r29
 2d0:	21 81       	ldd	r18, Z+1	; 0x01
 2d2:	26 0f       	add	r18, r22
 2d4:	20 68       	ori	r18, 0x80	; 128
 2d6:	62 2f       	mov	r22, r18
 2d8:	0e 94 00 00 	call	0	; 0x0 <_ZN13LiquidCrystal11pulseEnableEv>
 2dc:	28 96       	adiw	r28, 0x08	; 8
 2de:	0f b6       	in	r0, 0x3f	; 63
 2e0:	f8 94       	cli
 2e2:	de bf       	out	0x3e, r29	; 62
 2e4:	0f be       	out	0x3f, r0	; 63
 2e6:	cd bf       	out	0x3d, r28	; 61
 2e8:	df 91       	pop	r29
 2ea:	cf 91       	pop	r28
 2ec:	08 95       	ret

000002ee <_ZN13LiquidCrystal4homeEv>:
 2ee:	62 e0       	ldi	r22, 0x02	; 2
 2f0:	0e 94 00 00 	call	0	; 0x0 <_ZN13LiquidCrystal11pulseEnableEv>
 2f4:	80 ed       	ldi	r24, 0xD0	; 208
 2f6:	97 e0       	ldi	r25, 0x07	; 7
 2f8:	0e 94 00 00 	call	0	; 0x0 <_ZN13LiquidCrystal11pulseEnableEv>
 2fc:	08 95       	ret

000002fe <_ZN13LiquidCrystal5clearEv>:
 2fe:	61 e0       	ldi	r22, 0x01	; 1
 300:	0e 94 00 00 	call	0	; 0x0 <_ZN13LiquidCrystal11pulseEnableEv>
 304:	80 ed       	ldi	r24, 0xD0	; 208
 306:	97 e0       	ldi	r25, 0x07	; 7
 308:	0e 94 00 00 	call	0	; 0x0 <_ZN13LiquidCrystal11pulseEnableEv>
 30c:	08 95       	ret

0000030e <_ZN13LiquidCrystal5beginEhhh>:
 30e:	cf 93       	push	r28
 310:	df 93       	push	r29
 312:	ec 01       	movw	r28, r24
 314:	42 30       	cpi	r20, 0x02	; 2
 316:	00 f0       	brcs	.+0      	; 0x318 <_ZN13LiquidCrystal5beginEhhh+0xa>
 318:	8f 85       	ldd	r24, Y+15	; 0x0f
 31a:	88 60       	ori	r24, 0x08	; 8
 31c:	8f 87       	std	Y+15, r24	; 0x0f
 31e:	4b 8b       	std	Y+19, r20	; 0x13
 320:	1c 8a       	std	Y+20, r1	; 0x14
 322:	22 23       	and	r18, r18
 324:	01 f0       	breq	.+0      	; 0x326 <_ZN13LiquidCrystal5beginEhhh+0x18>
 326:	41 30       	cpi	r20, 0x01	; 1
 328:	01 f4       	brne	.+0      	; 0x32a <_ZN13LiquidCrystal5beginEhhh+0x1c>
 32a:	8f 85       	ldd	r24, Y+15	; 0x0f
 32c:	84 60       	ori	r24, 0x04	; 4
 32e:	8f 87       	std	Y+15, r24	; 0x0f
 330:	80 e5       	ldi	r24, 0x50	; 80
 332:	93 ec       	ldi	r25, 0xC3	; 195
 334:	0e 94 00 00 	call	0	; 0x0 <_ZN13LiquidCrystal11pulseEnableEv>
 338:	8c 81       	ldd	r24, Y+4	; 0x04
 33a:	60 e0       	ldi	r22, 0x00	; 0
 33c:	0e 94 00 00 	call	0	; 0x0 <_ZN13LiquidCrystal11pulseEnableEv>
 340:	8e 81       	ldd	r24, Y+6	; 0x06
 342:	60 e0       	ldi	r22, 0x00	; 0
 344:	0e 94 00 00 	call	0	; 0x0 <_ZN13LiquidCrystal11pulseEnableEv>
 348:	8d 81       	ldd	r24, Y+5	; 0x05
 34a:	8f 3f       	cpi	r24, 0xFF	; 255
 34c:	01 f0       	breq	.+0      	; 0x34e <_ZN13LiquidCrystal5beginEhhh+0x40>
 34e:	60 e0       	ldi	r22, 0x00	; 0
 350:	0e 94 00 00 	call	0	; 0x0 <_ZN13LiquidCrystal11pulseEnableEv>
 354:	6f 85       	ldd	r22, Y+15	; 0x0f
 356:	64 fd       	sbrc	r22, 4
 358:	00 c0       	rjmp	.+0      	; 0x35a <_ZN13LiquidCrystal5beginEhhh+0x4c>
 35a:	ce 01       	movw	r24, r28
 35c:	63 e0       	ldi	r22, 0x03	; 3
 35e:	0e 94 00 00 	call	0	; 0x0 <_ZN13LiquidCrystal11pulseEnableEv>
 362:	84 e9       	ldi	r24, 0x94	; 148
 364:	91 e1       	ldi	r25, 0x11	; 17
 366:	0e 94 00 00 	call	0	; 0x0 <_ZN13LiquidCrystal11pulseEnableEv>
 36a:	ce 01       	movw	r24, r28
 36c:	63 e0       	ldi	r22, 0x03	; 3
 36e:	0e 94 00 00 	call	0	; 0x0 <_ZN13LiquidCrystal11pulseEnableEv>
 372:	84 e9       	ldi	r24, 0x94	; 148
 374:	91 e1       	ldi	r25, 0x11	; 17
 376:	0e 94 00 00 	call	0	; 0x0 <_ZN13LiquidCrystal11pulseEnableEv>
 37a:	ce 01       	movw	r24, r28
 37c:	63 e0       	ldi	r22, 0x03	; 3
 37e:	0e 94 00 00 	call	0	; 0x0 <_ZN13LiquidCrystal11pulseEnableEv>
 382:	86 e9       	ldi	r24, 0x96	; 150
 384:	90 e0       	ldi	r25, 0x00	; 0
 386:	0e 94 00 00 	call	0	; 0x0 <_ZN13LiquidCrystal11pulseEnableEv>
 38a:	ce 01       	movw	r24, r28
 38c:	62 e0       	ldi	r22, 0x02	; 2
 38e:	0e 94 00 00 	call	0	; 0x0 <_ZN13LiquidCrystal11pulseEnableEv>
 392:	00 c0       	rjmp	.+0      	; 0x394 <_ZN13LiquidCrystal5beginEhhh+0x86>
 394:	60 62       	ori	r22, 0x20	; 32
 396:	ce 01       	movw	r24, r28
 398:	0e 94 00 00 	call	0	; 0x0 <_ZN13LiquidCrystal11pulseEnableEv>
 39c:	84 e9       	ldi	r24, 0x94	; 148
 39e:	91 e1       	ldi	r25, 0x11	; 17
 3a0:	0e 94 00 00 	call	0	; 0x0 <_ZN13LiquidCrystal11pulseEnableEv>
 3a4:	6f 85       	ldd	r22, Y+15	; 0x0f
 3a6:	60 62       	ori	r22, 0x20	; 32
 3a8:	ce 01       	movw	r24, r28
 3aa:	0e 94 00 00 	call	0	; 0x0 <_ZN13LiquidCrystal11pulseEnableEv>
 3ae:	86 e9       	ldi	r24, 0x96	; 150
 3b0:	90 e0       	ldi	r25, 0x00	; 0
 3b2:	0e 94 00 00 	call	0	; 0x0 <_ZN13LiquidCrystal11pulseEnableEv>
 3b6:	6f 85       	ldd	r22, Y+15	; 0x0f
 3b8:	60 62       	ori	r22, 0x20	; 32
 3ba:	ce 01       	movw	r24, r28
 3bc:	0e 94 00 00 	call	0	; 0x0 <_ZN13LiquidCrystal11pulseEnableEv>
 3c0:	6f 85       	ldd	r22, Y+15	; 0x0f
 3c2:	60 62       	ori	r22, 0x20	; 32
 3c4:	ce 01       	movw	r24, r28
 3c6:	0e 94 00 00 	call	0	; 0x0 <_ZN13LiquidCrystal11pulseEnableEv>
 3ca:	84 e0       	ldi	r24, 0x04	; 4
 3cc:	88 8b       	std	Y+16, r24	; 0x10
 3ce:	ce 01       	movw	r24, r28
 3d0:	0e 94 00 00 	call	0	; 0x0 <_ZN13LiquidCrystal11pulseEnableEv>
 3d4:	ce 01       	movw	r24, r28
 3d6:	0e 94 00 00 	call	0	; 0x0 <_ZN13LiquidCrystal11pulseEnableEv>
 3da:	82 e0       	ldi	r24, 0x02	; 2
 3dc:	89 8b       	std	Y+17, r24	; 0x11
 3de:	ce 01       	movw	r24, r28
 3e0:	66 e0       	ldi	r22, 0x06	; 6
 3e2:	0e 94 00 00 	call	0	; 0x0 <_ZN13LiquidCrystal11pulseEnableEv>
 3e6:	df 91       	pop	r29
 3e8:	cf 91       	pop	r28
 3ea:	08 95       	ret

000003ec <_ZN13LiquidCrystal4initEhhhhhhhhhhhh>:
 3ec:	6f 92       	push	r6
 3ee:	7f 92       	push	r7
 3f0:	8f 92       	push	r8
 3f2:	af 92       	push	r10
 3f4:	cf 92       	push	r12
 3f6:	ef 92       	push	r14
 3f8:	0f 93       	push	r16
 3fa:	1f 93       	push	r17
 3fc:	cf 93       	push	r28
 3fe:	df 93       	push	r29
 400:	cd b7       	in	r28, 0x3d	; 61
 402:	de b7       	in	r29, 0x3e	; 62
 404:	3c 01       	movw	r6, r24
 406:	16 2f       	mov	r17, r22
 408:	84 2f       	mov	r24, r20
 40a:	f3 01       	movw	r30, r6
 40c:	44 83       	std	Z+4, r20	; 0x04
 40e:	25 83       	std	Z+5, r18	; 0x05
 410:	06 83       	std	Z+6, r16	; 0x06
 412:	e7 82       	std	Z+7, r14	; 0x07
 414:	c0 86       	std	Z+8, r12	; 0x08
 416:	a1 86       	std	Z+9, r10	; 0x09
 418:	82 86       	std	Z+10, r8	; 0x0a
 41a:	9d 85       	ldd	r25, Y+13	; 0x0d
 41c:	93 87       	std	Z+11, r25	; 0x0b
 41e:	9e 85       	ldd	r25, Y+14	; 0x0e
 420:	94 87       	std	Z+12, r25	; 0x0c
 422:	9f 85       	ldd	r25, Y+15	; 0x0f
 424:	95 87       	std	Z+13, r25	; 0x0d
 426:	98 89       	ldd	r25, Y+16	; 0x10
 428:	96 87       	std	Z+14, r25	; 0x0e
 42a:	61 e0       	ldi	r22, 0x01	; 1
 42c:	0e 94 00 00 	call	0	; 0x0 <_ZN13LiquidCrystal11pulseEnableEv>
 430:	f3 01       	movw	r30, r6
 432:	85 81       	ldd	r24, Z+5	; 0x05
 434:	8f 3f       	cpi	r24, 0xFF	; 255
 436:	01 f0       	breq	.+0      	; 0x438 <_ZN13LiquidCrystal4initEhhhhhhhhhhhh+0x4c>
 438:	61 e0       	ldi	r22, 0x01	; 1
 43a:	0e 94 00 00 	call	0	; 0x0 <_ZN13LiquidCrystal11pulseEnableEv>
 43e:	f3 01       	movw	r30, r6
 440:	86 81       	ldd	r24, Z+6	; 0x06
 442:	61 e0       	ldi	r22, 0x01	; 1
 444:	0e 94 00 00 	call	0	; 0x0 <_ZN13LiquidCrystal11pulseEnableEv>
 448:	11 23       	and	r17, r17
 44a:	01 f0       	breq	.+0      	; 0x44c <_ZN13LiquidCrystal4initEhhhhhhhhhhhh+0x60>
 44c:	f3 01       	movw	r30, r6
 44e:	17 86       	std	Z+15, r1	; 0x0f
 450:	00 c0       	rjmp	.+0      	; 0x452 <_ZN13LiquidCrystal4initEhhhhhhhhhhhh+0x66>
 452:	80 e1       	ldi	r24, 0x10	; 16
 454:	f3 01       	movw	r30, r6
 456:	87 87       	std	Z+15, r24	; 0x0f
 458:	c3 01       	movw	r24, r6
 45a:	60 e1       	ldi	r22, 0x10	; 16
 45c:	41 e0       	ldi	r20, 0x01	; 1
 45e:	20 e0       	ldi	r18, 0x00	; 0
 460:	0e 94 00 00 	call	0	; 0x0 <_ZN13LiquidCrystal11pulseEnableEv>
 464:	df 91       	pop	r29
 466:	cf 91       	pop	r28
 468:	1f 91       	pop	r17
 46a:	0f 91       	pop	r16
 46c:	ef 90       	pop	r14
 46e:	cf 90       	pop	r12
 470:	af 90       	pop	r10
 472:	8f 90       	pop	r8
 474:	7f 90       	pop	r7
 476:	6f 90       	pop	r6
 478:	08 95       	ret

0000047a <_ZN13LiquidCrystalC1Ehhhhhh>:
 47a:	8f 92       	push	r8
 47c:	af 92       	push	r10
 47e:	cf 92       	push	r12
 480:	ef 92       	push	r14
 482:	0f 93       	push	r16
 484:	cf 93       	push	r28
 486:	df 93       	push	r29
 488:	a6 2f       	mov	r26, r22
 48a:	74 2f       	mov	r23, r20
 48c:	52 2f       	mov	r21, r18
 48e:	30 2f       	mov	r19, r16
 490:	ae 2c       	mov	r10, r14
 492:	8c 2c       	mov	r8, r12
 494:	ec 01       	movw	r28, r24
 496:	1b 82       	std	Y+3, r1	; 0x03
 498:	1a 82       	std	Y+2, r1	; 0x02
 49a:	e0 e0       	ldi	r30, 0x00	; 0
 49c:	f0 e0       	ldi	r31, 0x00	; 0
 49e:	f9 83       	std	Y+1, r31	; 0x01
 4a0:	e8 83       	st	Y, r30
 4a2:	00 d0       	rcall	.+0      	; 0x4a4 <_ZN13LiquidCrystalC1Ehhhhhh+0x2a>
 4a4:	00 d0       	rcall	.+0      	; 0x4a6 <_ZN13LiquidCrystalC1Ehhhhhh+0x2c>
 4a6:	ed b7       	in	r30, 0x3d	; 61
 4a8:	fe b7       	in	r31, 0x3e	; 62
 4aa:	31 96       	adiw	r30, 0x01	; 1
 4ac:	cd b7       	in	r28, 0x3d	; 61
 4ae:	de b7       	in	r29, 0x3e	; 62
 4b0:	19 82       	std	Y+1, r1	; 0x01
 4b2:	11 82       	std	Z+1, r1	; 0x01
 4b4:	12 82       	std	Z+2, r1	; 0x02
 4b6:	13 82       	std	Z+3, r1	; 0x03
 4b8:	61 e0       	ldi	r22, 0x01	; 1
 4ba:	4a 2f       	mov	r20, r26
 4bc:	2f ef       	ldi	r18, 0xFF	; 255
 4be:	07 2f       	mov	r16, r23
 4c0:	e5 2e       	mov	r14, r21
 4c2:	c3 2e       	mov	r12, r19
 4c4:	0e 94 00 00 	call	0	; 0x0 <_ZN13LiquidCrystal11pulseEnableEv>
 4c8:	0f 90       	pop	r0
 4ca:	0f 90       	pop	r0
 4cc:	0f 90       	pop	r0
 4ce:	0f 90       	pop	r0
 4d0:	df 91       	pop	r29
 4d2:	cf 91       	pop	r28
 4d4:	0f 91       	pop	r16
 4d6:	ef 90       	pop	r14
 4d8:	cf 90       	pop	r12
 4da:	af 90       	pop	r10
 4dc:	8f 90       	pop	r8
 4de:	08 95       	ret

000004e0 <_ZN13LiquidCrystalC1Ehhhhhhh>:
 4e0:	8f 92       	push	r8
 4e2:	af 92       	push	r10
 4e4:	cf 92       	push	r12
 4e6:	ef 92       	push	r14
 4e8:	0f 93       	push	r16
 4ea:	1f 93       	push	r17
 4ec:	cf 93       	push	r28
 4ee:	df 93       	push	r29
 4f0:	f6 2f       	mov	r31, r22
 4f2:	e4 2f       	mov	r30, r20
 4f4:	72 2f       	mov	r23, r18
 4f6:	50 2f       	mov	r21, r16
 4f8:	3e 2d       	mov	r19, r14
 4fa:	1c 2d       	mov	r17, r12
 4fc:	8a 2c       	mov	r8, r10
 4fe:	dc 01       	movw	r26, r24
 500:	13 96       	adiw	r26, 0x03	; 3
 502:	1c 92       	st	X, r1
 504:	1e 92       	st	-X, r1
 506:	12 97       	sbiw	r26, 0x02	; 2
 508:	c0 e0       	ldi	r28, 0x00	; 0
 50a:	d0 e0       	ldi	r29, 0x00	; 0
 50c:	cd 93       	st	X+, r28
 50e:	dc 93       	st	X, r29
 510:	00 d0       	rcall	.+0      	; 0x512 <_ZN13LiquidCrystalC1Ehhhhhhh+0x32>
 512:	00 d0       	rcall	.+0      	; 0x514 <_ZN13LiquidCrystalC1Ehhhhhhh+0x34>
 514:	ad b7       	in	r26, 0x3d	; 61
 516:	be b7       	in	r27, 0x3e	; 62
 518:	11 96       	adiw	r26, 0x01	; 1
 51a:	cd b7       	in	r28, 0x3d	; 61
 51c:	de b7       	in	r29, 0x3e	; 62
 51e:	19 82       	std	Y+1, r1	; 0x01
 520:	11 96       	adiw	r26, 0x01	; 1
 522:	1c 92       	st	X, r1
 524:	11 97       	sbiw	r26, 0x01	; 1
 526:	12 96       	adiw	r26, 0x02	; 2
 528:	1c 92       	st	X, r1
 52a:	12 97       	sbiw	r26, 0x02	; 2
 52c:	13 96       	adiw	r26, 0x03	; 3
 52e:	1c 92       	st	X, r1
 530:	61 e0       	ldi	r22, 0x01	; 1
 532:	4f 2f       	mov	r20, r31
 534:	2e 2f       	mov	r18, r30
 536:	07 2f       	mov	r16, r23
 538:	e5 2e       	mov	r14, r21
 53a:	c3 2e       	mov	r12, r19
 53c:	a1 2e       	mov	r10, r17
 53e:	0e 94 00 00 	call	0	; 0x0 <_ZN13LiquidCrystal11pulseEnableEv>
 542:	0f 90       	pop	r0
 544:	0f 90       	pop	r0
 546:	0f 90       	pop	r0
 548:	0f 90       	pop	r0
 54a:	df 91       	pop	r29
 54c:	cf 91       	pop	r28
 54e:	1f 91       	pop	r17
 550:	0f 91       	pop	r16
 552:	ef 90       	pop	r14
 554:	cf 90       	pop	r12
 556:	af 90       	pop	r10
 558:	8f 90       	pop	r8
 55a:	08 95       	ret

0000055c <_ZN13LiquidCrystalC1Ehhhhhhhhhh>:
 55c:	8f 92       	push	r8
 55e:	af 92       	push	r10
 560:	cf 92       	push	r12
 562:	ef 92       	push	r14
 564:	ff 92       	push	r15
 566:	0f 93       	push	r16
 568:	1f 93       	push	r17
 56a:	cf 93       	push	r28
 56c:	df 93       	push	r29
 56e:	cd b7       	in	r28, 0x3d	; 61
 570:	de b7       	in	r29, 0x3e	; 62
 572:	56 2f       	mov	r21, r22
 574:	34 2f       	mov	r19, r20
 576:	72 2f       	mov	r23, r18
 578:	e0 2f       	mov	r30, r16
 57a:	fe 2d       	mov	r31, r14
 57c:	1c 2d       	mov	r17, r12
 57e:	dc 01       	movw	r26, r24
 580:	13 96       	adiw	r26, 0x03	; 3
 582:	1c 92       	st	X, r1
 584:	1e 92       	st	-X, r1
 586:	12 97       	sbiw	r26, 0x02	; 2
 588:	40 e0       	ldi	r20, 0x00	; 0
 58a:	e4 2e       	mov	r14, r20
 58c:	40 e0       	ldi	r20, 0x00	; 0
 58e:	f4 2e       	mov	r15, r20
 590:	ed 92       	st	X+, r14
 592:	fc 92       	st	X, r15
 594:	00 d0       	rcall	.+0      	; 0x596 <_ZN13LiquidCrystalC1Ehhhhhhhhhh+0x3a>
 596:	00 d0       	rcall	.+0      	; 0x598 <_ZN13LiquidCrystalC1Ehhhhhhhhhh+0x3c>
 598:	ed b6       	in	r14, 0x3d	; 61
 59a:	fe b6       	in	r15, 0x3e	; 62
 59c:	08 94       	sec
 59e:	e1 1c       	adc	r14, r1
 5a0:	f1 1c       	adc	r15, r1
 5a2:	ad b7       	in	r26, 0x3d	; 61
 5a4:	be b7       	in	r27, 0x3e	; 62
 5a6:	11 96       	adiw	r26, 0x01	; 1
 5a8:	ac 92       	st	X, r10
 5aa:	d7 01       	movw	r26, r14
 5ac:	11 96       	adiw	r26, 0x01	; 1
 5ae:	8c 92       	st	X, r8
 5b0:	11 97       	sbiw	r26, 0x01	; 1
 5b2:	2c 85       	ldd	r18, Y+12	; 0x0c
 5b4:	12 96       	adiw	r26, 0x02	; 2
 5b6:	2c 93       	st	X, r18
 5b8:	12 97       	sbiw	r26, 0x02	; 2
 5ba:	2d 85       	ldd	r18, Y+13	; 0x0d
 5bc:	13 96       	adiw	r26, 0x03	; 3
 5be:	2c 93       	st	X, r18
 5c0:	60 e0       	ldi	r22, 0x00	; 0
 5c2:	45 2f       	mov	r20, r21
 5c4:	2f ef       	ldi	r18, 0xFF	; 255
 5c6:	03 2f       	mov	r16, r19
 5c8:	e7 2e       	mov	r14, r23
 5ca:	ce 2e       	mov	r12, r30
 5cc:	af 2e       	mov	r10, r31
 5ce:	81 2e       	mov	r8, r17
 5d0:	0e 94 00 00 	call	0	; 0x0 <_ZN13LiquidCrystal11pulseEnableEv>
 5d4:	0f 90       	pop	r0
 5d6:	0f 90       	pop	r0
 5d8:	0f 90       	pop	r0
 5da:	0f 90       	pop	r0
 5dc:	df 91       	pop	r29
 5de:	cf 91       	pop	r28
 5e0:	1f 91       	pop	r17
 5e2:	0f 91       	pop	r16
 5e4:	ff 90       	pop	r15
 5e6:	ef 90       	pop	r14
 5e8:	cf 90       	pop	r12
 5ea:	af 90       	pop	r10
 5ec:	8f 90       	pop	r8
 5ee:	08 95       	ret

000005f0 <_ZN13LiquidCrystalC1Ehhhhhhhhhhh>:
 5f0:	8f 92       	push	r8
 5f2:	af 92       	push	r10
 5f4:	cf 92       	push	r12
 5f6:	df 92       	push	r13
 5f8:	ef 92       	push	r14
 5fa:	ff 92       	push	r15
 5fc:	0f 93       	push	r16
 5fe:	1f 93       	push	r17
 600:	cf 93       	push	r28
 602:	df 93       	push	r29
 604:	cd b7       	in	r28, 0x3d	; 61
 606:	de b7       	in	r29, 0x3e	; 62
 608:	56 2f       	mov	r21, r22
 60a:	34 2f       	mov	r19, r20
 60c:	72 2f       	mov	r23, r18
 60e:	e0 2f       	mov	r30, r16
 610:	fe 2d       	mov	r31, r14
 612:	1c 2d       	mov	r17, r12
 614:	fa 2c       	mov	r15, r10
 616:	dc 01       	movw	r26, r24
 618:	13 96       	adiw	r26, 0x03	; 3
 61a:	1c 92       	st	X, r1
 61c:	1e 92       	st	-X, r1
 61e:	12 97       	sbiw	r26, 0x02	; 2
 620:	60 e0       	ldi	r22, 0x00	; 0
 622:	c6 2e       	mov	r12, r22
 624:	60 e0       	ldi	r22, 0x00	; 0
 626:	d6 2e       	mov	r13, r22
 628:	cd 92       	st	X+, r12
 62a:	dc 92       	st	X, r13
 62c:	00 d0       	rcall	.+0      	; 0x62e <_ZN13LiquidCrystalC1Ehhhhhhhhhhh+0x3e>
 62e:	00 d0       	rcall	.+0      	; 0x630 <_ZN13LiquidCrystalC1Ehhhhhhhhhhh+0x40>
 630:	cd b6       	in	r12, 0x3d	; 61
 632:	de b6       	in	r13, 0x3e	; 62
 634:	08 94       	sec
 636:	c1 1c       	adc	r12, r1
 638:	d1 1c       	adc	r13, r1
 63a:	ad b7       	in	r26, 0x3d	; 61
 63c:	be b7       	in	r27, 0x3e	; 62
 63e:	11 96       	adiw	r26, 0x01	; 1
 640:	8c 92       	st	X, r8
 642:	2d 85       	ldd	r18, Y+13	; 0x0d
 644:	d6 01       	movw	r26, r12
 646:	11 96       	adiw	r26, 0x01	; 1
 648:	2c 93       	st	X, r18
 64a:	11 97       	sbiw	r26, 0x01	; 1
 64c:	2e 85       	ldd	r18, Y+14	; 0x0e
 64e:	12 96       	adiw	r26, 0x02	; 2
 650:	2c 93       	st	X, r18
 652:	12 97       	sbiw	r26, 0x02	; 2
 654:	2f 85       	ldd	r18, Y+15	; 0x0f
 656:	13 96       	adiw	r26, 0x03	; 3
 658:	2c 93       	st	X, r18
 65a:	60 e0       	ldi	r22, 0x00	; 0
 65c:	45 2f       	mov	r20, r21
 65e:	23 2f       	mov	r18, r19
 660:	07 2f       	mov	r16, r23
 662:	ee 2e       	mov	r14, r30
 664:	cf 2e       	mov	r12, r31
 666:	a1 2e       	mov	r10, r17
 668:	8f 2c       	mov	r8, r15
 66a:	0e 94 00 00 	call	0	; 0x0 <_ZN13LiquidCrystal11pulseEnableEv>
 66e:	0f 90       	pop	r0
 670:	0f 90       	pop	r0
 672:	0f 90       	pop	r0
 674:	0f 90       	pop	r0
 676:	df 91       	pop	r29
 678:	cf 91       	pop	r28
 67a:	1f 91       	pop	r17
 67c:	0f 91       	pop	r16
 67e:	ff 90       	pop	r15
 680:	ef 90       	pop	r14
 682:	df 90       	pop	r13
 684:	cf 90       	pop	r12
 686:	af 90       	pop	r10
 688:	8f 90       	pop	r8
 68a:	08 95       	ret

Firmata.o:     file format elf32-avr

Sections:
Idx Name          Size      VMA       LMA       File off  Algn
  0 .text         000007a6  00000000  00000000  00000034  2**0
                  CONTENTS, ALLOC, LOAD, RELOC, READONLY, CODE
  1 .data         00000005  00000000  00000000  000007da  2**0
                  CONTENTS, ALLOC, LOAD, DATA
  2 .bss          0000003b  00000000  00000000  000007df  2**0
                  ALLOC
  3 .text.startup 0000001a  00000000  00000000  000007df  2**0
                  CONTENTS, ALLOC, LOAD, RELOC, READONLY, CODE
  4 .ctors        00000002  00000000  00000000  000007f9  2**0
                  CONTENTS, ALLOC, LOAD, RELOC, READONLY, DATA

Disassembly of section .text:

00000000 <_ZN12FirmataClass23sendValueAsTwo7bitBytesEi>:
   0:	0f 93       	push	r16
   2:	1f 93       	push	r17
   4:	cf 93       	push	r28
   6:	df 93       	push	r29
   8:	ec 01       	movw	r28, r24
   a:	8b 01       	movw	r16, r22
   c:	88 81       	ld	r24, Y
   e:	99 81       	ldd	r25, Y+1	; 0x01
  10:	dc 01       	movw	r26, r24
  12:	ed 91       	ld	r30, X+
  14:	fc 91       	ld	r31, X
  16:	6f 77       	andi	r22, 0x7F	; 127
  18:	01 90       	ld	r0, Z+
  1a:	f0 81       	ld	r31, Z
  1c:	e0 2d       	mov	r30, r0
  1e:	09 95       	icall
  20:	e8 81       	ld	r30, Y
  22:	f9 81       	ldd	r31, Y+1	; 0x01
  24:	a0 81       	ld	r26, Z
  26:	b1 81       	ldd	r27, Z+1	; 0x01
  28:	b8 01       	movw	r22, r16
  2a:	66 0f       	add	r22, r22
  2c:	67 2f       	mov	r22, r23
  2e:	66 1f       	adc	r22, r22
  30:	77 0b       	sbc	r23, r23
  32:	6f 77       	andi	r22, 0x7F	; 127
  34:	2d 91       	ld	r18, X+
  36:	3c 91       	ld	r19, X
  38:	cf 01       	movw	r24, r30
  3a:	f9 01       	movw	r30, r18
  3c:	09 95       	icall
  3e:	df 91       	pop	r29
  40:	cf 91       	pop	r28
  42:	1f 91       	pop	r17
  44:	0f 91       	pop	r16
  46:	08 95       	ret

00000048 <_ZN12FirmataClass10startSysexEv>:
  48:	dc 01       	movw	r26, r24
  4a:	8d 91       	ld	r24, X+
  4c:	9c 91       	ld	r25, X
  4e:	dc 01       	movw	r26, r24
  50:	ed 91       	ld	r30, X+
  52:	fc 91       	ld	r31, X
  54:	01 90       	ld	r0, Z+
  56:	f0 81       	ld	r31, Z
  58:	e0 2d       	mov	r30, r0
  5a:	60 ef       	ldi	r22, 0xF0	; 240
  5c:	09 95       	icall
  5e:	08 95       	ret

00000060 <_ZN12FirmataClass8endSysexEv>:
  60:	dc 01       	movw	r26, r24
  62:	8d 91       	ld	r24, X+
  64:	9c 91       	ld	r25, X
  66:	dc 01       	movw	r26, r24
  68:	ed 91       	ld	r30, X+
  6a:	fc 91       	ld	r31, X
  6c:	01 90       	ld	r0, Z+
  6e:	f0 81       	ld	r31, Z
  70:	e0 2d       	mov	r30, r0
  72:	67 ef       	ldi	r22, 0xF7	; 247
  74:	09 95       	icall
  76:	08 95       	ret

00000078 <_ZN12FirmataClass12printVersionEv>:
  78:	cf 93       	push	r28
  7a:	df 93       	push	r29
  7c:	ec 01       	movw	r28, r24
  7e:	88 81       	ld	r24, Y
  80:	99 81       	ldd	r25, Y+1	; 0x01
  82:	dc 01       	movw	r26, r24
  84:	ed 91       	ld	r30, X+
  86:	fc 91       	ld	r31, X
  88:	01 90       	ld	r0, Z+
  8a:	f0 81       	ld	r31, Z
  8c:	e0 2d       	mov	r30, r0
  8e:	69 ef       	ldi	r22, 0xF9	; 249
  90:	09 95       	icall
  92:	88 81       	ld	r24, Y
  94:	99 81       	ldd	r25, Y+1	; 0x01
  96:	dc 01       	movw	r26, r24
  98:	ed 91       	ld	r30, X+
  9a:	fc 91       	ld	r31, X
  9c:	01 90       	ld	r0, Z+
  9e:	f0 81       	ld	r31, Z
  a0:	e0 2d       	mov	r30, r0
  a2:	62 e0       	ldi	r22, 0x02	; 2
  a4:	09 95       	icall
  a6:	88 81       	ld	r24, Y
  a8:	99 81       	ldd	r25, Y+1	; 0x01
  aa:	dc 01       	movw	r26, r24
  ac:	ed 91       	ld	r30, X+
  ae:	fc 91       	ld	r31, X
  b0:	01 90       	ld	r0, Z+
  b2:	f0 81       	ld	r31, Z
  b4:	e0 2d       	mov	r30, r0
  b6:	63 e0       	ldi	r22, 0x03	; 3
  b8:	09 95       	icall
  ba:	df 91       	pop	r29
  bc:	cf 91       	pop	r28
  be:	08 95       	ret

000000c0 <_ZN12FirmataClass20printFirmwareVersionEv>:
  c0:	1f 93       	push	r17
  c2:	cf 93       	push	r28
  c4:	df 93       	push	r29
  c6:	ec 01       	movw	r28, r24
  c8:	8a 81       	ldd	r24, Y+2	; 0x02
  ca:	88 23       	and	r24, r24
  cc:	01 f0       	breq	.+0      	; 0xce <_ZN12FirmataClass20printFirmwareVersionEv+0xe>
  ce:	ce 01       	movw	r24, r28
  d0:	0e 94 00 00 	call	0	; 0x0 <_ZN12FirmataClass23sendValueAsTwo7bitBytesEi>
  d4:	88 81       	ld	r24, Y
  d6:	99 81       	ldd	r25, Y+1	; 0x01
  d8:	dc 01       	movw	r26, r24
  da:	ed 91       	ld	r30, X+
  dc:	fc 91       	ld	r31, X
  de:	01 90       	ld	r0, Z+
  e0:	f0 81       	ld	r31, Z
  e2:	e0 2d       	mov	r30, r0
  e4:	69 e7       	ldi	r22, 0x79	; 121
  e6:	09 95       	icall
  e8:	88 81       	ld	r24, Y
  ea:	99 81       	ldd	r25, Y+1	; 0x01
  ec:	dc 01       	movw	r26, r24
  ee:	ed 91       	ld	r30, X+
  f0:	fc 91       	ld	r31, X
  f2:	ab 81       	ldd	r26, Y+3	; 0x03
  f4:	bc 81       	ldd	r27, Y+4	; 0x04
  f6:	01 90       	ld	r0, Z+
  f8:	f0 81       	ld	r31, Z
  fa:	e0 2d       	mov	r30, r0
  fc:	6c 91       	ld	r22, X
  fe:	09 95       	icall
 100:	88 81       	ld	r24, Y
 102:	99 81       	ldd	r25, Y+1	; 0x01
 104:	dc 01       	movw	r26, r24
 106:	ed 91       	ld	r30, X+
 108:	fc 91       	ld	r31, X
 10a:	ab 81       	ldd	r26, Y+3	; 0x03
 10c:	bc 81       	ldd	r27, Y+4	; 0x04
 10e:	01 90       	ld	r0, Z+
 110:	f0 81       	ld	r31, Z
 112:	e0 2d       	mov	r30, r0
 114:	11 96       	adiw	r26, 0x01	; 1
 116:	6c 91       	ld	r22, X
 118:	09 95       	icall
 11a:	12 e0       	ldi	r17, 0x02	; 2
 11c:	00 c0       	rjmp	.+0      	; 0x11e <_ZN12FirmataClass20printFirmwareVersionEv+0x5e>
 11e:	eb 81       	ldd	r30, Y+3	; 0x03
 120:	fc 81       	ldd	r31, Y+4	; 0x04
 122:	e1 0f       	add	r30, r17
 124:	f1 1d       	adc	r31, r1
 126:	60 81       	ld	r22, Z
 128:	ce 01       	movw	r24, r28
 12a:	70 e0       	ldi	r23, 0x00	; 0
 12c:	0e 94 00 00 	call	0	; 0x0 <_ZN12FirmataClass23sendValueAsTwo7bitBytesEi>
 130:	1f 5f       	subi	r17, 0xFF	; 255
 132:	8a 81       	ldd	r24, Y+2	; 0x02
 134:	18 17       	cp	r17, r24
 136:	00 f0       	brcs	.+0      	; 0x138 <_ZN12FirmataClass20printFirmwareVersionEv+0x78>
 138:	ce 01       	movw	r24, r28
 13a:	0e 94 00 00 	call	0	; 0x0 <_ZN12FirmataClass23sendValueAsTwo7bitBytesEi>
 13e:	df 91       	pop	r29
 140:	cf 91       	pop	r28
 142:	1f 91       	pop	r17
 144:	08 95       	ret

00000146 <_ZN12FirmataClass25setFirmwareNameAndVersionEPKchh>:
 146:	af 92       	push	r10
 148:	bf 92       	push	r11
 14a:	cf 92       	push	r12
 14c:	df 92       	push	r13
 14e:	ef 92       	push	r14
 150:	ff 92       	push	r15
 152:	0f 93       	push	r16
 154:	1f 93       	push	r17
 156:	cf 93       	push	r28
 158:	df 93       	push	r29
 15a:	8c 01       	movw	r16, r24
 15c:	eb 01       	movw	r28, r22
 15e:	b4 2e       	mov	r11, r20
 160:	a2 2e       	mov	r10, r18
 162:	cb 01       	movw	r24, r22
 164:	60 e0       	ldi	r22, 0x00	; 0
 166:	70 e0       	ldi	r23, 0x00	; 0
 168:	0e 94 00 00 	call	0	; 0x0 <_ZN12FirmataClass23sendValueAsTwo7bitBytesEi>
 16c:	7c 01       	movw	r14, r24
 16e:	ce 01       	movw	r24, r28
 170:	6f e2       	ldi	r22, 0x2F	; 47
 172:	70 e0       	ldi	r23, 0x00	; 0
 174:	0e 94 00 00 	call	0	; 0x0 <_ZN12FirmataClass23sendValueAsTwo7bitBytesEi>
 178:	e1 14       	cp	r14, r1
 17a:	f1 04       	cpc	r15, r1
 17c:	01 f0       	breq	.+0      	; 0x17e <_ZN12FirmataClass25setFirmwareNameAndVersionEPKchh+0x38>
 17e:	6c 01       	movw	r12, r24
 180:	08 94       	sec
 182:	c1 1c       	adc	r12, r1
 184:	d1 1c       	adc	r13, r1
 186:	c1 14       	cp	r12, r1
 188:	d1 04       	cpc	r13, r1
 18a:	01 f0       	breq	.+0      	; 0x18c <_ZN12FirmataClass25setFirmwareNameAndVersionEPKchh+0x46>
 18c:	ec 18       	sub	r14, r12
 18e:	fd 08       	sbc	r15, r13
 190:	82 e0       	ldi	r24, 0x02	; 2
 192:	e8 0e       	add	r14, r24
 194:	d8 01       	movw	r26, r16
 196:	12 96       	adiw	r26, 0x02	; 2
 198:	ec 92       	st	X, r14
 19a:	12 97       	sbiw	r26, 0x02	; 2
 19c:	00 c0       	rjmp	.+0      	; 0x19e <_ZN12FirmataClass25setFirmwareNameAndVersionEPKchh+0x58>
 19e:	de 01       	movw	r26, r28
 1a0:	0d 90       	ld	r0, X+
 1a2:	00 20       	and	r0, r0
 1a4:	01 f4       	brne	.+0      	; 0x1a6 <_ZN12FirmataClass25setFirmwareNameAndVersionEPKchh+0x60>
 1a6:	ac 1b       	sub	r26, r28
 1a8:	af 5f       	subi	r26, 0xFF	; 255
 1aa:	f8 01       	movw	r30, r16
 1ac:	a2 83       	std	Z+2, r26	; 0x02
 1ae:	6e 01       	movw	r12, r28
 1b0:	d8 01       	movw	r26, r16
 1b2:	12 96       	adiw	r26, 0x02	; 2
 1b4:	cc 91       	ld	r28, X
 1b6:	d0 e0       	ldi	r29, 0x00	; 0
 1b8:	ce 01       	movw	r24, r28
 1ba:	0e 94 00 00 	call	0	; 0x0 <_ZN12FirmataClass23sendValueAsTwo7bitBytesEi>
 1be:	f8 01       	movw	r30, r16
 1c0:	94 83       	std	Z+4, r25	; 0x04
 1c2:	83 83       	std	Z+3, r24	; 0x03
 1c4:	c8 0f       	add	r28, r24
 1c6:	d9 1f       	adc	r29, r25
 1c8:	18 82       	st	Y, r1
 1ca:	03 80       	ldd	r0, Z+3	; 0x03
 1cc:	f4 81       	ldd	r31, Z+4	; 0x04
 1ce:	e0 2d       	mov	r30, r0
 1d0:	b0 82       	st	Z, r11
 1d2:	d8 01       	movw	r26, r16
 1d4:	13 96       	adiw	r26, 0x03	; 3
 1d6:	ed 91       	ld	r30, X+
 1d8:	fc 91       	ld	r31, X
 1da:	14 97       	sbiw	r26, 0x04	; 4
 1dc:	a1 82       	std	Z+1, r10	; 0x01
 1de:	13 96       	adiw	r26, 0x03	; 3
 1e0:	8d 91       	ld	r24, X+
 1e2:	9c 91       	ld	r25, X
 1e4:	14 97       	sbiw	r26, 0x04	; 4
 1e6:	12 96       	adiw	r26, 0x02	; 2
 1e8:	4c 91       	ld	r20, X
 1ea:	50 e0       	ldi	r21, 0x00	; 0
 1ec:	42 50       	subi	r20, 0x02	; 2
 1ee:	50 40       	sbci	r21, 0x00	; 0
 1f0:	02 96       	adiw	r24, 0x02	; 2
 1f2:	b6 01       	movw	r22, r12
 1f4:	0e 94 00 00 	call	0	; 0x0 <_ZN12FirmataClass23sendValueAsTwo7bitBytesEi>
 1f8:	df 91       	pop	r29
 1fa:	cf 91       	pop	r28
 1fc:	1f 91       	pop	r17
 1fe:	0f 91       	pop	r16
 200:	ff 90       	pop	r15
 202:	ef 90       	pop	r14
 204:	df 90       	pop	r13
 206:	cf 90       	pop	r12
 208:	bf 90       	pop	r11
 20a:	af 90       	pop	r10
 20c:	08 95       	ret

0000020e <_ZN12FirmataClass9availableEv>:
 20e:	dc 01       	movw	r26, r24
 210:	8d 91       	ld	r24, X+
 212:	9c 91       	ld	r25, X
 214:	dc 01       	movw	r26, r24
 216:	ed 91       	ld	r30, X+
 218:	fc 91       	ld	r31, X
 21a:	04 80       	ldd	r0, Z+4	; 0x04
 21c:	f5 81       	ldd	r31, Z+5	; 0x05
 21e:	e0 2d       	mov	r30, r0
 220:	09 95       	icall
 222:	08 95       	ret

00000224 <_ZN12FirmataClass19processSysexMessageEv>:
 224:	1f 93       	push	r17
 226:	cf 93       	push	r28
 228:	df 93       	push	r29
 22a:	ec 01       	movw	r28, r24
 22c:	88 85       	ldd	r24, Y+8	; 0x08
 22e:	81 37       	cpi	r24, 0x71	; 113
 230:	01 f0       	breq	.+0      	; 0x232 <_ZN12FirmataClass19processSysexMessageEv+0xe>
 232:	89 37       	cpi	r24, 0x79	; 121
 234:	01 f4       	brne	.+0      	; 0x236 <_ZN12FirmataClass19processSysexMessageEv+0x12>
 236:	ce 01       	movw	r24, r28
 238:	0e 94 00 00 	call	0	; 0x0 <_ZN12FirmataClass23sendValueAsTwo7bitBytesEi>
 23c:	00 c0       	rjmp	.+0      	; 0x23e <_ZN12FirmataClass19processSysexMessageEv+0x1a>
 23e:	8f a9       	ldd	r24, Y+55	; 0x37
 240:	98 ad       	ldd	r25, Y+56	; 0x38
 242:	00 97       	sbiw	r24, 0x00	; 0
 244:	01 f0       	breq	.+0      	; 0x246 <_ZN12FirmataClass19processSysexMessageEv+0x22>
 246:	89 a5       	ldd	r24, Y+41	; 0x29
 248:	9a a5       	ldd	r25, Y+42	; 0x2a
 24a:	01 97       	sbiw	r24, 0x01	; 1
 24c:	62 e0       	ldi	r22, 0x02	; 2
 24e:	70 e0       	ldi	r23, 0x00	; 0
 250:	0e 94 00 00 	call	0	; 0x0 <_ZN12FirmataClass23sendValueAsTwo7bitBytesEi>
 254:	86 2f       	mov	r24, r22
 256:	16 2f       	mov	r17, r22
 258:	90 e0       	ldi	r25, 0x00	; 0
 25a:	0e 94 00 00 	call	0	; 0x0 <_ZN12FirmataClass23sendValueAsTwo7bitBytesEi>
 25e:	fc 01       	movw	r30, r24
 260:	31 e0       	ldi	r19, 0x01	; 1
 262:	00 c0       	rjmp	.+0      	; 0x264 <_ZN12FirmataClass19processSysexMessageEv+0x40>
 264:	de 01       	movw	r26, r28
 266:	a3 0f       	add	r26, r19
 268:	b1 1d       	adc	r27, r1
 26a:	18 96       	adiw	r26, 0x08	; 8
 26c:	4c 91       	ld	r20, X
 26e:	40 83       	st	Z, r20
 270:	23 2f       	mov	r18, r19
 272:	2f 5f       	subi	r18, 0xFF	; 255
 274:	de 01       	movw	r26, r28
 276:	a2 0f       	add	r26, r18
 278:	b1 1d       	adc	r27, r1
 27a:	18 96       	adiw	r26, 0x08	; 8
 27c:	2c 91       	ld	r18, X
 27e:	18 97       	sbiw	r26, 0x08	; 8
 280:	27 95       	ror	r18
 282:	22 27       	eor	r18, r18
 284:	27 95       	ror	r18
 286:	24 0f       	add	r18, r20
 288:	21 93       	st	Z+, r18
 28a:	3e 5f       	subi	r19, 0xFE	; 254
 28c:	2e 2f       	mov	r18, r30
 28e:	28 1b       	sub	r18, r24
 290:	21 17       	cp	r18, r17
 292:	00 f0       	brcs	.+0      	; 0x294 <_ZN12FirmataClass19processSysexMessageEv+0x70>
 294:	ef a9       	ldd	r30, Y+55	; 0x37
 296:	f8 ad       	ldd	r31, Y+56	; 0x38
 298:	09 95       	icall
 29a:	00 c0       	rjmp	.+0      	; 0x29c <_ZN12FirmataClass19processSysexMessageEv+0x78>
 29c:	e9 ad       	ldd	r30, Y+57	; 0x39
 29e:	fa ad       	ldd	r31, Y+58	; 0x3a
 2a0:	30 97       	sbiw	r30, 0x00	; 0
 2a2:	01 f0       	breq	.+0      	; 0x2a4 <_ZN12FirmataClass19processSysexMessageEv+0x80>
 2a4:	69 a5       	ldd	r22, Y+41	; 0x29
 2a6:	61 50       	subi	r22, 0x01	; 1
 2a8:	ae 01       	movw	r20, r28
 2aa:	47 5f       	subi	r20, 0xF7	; 247
 2ac:	5f 4f       	sbci	r21, 0xFF	; 255
 2ae:	09 95       	icall
 2b0:	df 91       	pop	r29
 2b2:	cf 91       	pop	r28
 2b4:	1f 91       	pop	r17
 2b6:	08 95       	ret

000002b8 <_ZN12FirmataClass10sendAnalogEhi>:
 2b8:	0f 93       	push	r16
 2ba:	1f 93       	push	r17
 2bc:	cf 93       	push	r28
 2be:	df 93       	push	r29
 2c0:	ec 01       	movw	r28, r24
 2c2:	8a 01       	movw	r16, r20
 2c4:	88 81       	ld	r24, Y
 2c6:	99 81       	ldd	r25, Y+1	; 0x01
 2c8:	dc 01       	movw	r26, r24
 2ca:	ed 91       	ld	r30, X+
 2cc:	fc 91       	ld	r31, X
 2ce:	6f 70       	andi	r22, 0x0F	; 15
 2d0:	60 6e       	ori	r22, 0xE0	; 224
 2d2:	01 90       	ld	r0, Z+
 2d4:	f0 81       	ld	r31, Z
 2d6:	e0 2d       	mov	r30, r0
 2d8:	09 95       	icall
 2da:	ce 01       	movw	r24, r28
 2dc:	b8 01       	movw	r22, r16
 2de:	0e 94 00 00 	call	0	; 0x0 <_ZN12FirmataClass23sendValueAsTwo7bitBytesEi>
 2e2:	df 91       	pop	r29
 2e4:	cf 91       	pop	r28
 2e6:	1f 91       	pop	r17
 2e8:	0f 91       	pop	r16
 2ea:	08 95       	ret

000002ec <_ZN12FirmataClass11sendDigitalEhi>:
 2ec:	08 95       	ret

000002ee <_ZN12FirmataClass15sendDigitalPortEhi>:
 2ee:	0f 93       	push	r16
 2f0:	1f 93       	push	r17
 2f2:	cf 93       	push	r28
 2f4:	df 93       	push	r29
 2f6:	ec 01       	movw	r28, r24
 2f8:	8a 01       	movw	r16, r20
 2fa:	88 81       	ld	r24, Y
 2fc:	99 81       	ldd	r25, Y+1	; 0x01
 2fe:	dc 01       	movw	r26, r24
 300:	ed 91       	ld	r30, X+
 302:	fc 91       	ld	r31, X
 304:	6f 70       	andi	r22, 0x0F	; 15
 306:	60 69       	ori	r22, 0x90	; 144
 308:	01 90       	ld	r0, Z+
 30a:	f0 81       	ld	r31, Z
 30c:	e0 2d       	mov	r30, r0
 30e:	09 95       	icall
 310:	88 81       	ld	r24, Y
 312:	99 81       	ldd	r25, Y+1	; 0x01
 314:	dc 01       	movw	r26, r24
 316:	ed 91       	ld	r30, X+
 318:	fc 91       	ld	r31, X
 31a:	60 2f       	mov	r22, r16
 31c:	6f 77       	andi	r22, 0x7F	; 127
 31e:	01 90       	ld	r0, Z+
 320:	f0 81       	ld	r31, Z
 322:	e0 2d       	mov	r30, r0
 324:	09 95       	icall
 326:	e8 81       	ld	r30, Y
 328:	f9 81       	ldd	r31, Y+1	; 0x01
 32a:	a0 81       	ld	r26, Z
 32c:	b1 81       	ldd	r27, Z+1	; 0x01
 32e:	b8 01       	movw	r22, r16
 330:	66 0f       	add	r22, r22
 332:	67 2f       	mov	r22, r23
 334:	66 1f       	adc	r22, r22
 336:	77 0b       	sbc	r23, r23
 338:	2d 91       	ld	r18, X+
 33a:	3c 91       	ld	r19, X
 33c:	cf 01       	movw	r24, r30
 33e:	f9 01       	movw	r30, r18
 340:	09 95       	icall
 342:	df 91       	pop	r29
 344:	cf 91       	pop	r28
 346:	1f 91       	pop	r17
 348:	0f 91       	pop	r16
 34a:	08 95       	ret

0000034c <_ZN12FirmataClass9sendSysexEhhPh>:
 34c:	cf 92       	push	r12
 34e:	df 92       	push	r13
 350:	ef 92       	push	r14
 352:	ff 92       	push	r15
 354:	0f 93       	push	r16
 356:	1f 93       	push	r17
 358:	cf 93       	push	r28
 35a:	df 93       	push	r29
 35c:	00 d0       	rcall	.+0      	; 0x35e <_ZN12FirmataClass9sendSysexEhhPh+0x12>
 35e:	cd b7       	in	r28, 0x3d	; 61
 360:	de b7       	in	r29, 0x3e	; 62
 362:	7c 01       	movw	r14, r24
 364:	04 2f       	mov	r16, r20
 366:	12 2f       	mov	r17, r18
 368:	3a 83       	std	Y+2, r19	; 0x02
 36a:	69 83       	std	Y+1, r22	; 0x01
 36c:	0e 94 00 00 	call	0	; 0x0 <_ZN12FirmataClass23sendValueAsTwo7bitBytesEi>
 370:	d7 01       	movw	r26, r14
 372:	8d 91       	ld	r24, X+
 374:	9c 91       	ld	r25, X
 376:	dc 01       	movw	r26, r24
 378:	ed 91       	ld	r30, X+
 37a:	fc 91       	ld	r31, X
 37c:	01 90       	ld	r0, Z+
 37e:	f0 81       	ld	r31, Z
 380:	e0 2d       	mov	r30, r0
 382:	69 81       	ldd	r22, Y+1	; 0x01
 384:	09 95       	icall
 386:	c1 2e       	mov	r12, r17
 388:	3a 81       	ldd	r19, Y+2	; 0x02
 38a:	d3 2e       	mov	r13, r19
 38c:	00 c0       	rjmp	.+0      	; 0x38e <_ZN12FirmataClass9sendSysexEhhPh+0x42>
 38e:	f6 01       	movw	r30, r12
 390:	61 91       	ld	r22, Z+
 392:	6f 01       	movw	r12, r30
 394:	c7 01       	movw	r24, r14
 396:	70 e0       	ldi	r23, 0x00	; 0
 398:	0e 94 00 00 	call	0	; 0x0 <_ZN12FirmataClass23sendValueAsTwo7bitBytesEi>
 39c:	8c 2d       	mov	r24, r12
 39e:	81 1b       	sub	r24, r17
 3a0:	80 17       	cp	r24, r16
 3a2:	00 f0       	brcs	.+0      	; 0x3a4 <_ZN12FirmataClass9sendSysexEhhPh+0x58>
 3a4:	c7 01       	movw	r24, r14
 3a6:	0e 94 00 00 	call	0	; 0x0 <_ZN12FirmataClass23sendValueAsTwo7bitBytesEi>
 3aa:	0f 90       	pop	r0
 3ac:	0f 90       	pop	r0
 3ae:	df 91       	pop	r29
 3b0:	cf 91       	pop	r28
 3b2:	1f 91       	pop	r17
 3b4:	0f 91       	pop	r16
 3b6:	ff 90       	pop	r15
 3b8:	ef 90       	pop	r14
 3ba:	df 90       	pop	r13
 3bc:	cf 90       	pop	r12
 3be:	08 95       	ret

000003c0 <_ZN12FirmataClass10sendStringEhPKc>:
 3c0:	9a 01       	movw	r18, r20
 3c2:	fa 01       	movw	r30, r20
 3c4:	01 90       	ld	r0, Z+
 3c6:	00 20       	and	r0, r0
 3c8:	01 f4       	brne	.+0      	; 0x3ca <_ZN12FirmataClass10sendStringEhPKc+0xa>
 3ca:	31 97       	sbiw	r30, 0x01	; 1
 3cc:	e4 1b       	sub	r30, r20
 3ce:	f5 0b       	sbc	r31, r21
 3d0:	4e 2f       	mov	r20, r30
 3d2:	0e 94 00 00 	call	0	; 0x0 <_ZN12FirmataClass23sendValueAsTwo7bitBytesEi>
 3d6:	08 95       	ret

000003d8 <_ZN12FirmataClass10sendStringEPKc>:
 3d8:	ab 01       	movw	r20, r22
 3da:	61 e7       	ldi	r22, 0x71	; 113
 3dc:	0e 94 00 00 	call	0	; 0x0 <_ZN12FirmataClass23sendValueAsTwo7bitBytesEi>
 3e0:	08 95       	ret

000003e2 <_ZN12FirmataClass6attachEhPFvhiE>:
 3e2:	fc 01       	movw	r30, r24
 3e4:	60 3d       	cpi	r22, 0xD0	; 208
 3e6:	01 f0       	breq	.+0      	; 0x3e8 <_ZN12FirmataClass6attachEhPFvhiE+0x6>
 3e8:	61 3d       	cpi	r22, 0xD1	; 209
 3ea:	00 f4       	brcc	.+0      	; 0x3ec <_ZN12FirmataClass6attachEhPFvhiE+0xa>
 3ec:	60 39       	cpi	r22, 0x90	; 144
 3ee:	01 f0       	breq	.+0      	; 0x3f0 <_ZN12FirmataClass6attachEhPFvhiE+0xe>
 3f0:	60 3c       	cpi	r22, 0xC0	; 192
 3f2:	01 f4       	brne	.+0      	; 0x3f4 <_ZN12FirmataClass6attachEhPFvhiE+0x12>
 3f4:	00 c0       	rjmp	.+0      	; 0x3f6 <_ZN12FirmataClass6attachEhPFvhiE+0x14>
 3f6:	60 3e       	cpi	r22, 0xE0	; 224
 3f8:	01 f0       	breq	.+0      	; 0x3fa <_ZN12FirmataClass6attachEhPFvhiE+0x18>
 3fa:	64 3f       	cpi	r22, 0xF4	; 244
 3fc:	01 f4       	brne	.+0      	; 0x3fe <_ZN12FirmataClass6attachEhPFvhiE+0x1c>
 3fe:	00 c0       	rjmp	.+0      	; 0x400 <_ZN12FirmataClass6attachEhPFvhiE+0x1e>
 400:	54 a7       	std	Z+44, r21	; 0x2c
 402:	43 a7       	std	Z+43, r20	; 0x2b
 404:	08 95       	ret
 406:	56 a7       	std	Z+46, r21	; 0x2e
 408:	45 a7       	std	Z+45, r20	; 0x2d
 40a:	08 95       	ret
 40c:	50 ab       	std	Z+48, r21	; 0x30
 40e:	47 a7       	std	Z+47, r20	; 0x2f
 410:	08 95       	ret
 412:	52 ab       	std	Z+50, r21	; 0x32
 414:	41 ab       	std	Z+49, r20	; 0x31
 416:	08 95       	ret
 418:	54 ab       	std	Z+52, r21	; 0x34
 41a:	43 ab       	std	Z+51, r20	; 0x33
 41c:	08 95       	ret

0000041e <_ZN12FirmataClass6attachEhPFvvE>:
 41e:	6f 3f       	cpi	r22, 0xFF	; 255
 420:	01 f4       	brne	.+0      	; 0x422 <_ZN12FirmataClass6attachEhPFvvE+0x4>
 422:	fc 01       	movw	r30, r24
 424:	56 ab       	std	Z+54, r21	; 0x36
 426:	45 ab       	std	Z+53, r20	; 0x35
 428:	08 95       	ret

0000042a <_ZN12FirmataClass6attachEhPFvPcE>:
 42a:	61 37       	cpi	r22, 0x71	; 113
 42c:	01 f4       	brne	.+0      	; 0x42e <_ZN12FirmataClass6attachEhPFvPcE+0x4>
 42e:	fc 01       	movw	r30, r24
 430:	50 af       	std	Z+56, r21	; 0x38
 432:	47 ab       	std	Z+55, r20	; 0x37
 434:	08 95       	ret

00000436 <_ZN12FirmataClass6attachEhPFvhhPhE>:
 436:	fc 01       	movw	r30, r24
 438:	52 af       	std	Z+58, r21	; 0x3a
 43a:	41 af       	std	Z+57, r20	; 0x39
 43c:	08 95       	ret

0000043e <_ZN12FirmataClass6detachEh>:
 43e:	60 3f       	cpi	r22, 0xF0	; 240
 440:	01 f0       	breq	.+0      	; 0x442 <_ZN12FirmataClass6detachEh+0x4>
 442:	6f 3f       	cpi	r22, 0xFF	; 255
 444:	01 f0       	breq	.+0      	; 0x446 <_ZN12FirmataClass6detachEh+0x8>
 446:	61 37       	cpi	r22, 0x71	; 113
 448:	01 f4       	brne	.+0      	; 0x44a <_ZN12FirmataClass6detachEh+0xc>
 44a:	00 c0       	rjmp	.+0      	; 0x44c <_ZN12FirmataClass6detachEh+0xe>
 44c:	fc 01       	movw	r30, r24
 44e:	16 aa       	std	Z+54, r1	; 0x36
 450:	15 aa       	std	Z+53, r1	; 0x35
 452:	08 95       	ret
 454:	fc 01       	movw	r30, r24
 456:	10 ae       	std	Z+56, r1	; 0x38
 458:	17 aa       	std	Z+55, r1	; 0x37
 45a:	08 95       	ret
 45c:	fc 01       	movw	r30, r24
 45e:	12 ae       	std	Z+58, r1	; 0x3a
 460:	11 ae       	std	Z+57, r1	; 0x39
 462:	08 95       	ret
 464:	40 e0       	ldi	r20, 0x00	; 0
 466:	50 e0       	ldi	r21, 0x00	; 0
 468:	0e 94 00 00 	call	0	; 0x0 <_ZN12FirmataClass23sendValueAsTwo7bitBytesEi>
 46c:	08 95       	ret

0000046e <_ZN12FirmataClass11systemResetEv>:
 46e:	fc 01       	movw	r30, r24
 470:	15 82       	std	Z+5, r1	; 0x05
 472:	16 82       	std	Z+6, r1	; 0x06
 474:	17 82       	std	Z+7, r1	; 0x07
 476:	80 e0       	ldi	r24, 0x00	; 0
 478:	90 e0       	ldi	r25, 0x00	; 0
 47a:	df 01       	movw	r26, r30
 47c:	a8 0f       	add	r26, r24
 47e:	b9 1f       	adc	r27, r25
 480:	18 96       	adiw	r26, 0x08	; 8
 482:	1c 92       	st	X, r1
 484:	18 97       	sbiw	r26, 0x08	; 8
 486:	01 96       	adiw	r24, 0x01	; 1
 488:	80 32       	cpi	r24, 0x20	; 32
 48a:	91 05       	cpc	r25, r1
 48c:	01 f4       	brne	.+0      	; 0x48e <_ZN12FirmataClass11systemResetEv+0x20>
 48e:	10 a6       	std	Z+40, r1	; 0x28
 490:	12 a6       	std	Z+42, r1	; 0x2a
 492:	11 a6       	std	Z+41, r1	; 0x29
 494:	05 a8       	ldd	r0, Z+53	; 0x35
 496:	f6 a9       	ldd	r31, Z+54	; 0x36
 498:	e0 2d       	mov	r30, r0
 49a:	30 97       	sbiw	r30, 0x00	; 0
 49c:	01 f0       	breq	.+0      	; 0x49e <_ZN12FirmataClass11systemResetEv+0x30>
 49e:	09 95       	icall
 4a0:	08 95       	ret

000004a2 <_ZN12FirmataClass12processInputEv>:
 4a2:	cf 93       	push	r28
 4a4:	df 93       	push	r29
 4a6:	ec 01       	movw	r28, r24
 4a8:	88 81       	ld	r24, Y
 4aa:	99 81       	ldd	r25, Y+1	; 0x01
 4ac:	dc 01       	movw	r26, r24
 4ae:	ed 91       	ld	r30, X+
 4b0:	fc 91       	ld	r31, X
 4b2:	06 80       	ldd	r0, Z+6	; 0x06
 4b4:	f7 81       	ldd	r31, Z+7	; 0x07
 4b6:	e0 2d       	mov	r30, r0
 4b8:	09 95       	icall
 4ba:	9c 01       	movw	r18, r24
 4bc:	88 a5       	ldd	r24, Y+40	; 0x28
 4be:	88 23       	and	r24, r24
 4c0:	01 f0       	breq	.+0      	; 0x4c2 <_ZN12FirmataClass12processInputEv+0x20>
 4c2:	27 3f       	cpi	r18, 0xF7	; 247
 4c4:	31 05       	cpc	r19, r1
 4c6:	01 f4       	brne	.+0      	; 0x4c8 <_ZN12FirmataClass12processInputEv+0x26>
 4c8:	18 a6       	std	Y+40, r1	; 0x28
 4ca:	ce 01       	movw	r24, r28
 4cc:	0e 94 00 00 	call	0	; 0x0 <_ZN12FirmataClass23sendValueAsTwo7bitBytesEi>
 4d0:	00 c0       	rjmp	.+0      	; 0x4d2 <_ZN12FirmataClass12processInputEv+0x30>
 4d2:	89 a5       	ldd	r24, Y+41	; 0x29
 4d4:	9a a5       	ldd	r25, Y+42	; 0x2a
 4d6:	fe 01       	movw	r30, r28
 4d8:	e8 0f       	add	r30, r24
 4da:	f9 1f       	adc	r31, r25
 4dc:	20 87       	std	Z+8, r18	; 0x08
 4de:	01 96       	adiw	r24, 0x01	; 1
 4e0:	9a a7       	std	Y+42, r25	; 0x2a
 4e2:	89 a7       	std	Y+41, r24	; 0x29
 4e4:	00 c0       	rjmp	.+0      	; 0x4e6 <_ZN12FirmataClass12processInputEv+0x44>
 4e6:	8d 81       	ldd	r24, Y+5	; 0x05
 4e8:	88 23       	and	r24, r24
 4ea:	01 f4       	brne	.+0      	; 0x4ec <_ZN12FirmataClass12processInputEv+0x4a>
 4ec:	00 c0       	rjmp	.+0      	; 0x4ee <_ZN12FirmataClass12processInputEv+0x4c>
 4ee:	20 38       	cpi	r18, 0x80	; 128
 4f0:	31 05       	cpc	r19, r1
 4f2:	04 f0       	brlt	.+0      	; 0x4f4 <_ZN12FirmataClass12processInputEv+0x52>
 4f4:	00 c0       	rjmp	.+0      	; 0x4f6 <_ZN12FirmataClass12processInputEv+0x54>
 4f6:	81 50       	subi	r24, 0x01	; 1
 4f8:	8d 83       	std	Y+5, r24	; 0x05
 4fa:	fe 01       	movw	r30, r28
 4fc:	e8 0f       	add	r30, r24
 4fe:	f1 1d       	adc	r31, r1
 500:	20 87       	std	Z+8, r18	; 0x08
 502:	88 23       	and	r24, r24
 504:	01 f0       	breq	.+0      	; 0x506 <_ZN12FirmataClass12processInputEv+0x64>
 506:	00 c0       	rjmp	.+0      	; 0x508 <_ZN12FirmataClass12processInputEv+0x66>
 508:	8e 81       	ldd	r24, Y+6	; 0x06
 50a:	88 23       	and	r24, r24
 50c:	01 f4       	brne	.+0      	; 0x50e <_ZN12FirmataClass12processInputEv+0x6c>
 50e:	00 c0       	rjmp	.+0      	; 0x510 <_ZN12FirmataClass12processInputEv+0x6e>
 510:	80 3d       	cpi	r24, 0xD0	; 208
 512:	01 f0       	breq	.+0      	; 0x514 <_ZN12FirmataClass12processInputEv+0x72>
 514:	81 3d       	cpi	r24, 0xD1	; 209
 516:	00 f4       	brcc	.+0      	; 0x518 <_ZN12FirmataClass12processInputEv+0x76>
 518:	80 39       	cpi	r24, 0x90	; 144
 51a:	01 f0       	breq	.+0      	; 0x51c <_ZN12FirmataClass12processInputEv+0x7a>
 51c:	80 3c       	cpi	r24, 0xC0	; 192
 51e:	01 f4       	brne	.+0      	; 0x520 <_ZN12FirmataClass12processInputEv+0x7e>
 520:	00 c0       	rjmp	.+0      	; 0x522 <_ZN12FirmataClass12processInputEv+0x80>
 522:	80 3e       	cpi	r24, 0xE0	; 224
 524:	01 f0       	breq	.+0      	; 0x526 <_ZN12FirmataClass12processInputEv+0x84>
 526:	84 3f       	cpi	r24, 0xF4	; 244
 528:	01 f4       	brne	.+0      	; 0x52a <_ZN12FirmataClass12processInputEv+0x88>
 52a:	00 c0       	rjmp	.+0      	; 0x52c <_ZN12FirmataClass12processInputEv+0x8a>
 52c:	eb a5       	ldd	r30, Y+43	; 0x2b
 52e:	fc a5       	ldd	r31, Y+44	; 0x2c
 530:	00 c0       	rjmp	.+0      	; 0x532 <_ZN12FirmataClass12processInputEv+0x90>
 532:	ed a5       	ldd	r30, Y+45	; 0x2d
 534:	fe a5       	ldd	r31, Y+46	; 0x2e
 536:	30 97       	sbiw	r30, 0x00	; 0
 538:	01 f0       	breq	.+0      	; 0x53a <_ZN12FirmataClass12processInputEv+0x98>
 53a:	68 85       	ldd	r22, Y+8	; 0x08
 53c:	70 e0       	ldi	r23, 0x00	; 0
 53e:	76 95       	lsr	r23
 540:	76 2f       	mov	r23, r22
 542:	66 27       	eor	r22, r22
 544:	77 95       	ror	r23
 546:	67 95       	ror	r22
 548:	89 85       	ldd	r24, Y+9	; 0x09
 54a:	68 0f       	add	r22, r24
 54c:	71 1d       	adc	r23, r1
 54e:	8f 81       	ldd	r24, Y+7	; 0x07
 550:	00 c0       	rjmp	.+0      	; 0x552 <_ZN12FirmataClass12processInputEv+0xb0>
 552:	eb a9       	ldd	r30, Y+51	; 0x33
 554:	fc a9       	ldd	r31, Y+52	; 0x34
 556:	30 97       	sbiw	r30, 0x00	; 0
 558:	01 f0       	breq	.+0      	; 0x55a <_ZN12FirmataClass12processInputEv+0xb8>
 55a:	68 85       	ldd	r22, Y+8	; 0x08
 55c:	89 85       	ldd	r24, Y+9	; 0x09
 55e:	00 c0       	rjmp	.+0      	; 0x560 <_ZN12FirmataClass12processInputEv+0xbe>
 560:	ef a5       	ldd	r30, Y+47	; 0x2f
 562:	f8 a9       	ldd	r31, Y+48	; 0x30
 564:	00 c0       	rjmp	.+0      	; 0x566 <_ZN12FirmataClass12processInputEv+0xc4>
 566:	e9 a9       	ldd	r30, Y+49	; 0x31
 568:	fa a9       	ldd	r31, Y+50	; 0x32
 56a:	30 97       	sbiw	r30, 0x00	; 0
 56c:	01 f0       	breq	.+0      	; 0x56e <_ZN12FirmataClass12processInputEv+0xcc>
 56e:	68 85       	ldd	r22, Y+8	; 0x08
 570:	8f 81       	ldd	r24, Y+7	; 0x07
 572:	70 e0       	ldi	r23, 0x00	; 0
 574:	09 95       	icall
 576:	1e 82       	std	Y+6, r1	; 0x06
 578:	00 c0       	rjmp	.+0      	; 0x57a <_ZN12FirmataClass12processInputEv+0xd8>
 57a:	c9 01       	movw	r24, r18
 57c:	20 3f       	cpi	r18, 0xF0	; 240
 57e:	31 05       	cpc	r19, r1
 580:	04 f4       	brge	.+0      	; 0x582 <_ZN12FirmataClass12processInputEv+0xe0>
 582:	80 7f       	andi	r24, 0xF0	; 240
 584:	90 70       	andi	r25, 0x00	; 0
 586:	2f 70       	andi	r18, 0x0F	; 15
 588:	2f 83       	std	Y+7, r18	; 0x07
 58a:	80 3e       	cpi	r24, 0xE0	; 224
 58c:	91 05       	cpc	r25, r1
 58e:	01 f0       	breq	.+0      	; 0x590 <_ZN12FirmataClass12processInputEv+0xee>
 590:	81 3e       	cpi	r24, 0xE1	; 225
 592:	91 05       	cpc	r25, r1
 594:	04 f4       	brge	.+0      	; 0x596 <_ZN12FirmataClass12processInputEv+0xf4>
 596:	80 3c       	cpi	r24, 0xC0	; 192
 598:	91 05       	cpc	r25, r1
 59a:	01 f0       	breq	.+0      	; 0x59c <_ZN12FirmataClass12processInputEv+0xfa>
 59c:	80 3d       	cpi	r24, 0xD0	; 208
 59e:	91 05       	cpc	r25, r1
 5a0:	01 f0       	breq	.+0      	; 0x5a2 <_ZN12FirmataClass12processInputEv+0x100>
 5a2:	80 39       	cpi	r24, 0x90	; 144
 5a4:	91 05       	cpc	r25, r1
 5a6:	01 f4       	brne	.+0      	; 0x5a8 <_ZN12FirmataClass12processInputEv+0x106>
 5a8:	00 c0       	rjmp	.+0      	; 0x5aa <_ZN12FirmataClass12processInputEv+0x108>
 5aa:	84 3f       	cpi	r24, 0xF4	; 244
 5ac:	91 05       	cpc	r25, r1
 5ae:	01 f0       	breq	.+0      	; 0x5b0 <_ZN12FirmataClass12processInputEv+0x10e>
 5b0:	85 3f       	cpi	r24, 0xF5	; 245
 5b2:	91 05       	cpc	r25, r1
 5b4:	04 f4       	brge	.+0      	; 0x5b6 <_ZN12FirmataClass12processInputEv+0x114>
 5b6:	80 3f       	cpi	r24, 0xF0	; 240
 5b8:	91 05       	cpc	r25, r1
 5ba:	01 f4       	brne	.+0      	; 0x5bc <_ZN12FirmataClass12processInputEv+0x11a>
 5bc:	00 c0       	rjmp	.+0      	; 0x5be <_ZN12FirmataClass12processInputEv+0x11c>
 5be:	89 3f       	cpi	r24, 0xF9	; 249
 5c0:	91 05       	cpc	r25, r1
 5c2:	01 f0       	breq	.+0      	; 0x5c4 <_ZN12FirmataClass12processInputEv+0x122>
 5c4:	8f 3f       	cpi	r24, 0xFF	; 255
 5c6:	91 05       	cpc	r25, r1
 5c8:	01 f4       	brne	.+0      	; 0x5ca <_ZN12FirmataClass12processInputEv+0x128>
 5ca:	00 c0       	rjmp	.+0      	; 0x5cc <_ZN12FirmataClass12processInputEv+0x12a>
 5cc:	92 e0       	ldi	r25, 0x02	; 2
 5ce:	00 c0       	rjmp	.+0      	; 0x5d0 <_ZN12FirmataClass12processInputEv+0x12e>
 5d0:	91 e0       	ldi	r25, 0x01	; 1
 5d2:	9d 83       	std	Y+5, r25	; 0x05
 5d4:	8e 83       	std	Y+6, r24	; 0x06
 5d6:	00 c0       	rjmp	.+0      	; 0x5d8 <_ZN12FirmataClass12processInputEv+0x136>
 5d8:	81 e0       	ldi	r24, 0x01	; 1
 5da:	88 a7       	std	Y+40, r24	; 0x28
 5dc:	1a a6       	std	Y+42, r1	; 0x2a
 5de:	19 a6       	std	Y+41, r1	; 0x29
 5e0:	00 c0       	rjmp	.+0      	; 0x5e2 <_ZN12FirmataClass12processInputEv+0x140>
 5e2:	ce 01       	movw	r24, r28
 5e4:	0e 94 00 00 	call	0	; 0x0 <_ZN12FirmataClass23sendValueAsTwo7bitBytesEi>
 5e8:	00 c0       	rjmp	.+0      	; 0x5ea <_ZN12FirmataClass12processInputEv+0x148>
 5ea:	80 e0       	ldi	r24, 0x00	; 0
 5ec:	90 e0       	ldi	r25, 0x00	; 0
 5ee:	0e 94 00 00 	call	0	; 0x0 <_ZN12FirmataClass23sendValueAsTwo7bitBytesEi>
 5f2:	df 91       	pop	r29
 5f4:	cf 91       	pop	r28
 5f6:	08 95       	ret

000005f8 <_ZN12FirmataClass5beginER6Stream>:
 5f8:	0f 93       	push	r16
 5fa:	1f 93       	push	r17
 5fc:	cf 93       	push	r28
 5fe:	df 93       	push	r29
 600:	8c 01       	movw	r16, r24
 602:	fb 01       	movw	r30, r22
 604:	dc 01       	movw	r26, r24
 606:	cd 91       	ld	r28, X+
 608:	dc 91       	ld	r29, X
 60a:	82 81       	ldd	r24, Z+2	; 0x02
 60c:	93 81       	ldd	r25, Z+3	; 0x03
 60e:	9b 83       	std	Y+3, r25	; 0x03
 610:	8a 83       	std	Y+2, r24	; 0x02
 612:	84 81       	ldd	r24, Z+4	; 0x04
 614:	95 81       	ldd	r25, Z+5	; 0x05
 616:	a6 81       	ldd	r26, Z+6	; 0x06
 618:	b7 81       	ldd	r27, Z+7	; 0x07
 61a:	8c 83       	std	Y+4, r24	; 0x04
 61c:	9d 83       	std	Y+5, r25	; 0x05
 61e:	ae 83       	std	Y+6, r26	; 0x06
 620:	bf 83       	std	Y+7, r27	; 0x07
 622:	80 85       	ldd	r24, Z+8	; 0x08
 624:	91 85       	ldd	r25, Z+9	; 0x09
 626:	a2 85       	ldd	r26, Z+10	; 0x0a
 628:	b3 85       	ldd	r27, Z+11	; 0x0b
 62a:	88 87       	std	Y+8, r24	; 0x08
 62c:	99 87       	std	Y+9, r25	; 0x09
 62e:	aa 87       	std	Y+10, r26	; 0x0a
 630:	bb 87       	std	Y+11, r27	; 0x0b
 632:	c8 01       	movw	r24, r16
 634:	0e 94 00 00 	call	0	; 0x0 <_ZN12FirmataClass23sendValueAsTwo7bitBytesEi>
 638:	c8 01       	movw	r24, r16
 63a:	0e 94 00 00 	call	0	; 0x0 <_ZN12FirmataClass23sendValueAsTwo7bitBytesEi>
 63e:	c8 01       	movw	r24, r16
 640:	0e 94 00 00 	call	0	; 0x0 <_ZN12FirmataClass23sendValueAsTwo7bitBytesEi>
 644:	df 91       	pop	r29
 646:	cf 91       	pop	r28
 648:	1f 91       	pop	r17
 64a:	0f 91       	pop	r16
 64c:	08 95       	ret

0000064e <_ZN12FirmataClassC1ER6Stream>:
 64e:	fc 01       	movw	r30, r24
 650:	71 83       	std	Z+1, r23	; 0x01
 652:	60 83       	st	Z, r22
 654:	12 82       	std	Z+2, r1	; 0x02
 656:	0e 94 00 00 	call	0	; 0x0 <_ZN12FirmataClass23sendValueAsTwo7bitBytesEi>
 65a:	08 95       	ret

0000065c <_ZN12FirmataClass11pin13strobeEiii>:
 65c:	6f 92       	push	r6
 65e:	7f 92       	push	r7
 660:	8f 92       	push	r8
 662:	9f 92       	push	r9
 664:	af 92       	push	r10
 666:	bf 92       	push	r11
 668:	cf 92       	push	r12
 66a:	df 92       	push	r13
 66c:	ef 92       	push	r14
 66e:	ff 92       	push	r15
 670:	1f 93       	push	r17
 672:	cf 93       	push	r28
 674:	df 93       	push	r29
 676:	3b 01       	movw	r6, r22
 678:	6a 01       	movw	r12, r20
 67a:	e9 01       	movw	r28, r18
 67c:	8d e0       	ldi	r24, 0x0D	; 13
 67e:	61 e0       	ldi	r22, 0x01	; 1
 680:	0e 94 00 00 	call	0	; 0x0 <_ZN12FirmataClass23sendValueAsTwo7bitBytesEi>
 684:	10 e0       	ldi	r17, 0x00	; 0
 686:	4e 01       	movw	r8, r28
 688:	aa 24       	eor	r10, r10
 68a:	97 fc       	sbrc	r9, 7
 68c:	a0 94       	com	r10
 68e:	ba 2c       	mov	r11, r10
 690:	ee 24       	eor	r14, r14
 692:	d7 fc       	sbrc	r13, 7
 694:	e0 94       	com	r14
 696:	fe 2c       	mov	r15, r14
 698:	00 c0       	rjmp	.+0      	; 0x69a <_ZN12FirmataClass11pin13strobeEiii+0x3e>
 69a:	c5 01       	movw	r24, r10
 69c:	b4 01       	movw	r22, r8
 69e:	0e 94 00 00 	call	0	; 0x0 <_ZN12FirmataClass23sendValueAsTwo7bitBytesEi>
 6a2:	8d e0       	ldi	r24, 0x0D	; 13
 6a4:	61 e0       	ldi	r22, 0x01	; 1
 6a6:	0e 94 00 00 	call	0	; 0x0 <_ZN12FirmataClass23sendValueAsTwo7bitBytesEi>
 6aa:	c7 01       	movw	r24, r14
 6ac:	b6 01       	movw	r22, r12
 6ae:	0e 94 00 00 	call	0	; 0x0 <_ZN12FirmataClass23sendValueAsTwo7bitBytesEi>
 6b2:	8d e0       	ldi	r24, 0x0D	; 13
 6b4:	60 e0       	ldi	r22, 0x00	; 0
 6b6:	0e 94 00 00 	call	0	; 0x0 <_ZN12FirmataClass23sendValueAsTwo7bitBytesEi>
 6ba:	1f 5f       	subi	r17, 0xFF	; 255
 6bc:	81 2f       	mov	r24, r17
 6be:	90 e0       	ldi	r25, 0x00	; 0
 6c0:	86 15       	cp	r24, r6
 6c2:	97 05       	cpc	r25, r7
 6c4:	04 f0       	brlt	.+0      	; 0x6c6 <_ZN12FirmataClass11pin13strobeEiii+0x6a>
 6c6:	df 91       	pop	r29
 6c8:	cf 91       	pop	r28
 6ca:	1f 91       	pop	r17
 6cc:	ff 90       	pop	r15
 6ce:	ef 90       	pop	r14
 6d0:	df 90       	pop	r13
 6d2:	cf 90       	pop	r12
 6d4:	bf 90       	pop	r11
 6d6:	af 90       	pop	r10
 6d8:	9f 90       	pop	r9
 6da:	8f 90       	pop	r8
 6dc:	7f 90       	pop	r7
 6de:	6f 90       	pop	r6
 6e0:	08 95       	ret

000006e2 <_ZN12FirmataClass12blinkVersionEv>:
 6e2:	cf 93       	push	r28
 6e4:	df 93       	push	r29
 6e6:	ec 01       	movw	r28, r24
 6e8:	8d e0       	ldi	r24, 0x0D	; 13
 6ea:	61 e0       	ldi	r22, 0x01	; 1
 6ec:	0e 94 00 00 	call	0	; 0x0 <_ZN12FirmataClass23sendValueAsTwo7bitBytesEi>
 6f0:	ce 01       	movw	r24, r28
 6f2:	62 e0       	ldi	r22, 0x02	; 2
 6f4:	70 e0       	ldi	r23, 0x00	; 0
 6f6:	48 e2       	ldi	r20, 0x28	; 40
 6f8:	50 e0       	ldi	r21, 0x00	; 0
 6fa:	22 ed       	ldi	r18, 0xD2	; 210
 6fc:	30 e0       	ldi	r19, 0x00	; 0
 6fe:	0e 94 00 00 	call	0	; 0x0 <_ZN12FirmataClass23sendValueAsTwo7bitBytesEi>
 702:	6a ef       	ldi	r22, 0xFA	; 250
 704:	70 e0       	ldi	r23, 0x00	; 0
 706:	80 e0       	ldi	r24, 0x00	; 0
 708:	90 e0       	ldi	r25, 0x00	; 0
 70a:	0e 94 00 00 	call	0	; 0x0 <_ZN12FirmataClass23sendValueAsTwo7bitBytesEi>
 70e:	ce 01       	movw	r24, r28
 710:	63 e0       	ldi	r22, 0x03	; 3
 712:	70 e0       	ldi	r23, 0x00	; 0
 714:	48 e2       	ldi	r20, 0x28	; 40
 716:	50 e0       	ldi	r21, 0x00	; 0
 718:	22 ed       	ldi	r18, 0xD2	; 210
 71a:	30 e0       	ldi	r19, 0x00	; 0
 71c:	0e 94 00 00 	call	0	; 0x0 <_ZN12FirmataClass23sendValueAsTwo7bitBytesEi>
 720:	6d e7       	ldi	r22, 0x7D	; 125
 722:	70 e0       	ldi	r23, 0x00	; 0
 724:	80 e0       	ldi	r24, 0x00	; 0
 726:	90 e0       	ldi	r25, 0x00	; 0
 728:	0e 94 00 00 	call	0	; 0x0 <_ZN12FirmataClass23sendValueAsTwo7bitBytesEi>
 72c:	df 91       	pop	r29
 72e:	cf 91       	pop	r28
 730:	08 95       	ret

00000732 <_ZN12FirmataClass5beginEl>:
 732:	cf 93       	push	r28
 734:	df 93       	push	r29
 736:	ec 01       	movw	r28, r24
 738:	80 e0       	ldi	r24, 0x00	; 0
 73a:	90 e0       	ldi	r25, 0x00	; 0
 73c:	0e 94 00 00 	call	0	; 0x0 <_ZN12FirmataClass23sendValueAsTwo7bitBytesEi>
 740:	e8 81       	ld	r30, Y
 742:	f9 81       	ldd	r31, Y+1	; 0x01
 744:	80 91 00 00 	lds	r24, 0x0000
 748:	90 91 00 00 	lds	r25, 0x0000
 74c:	93 83       	std	Z+3, r25	; 0x03
 74e:	82 83       	std	Z+2, r24	; 0x02
 750:	80 91 00 00 	lds	r24, 0x0000
 754:	90 91 00 00 	lds	r25, 0x0000
 758:	a0 91 00 00 	lds	r26, 0x0000
 75c:	b0 91 00 00 	lds	r27, 0x0000
 760:	84 83       	std	Z+4, r24	; 0x04
 762:	95 83       	std	Z+5, r25	; 0x05
 764:	a6 83       	std	Z+6, r26	; 0x06
 766:	b7 83       	std	Z+7, r27	; 0x07
 768:	80 91 00 00 	lds	r24, 0x0000
 76c:	90 91 00 00 	lds	r25, 0x0000
 770:	a0 91 00 00 	lds	r26, 0x0000
 774:	b0 91 00 00 	lds	r27, 0x0000
 778:	80 87       	std	Z+8, r24	; 0x08
 77a:	91 87       	std	Z+9, r25	; 0x09
 77c:	a2 87       	std	Z+10, r26	; 0x0a
 77e:	b3 87       	std	Z+11, r27	; 0x0b
 780:	ce 01       	movw	r24, r28
 782:	0e 94 00 00 	call	0	; 0x0 <_ZN12FirmataClass23sendValueAsTwo7bitBytesEi>
 786:	ce 01       	movw	r24, r28
 788:	0e 94 00 00 	call	0	; 0x0 <_ZN12FirmataClass23sendValueAsTwo7bitBytesEi>
 78c:	ce 01       	movw	r24, r28
 78e:	0e 94 00 00 	call	0	; 0x0 <_ZN12FirmataClass23sendValueAsTwo7bitBytesEi>
 792:	df 91       	pop	r29
 794:	cf 91       	pop	r28
 796:	08 95       	ret

00000798 <_ZN12FirmataClass5beginEv>:
 798:	40 e0       	ldi	r20, 0x00	; 0
 79a:	51 ee       	ldi	r21, 0xE1	; 225
 79c:	60 e0       	ldi	r22, 0x00	; 0
 79e:	70 e0       	ldi	r23, 0x00	; 0
 7a0:	0e 94 00 00 	call	0	; 0x0 <_ZN12FirmataClass23sendValueAsTwo7bitBytesEi>
 7a4:	08 95       	ret

Disassembly of section .text.startup:

00000000 <_GLOBAL__sub_I__ZN12FirmataClass23sendValueAsTwo7bitBytesEi>:
   0:	80 e0       	ldi	r24, 0x00	; 0
   2:	90 e0       	ldi	r25, 0x00	; 0
   4:	90 93 00 00 	sts	0x0000, r25
   8:	80 93 00 00 	sts	0x0000, r24
   c:	10 92 00 00 	sts	0x0000, r1
  10:	80 e0       	ldi	r24, 0x00	; 0
  12:	90 e0       	ldi	r25, 0x00	; 0
  14:	0e 94 00 00 	call	0	; 0x0 <_GLOBAL__sub_I__ZN12FirmataClass23sendValueAsTwo7bitBytesEi>
  18:	08 95       	ret

socket.o:     file format elf32-avr

Sections:
Idx Name          Size      VMA       LMA       File off  Algn
  0 .text         00000710  00000000  00000000  00000034  2**0
                  CONTENTS, ALLOC, LOAD, RELOC, READONLY, CODE
  1 .data         00000000  00000000  00000000  00000744  2**0
                  CONTENTS, ALLOC, LOAD, DATA
  2 .bss          00000002  00000000  00000000  00000744  2**0
                  ALLOC

Disassembly of section .text:

00000000 <_ZN10W5100Class11writeSnDIPREhPh>:
   0:	90 e0       	ldi	r25, 0x00	; 0
   2:	98 2f       	mov	r25, r24
   4:	88 27       	eor	r24, r24
   6:	84 5f       	subi	r24, 0xF4	; 244
   8:	9b 4f       	sbci	r25, 0xFB	; 251
   a:	44 e0       	ldi	r20, 0x04	; 4
   c:	50 e0       	ldi	r21, 0x00	; 0
   e:	0e 94 00 00 	call	0	; 0x0 <_ZN10W5100Class11writeSnDIPREhPh>
  12:	08 95       	ret

00000014 <_ZN10W5100Class6readSnEhj>:
  14:	90 e0       	ldi	r25, 0x00	; 0
  16:	04 96       	adiw	r24, 0x04	; 4
  18:	98 2f       	mov	r25, r24
  1a:	88 27       	eor	r24, r24
  1c:	86 0f       	add	r24, r22
  1e:	97 1f       	adc	r25, r23
  20:	0e 94 00 00 	call	0	; 0x0 <_ZN10W5100Class11writeSnDIPREhPh>
  24:	08 95       	ret

00000026 <_ZN10W5100Class8readSnIREh>:
  26:	62 e0       	ldi	r22, 0x02	; 2
  28:	70 e0       	ldi	r23, 0x00	; 0
  2a:	0e 94 00 00 	call	0	; 0x0 <_ZN10W5100Class11writeSnDIPREhPh>
  2e:	08 95       	ret

00000030 <_ZN10W5100Class7writeSnEhjh>:
  30:	90 e0       	ldi	r25, 0x00	; 0
  32:	04 96       	adiw	r24, 0x04	; 4
  34:	98 2f       	mov	r25, r24
  36:	88 27       	eor	r24, r24
  38:	86 0f       	add	r24, r22
  3a:	97 1f       	adc	r25, r23
  3c:	64 2f       	mov	r22, r20
  3e:	0e 94 00 00 	call	0	; 0x0 <_ZN10W5100Class11writeSnDIPREhPh>
  42:	08 95       	ret

00000044 <_ZN10W5100Class9writeSnIREhh>:
  44:	46 2f       	mov	r20, r22
  46:	62 e0       	ldi	r22, 0x02	; 2
  48:	70 e0       	ldi	r23, 0x00	; 0
  4a:	0e 94 00 00 	call	0	; 0x0 <_ZN10W5100Class11writeSnDIPREhPh>
  4e:	08 95       	ret

00000050 <_ZN10W5100Class12writeSnDPORTEhj>:
  50:	cf 93       	push	r28
  52:	df 93       	push	r29
  54:	c8 2f       	mov	r28, r24
  56:	d6 2f       	mov	r29, r22
  58:	47 2f       	mov	r20, r23
  5a:	60 e1       	ldi	r22, 0x10	; 16
  5c:	70 e0       	ldi	r23, 0x00	; 0
  5e:	0e 94 00 00 	call	0	; 0x0 <_ZN10W5100Class11writeSnDIPREhPh>
  62:	8c 2f       	mov	r24, r28
  64:	61 e1       	ldi	r22, 0x11	; 17
  66:	70 e0       	ldi	r23, 0x00	; 0
  68:	4d 2f       	mov	r20, r29
  6a:	0e 94 00 00 	call	0	; 0x0 <_ZN10W5100Class11writeSnDIPREhPh>
  6e:	df 91       	pop	r29
  70:	cf 91       	pop	r28
  72:	08 95       	ret

00000074 <_ZN10W5100Class12writeSnRX_RDEhj>:
  74:	cf 93       	push	r28
  76:	df 93       	push	r29
  78:	c8 2f       	mov	r28, r24
  7a:	d6 2f       	mov	r29, r22
  7c:	47 2f       	mov	r20, r23
  7e:	68 e2       	ldi	r22, 0x28	; 40
  80:	70 e0       	ldi	r23, 0x00	; 0
  82:	0e 94 00 00 	call	0	; 0x0 <_ZN10W5100Class11writeSnDIPREhPh>
  86:	8c 2f       	mov	r24, r28
  88:	69 e2       	ldi	r22, 0x29	; 41
  8a:	70 e0       	ldi	r23, 0x00	; 0
  8c:	4d 2f       	mov	r20, r29
  8e:	0e 94 00 00 	call	0	; 0x0 <_ZN10W5100Class11writeSnDIPREhPh>
  92:	df 91       	pop	r29
  94:	cf 91       	pop	r28
  96:	08 95       	ret

00000098 <_ZN10W5100Class11writeSnPORTEhj>:
  98:	cf 93       	push	r28
  9a:	df 93       	push	r29
  9c:	c8 2f       	mov	r28, r24
  9e:	d6 2f       	mov	r29, r22
  a0:	47 2f       	mov	r20, r23
  a2:	64 e0       	ldi	r22, 0x04	; 4
  a4:	70 e0       	ldi	r23, 0x00	; 0
  a6:	0e 94 00 00 	call	0	; 0x0 <_ZN10W5100Class11writeSnDIPREhPh>
  aa:	8c 2f       	mov	r24, r28
  ac:	65 e0       	ldi	r22, 0x05	; 5
  ae:	70 e0       	ldi	r23, 0x00	; 0
  b0:	4d 2f       	mov	r20, r29
  b2:	0e 94 00 00 	call	0	; 0x0 <_ZN10W5100Class11writeSnDIPREhPh>
  b6:	df 91       	pop	r29
  b8:	cf 91       	pop	r28
  ba:	08 95       	ret

000000bc <_Z5closeh>:
  bc:	cf 93       	push	r28
  be:	c8 2f       	mov	r28, r24
  c0:	80 e0       	ldi	r24, 0x00	; 0
  c2:	90 e0       	ldi	r25, 0x00	; 0
  c4:	6c 2f       	mov	r22, r28
  c6:	40 e1       	ldi	r20, 0x10	; 16
  c8:	0e 94 00 00 	call	0	; 0x0 <_ZN10W5100Class11writeSnDIPREhPh>
  cc:	8c 2f       	mov	r24, r28
  ce:	6f ef       	ldi	r22, 0xFF	; 255
  d0:	0e 94 00 00 	call	0	; 0x0 <_ZN10W5100Class11writeSnDIPREhPh>
  d4:	cf 91       	pop	r28
  d6:	08 95       	ret

000000d8 <_Z6sockethhjh>:
  d8:	ef 92       	push	r14
  da:	ff 92       	push	r15
  dc:	1f 93       	push	r17
  de:	cf 93       	push	r28
  e0:	df 93       	push	r29
  e2:	00 d0       	rcall	.+0      	; 0xe4 <_Z6sockethhjh+0xc>
  e4:	cd b7       	in	r28, 0x3d	; 61
  e6:	de b7       	in	r29, 0x3e	; 62
  e8:	18 2f       	mov	r17, r24
  ea:	7a 01       	movw	r14, r20
  ec:	86 2f       	mov	r24, r22
  ee:	81 50       	subi	r24, 0x01	; 1
  f0:	85 30       	cpi	r24, 0x05	; 5
  f2:	00 f4       	brcc	.+0      	; 0xf4 <_Z6sockethhjh+0x1c>
  f4:	81 2f       	mov	r24, r17
  f6:	2a 83       	std	Y+2, r18	; 0x02
  f8:	69 83       	std	Y+1, r22	; 0x01
  fa:	0e 94 00 00 	call	0	; 0x0 <_ZN10W5100Class11writeSnDIPREhPh>
  fe:	2a 81       	ldd	r18, Y+2	; 0x02
 100:	69 81       	ldd	r22, Y+1	; 0x01
 102:	42 2f       	mov	r20, r18
 104:	46 2b       	or	r20, r22
 106:	81 2f       	mov	r24, r17
 108:	60 e0       	ldi	r22, 0x00	; 0
 10a:	70 e0       	ldi	r23, 0x00	; 0
 10c:	0e 94 00 00 	call	0	; 0x0 <_ZN10W5100Class11writeSnDIPREhPh>
 110:	e1 14       	cp	r14, r1
 112:	f1 04       	cpc	r15, r1
 114:	01 f0       	breq	.+0      	; 0x116 <_Z6sockethhjh+0x3e>
 116:	81 2f       	mov	r24, r17
 118:	b7 01       	movw	r22, r14
 11a:	00 c0       	rjmp	.+0      	; 0x11c <_Z6sockethhjh+0x44>
 11c:	60 91 00 00 	lds	r22, 0x0000
 120:	70 91 00 00 	lds	r23, 0x0000
 124:	6f 5f       	subi	r22, 0xFF	; 255
 126:	7f 4f       	sbci	r23, 0xFF	; 255
 128:	70 93 00 00 	sts	0x0000, r23
 12c:	60 93 00 00 	sts	0x0000, r22
 130:	81 2f       	mov	r24, r17
 132:	0e 94 00 00 	call	0	; 0x0 <_ZN10W5100Class11writeSnDIPREhPh>
 136:	80 e0       	ldi	r24, 0x00	; 0
 138:	90 e0       	ldi	r25, 0x00	; 0
 13a:	61 2f       	mov	r22, r17
 13c:	41 e0       	ldi	r20, 0x01	; 1
 13e:	0e 94 00 00 	call	0	; 0x0 <_ZN10W5100Class11writeSnDIPREhPh>
 142:	81 e0       	ldi	r24, 0x01	; 1
 144:	00 c0       	rjmp	.+0      	; 0x146 <_Z6sockethhjh+0x6e>
 146:	80 e0       	ldi	r24, 0x00	; 0
 148:	0f 90       	pop	r0
 14a:	0f 90       	pop	r0
 14c:	df 91       	pop	r29
 14e:	cf 91       	pop	r28
 150:	1f 91       	pop	r17
 152:	ff 90       	pop	r15
 154:	ef 90       	pop	r14
 156:	08 95       	ret

00000158 <_Z6listenh>:
 158:	cf 93       	push	r28
 15a:	c8 2f       	mov	r28, r24
 15c:	63 e0       	ldi	r22, 0x03	; 3
 15e:	70 e0       	ldi	r23, 0x00	; 0
 160:	0e 94 00 00 	call	0	; 0x0 <_ZN10W5100Class11writeSnDIPREhPh>
 164:	83 31       	cpi	r24, 0x13	; 19
 166:	01 f4       	brne	.+0      	; 0x168 <_Z6listenh+0x10>
 168:	80 e0       	ldi	r24, 0x00	; 0
 16a:	90 e0       	ldi	r25, 0x00	; 0
 16c:	6c 2f       	mov	r22, r28
 16e:	42 e0       	ldi	r20, 0x02	; 2
 170:	0e 94 00 00 	call	0	; 0x0 <_ZN10W5100Class11writeSnDIPREhPh>
 174:	81 e0       	ldi	r24, 0x01	; 1
 176:	00 c0       	rjmp	.+0      	; 0x178 <_Z6listenh+0x20>
 178:	80 e0       	ldi	r24, 0x00	; 0
 17a:	cf 91       	pop	r28
 17c:	08 95       	ret

0000017e <_Z7connecthPhj>:
 17e:	1f 93       	push	r17
 180:	cf 93       	push	r28
 182:	df 93       	push	r29
 184:	18 2f       	mov	r17, r24
 186:	fb 01       	movw	r30, r22
 188:	ea 01       	movw	r28, r20
 18a:	80 81       	ld	r24, Z
 18c:	8f 3f       	cpi	r24, 0xFF	; 255
 18e:	01 f4       	brne	.+0      	; 0x190 <_Z7connecthPhj+0x12>
 190:	81 81       	ldd	r24, Z+1	; 0x01
 192:	8f 3f       	cpi	r24, 0xFF	; 255
 194:	01 f4       	brne	.+0      	; 0x196 <_Z7connecthPhj+0x18>
 196:	82 81       	ldd	r24, Z+2	; 0x02
 198:	8f 3f       	cpi	r24, 0xFF	; 255
 19a:	01 f4       	brne	.+0      	; 0x19c <_Z7connecthPhj+0x1e>
 19c:	83 81       	ldd	r24, Z+3	; 0x03
 19e:	8f 3f       	cpi	r24, 0xFF	; 255
 1a0:	01 f4       	brne	.+0      	; 0x1a2 <_Z7connecthPhj+0x24>
 1a2:	00 c0       	rjmp	.+0      	; 0x1a4 <_Z7connecthPhj+0x26>
 1a4:	88 23       	and	r24, r24
 1a6:	01 f4       	brne	.+0      	; 0x1a8 <_Z7connecthPhj+0x2a>
 1a8:	81 81       	ldd	r24, Z+1	; 0x01
 1aa:	88 23       	and	r24, r24
 1ac:	01 f4       	brne	.+0      	; 0x1ae <_Z7connecthPhj+0x30>
 1ae:	82 81       	ldd	r24, Z+2	; 0x02
 1b0:	88 23       	and	r24, r24
 1b2:	01 f4       	brne	.+0      	; 0x1b4 <_Z7connecthPhj+0x36>
 1b4:	83 81       	ldd	r24, Z+3	; 0x03
 1b6:	88 23       	and	r24, r24
 1b8:	01 f0       	breq	.+0      	; 0x1ba <_Z7connecthPhj+0x3c>
 1ba:	20 97       	sbiw	r28, 0x00	; 0
 1bc:	01 f0       	breq	.+0      	; 0x1be <_Z7connecthPhj+0x40>
 1be:	81 2f       	mov	r24, r17
 1c0:	bf 01       	movw	r22, r30
 1c2:	0e 94 00 00 	call	0	; 0x0 <_ZN10W5100Class11writeSnDIPREhPh>
 1c6:	81 2f       	mov	r24, r17
 1c8:	be 01       	movw	r22, r28
 1ca:	0e 94 00 00 	call	0	; 0x0 <_ZN10W5100Class11writeSnDIPREhPh>
 1ce:	80 e0       	ldi	r24, 0x00	; 0
 1d0:	90 e0       	ldi	r25, 0x00	; 0
 1d2:	61 2f       	mov	r22, r17
 1d4:	44 e0       	ldi	r20, 0x04	; 4
 1d6:	0e 94 00 00 	call	0	; 0x0 <_ZN10W5100Class11writeSnDIPREhPh>
 1da:	81 e0       	ldi	r24, 0x01	; 1
 1dc:	00 c0       	rjmp	.+0      	; 0x1de <_Z7connecthPhj+0x60>
 1de:	80 e0       	ldi	r24, 0x00	; 0
 1e0:	df 91       	pop	r29
 1e2:	cf 91       	pop	r28
 1e4:	1f 91       	pop	r17
 1e6:	08 95       	ret

000001e8 <_Z10disconnecth>:
 1e8:	68 2f       	mov	r22, r24
 1ea:	80 e0       	ldi	r24, 0x00	; 0
 1ec:	90 e0       	ldi	r25, 0x00	; 0
 1ee:	48 e0       	ldi	r20, 0x08	; 8
 1f0:	0e 94 00 00 	call	0	; 0x0 <_ZN10W5100Class11writeSnDIPREhPh>
 1f4:	08 95       	ret

000001f6 <_Z4sendhPKhj>:
 1f6:	cf 92       	push	r12
 1f8:	df 92       	push	r13
 1fa:	ef 92       	push	r14
 1fc:	ff 92       	push	r15
 1fe:	1f 93       	push	r17
 200:	cf 93       	push	r28
 202:	df 93       	push	r29
 204:	18 2f       	mov	r17, r24
 206:	6b 01       	movw	r12, r22
 208:	7a 01       	movw	r14, r20
 20a:	88 e0       	ldi	r24, 0x08	; 8
 20c:	41 30       	cpi	r20, 0x01	; 1
 20e:	58 07       	cpc	r21, r24
 210:	00 f0       	brcs	.+0      	; 0x212 <_Z4sendhPKhj+0x1c>
 212:	e1 2c       	mov	r14, r1
 214:	68 e0       	ldi	r22, 0x08	; 8
 216:	f6 2e       	mov	r15, r22
 218:	80 e0       	ldi	r24, 0x00	; 0
 21a:	90 e0       	ldi	r25, 0x00	; 0
 21c:	61 2f       	mov	r22, r17
 21e:	0e 94 00 00 	call	0	; 0x0 <_ZN10W5100Class11writeSnDIPREhPh>
 222:	ec 01       	movw	r28, r24
 224:	81 2f       	mov	r24, r17
 226:	63 e0       	ldi	r22, 0x03	; 3
 228:	70 e0       	ldi	r23, 0x00	; 0
 22a:	0e 94 00 00 	call	0	; 0x0 <_ZN10W5100Class11writeSnDIPREhPh>
 22e:	87 31       	cpi	r24, 0x17	; 23
 230:	01 f0       	breq	.+0      	; 0x232 <_Z4sendhPKhj+0x3c>
 232:	8c 31       	cpi	r24, 0x1C	; 28
 234:	01 f4       	brne	.+0      	; 0x236 <_Z4sendhPKhj+0x40>
 236:	ce 15       	cp	r28, r14
 238:	df 05       	cpc	r29, r15
 23a:	00 f0       	brcs	.+0      	; 0x23c <_Z4sendhPKhj+0x46>
 23c:	00 c0       	rjmp	.+0      	; 0x23e <_Z4sendhPKhj+0x48>
 23e:	ee 24       	eor	r14, r14
 240:	ff 24       	eor	r15, r15
 242:	80 e0       	ldi	r24, 0x00	; 0
 244:	90 e0       	ldi	r25, 0x00	; 0
 246:	61 2f       	mov	r22, r17
 248:	a6 01       	movw	r20, r12
 24a:	97 01       	movw	r18, r14
 24c:	0e 94 00 00 	call	0	; 0x0 <_ZN10W5100Class11writeSnDIPREhPh>
 250:	80 e0       	ldi	r24, 0x00	; 0
 252:	90 e0       	ldi	r25, 0x00	; 0
 254:	61 2f       	mov	r22, r17
 256:	40 e2       	ldi	r20, 0x20	; 32
 258:	0e 94 00 00 	call	0	; 0x0 <_ZN10W5100Class11writeSnDIPREhPh>
 25c:	00 c0       	rjmp	.+0      	; 0x25e <_Z4sendhPKhj+0x68>
 25e:	81 2f       	mov	r24, r17
 260:	63 e0       	ldi	r22, 0x03	; 3
 262:	70 e0       	ldi	r23, 0x00	; 0
 264:	0e 94 00 00 	call	0	; 0x0 <_ZN10W5100Class11writeSnDIPREhPh>
 268:	88 23       	and	r24, r24
 26a:	01 f4       	brne	.+0      	; 0x26c <_Z4sendhPKhj+0x76>
 26c:	81 2f       	mov	r24, r17
 26e:	0e 94 00 00 	call	0	; 0x0 <_ZN10W5100Class11writeSnDIPREhPh>
 272:	ee 24       	eor	r14, r14
 274:	ff 24       	eor	r15, r15
 276:	00 c0       	rjmp	.+0      	; 0x278 <_Z4sendhPKhj+0x82>
 278:	81 2f       	mov	r24, r17
 27a:	0e 94 00 00 	call	0	; 0x0 <_ZN10W5100Class11writeSnDIPREhPh>
 27e:	84 ff       	sbrs	r24, 4
 280:	00 c0       	rjmp	.+0      	; 0x282 <_Z4sendhPKhj+0x8c>
 282:	81 2f       	mov	r24, r17
 284:	60 e1       	ldi	r22, 0x10	; 16
 286:	0e 94 00 00 	call	0	; 0x0 <_ZN10W5100Class11writeSnDIPREhPh>
 28a:	c7 01       	movw	r24, r14
 28c:	df 91       	pop	r29
 28e:	cf 91       	pop	r28
 290:	1f 91       	pop	r17
 292:	ff 90       	pop	r15
 294:	ef 90       	pop	r14
 296:	df 90       	pop	r13
 298:	cf 90       	pop	r12
 29a:	08 95       	ret

0000029c <_Z4recvhPhi>:
 29c:	cf 92       	push	r12
 29e:	df 92       	push	r13
 2a0:	ef 92       	push	r14
 2a2:	ff 92       	push	r15
 2a4:	0f 93       	push	r16
 2a6:	1f 93       	push	r17
 2a8:	cf 93       	push	r28
 2aa:	df 93       	push	r29
 2ac:	18 2f       	mov	r17, r24
 2ae:	6b 01       	movw	r12, r22
 2b0:	ea 01       	movw	r28, r20
 2b2:	80 e0       	ldi	r24, 0x00	; 0
 2b4:	90 e0       	ldi	r25, 0x00	; 0
 2b6:	61 2f       	mov	r22, r17
 2b8:	0e 94 00 00 	call	0	; 0x0 <_ZN10W5100Class11writeSnDIPREhPh>
 2bc:	7c 01       	movw	r14, r24
 2be:	00 97       	sbiw	r24, 0x00	; 0
 2c0:	01 f4       	brne	.+0      	; 0x2c2 <_Z4recvhPhi+0x26>
 2c2:	81 2f       	mov	r24, r17
 2c4:	63 e0       	ldi	r22, 0x03	; 3
 2c6:	70 e0       	ldi	r23, 0x00	; 0
 2c8:	0e 94 00 00 	call	0	; 0x0 <_ZN10W5100Class11writeSnDIPREhPh>
 2cc:	84 31       	cpi	r24, 0x14	; 20
 2ce:	01 f0       	breq	.+0      	; 0x2d0 <_Z4recvhPhi+0x34>
 2d0:	88 23       	and	r24, r24
 2d2:	01 f0       	breq	.+0      	; 0x2d4 <_Z4recvhPhi+0x38>
 2d4:	8c 31       	cpi	r24, 0x1C	; 28
 2d6:	01 f0       	breq	.+0      	; 0x2d8 <_Z4recvhPhi+0x3c>
 2d8:	00 c0       	rjmp	.+0      	; 0x2da <_Z4recvhPhi+0x3e>
 2da:	c8 17       	cp	r28, r24
 2dc:	d9 07       	cpc	r29, r25
 2de:	04 f4       	brge	.+0      	; 0x2e0 <_Z4recvhPhi+0x44>
 2e0:	7e 01       	movw	r14, r28
 2e2:	1e 14       	cp	r1, r14
 2e4:	1f 04       	cpc	r1, r15
 2e6:	04 f4       	brge	.+0      	; 0x2e8 <_Z4recvhPhi+0x4c>
 2e8:	80 e0       	ldi	r24, 0x00	; 0
 2ea:	90 e0       	ldi	r25, 0x00	; 0
 2ec:	61 2f       	mov	r22, r17
 2ee:	a6 01       	movw	r20, r12
 2f0:	97 01       	movw	r18, r14
 2f2:	00 e0       	ldi	r16, 0x00	; 0
 2f4:	0e 94 00 00 	call	0	; 0x0 <_ZN10W5100Class11writeSnDIPREhPh>
 2f8:	80 e0       	ldi	r24, 0x00	; 0
 2fa:	90 e0       	ldi	r25, 0x00	; 0
 2fc:	61 2f       	mov	r22, r17
 2fe:	40 e4       	ldi	r20, 0x40	; 64
 300:	0e 94 00 00 	call	0	; 0x0 <_ZN10W5100Class11writeSnDIPREhPh>
 304:	c7 01       	movw	r24, r14
 306:	df 91       	pop	r29
 308:	cf 91       	pop	r28
 30a:	1f 91       	pop	r17
 30c:	0f 91       	pop	r16
 30e:	ff 90       	pop	r15
 310:	ef 90       	pop	r14
 312:	df 90       	pop	r13
 314:	cf 90       	pop	r12
 316:	08 95       	ret
 318:	ee 24       	eor	r14, r14
 31a:	ea 94       	dec	r14
 31c:	fe 2c       	mov	r15, r14
 31e:	00 c0       	rjmp	.+0      	; 0x320 <_Z4peekhPh>

00000320 <_Z4peekhPh>:
 320:	0f 93       	push	r16
 322:	28 2f       	mov	r18, r24
 324:	ab 01       	movw	r20, r22
 326:	80 e0       	ldi	r24, 0x00	; 0
 328:	90 e0       	ldi	r25, 0x00	; 0
 32a:	62 2f       	mov	r22, r18
 32c:	21 e0       	ldi	r18, 0x01	; 1
 32e:	30 e0       	ldi	r19, 0x00	; 0
 330:	01 e0       	ldi	r16, 0x01	; 1
 332:	0e 94 00 00 	call	0	; 0x0 <_ZN10W5100Class11writeSnDIPREhPh>
 336:	81 e0       	ldi	r24, 0x01	; 1
 338:	90 e0       	ldi	r25, 0x00	; 0
 33a:	0f 91       	pop	r16
 33c:	08 95       	ret

0000033e <_Z6sendtohPKhjPhj>:
 33e:	cf 92       	push	r12
 340:	df 92       	push	r13
 342:	ff 92       	push	r15
 344:	0f 93       	push	r16
 346:	1f 93       	push	r17
 348:	cf 93       	push	r28
 34a:	df 93       	push	r29
 34c:	f8 2e       	mov	r15, r24
 34e:	6b 01       	movw	r12, r22
 350:	f9 01       	movw	r30, r18
 352:	80 81       	ld	r24, Z
 354:	88 23       	and	r24, r24
 356:	01 f4       	brne	.+0      	; 0x358 <_Z6sendtohPKhjPhj+0x1a>
 358:	81 81       	ldd	r24, Z+1	; 0x01
 35a:	88 23       	and	r24, r24
 35c:	01 f4       	brne	.+0      	; 0x35e <_Z6sendtohPKhjPhj+0x20>
 35e:	82 81       	ldd	r24, Z+2	; 0x02
 360:	88 23       	and	r24, r24
 362:	01 f4       	brne	.+0      	; 0x364 <_Z6sendtohPKhjPhj+0x26>
 364:	83 81       	ldd	r24, Z+3	; 0x03
 366:	88 23       	and	r24, r24
 368:	01 f0       	breq	.+0      	; 0x36a <_Z6sendtohPKhjPhj+0x2c>
 36a:	01 15       	cp	r16, r1
 36c:	11 05       	cpc	r17, r1
 36e:	01 f0       	breq	.+0      	; 0x370 <_Z6sendtohPKhjPhj+0x32>
 370:	ea 01       	movw	r28, r20
 372:	88 e0       	ldi	r24, 0x08	; 8
 374:	41 30       	cpi	r20, 0x01	; 1
 376:	58 07       	cpc	r21, r24
 378:	00 f0       	brcs	.+0      	; 0x37a <_Z6sendtohPKhjPhj+0x3c>
 37a:	c0 e0       	ldi	r28, 0x00	; 0
 37c:	d8 e0       	ldi	r29, 0x08	; 8
 37e:	20 97       	sbiw	r28, 0x00	; 0
 380:	01 f0       	breq	.+0      	; 0x382 <_Z6sendtohPKhjPhj+0x44>
 382:	8f 2d       	mov	r24, r15
 384:	bf 01       	movw	r22, r30
 386:	0e 94 00 00 	call	0	; 0x0 <_ZN10W5100Class11writeSnDIPREhPh>
 38a:	8f 2d       	mov	r24, r15
 38c:	b8 01       	movw	r22, r16
 38e:	0e 94 00 00 	call	0	; 0x0 <_ZN10W5100Class11writeSnDIPREhPh>
 392:	80 e0       	ldi	r24, 0x00	; 0
 394:	90 e0       	ldi	r25, 0x00	; 0
 396:	6f 2d       	mov	r22, r15
 398:	a6 01       	movw	r20, r12
 39a:	9e 01       	movw	r18, r28
 39c:	0e 94 00 00 	call	0	; 0x0 <_ZN10W5100Class11writeSnDIPREhPh>
 3a0:	80 e0       	ldi	r24, 0x00	; 0
 3a2:	90 e0       	ldi	r25, 0x00	; 0
 3a4:	6f 2d       	mov	r22, r15
 3a6:	40 e2       	ldi	r20, 0x20	; 32
 3a8:	0e 94 00 00 	call	0	; 0x0 <_ZN10W5100Class11writeSnDIPREhPh>
 3ac:	00 c0       	rjmp	.+0      	; 0x3ae <_Z6sendtohPKhjPhj+0x70>
 3ae:	8f 2d       	mov	r24, r15
 3b0:	0e 94 00 00 	call	0	; 0x0 <_ZN10W5100Class11writeSnDIPREhPh>
 3b4:	83 ff       	sbrs	r24, 3
 3b6:	00 c0       	rjmp	.+0      	; 0x3b8 <_Z6sendtohPKhjPhj+0x7a>
 3b8:	8f 2d       	mov	r24, r15
 3ba:	68 e1       	ldi	r22, 0x18	; 24
 3bc:	0e 94 00 00 	call	0	; 0x0 <_ZN10W5100Class11writeSnDIPREhPh>
 3c0:	00 c0       	rjmp	.+0      	; 0x3c2 <_Z6sendtohPKhjPhj+0x84>
 3c2:	8f 2d       	mov	r24, r15
 3c4:	0e 94 00 00 	call	0	; 0x0 <_ZN10W5100Class11writeSnDIPREhPh>
 3c8:	84 ff       	sbrs	r24, 4
 3ca:	00 c0       	rjmp	.+0      	; 0x3cc <_Z6sendtohPKhjPhj+0x8e>
 3cc:	8f 2d       	mov	r24, r15
 3ce:	60 e1       	ldi	r22, 0x10	; 16
 3d0:	0e 94 00 00 	call	0	; 0x0 <_ZN10W5100Class11writeSnDIPREhPh>
 3d4:	00 c0       	rjmp	.+0      	; 0x3d6 <_Z6sendtohPKhjPhj+0x98>
 3d6:	c0 e0       	ldi	r28, 0x00	; 0
 3d8:	d0 e0       	ldi	r29, 0x00	; 0
 3da:	ce 01       	movw	r24, r28
 3dc:	df 91       	pop	r29
 3de:	cf 91       	pop	r28
 3e0:	1f 91       	pop	r17
 3e2:	0f 91       	pop	r16
 3e4:	ff 90       	pop	r15
 3e6:	df 90       	pop	r13
 3e8:	cf 90       	pop	r12
 3ea:	08 95       	ret

000003ec <_Z8recvfromhPhjS_Pj>:
 3ec:	4f 92       	push	r4
 3ee:	5f 92       	push	r5
 3f0:	6f 92       	push	r6
 3f2:	7f 92       	push	r7
 3f4:	8f 92       	push	r8
 3f6:	9f 92       	push	r9
 3f8:	af 92       	push	r10
 3fa:	bf 92       	push	r11
 3fc:	df 92       	push	r13
 3fe:	ef 92       	push	r14
 400:	ff 92       	push	r15
 402:	0f 93       	push	r16
 404:	1f 93       	push	r17
 406:	cf 93       	push	r28
 408:	df 93       	push	r29
 40a:	cd b7       	in	r28, 0x3d	; 61
 40c:	de b7       	in	r29, 0x3e	; 62
 40e:	28 97       	sbiw	r28, 0x08	; 8
 410:	0f b6       	in	r0, 0x3f	; 63
 412:	f8 94       	cli
 414:	de bf       	out	0x3e, r29	; 62
 416:	0f be       	out	0x3f, r0	; 63
 418:	cd bf       	out	0x3d, r28	; 61
 41a:	d8 2e       	mov	r13, r24
 41c:	3b 01       	movw	r6, r22
 41e:	59 01       	movw	r10, r18
 420:	28 01       	movw	r4, r16
 422:	41 15       	cp	r20, r1
 424:	51 05       	cpc	r21, r1
 426:	01 f4       	brne	.+0      	; 0x428 <_Z8recvfromhPhjS_Pj+0x3c>
 428:	00 c0       	rjmp	.+0      	; 0x42a <_Z8recvfromhPhjS_Pj+0x3e>
 42a:	68 e2       	ldi	r22, 0x28	; 40
 42c:	70 e0       	ldi	r23, 0x00	; 0
 42e:	0e 94 00 00 	call	0	; 0x0 <_ZN10W5100Class11writeSnDIPREhPh>
 432:	e8 2e       	mov	r14, r24
 434:	8d 2d       	mov	r24, r13
 436:	69 e2       	ldi	r22, 0x29	; 41
 438:	70 e0       	ldi	r23, 0x00	; 0
 43a:	0e 94 00 00 	call	0	; 0x0 <_ZN10W5100Class11writeSnDIPREhPh>
 43e:	3e 2d       	mov	r19, r14
 440:	20 e0       	ldi	r18, 0x00	; 0
 442:	e8 2e       	mov	r14, r24
 444:	ff 24       	eor	r15, r15
 446:	e2 2a       	or	r14, r18
 448:	f3 2a       	or	r15, r19
 44a:	8d 2d       	mov	r24, r13
 44c:	60 e0       	ldi	r22, 0x00	; 0
 44e:	70 e0       	ldi	r23, 0x00	; 0
 450:	0e 94 00 00 	call	0	; 0x0 <_ZN10W5100Class11writeSnDIPREhPh>
 454:	90 e0       	ldi	r25, 0x00	; 0
 456:	87 70       	andi	r24, 0x07	; 7
 458:	90 70       	andi	r25, 0x00	; 0
 45a:	83 30       	cpi	r24, 0x03	; 3
 45c:	91 05       	cpc	r25, r1
 45e:	01 f0       	breq	.+0      	; 0x460 <_Z8recvfromhPhjS_Pj+0x74>
 460:	84 30       	cpi	r24, 0x04	; 4
 462:	91 05       	cpc	r25, r1
 464:	01 f4       	brne	.+0      	; 0x466 <_Z8recvfromhPhjS_Pj+0x7a>
 466:	00 c0       	rjmp	.+0      	; 0x468 <_Z8recvfromhPhjS_Pj+0x7c>
 468:	82 30       	cpi	r24, 0x02	; 2
 46a:	91 05       	cpc	r25, r1
 46c:	01 f0       	breq	.+0      	; 0x46e <_Z8recvfromhPhjS_Pj+0x82>
 46e:	00 c0       	rjmp	.+0      	; 0x470 <_Z8recvfromhPhjS_Pj+0x84>
 470:	80 e0       	ldi	r24, 0x00	; 0
 472:	90 e0       	ldi	r25, 0x00	; 0
 474:	6d 2d       	mov	r22, r13
 476:	a7 01       	movw	r20, r14
 478:	9e 01       	movw	r18, r28
 47a:	2f 5f       	subi	r18, 0xFF	; 255
 47c:	3f 4f       	sbci	r19, 0xFF	; 255
 47e:	08 e0       	ldi	r16, 0x08	; 8
 480:	10 e0       	ldi	r17, 0x00	; 0
 482:	0e 94 00 00 	call	0	; 0x0 <_ZN10W5100Class11writeSnDIPREhPh>
 486:	f8 e0       	ldi	r31, 0x08	; 8
 488:	8f 2e       	mov	r8, r31
 48a:	91 2c       	mov	r9, r1
 48c:	8e 0c       	add	r8, r14
 48e:	9f 1c       	adc	r9, r15
 490:	89 81       	ldd	r24, Y+1	; 0x01
 492:	f5 01       	movw	r30, r10
 494:	80 83       	st	Z, r24
 496:	8a 81       	ldd	r24, Y+2	; 0x02
 498:	81 83       	std	Z+1, r24	; 0x01
 49a:	8b 81       	ldd	r24, Y+3	; 0x03
 49c:	82 83       	std	Z+2, r24	; 0x02
 49e:	8c 81       	ldd	r24, Y+4	; 0x04
 4a0:	83 83       	std	Z+3, r24	; 0x03
 4a2:	9d 81       	ldd	r25, Y+5	; 0x05
 4a4:	80 e0       	ldi	r24, 0x00	; 0
 4a6:	2e 81       	ldd	r18, Y+6	; 0x06
 4a8:	82 0f       	add	r24, r18
 4aa:	91 1d       	adc	r25, r1
 4ac:	f2 01       	movw	r30, r4
 4ae:	91 83       	std	Z+1, r25	; 0x01
 4b0:	80 83       	st	Z, r24
 4b2:	ff 80       	ldd	r15, Y+7	; 0x07
 4b4:	ee 24       	eor	r14, r14
 4b6:	88 85       	ldd	r24, Y+8	; 0x08
 4b8:	00 c0       	rjmp	.+0      	; 0x4ba <_Z8recvfromhPhjS_Pj+0xce>
 4ba:	80 e0       	ldi	r24, 0x00	; 0
 4bc:	90 e0       	ldi	r25, 0x00	; 0
 4be:	6d 2d       	mov	r22, r13
 4c0:	a7 01       	movw	r20, r14
 4c2:	9e 01       	movw	r18, r28
 4c4:	2f 5f       	subi	r18, 0xFF	; 255
 4c6:	3f 4f       	sbci	r19, 0xFF	; 255
 4c8:	06 e0       	ldi	r16, 0x06	; 6
 4ca:	10 e0       	ldi	r17, 0x00	; 0
 4cc:	0e 94 00 00 	call	0	; 0x0 <_ZN10W5100Class11writeSnDIPREhPh>
 4d0:	e6 e0       	ldi	r30, 0x06	; 6
 4d2:	8e 2e       	mov	r8, r30
 4d4:	91 2c       	mov	r9, r1
 4d6:	8e 0c       	add	r8, r14
 4d8:	9f 1c       	adc	r9, r15
 4da:	89 81       	ldd	r24, Y+1	; 0x01
 4dc:	f5 01       	movw	r30, r10
 4de:	80 83       	st	Z, r24
 4e0:	8a 81       	ldd	r24, Y+2	; 0x02
 4e2:	81 83       	std	Z+1, r24	; 0x01
 4e4:	8b 81       	ldd	r24, Y+3	; 0x03
 4e6:	82 83       	std	Z+2, r24	; 0x02
 4e8:	8c 81       	ldd	r24, Y+4	; 0x04
 4ea:	83 83       	std	Z+3, r24	; 0x03
 4ec:	fd 80       	ldd	r15, Y+5	; 0x05
 4ee:	ee 24       	eor	r14, r14
 4f0:	8e 81       	ldd	r24, Y+6	; 0x06
 4f2:	e8 0e       	add	r14, r24
 4f4:	f1 1c       	adc	r15, r1
 4f6:	80 e0       	ldi	r24, 0x00	; 0
 4f8:	90 e0       	ldi	r25, 0x00	; 0
 4fa:	6d 2d       	mov	r22, r13
 4fc:	a4 01       	movw	r20, r8
 4fe:	93 01       	movw	r18, r6
 500:	87 01       	movw	r16, r14
 502:	0e 94 00 00 	call	0	; 0x0 <_ZN10W5100Class11writeSnDIPREhPh>
 506:	b4 01       	movw	r22, r8
 508:	00 c0       	rjmp	.+0      	; 0x50a <_Z8recvfromhPhjS_Pj+0x11e>
 50a:	80 e0       	ldi	r24, 0x00	; 0
 50c:	90 e0       	ldi	r25, 0x00	; 0
 50e:	6d 2d       	mov	r22, r13
 510:	a7 01       	movw	r20, r14
 512:	9e 01       	movw	r18, r28
 514:	2f 5f       	subi	r18, 0xFF	; 255
 516:	3f 4f       	sbci	r19, 0xFF	; 255
 518:	02 e0       	ldi	r16, 0x02	; 2
 51a:	10 e0       	ldi	r17, 0x00	; 0
 51c:	0e 94 00 00 	call	0	; 0x0 <_ZN10W5100Class11writeSnDIPREhPh>
 520:	72 e0       	ldi	r23, 0x02	; 2
 522:	a7 2e       	mov	r10, r23
 524:	b1 2c       	mov	r11, r1
 526:	ae 0c       	add	r10, r14
 528:	bf 1c       	adc	r11, r15
 52a:	99 81       	ldd	r25, Y+1	; 0x01
 52c:	80 e0       	ldi	r24, 0x00	; 0
 52e:	ea 80       	ldd	r14, Y+2	; 0x02
 530:	ff 24       	eor	r15, r15
 532:	2e ef       	ldi	r18, 0xFE	; 254
 534:	3f ef       	ldi	r19, 0xFF	; 255
 536:	e2 0e       	add	r14, r18
 538:	f3 1e       	adc	r15, r19
 53a:	e8 0e       	add	r14, r24
 53c:	f9 1e       	adc	r15, r25
 53e:	80 e0       	ldi	r24, 0x00	; 0
 540:	90 e0       	ldi	r25, 0x00	; 0
 542:	6d 2d       	mov	r22, r13
 544:	a5 01       	movw	r20, r10
 546:	93 01       	movw	r18, r6
 548:	87 01       	movw	r16, r14
 54a:	0e 94 00 00 	call	0	; 0x0 <_ZN10W5100Class11writeSnDIPREhPh>
 54e:	b5 01       	movw	r22, r10
 550:	6e 0d       	add	r22, r14
 552:	7f 1d       	adc	r23, r15
 554:	8d 2d       	mov	r24, r13
 556:	0e 94 00 00 	call	0	; 0x0 <_ZN10W5100Class11writeSnDIPREhPh>
 55a:	00 c0       	rjmp	.+0      	; 0x55c <_Z8recvfromhPhjS_Pj+0x170>
 55c:	ee 24       	eor	r14, r14
 55e:	ff 24       	eor	r15, r15
 560:	80 e0       	ldi	r24, 0x00	; 0
 562:	90 e0       	ldi	r25, 0x00	; 0
 564:	6d 2d       	mov	r22, r13
 566:	40 e4       	ldi	r20, 0x40	; 64
 568:	0e 94 00 00 	call	0	; 0x0 <_ZN10W5100Class11writeSnDIPREhPh>
 56c:	00 c0       	rjmp	.+0      	; 0x56e <_Z8recvfromhPhjS_Pj+0x182>
 56e:	ee 24       	eor	r14, r14
 570:	ff 24       	eor	r15, r15
 572:	c7 01       	movw	r24, r14
 574:	28 96       	adiw	r28, 0x08	; 8
 576:	0f b6       	in	r0, 0x3f	; 63
 578:	f8 94       	cli
 57a:	de bf       	out	0x3e, r29	; 62
 57c:	0f be       	out	0x3f, r0	; 63
 57e:	cd bf       	out	0x3d, r28	; 61
 580:	df 91       	pop	r29
 582:	cf 91       	pop	r28
 584:	1f 91       	pop	r17
 586:	0f 91       	pop	r16
 588:	ff 90       	pop	r15
 58a:	ef 90       	pop	r14
 58c:	df 90       	pop	r13
 58e:	bf 90       	pop	r11
 590:	af 90       	pop	r10
 592:	9f 90       	pop	r9
 594:	8f 90       	pop	r8
 596:	7f 90       	pop	r7
 598:	6f 90       	pop	r6
 59a:	5f 90       	pop	r5
 59c:	4f 90       	pop	r4
 59e:	08 95       	ret

000005a0 <_Z8igmpsendhPKhj>:
 5a0:	0f 93       	push	r16
 5a2:	1f 93       	push	r17
 5a4:	cf 93       	push	r28
 5a6:	c8 2f       	mov	r28, r24
 5a8:	9b 01       	movw	r18, r22
 5aa:	88 e0       	ldi	r24, 0x08	; 8
 5ac:	41 30       	cpi	r20, 0x01	; 1
 5ae:	58 07       	cpc	r21, r24
 5b0:	00 f4       	brcc	.+0      	; 0x5b2 <_Z8igmpsendhPKhj+0x12>
 5b2:	41 15       	cp	r20, r1
 5b4:	51 05       	cpc	r21, r1
 5b6:	01 f0       	breq	.+0      	; 0x5b8 <_Z8igmpsendhPKhj+0x18>
 5b8:	8a 01       	movw	r16, r20
 5ba:	00 c0       	rjmp	.+0      	; 0x5bc <_Z8igmpsendhPKhj+0x1c>
 5bc:	00 e0       	ldi	r16, 0x00	; 0
 5be:	18 e0       	ldi	r17, 0x08	; 8
 5c0:	80 e0       	ldi	r24, 0x00	; 0
 5c2:	90 e0       	ldi	r25, 0x00	; 0
 5c4:	6c 2f       	mov	r22, r28
 5c6:	a9 01       	movw	r20, r18
 5c8:	98 01       	movw	r18, r16
 5ca:	0e 94 00 00 	call	0	; 0x0 <_ZN10W5100Class11writeSnDIPREhPh>
 5ce:	80 e0       	ldi	r24, 0x00	; 0
 5d0:	90 e0       	ldi	r25, 0x00	; 0
 5d2:	6c 2f       	mov	r22, r28
 5d4:	40 e2       	ldi	r20, 0x20	; 32
 5d6:	0e 94 00 00 	call	0	; 0x0 <_ZN10W5100Class11writeSnDIPREhPh>
 5da:	00 c0       	rjmp	.+0      	; 0x5dc <_Z8igmpsendhPKhj+0x3c>
 5dc:	8c 2f       	mov	r24, r28
 5de:	63 e0       	ldi	r22, 0x03	; 3
 5e0:	70 e0       	ldi	r23, 0x00	; 0
 5e2:	0e 94 00 00 	call	0	; 0x0 <_ZN10W5100Class11writeSnDIPREhPh>
 5e6:	8c 2f       	mov	r24, r28
 5e8:	0e 94 00 00 	call	0	; 0x0 <_ZN10W5100Class11writeSnDIPREhPh>
 5ec:	83 ff       	sbrs	r24, 3
 5ee:	00 c0       	rjmp	.+0      	; 0x5f0 <_Z8igmpsendhPKhj+0x50>
 5f0:	8c 2f       	mov	r24, r28
 5f2:	0e 94 00 00 	call	0	; 0x0 <_ZN10W5100Class11writeSnDIPREhPh>
 5f6:	00 c0       	rjmp	.+0      	; 0x5f8 <_Z8igmpsendhPKhj+0x58>
 5f8:	8c 2f       	mov	r24, r28
 5fa:	0e 94 00 00 	call	0	; 0x0 <_ZN10W5100Class11writeSnDIPREhPh>
 5fe:	84 ff       	sbrs	r24, 4
 600:	00 c0       	rjmp	.+0      	; 0x602 <_Z8igmpsendhPKhj+0x62>
 602:	8c 2f       	mov	r24, r28
 604:	60 e1       	ldi	r22, 0x10	; 16
 606:	0e 94 00 00 	call	0	; 0x0 <_ZN10W5100Class11writeSnDIPREhPh>
 60a:	00 c0       	rjmp	.+0      	; 0x60c <_Z8igmpsendhPKhj+0x6c>
 60c:	00 e0       	ldi	r16, 0x00	; 0
 60e:	10 e0       	ldi	r17, 0x00	; 0
 610:	c8 01       	movw	r24, r16
 612:	cf 91       	pop	r28
 614:	1f 91       	pop	r17
 616:	0f 91       	pop	r16
 618:	08 95       	ret

0000061a <_Z10bufferDatahjPKhj>:
 61a:	af 92       	push	r10
 61c:	bf 92       	push	r11
 61e:	cf 92       	push	r12
 620:	df 92       	push	r13
 622:	ff 92       	push	r15
 624:	0f 93       	push	r16
 626:	1f 93       	push	r17
 628:	cf 93       	push	r28
 62a:	df 93       	push	r29
 62c:	f8 2e       	mov	r15, r24
 62e:	6b 01       	movw	r12, r22
 630:	5a 01       	movw	r10, r20
 632:	89 01       	movw	r16, r18
 634:	80 e0       	ldi	r24, 0x00	; 0
 636:	90 e0       	ldi	r25, 0x00	; 0
 638:	6f 2d       	mov	r22, r15
 63a:	0e 94 00 00 	call	0	; 0x0 <_ZN10W5100Class11writeSnDIPREhPh>
 63e:	80 17       	cp	r24, r16
 640:	91 07       	cpc	r25, r17
 642:	00 f4       	brcc	.+0      	; 0x644 <_Z10bufferDatahjPKhj+0x2a>
 644:	80 e0       	ldi	r24, 0x00	; 0
 646:	90 e0       	ldi	r25, 0x00	; 0
 648:	6f 2d       	mov	r22, r15
 64a:	0e 94 00 00 	call	0	; 0x0 <_ZN10W5100Class11writeSnDIPREhPh>
 64e:	d8 2f       	mov	r29, r24
 650:	c9 2f       	mov	r28, r25
 652:	00 c0       	rjmp	.+0      	; 0x654 <_Z10bufferDatahjPKhj+0x3a>
 654:	d0 2f       	mov	r29, r16
 656:	c1 2f       	mov	r28, r17
 658:	80 e0       	ldi	r24, 0x00	; 0
 65a:	90 e0       	ldi	r25, 0x00	; 0
 65c:	6f 2d       	mov	r22, r15
 65e:	a6 01       	movw	r20, r12
 660:	95 01       	movw	r18, r10
 662:	0d 2f       	mov	r16, r29
 664:	1c 2f       	mov	r17, r28
 666:	0e 94 00 00 	call	0	; 0x0 <_ZN10W5100Class11writeSnDIPREhPh>
 66a:	8d 2f       	mov	r24, r29
 66c:	9c 2f       	mov	r25, r28
 66e:	df 91       	pop	r29
 670:	cf 91       	pop	r28
 672:	1f 91       	pop	r17
 674:	0f 91       	pop	r16
 676:	ff 90       	pop	r15
 678:	df 90       	pop	r13
 67a:	cf 90       	pop	r12
 67c:	bf 90       	pop	r11
 67e:	af 90       	pop	r10
 680:	08 95       	ret

00000682 <_Z8startUDPhPhj>:
 682:	1f 93       	push	r17
 684:	cf 93       	push	r28
 686:	df 93       	push	r29
 688:	18 2f       	mov	r17, r24
 68a:	fb 01       	movw	r30, r22
 68c:	ea 01       	movw	r28, r20
 68e:	80 81       	ld	r24, Z
 690:	88 23       	and	r24, r24
 692:	01 f4       	brne	.+0      	; 0x694 <_Z8startUDPhPhj+0x12>
 694:	81 81       	ldd	r24, Z+1	; 0x01
 696:	88 23       	and	r24, r24
 698:	01 f4       	brne	.+0      	; 0x69a <_Z8startUDPhPhj+0x18>
 69a:	82 81       	ldd	r24, Z+2	; 0x02
 69c:	88 23       	and	r24, r24
 69e:	01 f4       	brne	.+0      	; 0x6a0 <_Z8startUDPhPhj+0x1e>
 6a0:	83 81       	ldd	r24, Z+3	; 0x03
 6a2:	88 23       	and	r24, r24
 6a4:	01 f0       	breq	.+0      	; 0x6a6 <_Z8startUDPhPhj+0x24>
 6a6:	20 97       	sbiw	r28, 0x00	; 0
 6a8:	01 f0       	breq	.+0      	; 0x6aa <_Z8startUDPhPhj+0x28>
 6aa:	81 2f       	mov	r24, r17
 6ac:	bf 01       	movw	r22, r30
 6ae:	0e 94 00 00 	call	0	; 0x0 <_ZN10W5100Class11writeSnDIPREhPh>
 6b2:	81 2f       	mov	r24, r17
 6b4:	be 01       	movw	r22, r28
 6b6:	0e 94 00 00 	call	0	; 0x0 <_ZN10W5100Class11writeSnDIPREhPh>
 6ba:	81 e0       	ldi	r24, 0x01	; 1
 6bc:	90 e0       	ldi	r25, 0x00	; 0
 6be:	00 c0       	rjmp	.+0      	; 0x6c0 <_Z8startUDPhPhj+0x3e>
 6c0:	80 e0       	ldi	r24, 0x00	; 0
 6c2:	90 e0       	ldi	r25, 0x00	; 0
 6c4:	df 91       	pop	r29
 6c6:	cf 91       	pop	r28
 6c8:	1f 91       	pop	r17
 6ca:	08 95       	ret

000006cc <_Z7sendUDPh>:
 6cc:	cf 93       	push	r28
 6ce:	c8 2f       	mov	r28, r24
 6d0:	80 e0       	ldi	r24, 0x00	; 0
 6d2:	90 e0       	ldi	r25, 0x00	; 0
 6d4:	6c 2f       	mov	r22, r28
 6d6:	40 e2       	ldi	r20, 0x20	; 32
 6d8:	0e 94 00 00 	call	0	; 0x0 <_ZN10W5100Class11writeSnDIPREhPh>
 6dc:	00 c0       	rjmp	.+0      	; 0x6de <_Z7sendUDPh+0x12>
 6de:	8c 2f       	mov	r24, r28
 6e0:	0e 94 00 00 	call	0	; 0x0 <_ZN10W5100Class11writeSnDIPREhPh>
 6e4:	83 ff       	sbrs	r24, 3
 6e6:	00 c0       	rjmp	.+0      	; 0x6e8 <_Z7sendUDPh+0x1c>
 6e8:	8c 2f       	mov	r24, r28
 6ea:	68 e1       	ldi	r22, 0x18	; 24
 6ec:	0e 94 00 00 	call	0	; 0x0 <_ZN10W5100Class11writeSnDIPREhPh>
 6f0:	80 e0       	ldi	r24, 0x00	; 0
 6f2:	90 e0       	ldi	r25, 0x00	; 0
 6f4:	00 c0       	rjmp	.+0      	; 0x6f6 <_Z7sendUDPh+0x2a>
 6f6:	8c 2f       	mov	r24, r28
 6f8:	0e 94 00 00 	call	0	; 0x0 <_ZN10W5100Class11writeSnDIPREhPh>
 6fc:	84 ff       	sbrs	r24, 4
 6fe:	00 c0       	rjmp	.+0      	; 0x700 <_Z7sendUDPh+0x34>
 700:	8c 2f       	mov	r24, r28
 702:	60 e1       	ldi	r22, 0x10	; 16
 704:	0e 94 00 00 	call	0	; 0x0 <_ZN10W5100Class11writeSnDIPREhPh>
 708:	81 e0       	ldi	r24, 0x01	; 1
 70a:	90 e0       	ldi	r25, 0x00	; 0
 70c:	cf 91       	pop	r28
 70e:	08 95       	ret

w5100.o:     file format elf32-avr

Sections:
Idx Name          Size      VMA       LMA       File off  Algn
  0 .text         000004d8  00000000  00000000  00000034  2**0
                  CONTENTS, ALLOC, LOAD, RELOC, READONLY, CODE
  1 .data         00000000  00000000  00000000  0000050c  2**0
                  CONTENTS, ALLOC, LOAD, DATA
  2 .bss          00000010  00000000  00000000  0000050c  2**0
                  ALLOC

Disassembly of section .text:

00000000 <_ZN8SPIClass8transferEh>:
   0:	8e bd       	out	0x2e, r24	; 46
   2:	0d b4       	in	r0, 0x2d	; 45
   4:	07 fe       	sbrs	r0, 7
   6:	00 c0       	rjmp	.+0      	; 0x8 <_ZN8SPIClass8transferEh+0x8>
   8:	8e b5       	in	r24, 0x2e	; 46
   a:	08 95       	ret

0000000c <_ZN10W5100Class5setSSEv>:
   c:	2a 98       	cbi	0x05, 2	; 5
   e:	08 95       	ret

00000010 <_ZN10W5100Class7resetSSEv>:
  10:	2a 9a       	sbi	0x05, 2	; 5
  12:	08 95       	ret

00000014 <_ZN10W5100Class5writeEjh>:
  14:	1f 93       	push	r17
  16:	cf 93       	push	r28
  18:	df 93       	push	r29
  1a:	00 d0       	rcall	.+0      	; 0x1c <_ZN10W5100Class5writeEjh+0x8>
  1c:	cd b7       	in	r28, 0x3d	; 61
  1e:	de b7       	in	r29, 0x3e	; 62
  20:	18 2f       	mov	r17, r24
  22:	6a 83       	std	Y+2, r22	; 0x02
  24:	99 83       	std	Y+1, r25	; 0x01
  26:	0e 94 00 00 	call	0	; 0x0 <_ZN8SPIClass8transferEh>
  2a:	80 ef       	ldi	r24, 0xF0	; 240
  2c:	0e 94 00 00 	call	0	; 0x0 <_ZN8SPIClass8transferEh>
  30:	99 81       	ldd	r25, Y+1	; 0x01
  32:	89 2f       	mov	r24, r25
  34:	0e 94 00 00 	call	0	; 0x0 <_ZN8SPIClass8transferEh>
  38:	81 2f       	mov	r24, r17
  3a:	0e 94 00 00 	call	0	; 0x0 <_ZN8SPIClass8transferEh>
  3e:	6a 81       	ldd	r22, Y+2	; 0x02
  40:	86 2f       	mov	r24, r22
  42:	0e 94 00 00 	call	0	; 0x0 <_ZN8SPIClass8transferEh>
  46:	0e 94 00 00 	call	0	; 0x0 <_ZN8SPIClass8transferEh>
  4a:	81 e0       	ldi	r24, 0x01	; 1
  4c:	0f 90       	pop	r0
  4e:	0f 90       	pop	r0
  50:	df 91       	pop	r29
  52:	cf 91       	pop	r28
  54:	1f 91       	pop	r17
  56:	08 95       	ret

00000058 <_ZN10W5100Class7writeSnEhjh>:
  58:	90 e0       	ldi	r25, 0x00	; 0
  5a:	04 96       	adiw	r24, 0x04	; 4
  5c:	98 2f       	mov	r25, r24
  5e:	88 27       	eor	r24, r24
  60:	86 0f       	add	r24, r22
  62:	97 1f       	adc	r25, r23
  64:	64 2f       	mov	r22, r20
  66:	0e 94 00 00 	call	0	; 0x0 <_ZN8SPIClass8transferEh>
  6a:	08 95       	ret

0000006c <_ZN10W5100Class4initEv>:
  6c:	cf 93       	push	r28
  6e:	df 93       	push	r29
  70:	ec 01       	movw	r28, r24
  72:	6c e2       	ldi	r22, 0x2C	; 44
  74:	71 e0       	ldi	r23, 0x01	; 1
  76:	80 e0       	ldi	r24, 0x00	; 0
  78:	90 e0       	ldi	r25, 0x00	; 0
  7a:	0e 94 00 00 	call	0	; 0x0 <_ZN8SPIClass8transferEh>
  7e:	0e 94 00 00 	call	0	; 0x0 <_ZN8SPIClass8transferEh>
  82:	22 9a       	sbi	0x04, 2	; 4
  84:	80 e0       	ldi	r24, 0x00	; 0
  86:	90 e0       	ldi	r25, 0x00	; 0
  88:	60 e8       	ldi	r22, 0x80	; 128
  8a:	0e 94 00 00 	call	0	; 0x0 <_ZN8SPIClass8transferEh>
  8e:	8b e1       	ldi	r24, 0x1B	; 27
  90:	90 e0       	ldi	r25, 0x00	; 0
  92:	65 e5       	ldi	r22, 0x55	; 85
  94:	0e 94 00 00 	call	0	; 0x0 <_ZN8SPIClass8transferEh>
  98:	8a e1       	ldi	r24, 0x1A	; 26
  9a:	90 e0       	ldi	r25, 0x00	; 0
  9c:	65 e5       	ldi	r22, 0x55	; 85
  9e:	0e 94 00 00 	call	0	; 0x0 <_ZN8SPIClass8transferEh>
  a2:	80 e0       	ldi	r24, 0x00	; 0
  a4:	90 e4       	ldi	r25, 0x40	; 64
  a6:	99 83       	std	Y+1, r25	; 0x01
  a8:	88 83       	st	Y, r24
  aa:	80 e0       	ldi	r24, 0x00	; 0
  ac:	90 e6       	ldi	r25, 0x60	; 96
  ae:	99 87       	std	Y+9, r25	; 0x09
  b0:	88 87       	std	Y+8, r24	; 0x08
  b2:	80 e0       	ldi	r24, 0x00	; 0
  b4:	98 e4       	ldi	r25, 0x48	; 72
  b6:	9b 83       	std	Y+3, r25	; 0x03
  b8:	8a 83       	std	Y+2, r24	; 0x02
  ba:	80 e0       	ldi	r24, 0x00	; 0
  bc:	98 e6       	ldi	r25, 0x68	; 104
  be:	9b 87       	std	Y+11, r25	; 0x0b
  c0:	8a 87       	std	Y+10, r24	; 0x0a
  c2:	80 e0       	ldi	r24, 0x00	; 0
  c4:	90 e5       	ldi	r25, 0x50	; 80
  c6:	9d 83       	std	Y+5, r25	; 0x05
  c8:	8c 83       	std	Y+4, r24	; 0x04
  ca:	80 e0       	ldi	r24, 0x00	; 0
  cc:	90 e7       	ldi	r25, 0x70	; 112
  ce:	9d 87       	std	Y+13, r25	; 0x0d
  d0:	8c 87       	std	Y+12, r24	; 0x0c
  d2:	80 e0       	ldi	r24, 0x00	; 0
  d4:	98 e5       	ldi	r25, 0x58	; 88
  d6:	9f 83       	std	Y+7, r25	; 0x07
  d8:	8e 83       	std	Y+6, r24	; 0x06
  da:	80 e0       	ldi	r24, 0x00	; 0
  dc:	98 e7       	ldi	r25, 0x78	; 120
  de:	9f 87       	std	Y+15, r25	; 0x0f
  e0:	8e 87       	std	Y+14, r24	; 0x0e
  e2:	df 91       	pop	r29
  e4:	cf 91       	pop	r28
  e6:	08 95       	ret

000000e8 <_ZN10W5100Class5writeEjPKhj>:
  e8:	cf 92       	push	r12
  ea:	df 92       	push	r13
  ec:	ef 92       	push	r14
  ee:	ff 92       	push	r15
  f0:	0f 93       	push	r16
  f2:	1f 93       	push	r17
  f4:	cf 93       	push	r28
  f6:	df 93       	push	r29
  f8:	8c 01       	movw	r16, r24
  fa:	6a 01       	movw	r12, r20
  fc:	7b 01       	movw	r14, r22
  fe:	c0 e0       	ldi	r28, 0x00	; 0
 100:	d0 e0       	ldi	r29, 0x00	; 0
 102:	00 c0       	rjmp	.+0      	; 0x104 <_ZN10W5100Class5writeEjPKhj+0x1c>
 104:	0e 94 00 00 	call	0	; 0x0 <_ZN8SPIClass8transferEh>
 108:	80 ef       	ldi	r24, 0xF0	; 240
 10a:	0e 94 00 00 	call	0	; 0x0 <_ZN8SPIClass8transferEh>
 10e:	81 2f       	mov	r24, r17
 110:	0e 94 00 00 	call	0	; 0x0 <_ZN8SPIClass8transferEh>
 114:	80 2f       	mov	r24, r16
 116:	0e 94 00 00 	call	0	; 0x0 <_ZN8SPIClass8transferEh>
 11a:	0f 5f       	subi	r16, 0xFF	; 255
 11c:	1f 4f       	sbci	r17, 0xFF	; 255
 11e:	f7 01       	movw	r30, r14
 120:	81 91       	ld	r24, Z+
 122:	7f 01       	movw	r14, r30
 124:	0e 94 00 00 	call	0	; 0x0 <_ZN8SPIClass8transferEh>
 128:	0e 94 00 00 	call	0	; 0x0 <_ZN8SPIClass8transferEh>
 12c:	21 96       	adiw	r28, 0x01	; 1
 12e:	cc 15       	cp	r28, r12
 130:	dd 05       	cpc	r29, r13
 132:	01 f4       	brne	.+0      	; 0x134 <_ZN10W5100Class5writeEjPKhj+0x4c>
 134:	ce 01       	movw	r24, r28
 136:	df 91       	pop	r29
 138:	cf 91       	pop	r28
 13a:	1f 91       	pop	r17
 13c:	0f 91       	pop	r16
 13e:	ff 90       	pop	r15
 140:	ef 90       	pop	r14
 142:	df 90       	pop	r13
 144:	cf 90       	pop	r12
 146:	08 95       	ret

00000148 <_ZN10W5100Class4readEj>:
 148:	1f 93       	push	r17
 14a:	cf 93       	push	r28
 14c:	df 93       	push	r29
 14e:	0f 92       	push	r0
 150:	cd b7       	in	r28, 0x3d	; 61
 152:	de b7       	in	r29, 0x3e	; 62
 154:	18 2f       	mov	r17, r24
 156:	99 83       	std	Y+1, r25	; 0x01
 158:	0e 94 00 00 	call	0	; 0x0 <_ZN8SPIClass8transferEh>
 15c:	8f e0       	ldi	r24, 0x0F	; 15
 15e:	0e 94 00 00 	call	0	; 0x0 <_ZN8SPIClass8transferEh>
 162:	99 81       	ldd	r25, Y+1	; 0x01
 164:	89 2f       	mov	r24, r25
 166:	0e 94 00 00 	call	0	; 0x0 <_ZN8SPIClass8transferEh>
 16a:	81 2f       	mov	r24, r17
 16c:	0e 94 00 00 	call	0	; 0x0 <_ZN8SPIClass8transferEh>
 170:	80 e0       	ldi	r24, 0x00	; 0
 172:	0e 94 00 00 	call	0	; 0x0 <_ZN8SPIClass8transferEh>
 176:	89 83       	std	Y+1, r24	; 0x01
 178:	0e 94 00 00 	call	0	; 0x0 <_ZN8SPIClass8transferEh>
 17c:	89 81       	ldd	r24, Y+1	; 0x01
 17e:	0f 90       	pop	r0
 180:	df 91       	pop	r29
 182:	cf 91       	pop	r28
 184:	1f 91       	pop	r17
 186:	08 95       	ret

00000188 <_ZN10W5100Class6readSnEhj>:
 188:	90 e0       	ldi	r25, 0x00	; 0
 18a:	04 96       	adiw	r24, 0x04	; 4
 18c:	98 2f       	mov	r25, r24
 18e:	88 27       	eor	r24, r24
 190:	86 0f       	add	r24, r22
 192:	97 1f       	adc	r25, r23
 194:	0e 94 00 00 	call	0	; 0x0 <_ZN8SPIClass8transferEh>
 198:	08 95       	ret

0000019a <_ZN10W5100Class27send_data_processing_offsetEhjPKhj>:
 19a:	6f 92       	push	r6
 19c:	7f 92       	push	r7
 19e:	8f 92       	push	r8
 1a0:	9f 92       	push	r9
 1a2:	af 92       	push	r10
 1a4:	bf 92       	push	r11
 1a6:	cf 92       	push	r12
 1a8:	df 92       	push	r13
 1aa:	ff 92       	push	r15
 1ac:	0f 93       	push	r16
 1ae:	1f 93       	push	r17
 1b0:	cf 93       	push	r28
 1b2:	df 93       	push	r29
 1b4:	5c 01       	movw	r10, r24
 1b6:	f6 2e       	mov	r15, r22
 1b8:	3a 01       	movw	r6, r20
 1ba:	49 01       	movw	r8, r18
 1bc:	68 01       	movw	r12, r16
 1be:	86 2f       	mov	r24, r22
 1c0:	64 e2       	ldi	r22, 0x24	; 36
 1c2:	70 e0       	ldi	r23, 0x00	; 0
 1c4:	0e 94 00 00 	call	0	; 0x0 <_ZN8SPIClass8transferEh>
 1c8:	c8 2f       	mov	r28, r24
 1ca:	8f 2d       	mov	r24, r15
 1cc:	65 e2       	ldi	r22, 0x25	; 37
 1ce:	70 e0       	ldi	r23, 0x00	; 0
 1d0:	0e 94 00 00 	call	0	; 0x0 <_ZN8SPIClass8transferEh>
 1d4:	3c 2f       	mov	r19, r28
 1d6:	20 e0       	ldi	r18, 0x00	; 0
 1d8:	08 2f       	mov	r16, r24
 1da:	10 e0       	ldi	r17, 0x00	; 0
 1dc:	02 2b       	or	r16, r18
 1de:	13 2b       	or	r17, r19
 1e0:	06 0d       	add	r16, r6
 1e2:	17 1d       	adc	r17, r7
 1e4:	a8 01       	movw	r20, r16
 1e6:	57 70       	andi	r21, 0x07	; 7
 1e8:	8f 2d       	mov	r24, r15
 1ea:	90 e0       	ldi	r25, 0x00	; 0
 1ec:	88 0f       	add	r24, r24
 1ee:	99 1f       	adc	r25, r25
 1f0:	a8 0e       	add	r10, r24
 1f2:	b9 1e       	adc	r11, r25
 1f4:	f5 01       	movw	r30, r10
 1f6:	20 81       	ld	r18, Z
 1f8:	31 81       	ldd	r19, Z+1	; 0x01
 1fa:	24 0f       	add	r18, r20
 1fc:	35 1f       	adc	r19, r21
 1fe:	ca 01       	movw	r24, r20
 200:	8c 0d       	add	r24, r12
 202:	9d 1d       	adc	r25, r13
 204:	f8 e0       	ldi	r31, 0x08	; 8
 206:	81 30       	cpi	r24, 0x01	; 1
 208:	9f 07       	cpc	r25, r31
 20a:	00 f0       	brcs	.+0      	; 0x20c <_ZN10W5100Class27send_data_processing_offsetEhjPKhj+0x72>
 20c:	c0 e0       	ldi	r28, 0x00	; 0
 20e:	d8 e0       	ldi	r29, 0x08	; 8
 210:	c4 1b       	sub	r28, r20
 212:	d5 0b       	sbc	r29, r21
 214:	c9 01       	movw	r24, r18
 216:	b4 01       	movw	r22, r8
 218:	ae 01       	movw	r20, r28
 21a:	0e 94 00 00 	call	0	; 0x0 <_ZN8SPIClass8transferEh>
 21e:	b4 01       	movw	r22, r8
 220:	6c 0f       	add	r22, r28
 222:	7d 1f       	adc	r23, r29
 224:	a6 01       	movw	r20, r12
 226:	4c 1b       	sub	r20, r28
 228:	5d 0b       	sbc	r21, r29
 22a:	f5 01       	movw	r30, r10
 22c:	80 81       	ld	r24, Z
 22e:	91 81       	ldd	r25, Z+1	; 0x01
 230:	00 c0       	rjmp	.+0      	; 0x232 <_ZN10W5100Class27send_data_processing_offsetEhjPKhj+0x98>
 232:	c9 01       	movw	r24, r18
 234:	b4 01       	movw	r22, r8
 236:	a6 01       	movw	r20, r12
 238:	0e 94 00 00 	call	0	; 0x0 <_ZN8SPIClass8transferEh>
 23c:	0c 0d       	add	r16, r12
 23e:	1d 1d       	adc	r17, r13
 240:	8f 2d       	mov	r24, r15
 242:	64 e2       	ldi	r22, 0x24	; 36
 244:	70 e0       	ldi	r23, 0x00	; 0
 246:	41 2f       	mov	r20, r17
 248:	0e 94 00 00 	call	0	; 0x0 <_ZN8SPIClass8transferEh>
 24c:	8f 2d       	mov	r24, r15
 24e:	65 e2       	ldi	r22, 0x25	; 37
 250:	70 e0       	ldi	r23, 0x00	; 0
 252:	40 2f       	mov	r20, r16
 254:	0e 94 00 00 	call	0	; 0x0 <_ZN8SPIClass8transferEh>
 258:	df 91       	pop	r29
 25a:	cf 91       	pop	r28
 25c:	1f 91       	pop	r17
 25e:	0f 91       	pop	r16
 260:	ff 90       	pop	r15
 262:	df 90       	pop	r13
 264:	cf 90       	pop	r12
 266:	bf 90       	pop	r11
 268:	af 90       	pop	r10
 26a:	9f 90       	pop	r9
 26c:	8f 90       	pop	r8
 26e:	7f 90       	pop	r7
 270:	6f 90       	pop	r6
 272:	08 95       	ret

00000274 <_ZN10W5100Class20send_data_processingEhPKhj>:
 274:	0f 93       	push	r16
 276:	1f 93       	push	r17
 278:	fa 01       	movw	r30, r20
 27a:	89 01       	movw	r16, r18
 27c:	40 e0       	ldi	r20, 0x00	; 0
 27e:	50 e0       	ldi	r21, 0x00	; 0
 280:	9f 01       	movw	r18, r30
 282:	0e 94 00 00 	call	0	; 0x0 <_ZN8SPIClass8transferEh>
 286:	1f 91       	pop	r17
 288:	0f 91       	pop	r16
 28a:	08 95       	ret

0000028c <_ZN10W5100Class12readSnRX_RSREh>:
 28c:	cf 93       	push	r28
 28e:	df 93       	push	r29
 290:	c8 2f       	mov	r28, r24
 292:	66 e2       	ldi	r22, 0x26	; 38
 294:	70 e0       	ldi	r23, 0x00	; 0
 296:	0e 94 00 00 	call	0	; 0x0 <_ZN8SPIClass8transferEh>
 29a:	d8 2f       	mov	r29, r24
 29c:	8c 2f       	mov	r24, r28
 29e:	67 e2       	ldi	r22, 0x27	; 39
 2a0:	70 e0       	ldi	r23, 0x00	; 0
 2a2:	0e 94 00 00 	call	0	; 0x0 <_ZN8SPIClass8transferEh>
 2a6:	3d 2f       	mov	r19, r29
 2a8:	20 e0       	ldi	r18, 0x00	; 0
 2aa:	90 e0       	ldi	r25, 0x00	; 0
 2ac:	82 2b       	or	r24, r18
 2ae:	93 2b       	or	r25, r19
 2b0:	df 91       	pop	r29
 2b2:	cf 91       	pop	r28
 2b4:	08 95       	ret

000002b6 <_ZN10W5100Class17getRXReceivedSizeEh>:
 2b6:	ff 92       	push	r15
 2b8:	0f 93       	push	r16
 2ba:	1f 93       	push	r17
 2bc:	cf 93       	push	r28
 2be:	df 93       	push	r29
 2c0:	f6 2e       	mov	r15, r22
 2c2:	c0 e0       	ldi	r28, 0x00	; 0
 2c4:	d0 e0       	ldi	r29, 0x00	; 0
 2c6:	8f 2d       	mov	r24, r15
 2c8:	0e 94 00 00 	call	0	; 0x0 <_ZN8SPIClass8transferEh>
 2cc:	8c 01       	movw	r16, r24
 2ce:	00 97       	sbiw	r24, 0x00	; 0
 2d0:	01 f0       	breq	.+0      	; 0x2d2 <_ZN10W5100Class17getRXReceivedSizeEh+0x1c>
 2d2:	8f 2d       	mov	r24, r15
 2d4:	0e 94 00 00 	call	0	; 0x0 <_ZN8SPIClass8transferEh>
 2d8:	ec 01       	movw	r28, r24
 2da:	c0 17       	cp	r28, r16
 2dc:	d1 07       	cpc	r29, r17
 2de:	01 f4       	brne	.+0      	; 0x2e0 <_ZN10W5100Class17getRXReceivedSizeEh+0x2a>
 2e0:	ce 01       	movw	r24, r28
 2e2:	df 91       	pop	r29
 2e4:	cf 91       	pop	r28
 2e6:	1f 91       	pop	r17
 2e8:	0f 91       	pop	r16
 2ea:	ff 90       	pop	r15
 2ec:	08 95       	ret

000002ee <_ZN10W5100Class12readSnTX_FSREh>:
 2ee:	cf 93       	push	r28
 2f0:	df 93       	push	r29
 2f2:	c8 2f       	mov	r28, r24
 2f4:	60 e2       	ldi	r22, 0x20	; 32
 2f6:	70 e0       	ldi	r23, 0x00	; 0
 2f8:	0e 94 00 00 	call	0	; 0x0 <_ZN8SPIClass8transferEh>
 2fc:	d8 2f       	mov	r29, r24
 2fe:	8c 2f       	mov	r24, r28
 300:	61 e2       	ldi	r22, 0x21	; 33
 302:	70 e0       	ldi	r23, 0x00	; 0
 304:	0e 94 00 00 	call	0	; 0x0 <_ZN8SPIClass8transferEh>
 308:	3d 2f       	mov	r19, r29
 30a:	20 e0       	ldi	r18, 0x00	; 0
 30c:	90 e0       	ldi	r25, 0x00	; 0
 30e:	82 2b       	or	r24, r18
 310:	93 2b       	or	r25, r19
 312:	df 91       	pop	r29
 314:	cf 91       	pop	r28
 316:	08 95       	ret

00000318 <_ZN10W5100Class13getTXFreeSizeEh>:
 318:	ff 92       	push	r15
 31a:	0f 93       	push	r16
 31c:	1f 93       	push	r17
 31e:	cf 93       	push	r28
 320:	df 93       	push	r29
 322:	f6 2e       	mov	r15, r22
 324:	c0 e0       	ldi	r28, 0x00	; 0
 326:	d0 e0       	ldi	r29, 0x00	; 0
 328:	8f 2d       	mov	r24, r15
 32a:	0e 94 00 00 	call	0	; 0x0 <_ZN8SPIClass8transferEh>
 32e:	8c 01       	movw	r16, r24
 330:	00 97       	sbiw	r24, 0x00	; 0
 332:	01 f0       	breq	.+0      	; 0x334 <_ZN10W5100Class13getTXFreeSizeEh+0x1c>
 334:	8f 2d       	mov	r24, r15
 336:	0e 94 00 00 	call	0	; 0x0 <_ZN8SPIClass8transferEh>
 33a:	ec 01       	movw	r28, r24
 33c:	c0 17       	cp	r28, r16
 33e:	d1 07       	cpc	r29, r17
 340:	01 f4       	brne	.+0      	; 0x342 <_ZN10W5100Class13getTXFreeSizeEh+0x2a>
 342:	ce 01       	movw	r24, r28
 344:	df 91       	pop	r29
 346:	cf 91       	pop	r28
 348:	1f 91       	pop	r17
 34a:	0f 91       	pop	r16
 34c:	ff 90       	pop	r15
 34e:	08 95       	ret

00000350 <_ZN10W5100Class4readEjPhj>:
 350:	cf 92       	push	r12
 352:	df 92       	push	r13
 354:	ef 92       	push	r14
 356:	ff 92       	push	r15
 358:	0f 93       	push	r16
 35a:	1f 93       	push	r17
 35c:	cf 93       	push	r28
 35e:	df 93       	push	r29
 360:	8c 01       	movw	r16, r24
 362:	6a 01       	movw	r12, r20
 364:	7b 01       	movw	r14, r22
 366:	c0 e0       	ldi	r28, 0x00	; 0
 368:	d0 e0       	ldi	r29, 0x00	; 0
 36a:	00 c0       	rjmp	.+0      	; 0x36c <_ZN10W5100Class4readEjPhj+0x1c>
 36c:	0e 94 00 00 	call	0	; 0x0 <_ZN8SPIClass8transferEh>
 370:	8f e0       	ldi	r24, 0x0F	; 15
 372:	0e 94 00 00 	call	0	; 0x0 <_ZN8SPIClass8transferEh>
 376:	81 2f       	mov	r24, r17
 378:	0e 94 00 00 	call	0	; 0x0 <_ZN8SPIClass8transferEh>
 37c:	80 2f       	mov	r24, r16
 37e:	0e 94 00 00 	call	0	; 0x0 <_ZN8SPIClass8transferEh>
 382:	0f 5f       	subi	r16, 0xFF	; 255
 384:	1f 4f       	sbci	r17, 0xFF	; 255
 386:	80 e0       	ldi	r24, 0x00	; 0
 388:	0e 94 00 00 	call	0	; 0x0 <_ZN8SPIClass8transferEh>
 38c:	f7 01       	movw	r30, r14
 38e:	81 93       	st	Z+, r24
 390:	7f 01       	movw	r14, r30
 392:	0e 94 00 00 	call	0	; 0x0 <_ZN8SPIClass8transferEh>
 396:	21 96       	adiw	r28, 0x01	; 1
 398:	cc 15       	cp	r28, r12
 39a:	dd 05       	cpc	r29, r13
 39c:	01 f4       	brne	.+0      	; 0x39e <_ZN10W5100Class4readEjPhj+0x4e>
 39e:	ce 01       	movw	r24, r28
 3a0:	df 91       	pop	r29
 3a2:	cf 91       	pop	r28
 3a4:	1f 91       	pop	r17
 3a6:	0f 91       	pop	r16
 3a8:	ff 90       	pop	r15
 3aa:	ef 90       	pop	r14
 3ac:	df 90       	pop	r13
 3ae:	cf 90       	pop	r12
 3b0:	08 95       	ret

000003b2 <_ZN10W5100Class9read_dataEhPVhS1_j>:
 3b2:	cf 92       	push	r12
 3b4:	df 92       	push	r13
 3b6:	ef 92       	push	r14
 3b8:	ff 92       	push	r15
 3ba:	0f 93       	push	r16
 3bc:	1f 93       	push	r17
 3be:	cf 93       	push	r28
 3c0:	df 93       	push	r29
 3c2:	69 01       	movw	r12, r18
 3c4:	78 01       	movw	r14, r16
 3c6:	57 70       	andi	r21, 0x07	; 7
 3c8:	c6 2f       	mov	r28, r22
 3ca:	d0 e0       	ldi	r29, 0x00	; 0
 3cc:	24 96       	adiw	r28, 0x04	; 4
 3ce:	cc 0f       	add	r28, r28
 3d0:	dd 1f       	adc	r29, r29
 3d2:	c8 0f       	add	r28, r24
 3d4:	d9 1f       	adc	r29, r25
 3d6:	28 81       	ld	r18, Y
 3d8:	39 81       	ldd	r19, Y+1	; 0x01
 3da:	24 0f       	add	r18, r20
 3dc:	35 1f       	adc	r19, r21
 3de:	c8 01       	movw	r24, r16
 3e0:	84 0f       	add	r24, r20
 3e2:	95 1f       	adc	r25, r21
 3e4:	68 e0       	ldi	r22, 0x08	; 8
 3e6:	81 30       	cpi	r24, 0x01	; 1
 3e8:	96 07       	cpc	r25, r22
 3ea:	00 f0       	brcs	.+0      	; 0x3ec <_ZN10W5100Class9read_dataEhPVhS1_j+0x3a>
 3ec:	00 e0       	ldi	r16, 0x00	; 0
 3ee:	18 e0       	ldi	r17, 0x08	; 8
 3f0:	04 1b       	sub	r16, r20
 3f2:	15 0b       	sbc	r17, r21
 3f4:	c9 01       	movw	r24, r18
 3f6:	b6 01       	movw	r22, r12
 3f8:	a8 01       	movw	r20, r16
 3fa:	0e 94 00 00 	call	0	; 0x0 <_ZN8SPIClass8transferEh>
 3fe:	b6 01       	movw	r22, r12
 400:	60 0f       	add	r22, r16
 402:	71 1f       	adc	r23, r17
 404:	a7 01       	movw	r20, r14
 406:	40 1b       	sub	r20, r16
 408:	51 0b       	sbc	r21, r17
 40a:	88 81       	ld	r24, Y
 40c:	99 81       	ldd	r25, Y+1	; 0x01
 40e:	00 c0       	rjmp	.+0      	; 0x410 <_ZN10W5100Class9read_dataEhPVhS1_j+0x5e>
 410:	c9 01       	movw	r24, r18
 412:	b6 01       	movw	r22, r12
 414:	a8 01       	movw	r20, r16
 416:	0e 94 00 00 	call	0	; 0x0 <_ZN8SPIClass8transferEh>
 41a:	df 91       	pop	r29
 41c:	cf 91       	pop	r28
 41e:	1f 91       	pop	r17
 420:	0f 91       	pop	r16
 422:	ff 90       	pop	r15
 424:	ef 90       	pop	r14
 426:	df 90       	pop	r13
 428:	cf 90       	pop	r12
 42a:	08 95       	ret

0000042c <_ZN10W5100Class20recv_data_processingEhPhjh>:
 42c:	8f 92       	push	r8
 42e:	9f 92       	push	r9
 430:	af 92       	push	r10
 432:	bf 92       	push	r11
 434:	cf 92       	push	r12
 436:	df 92       	push	r13
 438:	ef 92       	push	r14
 43a:	ff 92       	push	r15
 43c:	0f 93       	push	r16
 43e:	1f 93       	push	r17
 440:	cf 93       	push	r28
 442:	df 93       	push	r29
 444:	5c 01       	movw	r10, r24
 446:	f6 2e       	mov	r15, r22
 448:	4a 01       	movw	r8, r20
 44a:	69 01       	movw	r12, r18
 44c:	e0 2e       	mov	r14, r16
 44e:	86 2f       	mov	r24, r22
 450:	68 e2       	ldi	r22, 0x28	; 40
 452:	70 e0       	ldi	r23, 0x00	; 0
 454:	0e 94 00 00 	call	0	; 0x0 <_ZN8SPIClass8transferEh>
 458:	c8 2f       	mov	r28, r24
 45a:	8f 2d       	mov	r24, r15
 45c:	69 e2       	ldi	r22, 0x29	; 41
 45e:	70 e0       	ldi	r23, 0x00	; 0
 460:	0e 94 00 00 	call	0	; 0x0 <_ZN8SPIClass8transferEh>
 464:	3c 2f       	mov	r19, r28
 466:	20 e0       	ldi	r18, 0x00	; 0
 468:	c8 2f       	mov	r28, r24
 46a:	d0 e0       	ldi	r29, 0x00	; 0
 46c:	c2 2b       	or	r28, r18
 46e:	d3 2b       	or	r29, r19
 470:	c5 01       	movw	r24, r10
 472:	6f 2d       	mov	r22, r15
 474:	ae 01       	movw	r20, r28
 476:	94 01       	movw	r18, r8
 478:	86 01       	movw	r16, r12
 47a:	0e 94 00 00 	call	0	; 0x0 <_ZN8SPIClass8transferEh>
 47e:	ee 20       	and	r14, r14
 480:	01 f4       	brne	.+0      	; 0x482 <_ZN10W5100Class20recv_data_processingEhPhjh+0x56>
 482:	cc 0d       	add	r28, r12
 484:	dd 1d       	adc	r29, r13
 486:	8f 2d       	mov	r24, r15
 488:	68 e2       	ldi	r22, 0x28	; 40
 48a:	70 e0       	ldi	r23, 0x00	; 0
 48c:	4d 2f       	mov	r20, r29
 48e:	0e 94 00 00 	call	0	; 0x0 <_ZN8SPIClass8transferEh>
 492:	8f 2d       	mov	r24, r15
 494:	69 e2       	ldi	r22, 0x29	; 41
 496:	70 e0       	ldi	r23, 0x00	; 0
 498:	4c 2f       	mov	r20, r28
 49a:	0e 94 00 00 	call	0	; 0x0 <_ZN8SPIClass8transferEh>
 49e:	df 91       	pop	r29
 4a0:	cf 91       	pop	r28
 4a2:	1f 91       	pop	r17
 4a4:	0f 91       	pop	r16
 4a6:	ff 90       	pop	r15
 4a8:	ef 90       	pop	r14
 4aa:	df 90       	pop	r13
 4ac:	cf 90       	pop	r12
 4ae:	bf 90       	pop	r11
 4b0:	af 90       	pop	r10
 4b2:	9f 90       	pop	r9
 4b4:	8f 90       	pop	r8
 4b6:	08 95       	ret

000004b8 <_ZN10W5100Class9execCmdSnEh7SockCMD>:
 4b8:	cf 93       	push	r28
 4ba:	c6 2f       	mov	r28, r22
 4bc:	86 2f       	mov	r24, r22
 4be:	61 e0       	ldi	r22, 0x01	; 1
 4c0:	70 e0       	ldi	r23, 0x00	; 0
 4c2:	0e 94 00 00 	call	0	; 0x0 <_ZN8SPIClass8transferEh>
 4c6:	8c 2f       	mov	r24, r28
 4c8:	61 e0       	ldi	r22, 0x01	; 1
 4ca:	70 e0       	ldi	r23, 0x00	; 0
 4cc:	0e 94 00 00 	call	0	; 0x0 <_ZN8SPIClass8transferEh>
 4d0:	88 23       	and	r24, r24
 4d2:	01 f4       	brne	.+0      	; 0x4d4 <_ZN10W5100Class9execCmdSnEh7SockCMD+0x1c>
 4d4:	cf 91       	pop	r28
 4d6:	08 95       	ret

Dhcp.o:     file format elf32-avr

Sections:
Idx Name          Size      VMA       LMA       File off  Algn
  0 .text         00000d54  00000000  00000000  00000034  2**0
                  CONTENTS, ALLOC, LOAD, RELOC, READONLY, CODE
  1 .data         00000007  00000000  00000000  00000d88  2**0
                  CONTENTS, ALLOC, LOAD, DATA
  2 .bss          00000006  00000000  00000000  00000d8f  2**0
                  ALLOC
  3 .text.startup 00000016  00000000  00000000  00000d8f  2**0
                  CONTENTS, ALLOC, LOAD, RELOC, READONLY, CODE
  4 .ctors        00000002  00000000  00000000  00000da5  2**0
                  CONTENTS, ALLOC, LOAD, RELOC, READONLY, DATA

Disassembly of section .text:

00000000 <_ZN9DhcpClass16reset_DHCP_leaseEv>:
   0:	0e 96       	adiw	r24, 0x0e	; 14
   2:	fc 01       	movw	r30, r24
   4:	84 e1       	ldi	r24, 0x14	; 20
   6:	df 01       	movw	r26, r30
   8:	1d 92       	st	X+, r1
   a:	8a 95       	dec	r24
   c:	01 f4       	brne	.+0      	; 0xe <_ZN9DhcpClass16reset_DHCP_leaseEv+0xe>
   e:	08 95       	ret

00000010 <_ZN9DhcpClass12presend_DHCPEv>:
  10:	08 95       	ret

00000012 <_ZN9DhcpClass17parseDHCPResponseEmRm>:
  12:	2f 92       	push	r2
  14:	3f 92       	push	r3
  16:	4f 92       	push	r4
  18:	5f 92       	push	r5
  1a:	6f 92       	push	r6
  1c:	7f 92       	push	r7
  1e:	8f 92       	push	r8
  20:	9f 92       	push	r9
  22:	af 92       	push	r10
  24:	bf 92       	push	r11
  26:	cf 92       	push	r12
  28:	df 92       	push	r13
  2a:	ef 92       	push	r14
  2c:	ff 92       	push	r15
  2e:	0f 93       	push	r16
  30:	1f 93       	push	r17
  32:	cf 93       	push	r28
  34:	df 93       	push	r29
  36:	cd b7       	in	r28, 0x3d	; 61
  38:	de b7       	in	r29, 0x3e	; 62
  3a:	e2 97       	sbiw	r28, 0x32	; 50
  3c:	0f b6       	in	r0, 0x3f	; 63
  3e:	f8 94       	cli
  40:	de bf       	out	0x3e, r29	; 62
  42:	0f be       	out	0x3f, r0	; 63
  44:	cd bf       	out	0x3d, r28	; 61
  46:	4c 01       	movw	r8, r24
  48:	2a 01       	movw	r4, r20
  4a:	3b 01       	movw	r6, r22
  4c:	89 01       	movw	r16, r18
  4e:	0e 94 00 00 	call	0	; 0x0 <_ZN9DhcpClass16reset_DHCP_leaseEv>
  52:	6b 01       	movw	r12, r22
  54:	7c 01       	movw	r14, r24
  56:	e7 e4       	ldi	r30, 0x47	; 71
  58:	ae 2e       	mov	r10, r30
  5a:	b1 2c       	mov	r11, r1
  5c:	a8 0c       	add	r10, r8
  5e:	b9 1c       	adc	r11, r9
  60:	00 c0       	rjmp	.+0      	; 0x62 <_ZN9DhcpClass17parseDHCPResponseEmRm+0x50>
  62:	0e 94 00 00 	call	0	; 0x0 <_ZN9DhcpClass16reset_DHCP_leaseEv>
  66:	dc 01       	movw	r26, r24
  68:	cb 01       	movw	r24, r22
  6a:	8c 19       	sub	r24, r12
  6c:	9d 09       	sbc	r25, r13
  6e:	ae 09       	sbc	r26, r14
  70:	bf 09       	sbc	r27, r15
  72:	48 16       	cp	r4, r24
  74:	59 06       	cpc	r5, r25
  76:	6a 06       	cpc	r6, r26
  78:	7b 06       	cpc	r7, r27
  7a:	00 f4       	brcc	.+0      	; 0x7c <_ZN9DhcpClass17parseDHCPResponseEmRm+0x6a>
  7c:	00 c0       	rjmp	.+0      	; 0x7e <_ZN9DhcpClass17parseDHCPResponseEmRm+0x6c>
  7e:	62 e3       	ldi	r22, 0x32	; 50
  80:	70 e0       	ldi	r23, 0x00	; 0
  82:	80 e0       	ldi	r24, 0x00	; 0
  84:	90 e0       	ldi	r25, 0x00	; 0
  86:	0e 94 00 00 	call	0	; 0x0 <_ZN9DhcpClass16reset_DHCP_leaseEv>
  8a:	c5 01       	movw	r24, r10
  8c:	0e 94 00 00 	call	0	; 0x0 <_ZN9DhcpClass16reset_DHCP_leaseEv>
  90:	18 16       	cp	r1, r24
  92:	19 06       	cpc	r1, r25
  94:	04 f4       	brge	.+0      	; 0x96 <_ZN9DhcpClass17parseDHCPResponseEmRm+0x84>
  96:	c5 01       	movw	r24, r10
  98:	be 01       	movw	r22, r28
  9a:	69 5f       	subi	r22, 0xF9	; 249
  9c:	7f 4f       	sbci	r23, 0xFF	; 255
  9e:	42 e2       	ldi	r20, 0x22	; 34
  a0:	50 e0       	ldi	r21, 0x00	; 0
  a2:	0e 94 00 00 	call	0	; 0x0 <_ZN9DhcpClass16reset_DHCP_leaseEv>
  a6:	8f 81       	ldd	r24, Y+7	; 0x07
  a8:	82 30       	cpi	r24, 0x02	; 2
  aa:	01 f0       	breq	.+0      	; 0xac <_ZN9DhcpClass17parseDHCPResponseEmRm+0x9a>
  ac:	00 c0       	rjmp	.+0      	; 0xae <_ZN9DhcpClass17parseDHCPResponseEmRm+0x9c>
  ae:	f5 01       	movw	r30, r10
  b0:	85 89       	ldd	r24, Z+21	; 0x15
  b2:	96 89       	ldd	r25, Z+22	; 0x16
  b4:	83 34       	cpi	r24, 0x43	; 67
  b6:	91 05       	cpc	r25, r1
  b8:	01 f0       	breq	.+0      	; 0xba <_ZN9DhcpClass17parseDHCPResponseEmRm+0xa8>
  ba:	00 c0       	rjmp	.+0      	; 0xbc <_ZN9DhcpClass17parseDHCPResponseEmRm+0xaa>
  bc:	4b 85       	ldd	r20, Y+11	; 0x0b
  be:	5c 85       	ldd	r21, Y+12	; 0x0c
  c0:	6d 85       	ldd	r22, Y+13	; 0x0d
  c2:	7e 85       	ldd	r23, Y+14	; 0x0e
  c4:	c7 2e       	mov	r12, r23
  c6:	dd 24       	eor	r13, r13
  c8:	ee 24       	eor	r14, r14
  ca:	ff 24       	eor	r15, r15
  cc:	b4 2f       	mov	r27, r20
  ce:	aa 27       	eor	r26, r26
  d0:	99 27       	eor	r25, r25
  d2:	88 27       	eor	r24, r24
  d4:	c8 2a       	or	r12, r24
  d6:	d9 2a       	or	r13, r25
  d8:	ea 2a       	or	r14, r26
  da:	fb 2a       	or	r15, r27
  dc:	b6 2f       	mov	r27, r22
  de:	a5 2f       	mov	r26, r21
  e0:	94 2f       	mov	r25, r20
  e2:	88 27       	eor	r24, r24
  e4:	80 70       	andi	r24, 0x00	; 0
  e6:	90 70       	andi	r25, 0x00	; 0
  e8:	b0 70       	andi	r27, 0x00	; 0
  ea:	c8 2a       	or	r12, r24
  ec:	d9 2a       	or	r13, r25
  ee:	ea 2a       	or	r14, r26
  f0:	fb 2a       	or	r15, r27
  f2:	45 2f       	mov	r20, r21
  f4:	56 2f       	mov	r21, r22
  f6:	67 2f       	mov	r22, r23
  f8:	77 27       	eor	r23, r23
  fa:	40 70       	andi	r20, 0x00	; 0
  fc:	60 70       	andi	r22, 0x00	; 0
  fe:	70 70       	andi	r23, 0x00	; 0
 100:	c4 2a       	or	r12, r20
 102:	d5 2a       	or	r13, r21
 104:	e6 2a       	or	r14, r22
 106:	f7 2a       	or	r15, r23
 108:	f8 01       	movw	r30, r16
 10a:	c0 82       	st	Z, r12
 10c:	d1 82       	std	Z+1, r13	; 0x01
 10e:	e2 82       	std	Z+2, r14	; 0x02
 110:	f3 82       	std	Z+3, r15	; 0x03
 112:	b4 01       	movw	r22, r8
 114:	68 5f       	subi	r22, 0xF8	; 248
 116:	7f 4f       	sbci	r23, 0xFF	; 255
 118:	ce 01       	movw	r24, r28
 11a:	83 96       	adiw	r24, 0x23	; 35
 11c:	46 e0       	ldi	r20, 0x06	; 6
 11e:	50 e0       	ldi	r21, 0x00	; 0
 120:	0e 94 00 00 	call	0	; 0x0 <_ZN9DhcpClass16reset_DHCP_leaseEv>
 124:	00 97       	sbiw	r24, 0x00	; 0
 126:	01 f4       	brne	.+0      	; 0x128 <_ZN9DhcpClass17parseDHCPResponseEmRm+0x116>
 128:	f4 01       	movw	r30, r8
 12a:	80 81       	ld	r24, Z
 12c:	91 81       	ldd	r25, Z+1	; 0x01
 12e:	a2 81       	ldd	r26, Z+2	; 0x02
 130:	b3 81       	ldd	r27, Z+3	; 0x03
 132:	c8 16       	cp	r12, r24
 134:	d9 06       	cpc	r13, r25
 136:	ea 06       	cpc	r14, r26
 138:	fb 06       	cpc	r15, r27
 13a:	00 f0       	brcs	.+0      	; 0x13c <_ZN9DhcpClass17parseDHCPResponseEmRm+0x12a>
 13c:	84 81       	ldd	r24, Z+4	; 0x04
 13e:	95 81       	ldd	r25, Z+5	; 0x05
 140:	a6 81       	ldd	r26, Z+6	; 0x06
 142:	b7 81       	ldd	r27, Z+7	; 0x07
 144:	8c 15       	cp	r24, r12
 146:	9d 05       	cpc	r25, r13
 148:	ae 05       	cpc	r26, r14
 14a:	bf 05       	cpc	r27, r15
 14c:	00 f4       	brcc	.+0      	; 0x14e <_ZN9DhcpClass17parseDHCPResponseEmRm+0x13c>
 14e:	c5 01       	movw	r24, r10
 150:	0e 94 00 00 	call	0	; 0x0 <_ZN9DhcpClass16reset_DHCP_leaseEv>
 154:	44 24       	eor	r4, r4
 156:	00 c0       	rjmp	.+0      	; 0x158 <_ZN9DhcpClass17parseDHCPResponseEmRm+0x146>
 158:	8f 89       	ldd	r24, Y+23	; 0x17
 15a:	98 8d       	ldd	r25, Y+24	; 0x18
 15c:	a9 8d       	ldd	r26, Y+25	; 0x19
 15e:	ba 8d       	ldd	r27, Y+26	; 0x1a
 160:	f4 01       	movw	r30, r8
 162:	86 87       	std	Z+14, r24	; 0x0e
 164:	97 87       	std	Z+15, r25	; 0x0f
 166:	a0 8b       	std	Z+16, r26	; 0x10
 168:	b1 8b       	std	Z+17, r27	; 0x11
 16a:	0e ec       	ldi	r16, 0xCE	; 206
 16c:	10 e0       	ldi	r17, 0x00	; 0
 16e:	c5 01       	movw	r24, r10
 170:	0e 94 00 00 	call	0	; 0x0 <_ZN9DhcpClass16reset_DHCP_leaseEv>
 174:	01 50       	subi	r16, 0x01	; 1
 176:	10 40       	sbci	r17, 0x00	; 0
 178:	01 f4       	brne	.+0      	; 0x17a <_ZN9DhcpClass17parseDHCPResponseEmRm+0x168>
 17a:	44 24       	eor	r4, r4
 17c:	82 e2       	ldi	r24, 0x22	; 34
 17e:	68 2e       	mov	r6, r24
 180:	71 2c       	mov	r7, r1
 182:	68 0c       	add	r6, r8
 184:	79 1c       	adc	r7, r9
 186:	96 e2       	ldi	r25, 0x26	; 38
 188:	29 2e       	mov	r2, r25
 18a:	31 2c       	mov	r3, r1
 18c:	28 0c       	add	r2, r8
 18e:	39 1c       	adc	r3, r9
 190:	c4 01       	movw	r24, r8
 192:	8a 96       	adiw	r24, 0x2a	; 42
 194:	9a a7       	std	Y+42, r25	; 0x2a
 196:	89 a7       	std	Y+41, r24	; 0x29
 198:	2a e1       	ldi	r18, 0x1A	; 26
 19a:	e2 2e       	mov	r14, r18
 19c:	f1 2c       	mov	r15, r1
 19e:	e8 0c       	add	r14, r8
 1a0:	f9 1c       	adc	r15, r9
 1a2:	f4 01       	movw	r30, r8
 1a4:	e8 5a       	subi	r30, 0xA8	; 168
 1a6:	ff 4f       	sbci	r31, 0xFF	; 255
 1a8:	fc a7       	std	Y+44, r31	; 0x2c
 1aa:	eb a7       	std	Y+43, r30	; 0x2b
 1ac:	c4 01       	movw	r24, r8
 1ae:	42 96       	adiw	r24, 0x12	; 18
 1b0:	9e a7       	std	Y+46, r25	; 0x2e
 1b2:	8d a7       	std	Y+45, r24	; 0x2d
 1b4:	f4 01       	movw	r30, r8
 1b6:	76 96       	adiw	r30, 0x16	; 22
 1b8:	f8 ab       	std	Y+48, r31	; 0x30
 1ba:	ef a7       	std	Y+47, r30	; 0x2f
 1bc:	c4 01       	movw	r24, r8
 1be:	4e 96       	adiw	r24, 0x1e	; 30
 1c0:	9a ab       	std	Y+50, r25	; 0x32
 1c2:	89 ab       	std	Y+49, r24	; 0x31
 1c4:	67 01       	movw	r12, r14
 1c6:	00 c0       	rjmp	.+0      	; 0x1c8 <_ZN9DhcpClass17parseDHCPResponseEmRm+0x1b6>
 1c8:	c5 01       	movw	r24, r10
 1ca:	0e 94 00 00 	call	0	; 0x0 <_ZN9DhcpClass16reset_DHCP_leaseEv>
 1ce:	83 33       	cpi	r24, 0x33	; 51
 1d0:	91 05       	cpc	r25, r1
 1d2:	01 f4       	brne	.+0      	; 0x1d4 <_ZN9DhcpClass17parseDHCPResponseEmRm+0x1c2>
 1d4:	00 c0       	rjmp	.+0      	; 0x1d6 <_ZN9DhcpClass17parseDHCPResponseEmRm+0x1c4>
 1d6:	84 33       	cpi	r24, 0x34	; 52
 1d8:	91 05       	cpc	r25, r1
 1da:	04 f4       	brge	.+0      	; 0x1dc <_ZN9DhcpClass17parseDHCPResponseEmRm+0x1ca>
 1dc:	81 30       	cpi	r24, 0x01	; 1
 1de:	91 05       	cpc	r25, r1
 1e0:	01 f0       	breq	.+0      	; 0x1e2 <_ZN9DhcpClass17parseDHCPResponseEmRm+0x1d0>
 1e2:	82 30       	cpi	r24, 0x02	; 2
 1e4:	91 05       	cpc	r25, r1
 1e6:	04 f4       	brge	.+0      	; 0x1e8 <_ZN9DhcpClass17parseDHCPResponseEmRm+0x1d6>
 1e8:	00 97       	sbiw	r24, 0x00	; 0
 1ea:	01 f4       	brne	.+0      	; 0x1ec <_ZN9DhcpClass17parseDHCPResponseEmRm+0x1da>
 1ec:	00 c0       	rjmp	.+0      	; 0x1ee <_ZN9DhcpClass17parseDHCPResponseEmRm+0x1dc>
 1ee:	00 c0       	rjmp	.+0      	; 0x1f0 <_ZN9DhcpClass17parseDHCPResponseEmRm+0x1de>
 1f0:	83 30       	cpi	r24, 0x03	; 3
 1f2:	91 05       	cpc	r25, r1
 1f4:	01 f0       	breq	.+0      	; 0x1f6 <_ZN9DhcpClass17parseDHCPResponseEmRm+0x1e4>
 1f6:	86 30       	cpi	r24, 0x06	; 6
 1f8:	91 05       	cpc	r25, r1
 1fa:	01 f0       	breq	.+0      	; 0x1fc <_ZN9DhcpClass17parseDHCPResponseEmRm+0x1ea>
 1fc:	00 c0       	rjmp	.+0      	; 0x1fe <_ZN9DhcpClass17parseDHCPResponseEmRm+0x1ec>
 1fe:	00 c0       	rjmp	.+0      	; 0x200 <_ZN9DhcpClass17parseDHCPResponseEmRm+0x1ee>
 200:	8a 33       	cpi	r24, 0x3A	; 58
 202:	91 05       	cpc	r25, r1
 204:	01 f4       	brne	.+0      	; 0x206 <_ZN9DhcpClass17parseDHCPResponseEmRm+0x1f4>
 206:	00 c0       	rjmp	.+0      	; 0x208 <_ZN9DhcpClass17parseDHCPResponseEmRm+0x1f6>
 208:	8b 33       	cpi	r24, 0x3B	; 59
 20a:	91 05       	cpc	r25, r1
 20c:	04 f4       	brge	.+0      	; 0x20e <_ZN9DhcpClass17parseDHCPResponseEmRm+0x1fc>
 20e:	85 33       	cpi	r24, 0x35	; 53
 210:	91 05       	cpc	r25, r1
 212:	01 f0       	breq	.+0      	; 0x214 <_ZN9DhcpClass17parseDHCPResponseEmRm+0x202>
 214:	86 33       	cpi	r24, 0x36	; 54
 216:	91 05       	cpc	r25, r1
 218:	01 f0       	breq	.+0      	; 0x21a <_ZN9DhcpClass17parseDHCPResponseEmRm+0x208>
 21a:	00 c0       	rjmp	.+0      	; 0x21c <_ZN9DhcpClass17parseDHCPResponseEmRm+0x20a>
 21c:	00 c0       	rjmp	.+0      	; 0x21e <_ZN9DhcpClass17parseDHCPResponseEmRm+0x20c>
 21e:	8b 33       	cpi	r24, 0x3B	; 59
 220:	91 05       	cpc	r25, r1
 222:	01 f4       	brne	.+0      	; 0x224 <_ZN9DhcpClass17parseDHCPResponseEmRm+0x212>
 224:	00 c0       	rjmp	.+0      	; 0x226 <_ZN9DhcpClass17parseDHCPResponseEmRm+0x214>
 226:	8f 3f       	cpi	r24, 0xFF	; 255
 228:	91 05       	cpc	r25, r1
 22a:	01 f0       	breq	.+0      	; 0x22c <_ZN9DhcpClass17parseDHCPResponseEmRm+0x21a>
 22c:	00 c0       	rjmp	.+0      	; 0x22e <_ZN9DhcpClass17parseDHCPResponseEmRm+0x21c>
 22e:	00 c0       	rjmp	.+0      	; 0x230 <_ZN9DhcpClass17parseDHCPResponseEmRm+0x21e>
 230:	c5 01       	movw	r24, r10
 232:	0e 94 00 00 	call	0	; 0x0 <_ZN9DhcpClass16reset_DHCP_leaseEv>
 236:	c5 01       	movw	r24, r10
 238:	0e 94 00 00 	call	0	; 0x0 <_ZN9DhcpClass16reset_DHCP_leaseEv>
 23c:	48 2e       	mov	r4, r24
 23e:	00 c0       	rjmp	.+0      	; 0x240 <_ZN9DhcpClass17parseDHCPResponseEmRm+0x22e>
 240:	c5 01       	movw	r24, r10
 242:	0e 94 00 00 	call	0	; 0x0 <_ZN9DhcpClass16reset_DHCP_leaseEv>
 246:	c5 01       	movw	r24, r10
 248:	6d a5       	ldd	r22, Y+45	; 0x2d
 24a:	7e a5       	ldd	r23, Y+46	; 0x2e
 24c:	00 c0       	rjmp	.+0      	; 0x24e <_ZN9DhcpClass17parseDHCPResponseEmRm+0x23c>
 24e:	c5 01       	movw	r24, r10
 250:	0e 94 00 00 	call	0	; 0x0 <_ZN9DhcpClass16reset_DHCP_leaseEv>
 254:	08 2f       	mov	r16, r24
 256:	c5 01       	movw	r24, r10
 258:	6f a5       	ldd	r22, Y+47	; 0x2f
 25a:	78 a9       	ldd	r23, Y+48	; 0x30
 25c:	44 e0       	ldi	r20, 0x04	; 4
 25e:	50 e0       	ldi	r21, 0x00	; 0
 260:	0e 94 00 00 	call	0	; 0x0 <_ZN9DhcpClass16reset_DHCP_leaseEv>
 264:	ee 24       	eor	r14, r14
 266:	ff 24       	eor	r15, r15
 268:	10 e0       	ldi	r17, 0x00	; 0
 26a:	04 50       	subi	r16, 0x04	; 4
 26c:	10 40       	sbci	r17, 0x00	; 0
 26e:	00 c0       	rjmp	.+0      	; 0x270 <_ZN9DhcpClass17parseDHCPResponseEmRm+0x25e>
 270:	c5 01       	movw	r24, r10
 272:	0e 94 00 00 	call	0	; 0x0 <_ZN9DhcpClass16reset_DHCP_leaseEv>
 276:	08 94       	sec
 278:	e1 1c       	adc	r14, r1
 27a:	f1 1c       	adc	r15, r1
 27c:	e0 16       	cp	r14, r16
 27e:	f1 06       	cpc	r15, r17
 280:	04 f0       	brlt	.+0      	; 0x282 <_ZN9DhcpClass17parseDHCPResponseEmRm+0x270>
 282:	00 c0       	rjmp	.+0      	; 0x284 <_ZN9DhcpClass17parseDHCPResponseEmRm+0x272>
 284:	c5 01       	movw	r24, r10
 286:	0e 94 00 00 	call	0	; 0x0 <_ZN9DhcpClass16reset_DHCP_leaseEv>
 28a:	08 2f       	mov	r16, r24
 28c:	c5 01       	movw	r24, r10
 28e:	69 a9       	ldd	r22, Y+49	; 0x31
 290:	7a a9       	ldd	r23, Y+50	; 0x32
 292:	44 e0       	ldi	r20, 0x04	; 4
 294:	50 e0       	ldi	r21, 0x00	; 0
 296:	0e 94 00 00 	call	0	; 0x0 <_ZN9DhcpClass16reset_DHCP_leaseEv>
 29a:	ee 24       	eor	r14, r14
 29c:	ff 24       	eor	r15, r15
 29e:	10 e0       	ldi	r17, 0x00	; 0
 2a0:	04 50       	subi	r16, 0x04	; 4
 2a2:	10 40       	sbci	r17, 0x00	; 0
 2a4:	00 c0       	rjmp	.+0      	; 0x2a6 <_ZN9DhcpClass17parseDHCPResponseEmRm+0x294>
 2a6:	c5 01       	movw	r24, r10
 2a8:	0e 94 00 00 	call	0	; 0x0 <_ZN9DhcpClass16reset_DHCP_leaseEv>
 2ac:	08 94       	sec
 2ae:	e1 1c       	adc	r14, r1
 2b0:	f1 1c       	adc	r15, r1
 2b2:	e0 16       	cp	r14, r16
 2b4:	f1 06       	cpc	r15, r17
 2b6:	04 f0       	brlt	.+0      	; 0x2b8 <_ZN9DhcpClass17parseDHCPResponseEmRm+0x2a6>
 2b8:	00 c0       	rjmp	.+0      	; 0x2ba <_ZN9DhcpClass17parseDHCPResponseEmRm+0x2a8>
 2ba:	c5 01       	movw	r24, r10
 2bc:	0e 94 00 00 	call	0	; 0x0 <_ZN9DhcpClass16reset_DHCP_leaseEv>
 2c0:	e8 2e       	mov	r14, r24
 2c2:	f4 01       	movw	r30, r8
 2c4:	82 8d       	ldd	r24, Z+26	; 0x1a
 2c6:	93 8d       	ldd	r25, Z+27	; 0x1b
 2c8:	a4 8d       	ldd	r26, Z+28	; 0x1c
 2ca:	b5 8d       	ldd	r27, Z+29	; 0x1d
 2cc:	00 97       	sbiw	r24, 0x00	; 0
 2ce:	a1 05       	cpc	r26, r1
 2d0:	b1 05       	cpc	r27, r1
 2d2:	01 f0       	breq	.+0      	; 0x2d4 <_ZN9DhcpClass17parseDHCPResponseEmRm+0x2c2>
 2d4:	ce 01       	movw	r24, r28
 2d6:	01 96       	adiw	r24, 0x01	; 1
 2d8:	b6 01       	movw	r22, r12
 2da:	0e 94 00 00 	call	0	; 0x0 <_ZN9DhcpClass16reset_DHCP_leaseEv>
 2de:	8b 81       	ldd	r24, Y+3	; 0x03
 2e0:	9c 81       	ldd	r25, Y+4	; 0x04
 2e2:	ad 81       	ldd	r26, Y+5	; 0x05
 2e4:	be 81       	ldd	r27, Y+6	; 0x06
 2e6:	eb a5       	ldd	r30, Y+43	; 0x2b
 2e8:	fc a5       	ldd	r31, Y+44	; 0x2c
 2ea:	40 81       	ld	r20, Z
 2ec:	51 81       	ldd	r21, Z+1	; 0x01
 2ee:	62 81       	ldd	r22, Z+2	; 0x02
 2f0:	73 81       	ldd	r23, Z+3	; 0x03
 2f2:	84 17       	cp	r24, r20
 2f4:	95 07       	cpc	r25, r21
 2f6:	a6 07       	cpc	r26, r22
 2f8:	b7 07       	cpc	r27, r23
 2fa:	01 f0       	breq	.+0      	; 0x2fc <_ZN9DhcpClass17parseDHCPResponseEmRm+0x2ea>
 2fc:	00 e0       	ldi	r16, 0x00	; 0
 2fe:	10 e0       	ldi	r17, 0x00	; 0
 300:	00 c0       	rjmp	.+0      	; 0x302 <_ZN9DhcpClass17parseDHCPResponseEmRm+0x2f0>
 302:	c5 01       	movw	r24, r10
 304:	b6 01       	movw	r22, r12
 306:	44 e0       	ldi	r20, 0x04	; 4
 308:	50 e0       	ldi	r21, 0x00	; 0
 30a:	0e 94 00 00 	call	0	; 0x0 <_ZN9DhcpClass16reset_DHCP_leaseEv>
 30e:	00 c0       	rjmp	.+0      	; 0x310 <_ZN9DhcpClass17parseDHCPResponseEmRm+0x2fe>
 310:	c5 01       	movw	r24, r10
 312:	0e 94 00 00 	call	0	; 0x0 <_ZN9DhcpClass16reset_DHCP_leaseEv>
 316:	0f 5f       	subi	r16, 0xFF	; 255
 318:	1f 4f       	sbci	r17, 0xFF	; 255
 31a:	e0 16       	cp	r14, r16
 31c:	01 f4       	brne	.+0      	; 0x31e <_ZN9DhcpClass17parseDHCPResponseEmRm+0x30c>
 31e:	00 c0       	rjmp	.+0      	; 0x320 <_ZN9DhcpClass17parseDHCPResponseEmRm+0x30e>
 320:	c5 01       	movw	r24, r10
 322:	0e 94 00 00 	call	0	; 0x0 <_ZN9DhcpClass16reset_DHCP_leaseEv>
 326:	c5 01       	movw	r24, r10
 328:	b1 01       	movw	r22, r2
 32a:	44 e0       	ldi	r20, 0x04	; 4
 32c:	50 e0       	ldi	r21, 0x00	; 0
 32e:	0e 94 00 00 	call	0	; 0x0 <_ZN9DhcpClass16reset_DHCP_leaseEv>
 332:	f4 01       	movw	r30, r8
 334:	06 a1       	ldd	r16, Z+38	; 0x26
 336:	17 a1       	ldd	r17, Z+39	; 0x27
 338:	20 a5       	ldd	r18, Z+40	; 0x28
 33a:	31 a5       	ldd	r19, Z+41	; 0x29
 33c:	43 2f       	mov	r20, r19
 33e:	55 27       	eor	r21, r21
 340:	66 27       	eor	r22, r22
 342:	77 27       	eor	r23, r23
 344:	b0 2f       	mov	r27, r16
 346:	aa 27       	eor	r26, r26
 348:	99 27       	eor	r25, r25
 34a:	88 27       	eor	r24, r24
 34c:	48 2b       	or	r20, r24
 34e:	59 2b       	or	r21, r25
 350:	6a 2b       	or	r22, r26
 352:	7b 2b       	or	r23, r27
 354:	b2 2f       	mov	r27, r18
 356:	a1 2f       	mov	r26, r17
 358:	90 2f       	mov	r25, r16
 35a:	88 27       	eor	r24, r24
 35c:	80 70       	andi	r24, 0x00	; 0
 35e:	90 70       	andi	r25, 0x00	; 0
 360:	b0 70       	andi	r27, 0x00	; 0
 362:	48 2b       	or	r20, r24
 364:	59 2b       	or	r21, r25
 366:	6a 2b       	or	r22, r26
 368:	7b 2b       	or	r23, r27
 36a:	bb 27       	eor	r27, r27
 36c:	a3 2f       	mov	r26, r19
 36e:	92 2f       	mov	r25, r18
 370:	81 2f       	mov	r24, r17
 372:	80 70       	andi	r24, 0x00	; 0
 374:	a0 70       	andi	r26, 0x00	; 0
 376:	b0 70       	andi	r27, 0x00	; 0
 378:	48 2b       	or	r20, r24
 37a:	59 2b       	or	r21, r25
 37c:	6a 2b       	or	r22, r26
 37e:	7b 2b       	or	r23, r27
 380:	46 a3       	std	Z+38, r20	; 0x26
 382:	57 a3       	std	Z+39, r21	; 0x27
 384:	60 a7       	std	Z+40, r22	; 0x28
 386:	71 a7       	std	Z+41, r23	; 0x29
 388:	00 c0       	rjmp	.+0      	; 0x38a <_ZN9DhcpClass17parseDHCPResponseEmRm+0x378>
 38a:	c5 01       	movw	r24, r10
 38c:	0e 94 00 00 	call	0	; 0x0 <_ZN9DhcpClass16reset_DHCP_leaseEv>
 390:	c5 01       	movw	r24, r10
 392:	69 a5       	ldd	r22, Y+41	; 0x29
 394:	7a a5       	ldd	r23, Y+42	; 0x2a
 396:	44 e0       	ldi	r20, 0x04	; 4
 398:	50 e0       	ldi	r21, 0x00	; 0
 39a:	0e 94 00 00 	call	0	; 0x0 <_ZN9DhcpClass16reset_DHCP_leaseEv>
 39e:	f4 01       	movw	r30, r8
 3a0:	02 a5       	ldd	r16, Z+42	; 0x2a
 3a2:	13 a5       	ldd	r17, Z+43	; 0x2b
 3a4:	24 a5       	ldd	r18, Z+44	; 0x2c
 3a6:	35 a5       	ldd	r19, Z+45	; 0x2d
 3a8:	43 2f       	mov	r20, r19
 3aa:	55 27       	eor	r21, r21
 3ac:	66 27       	eor	r22, r22
 3ae:	77 27       	eor	r23, r23
 3b0:	b0 2f       	mov	r27, r16
 3b2:	aa 27       	eor	r26, r26
 3b4:	99 27       	eor	r25, r25
 3b6:	88 27       	eor	r24, r24
 3b8:	48 2b       	or	r20, r24
 3ba:	59 2b       	or	r21, r25
 3bc:	6a 2b       	or	r22, r26
 3be:	7b 2b       	or	r23, r27
 3c0:	b2 2f       	mov	r27, r18
 3c2:	a1 2f       	mov	r26, r17
 3c4:	90 2f       	mov	r25, r16
 3c6:	88 27       	eor	r24, r24
 3c8:	80 70       	andi	r24, 0x00	; 0
 3ca:	90 70       	andi	r25, 0x00	; 0
 3cc:	b0 70       	andi	r27, 0x00	; 0
 3ce:	48 2b       	or	r20, r24
 3d0:	59 2b       	or	r21, r25
 3d2:	6a 2b       	or	r22, r26
 3d4:	7b 2b       	or	r23, r27
 3d6:	bb 27       	eor	r27, r27
 3d8:	a3 2f       	mov	r26, r19
 3da:	92 2f       	mov	r25, r18
 3dc:	81 2f       	mov	r24, r17
 3de:	80 70       	andi	r24, 0x00	; 0
 3e0:	a0 70       	andi	r26, 0x00	; 0
 3e2:	b0 70       	andi	r27, 0x00	; 0
 3e4:	48 2b       	or	r20, r24
 3e6:	59 2b       	or	r21, r25
 3e8:	6a 2b       	or	r22, r26
 3ea:	7b 2b       	or	r23, r27
 3ec:	42 a7       	std	Z+42, r20	; 0x2a
 3ee:	53 a7       	std	Z+43, r21	; 0x2b
 3f0:	64 a7       	std	Z+44, r22	; 0x2c
 3f2:	75 a7       	std	Z+45, r23	; 0x2d
 3f4:	00 c0       	rjmp	.+0      	; 0x3f6 <_ZN9DhcpClass17parseDHCPResponseEmRm+0x3e4>
 3f6:	c5 01       	movw	r24, r10
 3f8:	0e 94 00 00 	call	0	; 0x0 <_ZN9DhcpClass16reset_DHCP_leaseEv>
 3fc:	c5 01       	movw	r24, r10
 3fe:	b3 01       	movw	r22, r6
 400:	44 e0       	ldi	r20, 0x04	; 4
 402:	50 e0       	ldi	r21, 0x00	; 0
 404:	0e 94 00 00 	call	0	; 0x0 <_ZN9DhcpClass16reset_DHCP_leaseEv>
 408:	f4 01       	movw	r30, r8
 40a:	02 a1       	ldd	r16, Z+34	; 0x22
 40c:	13 a1       	ldd	r17, Z+35	; 0x23
 40e:	24 a1       	ldd	r18, Z+36	; 0x24
 410:	35 a1       	ldd	r19, Z+37	; 0x25
 412:	43 2f       	mov	r20, r19
 414:	55 27       	eor	r21, r21
 416:	66 27       	eor	r22, r22
 418:	77 27       	eor	r23, r23
 41a:	b0 2f       	mov	r27, r16
 41c:	aa 27       	eor	r26, r26
 41e:	99 27       	eor	r25, r25
 420:	88 27       	eor	r24, r24
 422:	48 2b       	or	r20, r24
 424:	59 2b       	or	r21, r25
 426:	6a 2b       	or	r22, r26
 428:	7b 2b       	or	r23, r27
 42a:	b2 2f       	mov	r27, r18
 42c:	a1 2f       	mov	r26, r17
 42e:	90 2f       	mov	r25, r16
 430:	88 27       	eor	r24, r24
 432:	80 70       	andi	r24, 0x00	; 0
 434:	90 70       	andi	r25, 0x00	; 0
 436:	b0 70       	andi	r27, 0x00	; 0
 438:	48 2b       	or	r20, r24
 43a:	59 2b       	or	r21, r25
 43c:	6a 2b       	or	r22, r26
 43e:	7b 2b       	or	r23, r27
 440:	bb 27       	eor	r27, r27
 442:	a3 2f       	mov	r26, r19
 444:	92 2f       	mov	r25, r18
 446:	81 2f       	mov	r24, r17
 448:	80 70       	andi	r24, 0x00	; 0
 44a:	a0 70       	andi	r26, 0x00	; 0
 44c:	b0 70       	andi	r27, 0x00	; 0
 44e:	48 2b       	or	r20, r24
 450:	59 2b       	or	r21, r25
 452:	6a 2b       	or	r22, r26
 454:	7b 2b       	or	r23, r27
 456:	42 a3       	std	Z+34, r20	; 0x22
 458:	53 a3       	std	Z+35, r21	; 0x23
 45a:	64 a3       	std	Z+36, r22	; 0x24
 45c:	75 a3       	std	Z+37, r23	; 0x25
 45e:	46 a7       	std	Z+46, r20	; 0x2e
 460:	57 a7       	std	Z+47, r21	; 0x2f
 462:	60 ab       	std	Z+48, r22	; 0x30
 464:	71 ab       	std	Z+49, r23	; 0x31
 466:	00 c0       	rjmp	.+0      	; 0x468 <_ZN9DhcpClass17parseDHCPResponseEmRm+0x456>
 468:	c5 01       	movw	r24, r10
 46a:	0e 94 00 00 	call	0	; 0x0 <_ZN9DhcpClass16reset_DHCP_leaseEv>
 46e:	e8 2e       	mov	r14, r24
 470:	00 e0       	ldi	r16, 0x00	; 0
 472:	10 e0       	ldi	r17, 0x00	; 0
 474:	00 c0       	rjmp	.+0      	; 0x476 <_ZN9DhcpClass17parseDHCPResponseEmRm+0x464>
 476:	c5 01       	movw	r24, r10
 478:	0e 94 00 00 	call	0	; 0x0 <_ZN9DhcpClass16reset_DHCP_leaseEv>
 47c:	0f 5f       	subi	r16, 0xFF	; 255
 47e:	1f 4f       	sbci	r17, 0xFF	; 255
 480:	e0 16       	cp	r14, r16
 482:	01 f4       	brne	.+0      	; 0x484 <_ZN9DhcpClass17parseDHCPResponseEmRm+0x472>
 484:	c5 01       	movw	r24, r10
 486:	0e 94 00 00 	call	0	; 0x0 <_ZN9DhcpClass16reset_DHCP_leaseEv>
 48a:	18 16       	cp	r1, r24
 48c:	19 06       	cpc	r1, r25
 48e:	04 f4       	brge	.+0      	; 0x490 <_ZN9DhcpClass17parseDHCPResponseEmRm+0x47e>
 490:	00 c0       	rjmp	.+0      	; 0x492 <_ZN9DhcpClass17parseDHCPResponseEmRm+0x480>
 492:	00 c0       	rjmp	.+0      	; 0x494 <_ZN9DhcpClass17parseDHCPResponseEmRm+0x482>
 494:	44 24       	eor	r4, r4
 496:	c5 01       	movw	r24, r10
 498:	0e 94 00 00 	call	0	; 0x0 <_ZN9DhcpClass16reset_DHCP_leaseEv>
 49c:	00 c0       	rjmp	.+0      	; 0x49e <_ZN9DhcpClass17parseDHCPResponseEmRm+0x48c>
 49e:	44 24       	eor	r4, r4
 4a0:	4a 94       	dec	r4
 4a2:	84 2d       	mov	r24, r4
 4a4:	e2 96       	adiw	r28, 0x32	; 50
 4a6:	0f b6       	in	r0, 0x3f	; 63
 4a8:	f8 94       	cli
 4aa:	de bf       	out	0x3e, r29	; 62
 4ac:	0f be       	out	0x3f, r0	; 63
 4ae:	cd bf       	out	0x3d, r28	; 61
 4b0:	df 91       	pop	r29
 4b2:	cf 91       	pop	r28
 4b4:	1f 91       	pop	r17
 4b6:	0f 91       	pop	r16
 4b8:	ff 90       	pop	r15
 4ba:	ef 90       	pop	r14
 4bc:	df 90       	pop	r13
 4be:	cf 90       	pop	r12
 4c0:	bf 90       	pop	r11
 4c2:	af 90       	pop	r10
 4c4:	9f 90       	pop	r9
 4c6:	8f 90       	pop	r8
 4c8:	7f 90       	pop	r7
 4ca:	6f 90       	pop	r6
 4cc:	5f 90       	pop	r5
 4ce:	4f 90       	pop	r4
 4d0:	3f 90       	pop	r3
 4d2:	2f 90       	pop	r2
 4d4:	08 95       	ret

000004d6 <_ZN9DhcpClass10getLocalIpEv>:
 4d6:	cf 93       	push	r28
 4d8:	df 93       	push	r29
 4da:	ec 01       	movw	r28, r24
 4dc:	62 5f       	subi	r22, 0xF2	; 242
 4de:	7f 4f       	sbci	r23, 0xFF	; 255
 4e0:	0e 94 00 00 	call	0	; 0x0 <_ZN9DhcpClass16reset_DHCP_leaseEv>
 4e4:	ce 01       	movw	r24, r28
 4e6:	df 91       	pop	r29
 4e8:	cf 91       	pop	r28
 4ea:	08 95       	ret

000004ec <_ZN9DhcpClass13getSubnetMaskEv>:
 4ec:	cf 93       	push	r28
 4ee:	df 93       	push	r29
 4f0:	ec 01       	movw	r28, r24
 4f2:	6e 5e       	subi	r22, 0xEE	; 238
 4f4:	7f 4f       	sbci	r23, 0xFF	; 255
 4f6:	0e 94 00 00 	call	0	; 0x0 <_ZN9DhcpClass16reset_DHCP_leaseEv>
 4fa:	ce 01       	movw	r24, r28
 4fc:	df 91       	pop	r29
 4fe:	cf 91       	pop	r28
 500:	08 95       	ret

00000502 <_ZN9DhcpClass12getGatewayIpEv>:
 502:	cf 93       	push	r28
 504:	df 93       	push	r29
 506:	ec 01       	movw	r28, r24
 508:	6a 5e       	subi	r22, 0xEA	; 234
 50a:	7f 4f       	sbci	r23, 0xFF	; 255
 50c:	0e 94 00 00 	call	0	; 0x0 <_ZN9DhcpClass16reset_DHCP_leaseEv>
 510:	ce 01       	movw	r24, r28
 512:	df 91       	pop	r29
 514:	cf 91       	pop	r28
 516:	08 95       	ret

00000518 <_ZN9DhcpClass15getDhcpServerIpEv>:
 518:	cf 93       	push	r28
 51a:	df 93       	push	r29
 51c:	ec 01       	movw	r28, r24
 51e:	66 5e       	subi	r22, 0xE6	; 230
 520:	7f 4f       	sbci	r23, 0xFF	; 255
 522:	0e 94 00 00 	call	0	; 0x0 <_ZN9DhcpClass16reset_DHCP_leaseEv>
 526:	ce 01       	movw	r24, r28
 528:	df 91       	pop	r29
 52a:	cf 91       	pop	r28
 52c:	08 95       	ret

0000052e <_ZN9DhcpClass14getDnsServerIpEv>:
 52e:	cf 93       	push	r28
 530:	df 93       	push	r29
 532:	ec 01       	movw	r28, r24
 534:	62 5e       	subi	r22, 0xE2	; 226
 536:	7f 4f       	sbci	r23, 0xFF	; 255
 538:	0e 94 00 00 	call	0	; 0x0 <_ZN9DhcpClass16reset_DHCP_leaseEv>
 53c:	ce 01       	movw	r24, r28
 53e:	df 91       	pop	r29
 540:	cf 91       	pop	r28
 542:	08 95       	ret

00000544 <_ZN9DhcpClass9printByteEPch>:
 544:	80 e3       	ldi	r24, 0x30	; 48
 546:	fb 01       	movw	r30, r22
 548:	80 83       	st	Z, r24
 54a:	32 96       	adiw	r30, 0x02	; 2
 54c:	00 c0       	rjmp	.+0      	; 0x54e <_ZN9DhcpClass9printByteEPch+0xa>
 54e:	48 2f       	mov	r20, r24
 550:	84 2f       	mov	r24, r20
 552:	82 95       	swap	r24
 554:	8f 70       	andi	r24, 0x0F	; 15
 556:	4f 70       	andi	r20, 0x0F	; 15
 558:	4a 30       	cpi	r20, 0x0A	; 10
 55a:	00 f4       	brcc	.+0      	; 0x55c <_ZN9DhcpClass9printByteEPch+0x18>
 55c:	40 5d       	subi	r20, 0xD0	; 208
 55e:	00 c0       	rjmp	.+0      	; 0x560 <_ZN9DhcpClass9printByteEPch+0x1c>
 560:	49 5c       	subi	r20, 0xC9	; 201
 562:	42 93       	st	-Z, r20
 564:	88 23       	and	r24, r24
 566:	01 f4       	brne	.+0      	; 0x568 <_ZN9DhcpClass9printByteEPch+0x24>
 568:	08 95       	ret

0000056a <_ZN9DhcpClass17send_DHCP_MESSAGEEhj>:
 56a:	5f 92       	push	r5
 56c:	6f 92       	push	r6
 56e:	7f 92       	push	r7
 570:	8f 92       	push	r8
 572:	9f 92       	push	r9
 574:	af 92       	push	r10
 576:	bf 92       	push	r11
 578:	cf 92       	push	r12
 57a:	df 92       	push	r13
 57c:	ef 92       	push	r14
 57e:	ff 92       	push	r15
 580:	0f 93       	push	r16
 582:	1f 93       	push	r17
 584:	cf 93       	push	r28
 586:	df 93       	push	r29
 588:	cd b7       	in	r28, 0x3d	; 61
 58a:	de b7       	in	r29, 0x3e	; 62
 58c:	ac 97       	sbiw	r28, 0x2c	; 44
 58e:	0f b6       	in	r0, 0x3f	; 63
 590:	f8 94       	cli
 592:	de bf       	out	0x3e, r29	; 62
 594:	0f be       	out	0x3f, r0	; 63
 596:	cd bf       	out	0x3d, r28	; 61
 598:	7c 01       	movw	r14, r24
 59a:	56 2e       	mov	r5, r22
 59c:	84 2e       	mov	r8, r20
 59e:	65 2e       	mov	r6, r21
 5a0:	2d e0       	ldi	r18, 0x0D	; 13
 5a2:	c2 2e       	mov	r12, r18
 5a4:	d1 2c       	mov	r13, r1
 5a6:	cc 0e       	add	r12, r28
 5a8:	dd 1e       	adc	r13, r29
 5aa:	30 e2       	ldi	r19, 0x20	; 32
 5ac:	93 2e       	mov	r9, r19
 5ae:	f6 01       	movw	r30, r12
 5b0:	29 2d       	mov	r18, r9
 5b2:	11 92       	st	Z+, r1
 5b4:	2a 95       	dec	r18
 5b6:	01 f4       	brne	.+0      	; 0x5b8 <_ZN9DhcpClass17send_DHCP_MESSAGEEhj+0x4e>
 5b8:	ce 01       	movw	r24, r28
 5ba:	07 96       	adiw	r24, 0x07	; 7
 5bc:	6f ef       	ldi	r22, 0xFF	; 255
 5be:	4f ef       	ldi	r20, 0xFF	; 255
 5c0:	2f ef       	ldi	r18, 0xFF	; 255
 5c2:	0f ef       	ldi	r16, 0xFF	; 255
 5c4:	0e 94 00 00 	call	0	; 0x0 <_ZN9DhcpClass16reset_DHCP_leaseEv>
 5c8:	47 e4       	ldi	r20, 0x47	; 71
 5ca:	a4 2e       	mov	r10, r20
 5cc:	b1 2c       	mov	r11, r1
 5ce:	ae 0c       	add	r10, r14
 5d0:	bf 1c       	adc	r11, r15
 5d2:	80 e0       	ldi	r24, 0x00	; 0
 5d4:	90 e0       	ldi	r25, 0x00	; 0
 5d6:	9a 83       	std	Y+2, r25	; 0x02
 5d8:	89 83       	std	Y+1, r24	; 0x01
 5da:	89 85       	ldd	r24, Y+9	; 0x09
 5dc:	9a 85       	ldd	r25, Y+10	; 0x0a
 5de:	ab 85       	ldd	r26, Y+11	; 0x0b
 5e0:	bc 85       	ldd	r27, Y+12	; 0x0c
 5e2:	8b 83       	std	Y+3, r24	; 0x03
 5e4:	9c 83       	std	Y+4, r25	; 0x04
 5e6:	ad 83       	std	Y+5, r26	; 0x05
 5e8:	be 83       	std	Y+6, r27	; 0x06
 5ea:	c5 01       	movw	r24, r10
 5ec:	be 01       	movw	r22, r28
 5ee:	6f 5f       	subi	r22, 0xFF	; 255
 5f0:	7f 4f       	sbci	r23, 0xFF	; 255
 5f2:	43 e4       	ldi	r20, 0x43	; 67
 5f4:	50 e0       	ldi	r21, 0x00	; 0
 5f6:	0e 94 00 00 	call	0	; 0x0 <_ZN9DhcpClass16reset_DHCP_leaseEv>
 5fa:	ef ef       	ldi	r30, 0xFF	; 255
 5fc:	8f 3f       	cpi	r24, 0xFF	; 255
 5fe:	9e 07       	cpc	r25, r30
 600:	01 f4       	brne	.+0      	; 0x602 <_ZN9DhcpClass17send_DHCP_MESSAGEEhj+0x98>
 602:	00 c0       	rjmp	.+0      	; 0x604 <_ZN9DhcpClass17send_DHCP_MESSAGEEhj+0x9a>
 604:	81 e0       	ldi	r24, 0x01	; 1
 606:	8d 87       	std	Y+13, r24	; 0x0d
 608:	8e 87       	std	Y+14, r24	; 0x0e
 60a:	86 e0       	ldi	r24, 0x06	; 6
 60c:	8f 87       	std	Y+15, r24	; 0x0f
 60e:	18 8a       	std	Y+16, r1	; 0x10
 610:	f7 01       	movw	r30, r14
 612:	04 81       	ldd	r16, Z+4	; 0x04
 614:	15 81       	ldd	r17, Z+5	; 0x05
 616:	26 81       	ldd	r18, Z+6	; 0x06
 618:	37 81       	ldd	r19, Z+7	; 0x07
 61a:	43 2f       	mov	r20, r19
 61c:	55 27       	eor	r21, r21
 61e:	66 27       	eor	r22, r22
 620:	77 27       	eor	r23, r23
 622:	b0 2f       	mov	r27, r16
 624:	aa 27       	eor	r26, r26
 626:	99 27       	eor	r25, r25
 628:	88 27       	eor	r24, r24
 62a:	48 2b       	or	r20, r24
 62c:	59 2b       	or	r21, r25
 62e:	6a 2b       	or	r22, r26
 630:	7b 2b       	or	r23, r27
 632:	b2 2f       	mov	r27, r18
 634:	a1 2f       	mov	r26, r17
 636:	90 2f       	mov	r25, r16
 638:	88 27       	eor	r24, r24
 63a:	80 70       	andi	r24, 0x00	; 0
 63c:	90 70       	andi	r25, 0x00	; 0
 63e:	b0 70       	andi	r27, 0x00	; 0
 640:	48 2b       	or	r20, r24
 642:	59 2b       	or	r21, r25
 644:	6a 2b       	or	r22, r26
 646:	7b 2b       	or	r23, r27
 648:	bb 27       	eor	r27, r27
 64a:	a3 2f       	mov	r26, r19
 64c:	92 2f       	mov	r25, r18
 64e:	81 2f       	mov	r24, r17
 650:	80 70       	andi	r24, 0x00	; 0
 652:	a0 70       	andi	r26, 0x00	; 0
 654:	b0 70       	andi	r27, 0x00	; 0
 656:	48 2b       	or	r20, r24
 658:	59 2b       	or	r21, r25
 65a:	6a 2b       	or	r22, r26
 65c:	7b 2b       	or	r23, r27
 65e:	49 8b       	std	Y+17, r20	; 0x11
 660:	5a 8b       	std	Y+18, r21	; 0x12
 662:	6b 8b       	std	Y+19, r22	; 0x13
 664:	7c 8b       	std	Y+20, r23	; 0x14
 666:	6d 8a       	std	Y+21, r6	; 0x15
 668:	8e 8a       	std	Y+22, r8	; 0x16
 66a:	80 e8       	ldi	r24, 0x80	; 128
 66c:	90 e0       	ldi	r25, 0x00	; 0
 66e:	98 8f       	std	Y+24, r25	; 0x18
 670:	8f 8b       	std	Y+23, r24	; 0x17
 672:	c5 01       	movw	r24, r10
 674:	b6 01       	movw	r22, r12
 676:	4c e1       	ldi	r20, 0x1C	; 28
 678:	50 e0       	ldi	r21, 0x00	; 0
 67a:	0e 94 00 00 	call	0	; 0x0 <_ZN9DhcpClass16reset_DHCP_leaseEv>
 67e:	f6 01       	movw	r30, r12
 680:	11 92       	st	Z+, r1
 682:	9a 94       	dec	r9
 684:	01 f4       	brne	.+0      	; 0x686 <_ZN9DhcpClass17send_DHCP_MESSAGEEhj+0x11c>
 686:	88 e0       	ldi	r24, 0x08	; 8
 688:	68 2e       	mov	r6, r24
 68a:	71 2c       	mov	r7, r1
 68c:	6e 0c       	add	r6, r14
 68e:	7f 1c       	adc	r7, r15
 690:	f6 01       	movw	r30, r12
 692:	d3 01       	movw	r26, r6
 694:	86 e0       	ldi	r24, 0x06	; 6
 696:	0d 90       	ld	r0, X+
 698:	01 92       	st	Z+, r0
 69a:	81 50       	subi	r24, 0x01	; 1
 69c:	01 f4       	brne	.+0      	; 0x69e <_ZN9DhcpClass17send_DHCP_MESSAGEEhj+0x134>
 69e:	fd e0       	ldi	r31, 0x0D	; 13
 6a0:	cf 2e       	mov	r12, r31
 6a2:	d1 2c       	mov	r13, r1
 6a4:	cc 0e       	add	r12, r28
 6a6:	dd 1e       	adc	r13, r29
 6a8:	c5 01       	movw	r24, r10
 6aa:	b6 01       	movw	r22, r12
 6ac:	40 e1       	ldi	r20, 0x10	; 16
 6ae:	50 e0       	ldi	r21, 0x00	; 0
 6b0:	0e 94 00 00 	call	0	; 0x0 <_ZN9DhcpClass16reset_DHCP_leaseEv>
 6b4:	80 e2       	ldi	r24, 0x20	; 32
 6b6:	f6 01       	movw	r30, r12
 6b8:	11 92       	st	Z+, r1
 6ba:	8a 95       	dec	r24
 6bc:	01 f4       	brne	.+0      	; 0x6be <_ZN9DhcpClass17send_DHCP_MESSAGEEhj+0x154>
 6be:	06 e0       	ldi	r16, 0x06	; 6
 6c0:	10 e0       	ldi	r17, 0x00	; 0
 6c2:	9c 2c       	mov	r9, r12
 6c4:	cd 2c       	mov	r12, r13
 6c6:	c5 01       	movw	r24, r10
 6c8:	69 2d       	mov	r22, r9
 6ca:	7c 2d       	mov	r23, r12
 6cc:	40 e2       	ldi	r20, 0x20	; 32
 6ce:	50 e0       	ldi	r21, 0x00	; 0
 6d0:	0e 94 00 00 	call	0	; 0x0 <_ZN9DhcpClass16reset_DHCP_leaseEv>
 6d4:	01 50       	subi	r16, 0x01	; 1
 6d6:	10 40       	sbci	r17, 0x00	; 0
 6d8:	01 f4       	brne	.+0      	; 0x6da <_ZN9DhcpClass17send_DHCP_MESSAGEEhj+0x170>
 6da:	83 e6       	ldi	r24, 0x63	; 99
 6dc:	8d 87       	std	Y+13, r24	; 0x0d
 6de:	92 e8       	ldi	r25, 0x82	; 130
 6e0:	9e 87       	std	Y+14, r25	; 0x0e
 6e2:	93 e5       	ldi	r25, 0x53	; 83
 6e4:	9f 87       	std	Y+15, r25	; 0x0f
 6e6:	88 8b       	std	Y+16, r24	; 0x10
 6e8:	85 e3       	ldi	r24, 0x35	; 53
 6ea:	89 8b       	std	Y+17, r24	; 0x11
 6ec:	81 e0       	ldi	r24, 0x01	; 1
 6ee:	8a 8b       	std	Y+18, r24	; 0x12
 6f0:	5b 8a       	std	Y+19, r5	; 0x13
 6f2:	9d e3       	ldi	r25, 0x3D	; 61
 6f4:	9c 8b       	std	Y+20, r25	; 0x14
 6f6:	97 e0       	ldi	r25, 0x07	; 7
 6f8:	9d 8b       	std	Y+21, r25	; 0x15
 6fa:	8e 8b       	std	Y+22, r24	; 0x16
 6fc:	de 01       	movw	r26, r28
 6fe:	57 96       	adiw	r26, 0x17	; 23
 700:	f3 01       	movw	r30, r6
 702:	86 e0       	ldi	r24, 0x06	; 6
 704:	01 90       	ld	r0, Z+
 706:	0d 92       	st	X+, r0
 708:	81 50       	subi	r24, 0x01	; 1
 70a:	01 f4       	brne	.+0      	; 0x70c <_ZN9DhcpClass17send_DHCP_MESSAGEEhj+0x1a2>
 70c:	8c e0       	ldi	r24, 0x0C	; 12
 70e:	8d 8f       	std	Y+29, r24	; 0x1d
 710:	8e 8f       	std	Y+30, r24	; 0x1e
 712:	ce 01       	movw	r24, r28
 714:	4f 96       	adiw	r24, 0x1f	; 31
 716:	60 e0       	ldi	r22, 0x00	; 0
 718:	70 e0       	ldi	r23, 0x00	; 0
 71a:	0e 94 00 00 	call	0	; 0x0 <_ZN9DhcpClass16reset_DHCP_leaseEv>
 71e:	c7 01       	movw	r24, r14
 720:	be 01       	movw	r22, r28
 722:	6b 5d       	subi	r22, 0xDB	; 219
 724:	7f 4f       	sbci	r23, 0xFF	; 255
 726:	f7 01       	movw	r30, r14
 728:	43 85       	ldd	r20, Z+11	; 0x0b
 72a:	0e 94 00 00 	call	0	; 0x0 <_ZN9DhcpClass16reset_DHCP_leaseEv>
 72e:	c7 01       	movw	r24, r14
 730:	be 01       	movw	r22, r28
 732:	69 5d       	subi	r22, 0xD9	; 217
 734:	7f 4f       	sbci	r23, 0xFF	; 255
 736:	f7 01       	movw	r30, r14
 738:	44 85       	ldd	r20, Z+12	; 0x0c
 73a:	0e 94 00 00 	call	0	; 0x0 <_ZN9DhcpClass16reset_DHCP_leaseEv>
 73e:	c7 01       	movw	r24, r14
 740:	be 01       	movw	r22, r28
 742:	67 5d       	subi	r22, 0xD7	; 215
 744:	7f 4f       	sbci	r23, 0xFF	; 255
 746:	f7 01       	movw	r30, r14
 748:	45 85       	ldd	r20, Z+13	; 0x0d
 74a:	0e 94 00 00 	call	0	; 0x0 <_ZN9DhcpClass16reset_DHCP_leaseEv>
 74e:	c5 01       	movw	r24, r10
 750:	be 01       	movw	r22, r28
 752:	63 5f       	subi	r22, 0xF3	; 243
 754:	7f 4f       	sbci	r23, 0xFF	; 255
 756:	4e e1       	ldi	r20, 0x1E	; 30
 758:	50 e0       	ldi	r21, 0x00	; 0
 75a:	0e 94 00 00 	call	0	; 0x0 <_ZN9DhcpClass16reset_DHCP_leaseEv>
 75e:	f3 e0       	ldi	r31, 0x03	; 3
 760:	5f 16       	cp	r5, r31
 762:	01 f4       	brne	.+0      	; 0x764 <_ZN9DhcpClass17send_DHCP_MESSAGEEhj+0x1fa>
 764:	82 e3       	ldi	r24, 0x32	; 50
 766:	8d 87       	std	Y+13, r24	; 0x0d
 768:	84 e0       	ldi	r24, 0x04	; 4
 76a:	8e 87       	std	Y+14, r24	; 0x0e
 76c:	f7 01       	movw	r30, r14
 76e:	96 85       	ldd	r25, Z+14	; 0x0e
 770:	9f 87       	std	Y+15, r25	; 0x0f
 772:	97 85       	ldd	r25, Z+15	; 0x0f
 774:	98 8b       	std	Y+16, r25	; 0x10
 776:	90 89       	ldd	r25, Z+16	; 0x10
 778:	99 8b       	std	Y+17, r25	; 0x11
 77a:	91 89       	ldd	r25, Z+17	; 0x11
 77c:	9a 8b       	std	Y+18, r25	; 0x12
 77e:	96 e3       	ldi	r25, 0x36	; 54
 780:	9b 8b       	std	Y+19, r25	; 0x13
 782:	8c 8b       	std	Y+20, r24	; 0x14
 784:	82 8d       	ldd	r24, Z+26	; 0x1a
 786:	8d 8b       	std	Y+21, r24	; 0x15
 788:	83 8d       	ldd	r24, Z+27	; 0x1b
 78a:	8e 8b       	std	Y+22, r24	; 0x16
 78c:	84 8d       	ldd	r24, Z+28	; 0x1c
 78e:	8f 8b       	std	Y+23, r24	; 0x17
 790:	85 8d       	ldd	r24, Z+29	; 0x1d
 792:	88 8f       	std	Y+24, r24	; 0x18
 794:	c5 01       	movw	r24, r10
 796:	be 01       	movw	r22, r28
 798:	63 5f       	subi	r22, 0xF3	; 243
 79a:	7f 4f       	sbci	r23, 0xFF	; 255
 79c:	4c e0       	ldi	r20, 0x0C	; 12
 79e:	50 e0       	ldi	r21, 0x00	; 0
 7a0:	0e 94 00 00 	call	0	; 0x0 <_ZN9DhcpClass16reset_DHCP_leaseEv>
 7a4:	87 e3       	ldi	r24, 0x37	; 55
 7a6:	8d 87       	std	Y+13, r24	; 0x0d
 7a8:	86 e0       	ldi	r24, 0x06	; 6
 7aa:	8e 87       	std	Y+14, r24	; 0x0e
 7ac:	91 e0       	ldi	r25, 0x01	; 1
 7ae:	9f 87       	std	Y+15, r25	; 0x0f
 7b0:	93 e0       	ldi	r25, 0x03	; 3
 7b2:	98 8b       	std	Y+16, r25	; 0x10
 7b4:	89 8b       	std	Y+17, r24	; 0x11
 7b6:	8f e0       	ldi	r24, 0x0F	; 15
 7b8:	8a 8b       	std	Y+18, r24	; 0x12
 7ba:	8a e3       	ldi	r24, 0x3A	; 58
 7bc:	8b 8b       	std	Y+19, r24	; 0x13
 7be:	8b e3       	ldi	r24, 0x3B	; 59
 7c0:	8c 8b       	std	Y+20, r24	; 0x14
 7c2:	8f ef       	ldi	r24, 0xFF	; 255
 7c4:	8d 8b       	std	Y+21, r24	; 0x15
 7c6:	c5 01       	movw	r24, r10
 7c8:	be 01       	movw	r22, r28
 7ca:	63 5f       	subi	r22, 0xF3	; 243
 7cc:	7f 4f       	sbci	r23, 0xFF	; 255
 7ce:	49 e0       	ldi	r20, 0x09	; 9
 7d0:	50 e0       	ldi	r21, 0x00	; 0
 7d2:	0e 94 00 00 	call	0	; 0x0 <_ZN9DhcpClass16reset_DHCP_leaseEv>
 7d6:	c5 01       	movw	r24, r10
 7d8:	0e 94 00 00 	call	0	; 0x0 <_ZN9DhcpClass16reset_DHCP_leaseEv>
 7dc:	ac 96       	adiw	r28, 0x2c	; 44
 7de:	0f b6       	in	r0, 0x3f	; 63
 7e0:	f8 94       	cli
 7e2:	de bf       	out	0x3e, r29	; 62
 7e4:	0f be       	out	0x3f, r0	; 63
 7e6:	cd bf       	out	0x3d, r28	; 61
 7e8:	df 91       	pop	r29
 7ea:	cf 91       	pop	r28
 7ec:	1f 91       	pop	r17
 7ee:	0f 91       	pop	r16
 7f0:	ff 90       	pop	r15
 7f2:	ef 90       	pop	r14
 7f4:	df 90       	pop	r13
 7f6:	cf 90       	pop	r12
 7f8:	bf 90       	pop	r11
 7fa:	af 90       	pop	r10
 7fc:	9f 90       	pop	r9
 7fe:	8f 90       	pop	r8
 800:	7f 90       	pop	r7
 802:	6f 90       	pop	r6
 804:	5f 90       	pop	r5
 806:	08 95       	ret

00000808 <_ZN9DhcpClass18request_DHCP_leaseEv>:
 808:	2f 92       	push	r2
 80a:	3f 92       	push	r3
 80c:	4f 92       	push	r4
 80e:	5f 92       	push	r5
 810:	6f 92       	push	r6
 812:	7f 92       	push	r7
 814:	8f 92       	push	r8
 816:	9f 92       	push	r9
 818:	af 92       	push	r10
 81a:	bf 92       	push	r11
 81c:	cf 92       	push	r12
 81e:	df 92       	push	r13
 820:	ef 92       	push	r14
 822:	ff 92       	push	r15
 824:	0f 93       	push	r16
 826:	1f 93       	push	r17
 828:	cf 93       	push	r28
 82a:	df 93       	push	r29
 82c:	cd b7       	in	r28, 0x3d	; 61
 82e:	de b7       	in	r29, 0x3e	; 62
 830:	28 97       	sbiw	r28, 0x08	; 8
 832:	0f b6       	in	r0, 0x3f	; 63
 834:	f8 94       	cli
 836:	de bf       	out	0x3e, r29	; 62
 838:	0f be       	out	0x3f, r0	; 63
 83a:	cd bf       	out	0x3d, r28	; 61
 83c:	8c 01       	movw	r16, r24
 83e:	61 e0       	ldi	r22, 0x01	; 1
 840:	70 e0       	ldi	r23, 0x00	; 0
 842:	80 e0       	ldi	r24, 0x00	; 0
 844:	90 e0       	ldi	r25, 0x00	; 0
 846:	20 ed       	ldi	r18, 0xD0	; 208
 848:	37 e0       	ldi	r19, 0x07	; 7
 84a:	40 e0       	ldi	r20, 0x00	; 0
 84c:	50 e0       	ldi	r21, 0x00	; 0
 84e:	0e 94 00 00 	call	0	; 0x0 <_ZN9DhcpClass16reset_DHCP_leaseEv>
 852:	d8 01       	movw	r26, r16
 854:	14 96       	adiw	r26, 0x04	; 4
 856:	6c 93       	st	X, r22
 858:	14 97       	sbiw	r26, 0x04	; 4
 85a:	15 96       	adiw	r26, 0x05	; 5
 85c:	7c 93       	st	X, r23
 85e:	15 97       	sbiw	r26, 0x05	; 5
 860:	16 96       	adiw	r26, 0x06	; 6
 862:	8c 93       	st	X, r24
 864:	16 97       	sbiw	r26, 0x06	; 6
 866:	17 96       	adiw	r26, 0x07	; 7
 868:	9c 93       	st	X, r25
 86a:	17 97       	sbiw	r26, 0x07	; 7
 86c:	6c 93       	st	X, r22
 86e:	11 96       	adiw	r26, 0x01	; 1
 870:	7c 93       	st	X, r23
 872:	11 97       	sbiw	r26, 0x01	; 1
 874:	12 96       	adiw	r26, 0x02	; 2
 876:	8c 93       	st	X, r24
 878:	12 97       	sbiw	r26, 0x02	; 2
 87a:	13 96       	adiw	r26, 0x03	; 3
 87c:	9c 93       	st	X, r25
 87e:	f8 01       	movw	r30, r16
 880:	e9 5b       	subi	r30, 0xB9	; 185
 882:	ff 4f       	sbci	r31, 0xFF	; 255
 884:	fe 83       	std	Y+6, r31	; 0x06
 886:	ed 83       	std	Y+5, r30	; 0x05
 888:	cf 01       	movw	r24, r30
 88a:	64 e4       	ldi	r22, 0x44	; 68
 88c:	70 e0       	ldi	r23, 0x00	; 0
 88e:	0e 94 00 00 	call	0	; 0x0 <_ZN9DhcpClass16reset_DHCP_leaseEv>
 892:	88 23       	and	r24, r24
 894:	01 f4       	brne	.+0      	; 0x896 <_ZN9DhcpClass18request_DHCP_leaseEv+0x8e>
 896:	00 c0       	rjmp	.+0      	; 0x898 <_ZN9DhcpClass18request_DHCP_leaseEv+0x90>
 898:	0e 94 00 00 	call	0	; 0x0 <_ZN9DhcpClass16reset_DHCP_leaseEv>
 89c:	4b 01       	movw	r8, r22
 89e:	5c 01       	movw	r10, r24
 8a0:	22 24       	eor	r2, r2
 8a2:	33 24       	eor	r3, r3
 8a4:	ff 24       	eor	r15, r15
 8a6:	56 e4       	ldi	r21, 0x46	; 70
 8a8:	c5 2e       	mov	r12, r21
 8aa:	d1 2c       	mov	r13, r1
 8ac:	c0 0e       	add	r12, r16
 8ae:	d1 1e       	adc	r13, r17
 8b0:	c8 01       	movw	r24, r16
 8b2:	ce 96       	adiw	r24, 0x3e	; 62
 8b4:	98 87       	std	Y+8, r25	; 0x08
 8b6:	8f 83       	std	Y+7, r24	; 0x07
 8b8:	e3 e0       	ldi	r30, 0x03	; 3
 8ba:	ee 2e       	mov	r14, r30
 8bc:	f8 ee       	ldi	r31, 0xE8	; 232
 8be:	4f 2e       	mov	r4, r31
 8c0:	f3 e0       	ldi	r31, 0x03	; 3
 8c2:	5f 2e       	mov	r5, r31
 8c4:	61 2c       	mov	r6, r1
 8c6:	71 2c       	mov	r7, r1
 8c8:	00 c0       	rjmp	.+0      	; 0x8ca <_ZN9DhcpClass18request_DHCP_leaseEv+0xc2>
 8ca:	88 23       	and	r24, r24
 8cc:	01 f4       	brne	.+0      	; 0x8ce <_ZN9DhcpClass18request_DHCP_leaseEv+0xc6>
 8ce:	f8 01       	movw	r30, r16
 8d0:	84 81       	ldd	r24, Z+4	; 0x04
 8d2:	95 81       	ldd	r25, Z+5	; 0x05
 8d4:	a6 81       	ldd	r26, Z+6	; 0x06
 8d6:	b7 81       	ldd	r27, Z+7	; 0x07
 8d8:	01 96       	adiw	r24, 0x01	; 1
 8da:	a1 1d       	adc	r26, r1
 8dc:	b1 1d       	adc	r27, r1
 8de:	84 83       	std	Z+4, r24	; 0x04
 8e0:	95 83       	std	Z+5, r25	; 0x05
 8e2:	a6 83       	std	Z+6, r26	; 0x06
 8e4:	b7 83       	std	Z+7, r27	; 0x07
 8e6:	0e 94 00 00 	call	0	; 0x0 <_ZN9DhcpClass16reset_DHCP_leaseEv>
 8ea:	68 19       	sub	r22, r8
 8ec:	79 09       	sbc	r23, r9
 8ee:	8a 09       	sbc	r24, r10
 8f0:	9b 09       	sbc	r25, r11
 8f2:	a3 01       	movw	r20, r6
 8f4:	92 01       	movw	r18, r4
 8f6:	0e 94 00 00 	call	0	; 0x0 <_ZN9DhcpClass16reset_DHCP_leaseEv>
 8fa:	c8 01       	movw	r24, r16
 8fc:	61 e0       	ldi	r22, 0x01	; 1
 8fe:	a9 01       	movw	r20, r18
 900:	0e 94 00 00 	call	0	; 0x0 <_ZN9DhcpClass16reset_DHCP_leaseEv>
 904:	81 e0       	ldi	r24, 0x01	; 1
 906:	d6 01       	movw	r26, r12
 908:	8c 93       	st	X, r24
 90a:	00 c0       	rjmp	.+0      	; 0x90c <_ZN9DhcpClass18request_DHCP_leaseEv+0x104>
 90c:	84 30       	cpi	r24, 0x04	; 4
 90e:	01 f4       	brne	.+0      	; 0x910 <_ZN9DhcpClass18request_DHCP_leaseEv+0x108>
 910:	f8 01       	movw	r30, r16
 912:	84 81       	ldd	r24, Z+4	; 0x04
 914:	95 81       	ldd	r25, Z+5	; 0x05
 916:	a6 81       	ldd	r26, Z+6	; 0x06
 918:	b7 81       	ldd	r27, Z+7	; 0x07
 91a:	01 96       	adiw	r24, 0x01	; 1
 91c:	a1 1d       	adc	r26, r1
 91e:	b1 1d       	adc	r27, r1
 920:	84 83       	std	Z+4, r24	; 0x04
 922:	95 83       	std	Z+5, r25	; 0x05
 924:	a6 83       	std	Z+6, r26	; 0x06
 926:	b7 83       	std	Z+7, r27	; 0x07
 928:	0e 94 00 00 	call	0	; 0x0 <_ZN9DhcpClass16reset_DHCP_leaseEv>
 92c:	68 19       	sub	r22, r8
 92e:	79 09       	sbc	r23, r9
 930:	8a 09       	sbc	r24, r10
 932:	9b 09       	sbc	r25, r11
 934:	a3 01       	movw	r20, r6
 936:	92 01       	movw	r18, r4
 938:	0e 94 00 00 	call	0	; 0x0 <_ZN9DhcpClass16reset_DHCP_leaseEv>
 93c:	c8 01       	movw	r24, r16
 93e:	63 e0       	ldi	r22, 0x03	; 3
 940:	a9 01       	movw	r20, r18
 942:	0e 94 00 00 	call	0	; 0x0 <_ZN9DhcpClass16reset_DHCP_leaseEv>
 946:	e2 e0       	ldi	r30, 0x02	; 2
 948:	d6 01       	movw	r26, r12
 94a:	ec 93       	st	X, r30
 94c:	00 c0       	rjmp	.+0      	; 0x94e <_ZN9DhcpClass18request_DHCP_leaseEv+0x146>
 94e:	81 30       	cpi	r24, 0x01	; 1
 950:	01 f4       	brne	.+0      	; 0x952 <_ZN9DhcpClass18request_DHCP_leaseEv+0x14a>
 952:	af 81       	ldd	r26, Y+7	; 0x07
 954:	b8 85       	ldd	r27, Y+8	; 0x08
 956:	4d 91       	ld	r20, X+
 958:	5d 91       	ld	r21, X+
 95a:	6d 91       	ld	r22, X+
 95c:	7c 91       	ld	r23, X
 95e:	c8 01       	movw	r24, r16
 960:	9e 01       	movw	r18, r28
 962:	2f 5f       	subi	r18, 0xFF	; 255
 964:	3f 4f       	sbci	r19, 0xFF	; 255
 966:	0e 94 00 00 	call	0	; 0x0 <_ZN9DhcpClass16reset_DHCP_leaseEv>
 96a:	f8 2e       	mov	r15, r24
 96c:	b2 e0       	ldi	r27, 0x02	; 2
 96e:	8b 17       	cp	r24, r27
 970:	01 f0       	breq	.+0      	; 0x972 <_ZN9DhcpClass18request_DHCP_leaseEv+0x16a>
 972:	00 c0       	rjmp	.+0      	; 0x974 <_ZN9DhcpClass18request_DHCP_leaseEv+0x16c>
 974:	89 81       	ldd	r24, Y+1	; 0x01
 976:	9a 81       	ldd	r25, Y+2	; 0x02
 978:	ab 81       	ldd	r26, Y+3	; 0x03
 97a:	bc 81       	ldd	r27, Y+4	; 0x04
 97c:	f8 01       	movw	r30, r16
 97e:	84 83       	std	Z+4, r24	; 0x04
 980:	95 83       	std	Z+5, r25	; 0x05
 982:	a6 83       	std	Z+6, r26	; 0x06
 984:	b7 83       	std	Z+7, r27	; 0x07
 986:	0e 94 00 00 	call	0	; 0x0 <_ZN9DhcpClass16reset_DHCP_leaseEv>
 98a:	68 19       	sub	r22, r8
 98c:	79 09       	sbc	r23, r9
 98e:	8a 09       	sbc	r24, r10
 990:	9b 09       	sbc	r25, r11
 992:	a3 01       	movw	r20, r6
 994:	92 01       	movw	r18, r4
 996:	0e 94 00 00 	call	0	; 0x0 <_ZN9DhcpClass16reset_DHCP_leaseEv>
 99a:	c8 01       	movw	r24, r16
 99c:	63 e0       	ldi	r22, 0x03	; 3
 99e:	a9 01       	movw	r20, r18
 9a0:	0e 94 00 00 	call	0	; 0x0 <_ZN9DhcpClass16reset_DHCP_leaseEv>
 9a4:	d6 01       	movw	r26, r12
 9a6:	fc 92       	st	X, r15
 9a8:	00 c0       	rjmp	.+0      	; 0x9aa <_ZN9DhcpClass18request_DHCP_leaseEv+0x1a2>
 9aa:	82 30       	cpi	r24, 0x02	; 2
 9ac:	01 f0       	breq	.+0      	; 0x9ae <_ZN9DhcpClass18request_DHCP_leaseEv+0x1a6>
 9ae:	00 c0       	rjmp	.+0      	; 0x9b0 <_ZN9DhcpClass18request_DHCP_leaseEv+0x1a8>
 9b0:	ef 81       	ldd	r30, Y+7	; 0x07
 9b2:	f8 85       	ldd	r31, Y+8	; 0x08
 9b4:	40 81       	ld	r20, Z
 9b6:	51 81       	ldd	r21, Z+1	; 0x01
 9b8:	62 81       	ldd	r22, Z+2	; 0x02
 9ba:	73 81       	ldd	r23, Z+3	; 0x03
 9bc:	c8 01       	movw	r24, r16
 9be:	9e 01       	movw	r18, r28
 9c0:	2f 5f       	subi	r18, 0xFF	; 255
 9c2:	3f 4f       	sbci	r19, 0xFF	; 255
 9c4:	0e 94 00 00 	call	0	; 0x0 <_ZN9DhcpClass16reset_DHCP_leaseEv>
 9c8:	f8 2e       	mov	r15, r24
 9ca:	f5 e0       	ldi	r31, 0x05	; 5
 9cc:	8f 17       	cp	r24, r31
 9ce:	01 f0       	breq	.+0      	; 0x9d0 <_ZN9DhcpClass18request_DHCP_leaseEv+0x1c8>
 9d0:	00 c0       	rjmp	.+0      	; 0x9d2 <_ZN9DhcpClass18request_DHCP_leaseEv+0x1ca>
 9d2:	d6 01       	movw	r26, r12
 9d4:	ec 92       	st	X, r14
 9d6:	f8 01       	movw	r30, r16
 9d8:	82 a1       	ldd	r24, Z+34	; 0x22
 9da:	93 a1       	ldd	r25, Z+35	; 0x23
 9dc:	a4 a1       	ldd	r26, Z+36	; 0x24
 9de:	b5 a1       	ldd	r27, Z+37	; 0x25
 9e0:	00 97       	sbiw	r24, 0x00	; 0
 9e2:	a1 05       	cpc	r26, r1
 9e4:	b1 05       	cpc	r27, r1
 9e6:	01 f4       	brne	.+0      	; 0x9e8 <_ZN9DhcpClass18request_DHCP_leaseEv+0x1e0>
 9e8:	84 e8       	ldi	r24, 0x84	; 132
 9ea:	93 e0       	ldi	r25, 0x03	; 3
 9ec:	a0 e0       	ldi	r26, 0x00	; 0
 9ee:	b0 e0       	ldi	r27, 0x00	; 0
 9f0:	82 a3       	std	Z+34, r24	; 0x22
 9f2:	93 a3       	std	Z+35, r25	; 0x23
 9f4:	a4 a3       	std	Z+36, r26	; 0x24
 9f6:	b5 a3       	std	Z+37, r27	; 0x25
 9f8:	f8 01       	movw	r30, r16
 9fa:	86 a1       	ldd	r24, Z+38	; 0x26
 9fc:	97 a1       	ldd	r25, Z+39	; 0x27
 9fe:	a0 a5       	ldd	r26, Z+40	; 0x28
 a00:	b1 a5       	ldd	r27, Z+41	; 0x29
 a02:	00 97       	sbiw	r24, 0x00	; 0
 a04:	a1 05       	cpc	r26, r1
 a06:	b1 05       	cpc	r27, r1
 a08:	01 f4       	brne	.+0      	; 0xa0a <_ZN9DhcpClass18request_DHCP_leaseEv+0x202>
 a0a:	82 a1       	ldd	r24, Z+34	; 0x22
 a0c:	93 a1       	ldd	r25, Z+35	; 0x23
 a0e:	a4 a1       	ldd	r26, Z+36	; 0x24
 a10:	b5 a1       	ldd	r27, Z+37	; 0x25
 a12:	b6 95       	lsr	r27
 a14:	a7 95       	ror	r26
 a16:	97 95       	ror	r25
 a18:	87 95       	ror	r24
 a1a:	86 a3       	std	Z+38, r24	; 0x26
 a1c:	97 a3       	std	Z+39, r25	; 0x27
 a1e:	a0 a7       	std	Z+40, r26	; 0x28
 a20:	b1 a7       	std	Z+41, r27	; 0x29
 a22:	f8 01       	movw	r30, r16
 a24:	82 a5       	ldd	r24, Z+42	; 0x2a
 a26:	93 a5       	ldd	r25, Z+43	; 0x2b
 a28:	a4 a5       	ldd	r26, Z+44	; 0x2c
 a2a:	b5 a5       	ldd	r27, Z+45	; 0x2d
 a2c:	46 a1       	ldd	r20, Z+38	; 0x26
 a2e:	57 a1       	ldd	r21, Z+39	; 0x27
 a30:	60 a5       	ldd	r22, Z+40	; 0x28
 a32:	71 a5       	ldd	r23, Z+41	; 0x29
 a34:	00 97       	sbiw	r24, 0x00	; 0
 a36:	a1 05       	cpc	r26, r1
 a38:	b1 05       	cpc	r27, r1
 a3a:	01 f4       	brne	.+0      	; 0xa3c <_ZN9DhcpClass18request_DHCP_leaseEv+0x234>
 a3c:	db 01       	movw	r26, r22
 a3e:	ca 01       	movw	r24, r20
 a40:	88 0f       	add	r24, r24
 a42:	99 1f       	adc	r25, r25
 a44:	aa 1f       	adc	r26, r26
 a46:	bb 1f       	adc	r27, r27
 a48:	82 a7       	std	Z+42, r24	; 0x2a
 a4a:	93 a7       	std	Z+43, r25	; 0x2b
 a4c:	a4 a7       	std	Z+44, r26	; 0x2c
 a4e:	b5 a7       	std	Z+45, r27	; 0x2d
 a50:	d8 01       	movw	r26, r16
 a52:	9e 96       	adiw	r26, 0x2e	; 46
 a54:	4d 93       	st	X+, r20
 a56:	5d 93       	st	X+, r21
 a58:	6d 93       	st	X+, r22
 a5a:	7c 93       	st	X, r23
 a5c:	d1 97       	sbiw	r26, 0x31	; 49
 a5e:	9a 96       	adiw	r26, 0x2a	; 42
 a60:	8d 91       	ld	r24, X+
 a62:	9d 91       	ld	r25, X+
 a64:	0d 90       	ld	r0, X+
 a66:	bc 91       	ld	r27, X
 a68:	a0 2d       	mov	r26, r0
 a6a:	f8 01       	movw	r30, r16
 a6c:	82 ab       	std	Z+50, r24	; 0x32
 a6e:	93 ab       	std	Z+51, r25	; 0x33
 a70:	a4 ab       	std	Z+52, r26	; 0x34
 a72:	b5 ab       	std	Z+53, r27	; 0x35
 a74:	21 e0       	ldi	r18, 0x01	; 1
 a76:	22 2e       	mov	r2, r18
 a78:	31 2c       	mov	r3, r1
 a7a:	00 c0       	rjmp	.+0      	; 0xa7c <_ZN9DhcpClass18request_DHCP_leaseEv+0x274>
 a7c:	f6 e0       	ldi	r31, 0x06	; 6
 a7e:	8f 17       	cp	r24, r31
 a80:	01 f4       	brne	.+0      	; 0xa82 <_ZN9DhcpClass18request_DHCP_leaseEv+0x27a>
 a82:	d6 01       	movw	r26, r12
 a84:	1c 92       	st	X, r1
 a86:	00 c0       	rjmp	.+0      	; 0xa88 <_ZN9DhcpClass18request_DHCP_leaseEv+0x280>
 a88:	bf ef       	ldi	r27, 0xFF	; 255
 a8a:	fb 16       	cp	r15, r27
 a8c:	01 f4       	brne	.+0      	; 0xa8e <_ZN9DhcpClass18request_DHCP_leaseEv+0x286>
 a8e:	f6 01       	movw	r30, r12
 a90:	10 82       	st	Z, r1
 a92:	ff 24       	eor	r15, r15
 a94:	f1 e0       	ldi	r31, 0x01	; 1
 a96:	2f 16       	cp	r2, r31
 a98:	31 04       	cpc	r3, r1
 a9a:	01 f0       	breq	.+0      	; 0xa9c <_ZN9DhcpClass18request_DHCP_leaseEv+0x294>
 a9c:	0e 94 00 00 	call	0	; 0x0 <_ZN9DhcpClass16reset_DHCP_leaseEv>
 aa0:	dc 01       	movw	r26, r24
 aa2:	cb 01       	movw	r24, r22
 aa4:	88 19       	sub	r24, r8
 aa6:	99 09       	sbc	r25, r9
 aa8:	aa 09       	sbc	r26, r10
 aaa:	bb 09       	sbc	r27, r11
 aac:	f8 01       	movw	r30, r16
 aae:	42 ad       	ldd	r20, Z+58	; 0x3a
 ab0:	53 ad       	ldd	r21, Z+59	; 0x3b
 ab2:	64 ad       	ldd	r22, Z+60	; 0x3c
 ab4:	75 ad       	ldd	r23, Z+61	; 0x3d
 ab6:	48 17       	cp	r20, r24
 ab8:	59 07       	cpc	r21, r25
 aba:	6a 07       	cpc	r22, r26
 abc:	7b 07       	cpc	r23, r27
 abe:	00 f0       	brcs	.+0      	; 0xac0 <_ZN9DhcpClass18request_DHCP_leaseEv+0x2b8>
 ac0:	d6 01       	movw	r26, r12
 ac2:	8c 91       	ld	r24, X
 ac4:	83 30       	cpi	r24, 0x03	; 3
 ac6:	01 f0       	breq	.+0      	; 0xac8 <_ZN9DhcpClass18request_DHCP_leaseEv+0x2c0>
 ac8:	00 c0       	rjmp	.+0      	; 0xaca <_ZN9DhcpClass18request_DHCP_leaseEv+0x2c2>
 aca:	8d 81       	ldd	r24, Y+5	; 0x05
 acc:	9e 81       	ldd	r25, Y+6	; 0x06
 ace:	0e 94 00 00 	call	0	; 0x0 <_ZN9DhcpClass16reset_DHCP_leaseEv>
 ad2:	f8 01       	movw	r30, r16
 ad4:	84 81       	ldd	r24, Z+4	; 0x04
 ad6:	95 81       	ldd	r25, Z+5	; 0x05
 ad8:	a6 81       	ldd	r26, Z+6	; 0x06
 ada:	b7 81       	ldd	r27, Z+7	; 0x07
 adc:	01 96       	adiw	r24, 0x01	; 1
 ade:	a1 1d       	adc	r26, r1
 ae0:	b1 1d       	adc	r27, r1
 ae2:	84 83       	std	Z+4, r24	; 0x04
 ae4:	95 83       	std	Z+5, r25	; 0x05
 ae6:	a6 83       	std	Z+6, r26	; 0x06
 ae8:	b7 83       	std	Z+7, r27	; 0x07
 aea:	00 c0       	rjmp	.+0      	; 0xaec <_ZN9DhcpClass18request_DHCP_leaseEv+0x2e4>
 aec:	22 24       	eor	r2, r2
 aee:	33 24       	eor	r3, r3
 af0:	c1 01       	movw	r24, r2
 af2:	28 96       	adiw	r28, 0x08	; 8
 af4:	0f b6       	in	r0, 0x3f	; 63
 af6:	f8 94       	cli
 af8:	de bf       	out	0x3e, r29	; 62
 afa:	0f be       	out	0x3f, r0	; 63
 afc:	cd bf       	out	0x3d, r28	; 61
 afe:	df 91       	pop	r29
 b00:	cf 91       	pop	r28
 b02:	1f 91       	pop	r17
 b04:	0f 91       	pop	r16
 b06:	ff 90       	pop	r15
 b08:	ef 90       	pop	r14
 b0a:	df 90       	pop	r13
 b0c:	cf 90       	pop	r12
 b0e:	bf 90       	pop	r11
 b10:	af 90       	pop	r10
 b12:	9f 90       	pop	r9
 b14:	8f 90       	pop	r8
 b16:	7f 90       	pop	r7
 b18:	6f 90       	pop	r6
 b1a:	5f 90       	pop	r5
 b1c:	4f 90       	pop	r4
 b1e:	3f 90       	pop	r3
 b20:	2f 90       	pop	r2
 b22:	08 95       	ret

00000b24 <_ZN9DhcpClass10checkLeaseEv>:
 b24:	8f 92       	push	r8
 b26:	9f 92       	push	r9
 b28:	af 92       	push	r10
 b2a:	bf 92       	push	r11
 b2c:	cf 92       	push	r12
 b2e:	df 92       	push	r13
 b30:	ef 92       	push	r14
 b32:	ff 92       	push	r15
 b34:	0f 93       	push	r16
 b36:	1f 93       	push	r17
 b38:	cf 93       	push	r28
 b3a:	df 93       	push	r29
 b3c:	ec 01       	movw	r28, r24
 b3e:	0e 94 00 00 	call	0	; 0x0 <_ZN9DhcpClass16reset_DHCP_leaseEv>
 b42:	4b 01       	movw	r8, r22
 b44:	5c 01       	movw	r10, r24
 b46:	8e a9       	ldd	r24, Y+54	; 0x36
 b48:	9f a9       	ldd	r25, Y+55	; 0x37
 b4a:	a8 ad       	ldd	r26, Y+56	; 0x38
 b4c:	b9 ad       	ldd	r27, Y+57	; 0x39
 b4e:	8e 01       	movw	r16, r28
 b50:	0e 5b       	subi	r16, 0xBE	; 190
 b52:	1f 4f       	sbci	r17, 0xFF	; 255
 b54:	00 97       	sbiw	r24, 0x00	; 0
 b56:	a1 05       	cpc	r26, r1
 b58:	b1 05       	cpc	r27, r1
 b5a:	01 f4       	brne	.+0      	; 0xb5c <_ZN9DhcpClass10checkLeaseEv+0x38>
 b5c:	00 c0       	rjmp	.+0      	; 0xb5e <_ZN9DhcpClass10checkLeaseEv+0x3a>
 b5e:	f8 01       	movw	r30, r16
 b60:	80 81       	ld	r24, Z
 b62:	91 81       	ldd	r25, Z+1	; 0x01
 b64:	a2 81       	ldd	r26, Z+2	; 0x02
 b66:	b3 81       	ldd	r27, Z+3	; 0x03
 b68:	a5 01       	movw	r20, r10
 b6a:	94 01       	movw	r18, r8
 b6c:	28 1b       	sub	r18, r24
 b6e:	39 0b       	sbc	r19, r25
 b70:	4a 0b       	sbc	r20, r26
 b72:	5b 0b       	sbc	r21, r27
 b74:	ca 01       	movw	r24, r20
 b76:	b9 01       	movw	r22, r18
 b78:	57 fd       	sbrc	r21, 7
 b7a:	00 c0       	rjmp	.+0      	; 0xb7c <_ZN9DhcpClass10checkLeaseEv+0x58>
 b7c:	a8 ee       	ldi	r26, 0xE8	; 232
 b7e:	ca 2e       	mov	r12, r26
 b80:	a3 e0       	ldi	r26, 0x03	; 3
 b82:	da 2e       	mov	r13, r26
 b84:	e1 2c       	mov	r14, r1
 b86:	f1 2c       	mov	r15, r1
 b88:	c8 0c       	add	r12, r8
 b8a:	d9 1c       	adc	r13, r9
 b8c:	ea 1c       	adc	r14, r10
 b8e:	fb 1c       	adc	r15, r11
 b90:	28 ee       	ldi	r18, 0xE8	; 232
 b92:	33 e0       	ldi	r19, 0x03	; 3
 b94:	40 e0       	ldi	r20, 0x00	; 0
 b96:	50 e0       	ldi	r21, 0x00	; 0
 b98:	0e 94 00 00 	call	0	; 0x0 <_ZN9DhcpClass16reset_DHCP_leaseEv>
 b9c:	dc 01       	movw	r26, r24
 b9e:	cb 01       	movw	r24, r22
 ba0:	c8 1a       	sub	r12, r24
 ba2:	d9 0a       	sbc	r13, r25
 ba4:	ea 0a       	sbc	r14, r26
 ba6:	fb 0a       	sbc	r15, r27
 ba8:	f8 01       	movw	r30, r16
 baa:	c0 82       	st	Z, r12
 bac:	d1 82       	std	Z+1, r13	; 0x01
 bae:	e2 82       	std	Z+2, r14	; 0x02
 bb0:	f3 82       	std	Z+3, r15	; 0x03
 bb2:	da 01       	movw	r26, r20
 bb4:	c9 01       	movw	r24, r18
 bb6:	01 96       	adiw	r24, 0x01	; 1
 bb8:	a1 1d       	adc	r26, r1
 bba:	b1 1d       	adc	r27, r1
 bbc:	4e a5       	ldd	r20, Y+46	; 0x2e
 bbe:	5f a5       	ldd	r21, Y+47	; 0x2f
 bc0:	68 a9       	ldd	r22, Y+48	; 0x30
 bc2:	79 a9       	ldd	r23, Y+49	; 0x31
 bc4:	8c 01       	movw	r16, r24
 bc6:	9d 01       	movw	r18, r26
 bc8:	00 0f       	add	r16, r16
 bca:	11 1f       	adc	r17, r17
 bcc:	22 1f       	adc	r18, r18
 bce:	33 1f       	adc	r19, r19
 bd0:	40 17       	cp	r20, r16
 bd2:	51 07       	cpc	r21, r17
 bd4:	62 07       	cpc	r22, r18
 bd6:	73 07       	cpc	r23, r19
 bd8:	04 f4       	brge	.+0      	; 0xbda <_ZN9DhcpClass10checkLeaseEv+0xb6>
 bda:	1e a6       	std	Y+46, r1	; 0x2e
 bdc:	1f a6       	std	Y+47, r1	; 0x2f
 bde:	18 aa       	std	Y+48, r1	; 0x30
 be0:	19 aa       	std	Y+49, r1	; 0x31
 be2:	00 c0       	rjmp	.+0      	; 0xbe4 <_ZN9DhcpClass10checkLeaseEv+0xc0>
 be4:	48 1b       	sub	r20, r24
 be6:	59 0b       	sbc	r21, r25
 be8:	6a 0b       	sbc	r22, r26
 bea:	7b 0b       	sbc	r23, r27
 bec:	4e a7       	std	Y+46, r20	; 0x2e
 bee:	5f a7       	std	Y+47, r21	; 0x2f
 bf0:	68 ab       	std	Y+48, r22	; 0x30
 bf2:	79 ab       	std	Y+49, r23	; 0x31
 bf4:	4a a9       	ldd	r20, Y+50	; 0x32
 bf6:	5b a9       	ldd	r21, Y+51	; 0x33
 bf8:	6c a9       	ldd	r22, Y+52	; 0x34
 bfa:	7d a9       	ldd	r23, Y+53	; 0x35
 bfc:	40 17       	cp	r20, r16
 bfe:	51 07       	cpc	r21, r17
 c00:	62 07       	cpc	r22, r18
 c02:	73 07       	cpc	r23, r19
 c04:	04 f4       	brge	.+0      	; 0xc06 <_ZN9DhcpClass10checkLeaseEv+0xe2>
 c06:	1a aa       	std	Y+50, r1	; 0x32
 c08:	1b aa       	std	Y+51, r1	; 0x33
 c0a:	1c aa       	std	Y+52, r1	; 0x34
 c0c:	1d aa       	std	Y+53, r1	; 0x35
 c0e:	00 c0       	rjmp	.+0      	; 0xc10 <_ZN9DhcpClass10checkLeaseEv+0xec>
 c10:	48 1b       	sub	r20, r24
 c12:	59 0b       	sbc	r21, r25
 c14:	6a 0b       	sbc	r22, r26
 c16:	7b 0b       	sbc	r23, r27
 c18:	4a ab       	std	Y+50, r20	; 0x32
 c1a:	5b ab       	std	Y+51, r21	; 0x33
 c1c:	6c ab       	std	Y+52, r22	; 0x34
 c1e:	7d ab       	std	Y+53, r23	; 0x35
 c20:	fe 01       	movw	r30, r28
 c22:	ea 5b       	subi	r30, 0xBA	; 186
 c24:	ff 4f       	sbci	r31, 0xFF	; 255
 c26:	80 81       	ld	r24, Z
 c28:	83 30       	cpi	r24, 0x03	; 3
 c2a:	01 f4       	brne	.+0      	; 0xc2c <_ZN9DhcpClass10checkLeaseEv+0x108>
 c2c:	8e a5       	ldd	r24, Y+46	; 0x2e
 c2e:	9f a5       	ldd	r25, Y+47	; 0x2f
 c30:	a8 a9       	ldd	r26, Y+48	; 0x30
 c32:	b9 a9       	ldd	r27, Y+49	; 0x31
 c34:	18 16       	cp	r1, r24
 c36:	19 06       	cpc	r1, r25
 c38:	1a 06       	cpc	r1, r26
 c3a:	1b 06       	cpc	r1, r27
 c3c:	04 f0       	brlt	.+0      	; 0xc3e <_ZN9DhcpClass10checkLeaseEv+0x11a>
 c3e:	84 e0       	ldi	r24, 0x04	; 4
 c40:	80 83       	st	Z, r24
 c42:	ce 01       	movw	r24, r28
 c44:	0e 94 00 00 	call	0	; 0x0 <_ZN9DhcpClass16reset_DHCP_leaseEv>
 c48:	01 96       	adiw	r24, 0x01	; 1
 c4a:	00 c0       	rjmp	.+0      	; 0xc4c <_ZN9DhcpClass10checkLeaseEv+0x128>
 c4c:	80 e0       	ldi	r24, 0x00	; 0
 c4e:	90 e0       	ldi	r25, 0x00	; 0
 c50:	fe 01       	movw	r30, r28
 c52:	ea 5b       	subi	r30, 0xBA	; 186
 c54:	ff 4f       	sbci	r31, 0xFF	; 255
 c56:	20 81       	ld	r18, Z
 c58:	23 30       	cpi	r18, 0x03	; 3
 c5a:	01 f0       	breq	.+0      	; 0xc5c <_ZN9DhcpClass10checkLeaseEv+0x138>
 c5c:	22 23       	and	r18, r18
 c5e:	01 f4       	brne	.+0      	; 0xc60 <_ZN9DhcpClass10checkLeaseEv+0x13c>
 c60:	4a a9       	ldd	r20, Y+50	; 0x32
 c62:	5b a9       	ldd	r21, Y+51	; 0x33
 c64:	6c a9       	ldd	r22, Y+52	; 0x34
 c66:	7d a9       	ldd	r23, Y+53	; 0x35
 c68:	14 16       	cp	r1, r20
 c6a:	15 06       	cpc	r1, r21
 c6c:	16 06       	cpc	r1, r22
 c6e:	17 06       	cpc	r1, r23
 c70:	04 f0       	brlt	.+0      	; 0xc72 <_ZN9DhcpClass10checkLeaseEv+0x14e>
 c72:	10 82       	st	Z, r1
 c74:	ce 01       	movw	r24, r28
 c76:	0e 94 00 00 	call	0	; 0x0 <_ZN9DhcpClass16reset_DHCP_leaseEv>
 c7a:	ce 01       	movw	r24, r28
 c7c:	0e 94 00 00 	call	0	; 0x0 <_ZN9DhcpClass16reset_DHCP_leaseEv>
 c80:	03 96       	adiw	r24, 0x03	; 3
 c82:	00 c0       	rjmp	.+0      	; 0xc84 <_ZN9DhcpClass10checkLeaseEv+0x160>
 c84:	d5 01       	movw	r26, r10
 c86:	c4 01       	movw	r24, r8
 c88:	88 51       	subi	r24, 0x18	; 24
 c8a:	9c 4f       	sbci	r25, 0xFC	; 252
 c8c:	af 4f       	sbci	r26, 0xFF	; 255
 c8e:	bf 4f       	sbci	r27, 0xFF	; 255
 c90:	f8 01       	movw	r30, r16
 c92:	80 83       	st	Z, r24
 c94:	91 83       	std	Z+1, r25	; 0x01
 c96:	a2 83       	std	Z+2, r26	; 0x02
 c98:	b3 83       	std	Z+3, r27	; 0x03
 c9a:	80 e0       	ldi	r24, 0x00	; 0
 c9c:	90 e0       	ldi	r25, 0x00	; 0
 c9e:	8e aa       	std	Y+54, r8	; 0x36
 ca0:	9f aa       	std	Y+55, r9	; 0x37
 ca2:	a8 ae       	std	Y+56, r10	; 0x38
 ca4:	b9 ae       	std	Y+57, r11	; 0x39
 ca6:	df 91       	pop	r29
 ca8:	cf 91       	pop	r28
 caa:	1f 91       	pop	r17
 cac:	0f 91       	pop	r16
 cae:	ff 90       	pop	r15
 cb0:	ef 90       	pop	r14
 cb2:	df 90       	pop	r13
 cb4:	cf 90       	pop	r12
 cb6:	bf 90       	pop	r11
 cb8:	af 90       	pop	r10
 cba:	9f 90       	pop	r9
 cbc:	8f 90       	pop	r8
 cbe:	08 95       	ret

00000cc0 <_ZN9DhcpClass13beginWithDHCPEPhmm>:
 cc0:	af 92       	push	r10
 cc2:	bf 92       	push	r11
 cc4:	cf 92       	push	r12
 cc6:	df 92       	push	r13
 cc8:	ef 92       	push	r14
 cca:	ff 92       	push	r15
 ccc:	0f 93       	push	r16
 cce:	1f 93       	push	r17
 cd0:	cf 93       	push	r28
 cd2:	df 93       	push	r29
 cd4:	6c 01       	movw	r12, r24
 cd6:	5b 01       	movw	r10, r22
 cd8:	da 01       	movw	r26, r20
 cda:	c9 01       	movw	r24, r18
 cdc:	f6 01       	movw	r30, r12
 cde:	12 a2       	std	Z+34, r1	; 0x22
 ce0:	13 a2       	std	Z+35, r1	; 0x23
 ce2:	14 a2       	std	Z+36, r1	; 0x24
 ce4:	15 a2       	std	Z+37, r1	; 0x25
 ce6:	16 a2       	std	Z+38, r1	; 0x26
 ce8:	17 a2       	std	Z+39, r1	; 0x27
 cea:	10 a6       	std	Z+40, r1	; 0x28
 cec:	11 a6       	std	Z+41, r1	; 0x29
 cee:	12 a6       	std	Z+42, r1	; 0x2a
 cf0:	13 a6       	std	Z+43, r1	; 0x2b
 cf2:	14 a6       	std	Z+44, r1	; 0x2c
 cf4:	15 a6       	std	Z+45, r1	; 0x2d
 cf6:	16 aa       	std	Z+54, r1	; 0x36
 cf8:	17 aa       	std	Z+55, r1	; 0x37
 cfa:	10 ae       	std	Z+56, r1	; 0x38
 cfc:	11 ae       	std	Z+57, r1	; 0x39
 cfe:	82 af       	std	Z+58, r24	; 0x3a
 d00:	93 af       	std	Z+59, r25	; 0x3b
 d02:	a4 af       	std	Z+60, r26	; 0x3c
 d04:	b5 af       	std	Z+61, r27	; 0x3d
 d06:	fe 96       	adiw	r30, 0x3e	; 62
 d08:	e0 82       	st	Z, r14
 d0a:	f1 82       	std	Z+1, r15	; 0x01
 d0c:	02 83       	std	Z+2, r16	; 0x02
 d0e:	13 83       	std	Z+3, r17	; 0x03
 d10:	e6 01       	movw	r28, r12
 d12:	28 96       	adiw	r28, 0x08	; 8
 d14:	86 e0       	ldi	r24, 0x06	; 6
 d16:	fe 01       	movw	r30, r28
 d18:	11 92       	st	Z+, r1
 d1a:	8a 95       	dec	r24
 d1c:	01 f4       	brne	.+0      	; 0xd1e <_ZN9DhcpClass13beginWithDHCPEPhmm+0x5e>
 d1e:	c6 01       	movw	r24, r12
 d20:	0e 94 00 00 	call	0	; 0x0 <_ZN9DhcpClass16reset_DHCP_leaseEv>
 d24:	f5 01       	movw	r30, r10
 d26:	86 e0       	ldi	r24, 0x06	; 6
 d28:	01 90       	ld	r0, Z+
 d2a:	09 92       	st	Y+, r0
 d2c:	81 50       	subi	r24, 0x01	; 1
 d2e:	01 f4       	brne	.+0      	; 0xd30 <_ZN9DhcpClass13beginWithDHCPEPhmm+0x70>
 d30:	f6 01       	movw	r30, r12
 d32:	ea 5b       	subi	r30, 0xBA	; 186
 d34:	ff 4f       	sbci	r31, 0xFF	; 255
 d36:	10 82       	st	Z, r1
 d38:	c6 01       	movw	r24, r12
 d3a:	0e 94 00 00 	call	0	; 0x0 <_ZN9DhcpClass16reset_DHCP_leaseEv>
 d3e:	df 91       	pop	r29
 d40:	cf 91       	pop	r28
 d42:	1f 91       	pop	r17
 d44:	0f 91       	pop	r16
 d46:	ff 90       	pop	r15
 d48:	ef 90       	pop	r14
 d4a:	df 90       	pop	r13
 d4c:	cf 90       	pop	r12
 d4e:	bf 90       	pop	r11
 d50:	af 90       	pop	r10
 d52:	08 95       	ret

Disassembly of section .text.startup:

00000000 <_GLOBAL__sub_I__ZN9DhcpClass13beginWithDHCPEPhmm>:
   0:	0f 93       	push	r16
   2:	80 e0       	ldi	r24, 0x00	; 0
   4:	90 e0       	ldi	r25, 0x00	; 0
   6:	60 e0       	ldi	r22, 0x00	; 0
   8:	40 e0       	ldi	r20, 0x00	; 0
   a:	20 e0       	ldi	r18, 0x00	; 0
   c:	00 e0       	ldi	r16, 0x00	; 0
   e:	0e 94 00 00 	call	0	; 0x0 <_GLOBAL__sub_I__ZN9DhcpClass13beginWithDHCPEPhmm>
  12:	0f 91       	pop	r16
  14:	08 95       	ret

Dns.o:     file format elf32-avr

Sections:
Idx Name          Size      VMA       LMA       File off  Algn
  0 .text         00000614  00000000  00000000  00000034  2**0
                  CONTENTS, ALLOC, LOAD, RELOC, READONLY, CODE
  1 .data         00000000  00000000  00000000  00000648  2**0
                  CONTENTS, ALLOC, LOAD, DATA
  2 .bss          00000006  00000000  00000000  00000648  2**0
                  ALLOC
  3 .text.startup 00000016  00000000  00000000  00000648  2**0
                  CONTENTS, ALLOC, LOAD, RELOC, READONLY, CODE
  4 .ctors        00000002  00000000  00000000  0000065e  2**0
                  CONTENTS, ALLOC, LOAD, RELOC, READONLY, DATA

Disassembly of section .text:

00000000 <_ZN9DNSClient5beginERK9IPAddress>:
   0:	cf 93       	push	r28
   2:	df 93       	push	r29
   4:	fc 01       	movw	r30, r24
   6:	eb 01       	movw	r28, r22
   8:	8a 81       	ldd	r24, Y+2	; 0x02
   a:	9b 81       	ldd	r25, Y+3	; 0x03
   c:	ac 81       	ldd	r26, Y+4	; 0x04
   e:	bd 81       	ldd	r27, Y+5	; 0x05
  10:	82 83       	std	Z+2, r24	; 0x02
  12:	93 83       	std	Z+3, r25	; 0x03
  14:	a4 83       	std	Z+4, r26	; 0x04
  16:	b5 83       	std	Z+5, r27	; 0x05
  18:	17 82       	std	Z+7, r1	; 0x07
  1a:	16 82       	std	Z+6, r1	; 0x06
  1c:	df 91       	pop	r29
  1e:	cf 91       	pop	r28
  20:	08 95       	ret

00000022 <_ZN9DNSClient9inet_atonEPKcR9IPAddress>:
  22:	cf 93       	push	r28
  24:	df 93       	push	r29
  26:	ea 01       	movw	r28, r20
  28:	db 01       	movw	r26, r22
  2a:	fb 01       	movw	r30, r22
  2c:	81 91       	ld	r24, Z+
  2e:	88 23       	and	r24, r24
  30:	01 f4       	brne	.+0      	; 0x32 <_ZN9DNSClient9inet_atonEPKcR9IPAddress+0x10>
  32:	40 e0       	ldi	r20, 0x00	; 0
  34:	50 e0       	ldi	r21, 0x00	; 0
  36:	60 e0       	ldi	r22, 0x00	; 0
  38:	70 e0       	ldi	r23, 0x00	; 0
  3a:	00 c0       	rjmp	.+0      	; 0x3c <_ZN9DNSClient9inet_atonEPKcR9IPAddress+0x1a>
  3c:	4f 3f       	cpi	r20, 0xFF	; 255
  3e:	51 05       	cpc	r21, r1
  40:	01 f0       	breq	.+0      	; 0x42 <_ZN9DNSClient9inet_atonEPKcR9IPAddress+0x20>
  42:	04 f4       	brge	.+0      	; 0x44 <_ZN9DNSClient9inet_atonEPKcR9IPAddress+0x22>
  44:	fe 01       	movw	r30, r28
  46:	e6 0f       	add	r30, r22
  48:	f7 1f       	adc	r31, r23
  4a:	42 83       	std	Z+2, r20	; 0x02
  4c:	6f 5f       	subi	r22, 0xFF	; 255
  4e:	7f 4f       	sbci	r23, 0xFF	; 255
  50:	40 e0       	ldi	r20, 0x00	; 0
  52:	50 e0       	ldi	r21, 0x00	; 0
  54:	00 c0       	rjmp	.+0      	; 0x56 <_ZN9DNSClient9inet_atonEPKcR9IPAddress+0x34>
  56:	9a 01       	movw	r18, r20
  58:	22 0f       	add	r18, r18
  5a:	33 1f       	adc	r19, r19
  5c:	e3 e0       	ldi	r30, 0x03	; 3
  5e:	44 0f       	add	r20, r20
  60:	55 1f       	adc	r21, r21
  62:	ea 95       	dec	r30
  64:	01 f4       	brne	.+0      	; 0x66 <_ZN9DNSClient9inet_atonEPKcR9IPAddress+0x44>
  66:	42 0f       	add	r20, r18
  68:	53 1f       	adc	r21, r19
  6a:	90 e0       	ldi	r25, 0x00	; 0
  6c:	c0 97       	sbiw	r24, 0x30	; 48
  6e:	48 0f       	add	r20, r24
  70:	59 1f       	adc	r21, r25
  72:	8d 91       	ld	r24, X+
  74:	88 23       	and	r24, r24
  76:	01 f0       	breq	.+0      	; 0x78 <_ZN9DNSClient9inet_atonEPKcR9IPAddress+0x56>
  78:	64 30       	cpi	r22, 0x04	; 4
  7a:	71 05       	cpc	r23, r1
  7c:	04 f4       	brge	.+0      	; 0x7e <_ZN9DNSClient9inet_atonEPKcR9IPAddress+0x5c>
  7e:	8e 32       	cpi	r24, 0x2E	; 46
  80:	01 f4       	brne	.+0      	; 0x82 <_ZN9DNSClient9inet_atonEPKcR9IPAddress+0x60>
  82:	00 c0       	rjmp	.+0      	; 0x84 <_ZN9DNSClient9inet_atonEPKcR9IPAddress+0x62>
  84:	4f 3f       	cpi	r20, 0xFF	; 255
  86:	51 05       	cpc	r21, r1
  88:	01 f0       	breq	.+0      	; 0x8a <_ZN9DNSClient9inet_atonEPKcR9IPAddress+0x68>
  8a:	04 f4       	brge	.+0      	; 0x8c <_ZN9DNSClient9inet_atonEPKcR9IPAddress+0x6a>
  8c:	64 30       	cpi	r22, 0x04	; 4
  8e:	71 05       	cpc	r23, r1
  90:	04 f4       	brge	.+0      	; 0x92 <_ZN9DNSClient9inet_atonEPKcR9IPAddress+0x70>
  92:	c6 0f       	add	r28, r22
  94:	d7 1f       	adc	r29, r23
  96:	4a 83       	std	Y+2, r20	; 0x02
  98:	81 e0       	ldi	r24, 0x01	; 1
  9a:	90 e0       	ldi	r25, 0x00	; 0
  9c:	00 c0       	rjmp	.+0      	; 0x9e <_ZN9DNSClient9inet_atonEPKcR9IPAddress+0x7c>
  9e:	80 e0       	ldi	r24, 0x00	; 0
  a0:	90 e0       	ldi	r25, 0x00	; 0
  a2:	df 91       	pop	r29
  a4:	cf 91       	pop	r28
  a6:	08 95       	ret

000000a8 <_ZN9DNSClient12BuildRequestEPKc>:
  a8:	8f 92       	push	r8
  aa:	9f 92       	push	r9
  ac:	af 92       	push	r10
  ae:	bf 92       	push	r11
  b0:	cf 92       	push	r12
  b2:	df 92       	push	r13
  b4:	ef 92       	push	r14
  b6:	ff 92       	push	r15
  b8:	0f 93       	push	r16
  ba:	1f 93       	push	r17
  bc:	cf 93       	push	r28
  be:	df 93       	push	r29
  c0:	00 d0       	rcall	.+0      	; 0xc2 <_ZN9DNSClient12BuildRequestEPKc+0x1a>
  c2:	0f 92       	push	r0
  c4:	cd b7       	in	r28, 0x3d	; 61
  c6:	de b7       	in	r29, 0x3e	; 62
  c8:	8c 01       	movw	r16, r24
  ca:	96 2e       	mov	r9, r22
  cc:	87 2e       	mov	r8, r23
  ce:	0e 94 00 00 	call	0	; 0x0 <_ZN9DNSClient5beginERK9IPAddress>
  d2:	dc 01       	movw	r26, r24
  d4:	cb 01       	movw	r24, r22
  d6:	f8 01       	movw	r30, r16
  d8:	97 83       	std	Z+7, r25	; 0x07
  da:	86 83       	std	Z+6, r24	; 0x06
  dc:	a8 e0       	ldi	r26, 0x08	; 8
  de:	ea 2e       	mov	r14, r26
  e0:	f1 2c       	mov	r15, r1
  e2:	e0 0e       	add	r14, r16
  e4:	f1 1e       	adc	r15, r17
  e6:	b8 01       	movw	r22, r16
  e8:	6a 5f       	subi	r22, 0xFA	; 250
  ea:	7f 4f       	sbci	r23, 0xFF	; 255
  ec:	c7 01       	movw	r24, r14
  ee:	42 e0       	ldi	r20, 0x02	; 2
  f0:	50 e0       	ldi	r21, 0x00	; 0
  f2:	0e 94 00 00 	call	0	; 0x0 <_ZN9DNSClient5beginERK9IPAddress>
  f6:	81 e0       	ldi	r24, 0x01	; 1
  f8:	90 e0       	ldi	r25, 0x00	; 0
  fa:	9b 83       	std	Y+3, r25	; 0x03
  fc:	8a 83       	std	Y+2, r24	; 0x02
  fe:	c7 01       	movw	r24, r14
 100:	be 01       	movw	r22, r28
 102:	6e 5f       	subi	r22, 0xFE	; 254
 104:	7f 4f       	sbci	r23, 0xFF	; 255
 106:	42 e0       	ldi	r20, 0x02	; 2
 108:	50 e0       	ldi	r21, 0x00	; 0
 10a:	0e 94 00 00 	call	0	; 0x0 <_ZN9DNSClient5beginERK9IPAddress>
 10e:	80 e0       	ldi	r24, 0x00	; 0
 110:	91 e0       	ldi	r25, 0x01	; 1
 112:	9b 83       	std	Y+3, r25	; 0x03
 114:	8a 83       	std	Y+2, r24	; 0x02
 116:	c7 01       	movw	r24, r14
 118:	be 01       	movw	r22, r28
 11a:	6e 5f       	subi	r22, 0xFE	; 254
 11c:	7f 4f       	sbci	r23, 0xFF	; 255
 11e:	42 e0       	ldi	r20, 0x02	; 2
 120:	50 e0       	ldi	r21, 0x00	; 0
 122:	0e 94 00 00 	call	0	; 0x0 <_ZN9DNSClient5beginERK9IPAddress>
 126:	1b 82       	std	Y+3, r1	; 0x03
 128:	1a 82       	std	Y+2, r1	; 0x02
 12a:	c7 01       	movw	r24, r14
 12c:	be 01       	movw	r22, r28
 12e:	6e 5f       	subi	r22, 0xFE	; 254
 130:	7f 4f       	sbci	r23, 0xFF	; 255
 132:	42 e0       	ldi	r20, 0x02	; 2
 134:	50 e0       	ldi	r21, 0x00	; 0
 136:	0e 94 00 00 	call	0	; 0x0 <_ZN9DNSClient5beginERK9IPAddress>
 13a:	c7 01       	movw	r24, r14
 13c:	be 01       	movw	r22, r28
 13e:	6e 5f       	subi	r22, 0xFE	; 254
 140:	7f 4f       	sbci	r23, 0xFF	; 255
 142:	42 e0       	ldi	r20, 0x02	; 2
 144:	50 e0       	ldi	r21, 0x00	; 0
 146:	0e 94 00 00 	call	0	; 0x0 <_ZN9DNSClient5beginERK9IPAddress>
 14a:	c7 01       	movw	r24, r14
 14c:	be 01       	movw	r22, r28
 14e:	6e 5f       	subi	r22, 0xFE	; 254
 150:	7f 4f       	sbci	r23, 0xFF	; 255
 152:	42 e0       	ldi	r20, 0x02	; 2
 154:	50 e0       	ldi	r21, 0x00	; 0
 156:	0e 94 00 00 	call	0	; 0x0 <_ZN9DNSClient5beginERK9IPAddress>
 15a:	c9 2c       	mov	r12, r9
 15c:	d8 2c       	mov	r13, r8
 15e:	a9 2c       	mov	r10, r9
 160:	b8 2c       	mov	r11, r8
 162:	00 c0       	rjmp	.+0      	; 0x164 <_ZN9DNSClient12BuildRequestEPKc+0xbc>
 164:	f5 01       	movw	r30, r10
 166:	6f 01       	movw	r12, r30
 168:	81 91       	ld	r24, Z+
 16a:	88 23       	and	r24, r24
 16c:	01 f0       	breq	.+0      	; 0x16e <_ZN9DNSClient12BuildRequestEPKc+0xc6>
 16e:	8e 32       	cpi	r24, 0x2E	; 46
 170:	01 f4       	brne	.+0      	; 0x172 <_ZN9DNSClient12BuildRequestEPKc+0xca>
 172:	86 01       	movw	r16, r12
 174:	0a 19       	sub	r16, r10
 176:	1b 09       	sbc	r17, r11
 178:	10 16       	cp	r1, r16
 17a:	11 06       	cpc	r1, r17
 17c:	04 f4       	brge	.+0      	; 0x17e <_ZN9DNSClient12BuildRequestEPKc+0xd6>
 17e:	09 83       	std	Y+1, r16	; 0x01
 180:	c7 01       	movw	r24, r14
 182:	be 01       	movw	r22, r28
 184:	6f 5f       	subi	r22, 0xFF	; 255
 186:	7f 4f       	sbci	r23, 0xFF	; 255
 188:	41 e0       	ldi	r20, 0x01	; 1
 18a:	50 e0       	ldi	r21, 0x00	; 0
 18c:	0e 94 00 00 	call	0	; 0x0 <_ZN9DNSClient5beginERK9IPAddress>
 190:	c7 01       	movw	r24, r14
 192:	b5 01       	movw	r22, r10
 194:	a8 01       	movw	r20, r16
 196:	0e 94 00 00 	call	0	; 0x0 <_ZN9DNSClient5beginERK9IPAddress>
 19a:	56 01       	movw	r10, r12
 19c:	08 94       	sec
 19e:	a1 1c       	adc	r10, r1
 1a0:	b1 1c       	adc	r11, r1
 1a2:	f6 01       	movw	r30, r12
 1a4:	80 81       	ld	r24, Z
 1a6:	88 23       	and	r24, r24
 1a8:	01 f4       	brne	.+0      	; 0x1aa <_ZN9DNSClient12BuildRequestEPKc+0x102>
 1aa:	19 82       	std	Y+1, r1	; 0x01
 1ac:	c7 01       	movw	r24, r14
 1ae:	be 01       	movw	r22, r28
 1b0:	6f 5f       	subi	r22, 0xFF	; 255
 1b2:	7f 4f       	sbci	r23, 0xFF	; 255
 1b4:	41 e0       	ldi	r20, 0x01	; 1
 1b6:	50 e0       	ldi	r21, 0x00	; 0
 1b8:	0e 94 00 00 	call	0	; 0x0 <_ZN9DNSClient5beginERK9IPAddress>
 1bc:	00 e0       	ldi	r16, 0x00	; 0
 1be:	11 e0       	ldi	r17, 0x01	; 1
 1c0:	1b 83       	std	Y+3, r17	; 0x03
 1c2:	0a 83       	std	Y+2, r16	; 0x02
 1c4:	c7 01       	movw	r24, r14
 1c6:	be 01       	movw	r22, r28
 1c8:	6e 5f       	subi	r22, 0xFE	; 254
 1ca:	7f 4f       	sbci	r23, 0xFF	; 255
 1cc:	42 e0       	ldi	r20, 0x02	; 2
 1ce:	50 e0       	ldi	r21, 0x00	; 0
 1d0:	0e 94 00 00 	call	0	; 0x0 <_ZN9DNSClient5beginERK9IPAddress>
 1d4:	1b 83       	std	Y+3, r17	; 0x03
 1d6:	0a 83       	std	Y+2, r16	; 0x02
 1d8:	c7 01       	movw	r24, r14
 1da:	be 01       	movw	r22, r28
 1dc:	6e 5f       	subi	r22, 0xFE	; 254
 1de:	7f 4f       	sbci	r23, 0xFF	; 255
 1e0:	42 e0       	ldi	r20, 0x02	; 2
 1e2:	50 e0       	ldi	r21, 0x00	; 0
 1e4:	0e 94 00 00 	call	0	; 0x0 <_ZN9DNSClient5beginERK9IPAddress>
 1e8:	81 e0       	ldi	r24, 0x01	; 1
 1ea:	90 e0       	ldi	r25, 0x00	; 0
 1ec:	0f 90       	pop	r0
 1ee:	0f 90       	pop	r0
 1f0:	0f 90       	pop	r0
 1f2:	df 91       	pop	r29
 1f4:	cf 91       	pop	r28
 1f6:	1f 91       	pop	r17
 1f8:	0f 91       	pop	r16
 1fa:	ff 90       	pop	r15
 1fc:	ef 90       	pop	r14
 1fe:	df 90       	pop	r13
 200:	cf 90       	pop	r12
 202:	bf 90       	pop	r11
 204:	af 90       	pop	r10
 206:	9f 90       	pop	r9
 208:	8f 90       	pop	r8
 20a:	08 95       	ret

0000020c <_ZN9DNSClient15ProcessResponseEjR9IPAddress>:
 20c:	4f 92       	push	r4
 20e:	5f 92       	push	r5
 210:	6f 92       	push	r6
 212:	7f 92       	push	r7
 214:	8f 92       	push	r8
 216:	9f 92       	push	r9
 218:	af 92       	push	r10
 21a:	bf 92       	push	r11
 21c:	cf 92       	push	r12
 21e:	df 92       	push	r13
 220:	ef 92       	push	r14
 222:	ff 92       	push	r15
 224:	0f 93       	push	r16
 226:	1f 93       	push	r17
 228:	cf 93       	push	r28
 22a:	df 93       	push	r29
 22c:	cd b7       	in	r28, 0x3d	; 61
 22e:	de b7       	in	r29, 0x3e	; 62
 230:	63 97       	sbiw	r28, 0x13	; 19
 232:	0f b6       	in	r0, 0x3f	; 63
 234:	f8 94       	cli
 236:	de bf       	out	0x3e, r29	; 62
 238:	0f be       	out	0x3f, r0	; 63
 23a:	cd bf       	out	0x3d, r28	; 61
 23c:	8c 01       	movw	r16, r24
 23e:	6b 01       	movw	r12, r22
 240:	4a 01       	movw	r8, r20
 242:	0e 94 00 00 	call	0	; 0x0 <_ZN9DNSClient5beginERK9IPAddress>
 246:	2b 01       	movw	r4, r22
 248:	3c 01       	movw	r6, r24
 24a:	28 e0       	ldi	r18, 0x08	; 8
 24c:	a2 2e       	mov	r10, r18
 24e:	b1 2c       	mov	r11, r1
 250:	a0 0e       	add	r10, r16
 252:	b1 1e       	adc	r11, r17
 254:	ee 24       	eor	r14, r14
 256:	ff 24       	eor	r15, r15
 258:	00 c0       	rjmp	.+0      	; 0x25a <_ZN9DNSClient15ProcessResponseEjR9IPAddress+0x4e>
 25a:	0e 94 00 00 	call	0	; 0x0 <_ZN9DNSClient5beginERK9IPAddress>
 25e:	dc 01       	movw	r26, r24
 260:	cb 01       	movw	r24, r22
 262:	84 19       	sub	r24, r4
 264:	95 09       	sbc	r25, r5
 266:	a6 09       	sbc	r26, r6
 268:	b7 09       	sbc	r27, r7
 26a:	c8 16       	cp	r12, r24
 26c:	d9 06       	cpc	r13, r25
 26e:	ea 06       	cpc	r14, r26
 270:	fb 06       	cpc	r15, r27
 272:	00 f4       	brcc	.+0      	; 0x274 <_ZN9DNSClient15ProcessResponseEjR9IPAddress+0x68>
 274:	00 c0       	rjmp	.+0      	; 0x276 <_ZN9DNSClient15ProcessResponseEjR9IPAddress+0x6a>
 276:	62 e3       	ldi	r22, 0x32	; 50
 278:	70 e0       	ldi	r23, 0x00	; 0
 27a:	80 e0       	ldi	r24, 0x00	; 0
 27c:	90 e0       	ldi	r25, 0x00	; 0
 27e:	0e 94 00 00 	call	0	; 0x0 <_ZN9DNSClient5beginERK9IPAddress>
 282:	c5 01       	movw	r24, r10
 284:	0e 94 00 00 	call	0	; 0x0 <_ZN9DNSClient5beginERK9IPAddress>
 288:	18 16       	cp	r1, r24
 28a:	19 06       	cpc	r1, r25
 28c:	04 f4       	brge	.+0      	; 0x28e <_ZN9DNSClient15ProcessResponseEjR9IPAddress+0x82>
 28e:	f8 01       	movw	r30, r16
 290:	82 81       	ldd	r24, Z+2	; 0x02
 292:	93 81       	ldd	r25, Z+3	; 0x03
 294:	a4 81       	ldd	r26, Z+4	; 0x04
 296:	b5 81       	ldd	r27, Z+5	; 0x05
 298:	41 8d       	ldd	r20, Z+25	; 0x19
 29a:	52 8d       	ldd	r21, Z+26	; 0x1a
 29c:	63 8d       	ldd	r22, Z+27	; 0x1b
 29e:	74 8d       	ldd	r23, Z+28	; 0x1c
 2a0:	84 17       	cp	r24, r20
 2a2:	95 07       	cpc	r25, r21
 2a4:	a6 07       	cpc	r26, r22
 2a6:	b7 07       	cpc	r27, r23
 2a8:	01 f0       	breq	.+0      	; 0x2aa <_ZN9DNSClient15ProcessResponseEjR9IPAddress+0x9e>
 2aa:	00 c0       	rjmp	.+0      	; 0x2ac <_ZN9DNSClient15ProcessResponseEjR9IPAddress+0xa0>
 2ac:	85 8d       	ldd	r24, Z+29	; 0x1d
 2ae:	96 8d       	ldd	r25, Z+30	; 0x1e
 2b0:	85 33       	cpi	r24, 0x35	; 53
 2b2:	91 05       	cpc	r25, r1
 2b4:	01 f0       	breq	.+0      	; 0x2b6 <_ZN9DNSClient15ProcessResponseEjR9IPAddress+0xaa>
 2b6:	00 c0       	rjmp	.+0      	; 0x2b8 <_ZN9DNSClient15ProcessResponseEjR9IPAddress+0xac>
 2b8:	00 c0       	rjmp	.+0      	; 0x2ba <_ZN9DNSClient15ProcessResponseEjR9IPAddress+0xae>
 2ba:	b8 e0       	ldi	r27, 0x08	; 8
 2bc:	eb 2e       	mov	r14, r27
 2be:	f1 2c       	mov	r15, r1
 2c0:	ec 0e       	add	r14, r28
 2c2:	fd 1e       	adc	r15, r29
 2c4:	c5 01       	movw	r24, r10
 2c6:	b7 01       	movw	r22, r14
 2c8:	4c e0       	ldi	r20, 0x0C	; 12
 2ca:	50 e0       	ldi	r21, 0x00	; 0
 2cc:	0e 94 00 00 	call	0	; 0x0 <_ZN9DNSClient5beginERK9IPAddress>
 2d0:	f7 01       	movw	r30, r14
 2d2:	42 81       	ldd	r20, Z+2	; 0x02
 2d4:	53 81       	ldd	r21, Z+3	; 0x03
 2d6:	54 27       	eor	r21, r20
 2d8:	45 27       	eor	r20, r21
 2da:	54 27       	eor	r21, r20
 2dc:	5f 83       	std	Y+7, r21	; 0x07
 2de:	4e 83       	std	Y+6, r20	; 0x06
 2e0:	f8 01       	movw	r30, r16
 2e2:	86 81       	ldd	r24, Z+6	; 0x06
 2e4:	97 81       	ldd	r25, Z+7	; 0x07
 2e6:	28 85       	ldd	r18, Y+8	; 0x08
 2e8:	39 85       	ldd	r19, Y+9	; 0x09
 2ea:	82 17       	cp	r24, r18
 2ec:	93 07       	cpc	r25, r19
 2ee:	01 f4       	brne	.+0      	; 0x2f0 <_ZN9DNSClient15ProcessResponseEjR9IPAddress+0xe4>
 2f0:	57 fd       	sbrc	r21, 7
 2f2:	00 c0       	rjmp	.+0      	; 0x2f4 <_ZN9DNSClient15ProcessResponseEjR9IPAddress+0xe8>
 2f4:	c5 01       	movw	r24, r10
 2f6:	0e 94 00 00 	call	0	; 0x0 <_ZN9DNSClient5beginERK9IPAddress>
 2fa:	8c ef       	ldi	r24, 0xFC	; 252
 2fc:	9f ef       	ldi	r25, 0xFF	; 255
 2fe:	00 c0       	rjmp	.+0      	; 0x300 <_ZN9DNSClient15ProcessResponseEjR9IPAddress+0xf4>
 300:	4f 70       	andi	r20, 0x0F	; 15
 302:	52 70       	andi	r21, 0x02	; 2
 304:	41 15       	cp	r20, r1
 306:	51 05       	cpc	r21, r1
 308:	01 f0       	breq	.+0      	; 0x30a <_ZN9DNSClient15ProcessResponseEjR9IPAddress+0xfe>
 30a:	c5 01       	movw	r24, r10
 30c:	0e 94 00 00 	call	0	; 0x0 <_ZN9DNSClient5beginERK9IPAddress>
 310:	8b ef       	ldi	r24, 0xFB	; 251
 312:	9f ef       	ldi	r25, 0xFF	; 255
 314:	00 c0       	rjmp	.+0      	; 0x316 <_ZN9DNSClient15ProcessResponseEjR9IPAddress+0x10a>
 316:	f7 01       	movw	r30, r14
 318:	86 81       	ldd	r24, Z+6	; 0x06
 31a:	97 81       	ldd	r25, Z+7	; 0x07
 31c:	58 2e       	mov	r5, r24
 31e:	49 2e       	mov	r4, r25
 320:	41 14       	cp	r4, r1
 322:	51 04       	cpc	r5, r1
 324:	01 f4       	brne	.+0      	; 0x326 <_ZN9DNSClient15ProcessResponseEjR9IPAddress+0x11a>
 326:	c5 01       	movw	r24, r10
 328:	0e 94 00 00 	call	0	; 0x0 <_ZN9DNSClient5beginERK9IPAddress>
 32c:	8a ef       	ldi	r24, 0xFA	; 250
 32e:	9f ef       	ldi	r25, 0xFF	; 255
 330:	00 c0       	rjmp	.+0      	; 0x332 <_ZN9DNSClient15ProcessResponseEjR9IPAddress+0x126>
 332:	c5 01       	movw	r24, r10
 334:	be 01       	movw	r22, r28
 336:	6f 5f       	subi	r22, 0xFF	; 255
 338:	7f 4f       	sbci	r23, 0xFF	; 255
 33a:	41 e0       	ldi	r20, 0x01	; 1
 33c:	50 e0       	ldi	r21, 0x00	; 0
 33e:	0e 94 00 00 	call	0	; 0x0 <_ZN9DNSClient5beginERK9IPAddress>
 342:	89 81       	ldd	r24, Y+1	; 0x01
 344:	88 23       	and	r24, r24
 346:	01 f4       	brne	.+0      	; 0x348 <_ZN9DNSClient15ProcessResponseEjR9IPAddress+0x13c>
 348:	00 c0       	rjmp	.+0      	; 0x34a <_ZN9DNSClient15ProcessResponseEjR9IPAddress+0x13e>
 34a:	c5 01       	movw	r24, r10
 34c:	0e 94 00 00 	call	0	; 0x0 <_ZN9DNSClient5beginERK9IPAddress>
 350:	89 81       	ldd	r24, Y+1	; 0x01
 352:	98 2f       	mov	r25, r24
 354:	91 50       	subi	r25, 0x01	; 1
 356:	99 83       	std	Y+1, r25	; 0x01
 358:	88 23       	and	r24, r24
 35a:	01 f4       	brne	.+0      	; 0x35c <_ZN9DNSClient15ProcessResponseEjR9IPAddress+0x150>
 35c:	89 81       	ldd	r24, Y+1	; 0x01
 35e:	88 23       	and	r24, r24
 360:	01 f4       	brne	.+0      	; 0x362 <_ZN9DNSClient15ProcessResponseEjR9IPAddress+0x156>
 362:	04 e0       	ldi	r16, 0x04	; 4
 364:	10 e0       	ldi	r17, 0x00	; 0
 366:	c5 01       	movw	r24, r10
 368:	0e 94 00 00 	call	0	; 0x0 <_ZN9DNSClient5beginERK9IPAddress>
 36c:	01 50       	subi	r16, 0x01	; 1
 36e:	10 40       	sbci	r17, 0x00	; 0
 370:	01 f4       	brne	.+0      	; 0x372 <_ZN9DNSClient15ProcessResponseEjR9IPAddress+0x166>
 372:	08 94       	sec
 374:	c1 1c       	adc	r12, r1
 376:	d1 1c       	adc	r13, r1
 378:	00 c0       	rjmp	.+0      	; 0x37a <_ZN9DNSClient15ProcessResponseEjR9IPAddress+0x16e>
 37a:	cc 24       	eor	r12, r12
 37c:	dd 24       	eor	r13, r13
 37e:	f7 01       	movw	r30, r14
 380:	84 81       	ldd	r24, Z+4	; 0x04
 382:	95 81       	ldd	r25, Z+5	; 0x05
 384:	98 27       	eor	r25, r24
 386:	89 27       	eor	r24, r25
 388:	98 27       	eor	r25, r24
 38a:	c8 16       	cp	r12, r24
 38c:	d9 06       	cpc	r13, r25
 38e:	00 f0       	brcs	.+0      	; 0x390 <_ZN9DNSClient15ProcessResponseEjR9IPAddress+0x184>
 390:	ee 24       	eor	r14, r14
 392:	ff 24       	eor	r15, r15
 394:	c5 01       	movw	r24, r10
 396:	be 01       	movw	r22, r28
 398:	6f 5f       	subi	r22, 0xFF	; 255
 39a:	7f 4f       	sbci	r23, 0xFF	; 255
 39c:	41 e0       	ldi	r20, 0x01	; 1
 39e:	50 e0       	ldi	r21, 0x00	; 0
 3a0:	0e 94 00 00 	call	0	; 0x0 <_ZN9DNSClient5beginERK9IPAddress>
 3a4:	89 81       	ldd	r24, Y+1	; 0x01
 3a6:	98 2f       	mov	r25, r24
 3a8:	90 7c       	andi	r25, 0xC0	; 192
 3aa:	01 f4       	brne	.+0      	; 0x3ac <_ZN9DNSClient15ProcessResponseEjR9IPAddress+0x1a0>
 3ac:	88 23       	and	r24, r24
 3ae:	01 f4       	brne	.+0      	; 0x3b0 <_ZN9DNSClient15ProcessResponseEjR9IPAddress+0x1a4>
 3b0:	00 c0       	rjmp	.+0      	; 0x3b2 <_ZN9DNSClient15ProcessResponseEjR9IPAddress+0x1a6>
 3b2:	c5 01       	movw	r24, r10
 3b4:	0e 94 00 00 	call	0	; 0x0 <_ZN9DNSClient5beginERK9IPAddress>
 3b8:	89 81       	ldd	r24, Y+1	; 0x01
 3ba:	98 2f       	mov	r25, r24
 3bc:	91 50       	subi	r25, 0x01	; 1
 3be:	99 83       	std	Y+1, r25	; 0x01
 3c0:	88 23       	and	r24, r24
 3c2:	01 f4       	brne	.+0      	; 0x3c4 <_ZN9DNSClient15ProcessResponseEjR9IPAddress+0x1b8>
 3c4:	00 c0       	rjmp	.+0      	; 0x3c6 <_ZN9DNSClient15ProcessResponseEjR9IPAddress+0x1ba>
 3c6:	c5 01       	movw	r24, r10
 3c8:	0e 94 00 00 	call	0	; 0x0 <_ZN9DNSClient5beginERK9IPAddress>
 3cc:	19 82       	std	Y+1, r1	; 0x01
 3ce:	89 81       	ldd	r24, Y+1	; 0x01
 3d0:	88 23       	and	r24, r24
 3d2:	01 f4       	brne	.+0      	; 0x3d4 <_ZN9DNSClient15ProcessResponseEjR9IPAddress+0x1c8>
 3d4:	c5 01       	movw	r24, r10
 3d6:	be 01       	movw	r22, r28
 3d8:	6c 5f       	subi	r22, 0xFC	; 252
 3da:	7f 4f       	sbci	r23, 0xFF	; 255
 3dc:	42 e0       	ldi	r20, 0x02	; 2
 3de:	50 e0       	ldi	r21, 0x00	; 0
 3e0:	0e 94 00 00 	call	0	; 0x0 <_ZN9DNSClient5beginERK9IPAddress>
 3e4:	c5 01       	movw	r24, r10
 3e6:	be 01       	movw	r22, r28
 3e8:	6e 5f       	subi	r22, 0xFE	; 254
 3ea:	7f 4f       	sbci	r23, 0xFF	; 255
 3ec:	42 e0       	ldi	r20, 0x02	; 2
 3ee:	50 e0       	ldi	r21, 0x00	; 0
 3f0:	0e 94 00 00 	call	0	; 0x0 <_ZN9DNSClient5beginERK9IPAddress>
 3f4:	04 e0       	ldi	r16, 0x04	; 4
 3f6:	10 e0       	ldi	r17, 0x00	; 0
 3f8:	c5 01       	movw	r24, r10
 3fa:	0e 94 00 00 	call	0	; 0x0 <_ZN9DNSClient5beginERK9IPAddress>
 3fe:	01 50       	subi	r16, 0x01	; 1
 400:	10 40       	sbci	r17, 0x00	; 0
 402:	01 f4       	brne	.+0      	; 0x404 <_ZN9DNSClient15ProcessResponseEjR9IPAddress+0x1f8>
 404:	c5 01       	movw	r24, r10
 406:	be 01       	movw	r22, r28
 408:	6a 5f       	subi	r22, 0xFA	; 250
 40a:	7f 4f       	sbci	r23, 0xFF	; 255
 40c:	42 e0       	ldi	r20, 0x02	; 2
 40e:	50 e0       	ldi	r21, 0x00	; 0
 410:	0e 94 00 00 	call	0	; 0x0 <_ZN9DNSClient5beginERK9IPAddress>
 414:	8c 81       	ldd	r24, Y+4	; 0x04
 416:	9d 81       	ldd	r25, Y+5	; 0x05
 418:	f1 e0       	ldi	r31, 0x01	; 1
 41a:	80 30       	cpi	r24, 0x00	; 0
 41c:	9f 07       	cpc	r25, r31
 41e:	01 f4       	brne	.+0      	; 0x420 <_ZN9DNSClient15ProcessResponseEjR9IPAddress+0x214>
 420:	8a 81       	ldd	r24, Y+2	; 0x02
 422:	9b 81       	ldd	r25, Y+3	; 0x03
 424:	21 e0       	ldi	r18, 0x01	; 1
 426:	80 30       	cpi	r24, 0x00	; 0
 428:	92 07       	cpc	r25, r18
 42a:	01 f4       	brne	.+0      	; 0x42c <_ZN9DNSClient15ProcessResponseEjR9IPAddress+0x220>
 42c:	8e 81       	ldd	r24, Y+6	; 0x06
 42e:	9f 81       	ldd	r25, Y+7	; 0x07
 430:	e4 e0       	ldi	r30, 0x04	; 4
 432:	80 30       	cpi	r24, 0x00	; 0
 434:	9e 07       	cpc	r25, r30
 436:	01 f0       	breq	.+0      	; 0x438 <_ZN9DNSClient15ProcessResponseEjR9IPAddress+0x22c>
 438:	c5 01       	movw	r24, r10
 43a:	0e 94 00 00 	call	0	; 0x0 <_ZN9DNSClient5beginERK9IPAddress>
 43e:	87 ef       	ldi	r24, 0xF7	; 247
 440:	9f ef       	ldi	r25, 0xFF	; 255
 442:	00 c0       	rjmp	.+0      	; 0x444 <_ZN9DNSClient15ProcessResponseEjR9IPAddress+0x238>
 444:	b4 01       	movw	r22, r8
 446:	6e 5f       	subi	r22, 0xFE	; 254
 448:	7f 4f       	sbci	r23, 0xFF	; 255
 44a:	c5 01       	movw	r24, r10
 44c:	44 e0       	ldi	r20, 0x04	; 4
 44e:	50 e0       	ldi	r21, 0x00	; 0
 450:	0e 94 00 00 	call	0	; 0x0 <_ZN9DNSClient5beginERK9IPAddress>
 454:	81 e0       	ldi	r24, 0x01	; 1
 456:	90 e0       	ldi	r25, 0x00	; 0
 458:	00 c0       	rjmp	.+0      	; 0x45a <_ZN9DNSClient15ProcessResponseEjR9IPAddress+0x24e>
 45a:	c5 01       	movw	r24, r10
 45c:	0e 94 00 00 	call	0	; 0x0 <_ZN9DNSClient5beginERK9IPAddress>
 460:	0f 5f       	subi	r16, 0xFF	; 255
 462:	1f 4f       	sbci	r17, 0xFF	; 255
 464:	00 c0       	rjmp	.+0      	; 0x466 <_ZN9DNSClient15ProcessResponseEjR9IPAddress+0x25a>
 466:	00 e0       	ldi	r16, 0x00	; 0
 468:	10 e0       	ldi	r17, 0x00	; 0
 46a:	8e 81       	ldd	r24, Y+6	; 0x06
 46c:	9f 81       	ldd	r25, Y+7	; 0x07
 46e:	98 27       	eor	r25, r24
 470:	89 27       	eor	r24, r25
 472:	98 27       	eor	r25, r24
 474:	08 17       	cp	r16, r24
 476:	19 07       	cpc	r17, r25
 478:	00 f0       	brcs	.+0      	; 0x47a <_ZN9DNSClient15ProcessResponseEjR9IPAddress+0x26e>
 47a:	08 94       	sec
 47c:	e1 1c       	adc	r14, r1
 47e:	f1 1c       	adc	r15, r1
 480:	e4 14       	cp	r14, r4
 482:	f5 04       	cpc	r15, r5
 484:	01 f0       	breq	.+0      	; 0x486 <_ZN9DNSClient15ProcessResponseEjR9IPAddress+0x27a>
 486:	00 c0       	rjmp	.+0      	; 0x488 <_ZN9DNSClient15ProcessResponseEjR9IPAddress+0x27c>
 488:	c5 01       	movw	r24, r10
 48a:	0e 94 00 00 	call	0	; 0x0 <_ZN9DNSClient5beginERK9IPAddress>
 48e:	86 ef       	ldi	r24, 0xF6	; 246
 490:	9f ef       	ldi	r25, 0xFF	; 255
 492:	00 c0       	rjmp	.+0      	; 0x494 <_ZN9DNSClient15ProcessResponseEjR9IPAddress+0x288>
 494:	8f ef       	ldi	r24, 0xFF	; 255
 496:	9f ef       	ldi	r25, 0xFF	; 255
 498:	00 c0       	rjmp	.+0      	; 0x49a <_ZN9DNSClient15ProcessResponseEjR9IPAddress+0x28e>
 49a:	8e ef       	ldi	r24, 0xFE	; 254
 49c:	9f ef       	ldi	r25, 0xFF	; 255
 49e:	00 c0       	rjmp	.+0      	; 0x4a0 <_ZN9DNSClient15ProcessResponseEjR9IPAddress+0x294>
 4a0:	8d ef       	ldi	r24, 0xFD	; 253
 4a2:	9f ef       	ldi	r25, 0xFF	; 255
 4a4:	63 96       	adiw	r28, 0x13	; 19
 4a6:	0f b6       	in	r0, 0x3f	; 63
 4a8:	f8 94       	cli
 4aa:	de bf       	out	0x3e, r29	; 62
 4ac:	0f be       	out	0x3f, r0	; 63
 4ae:	cd bf       	out	0x3d, r28	; 61
 4b0:	df 91       	pop	r29
 4b2:	cf 91       	pop	r28
 4b4:	1f 91       	pop	r17
 4b6:	0f 91       	pop	r16
 4b8:	ff 90       	pop	r15
 4ba:	ef 90       	pop	r14
 4bc:	df 90       	pop	r13
 4be:	cf 90       	pop	r12
 4c0:	bf 90       	pop	r11
 4c2:	af 90       	pop	r10
 4c4:	9f 90       	pop	r9
 4c6:	8f 90       	pop	r8
 4c8:	7f 90       	pop	r7
 4ca:	6f 90       	pop	r6
 4cc:	5f 90       	pop	r5
 4ce:	4f 90       	pop	r4
 4d0:	08 95       	ret
 4d2:	c5 01       	movw	r24, r10
 4d4:	0e 94 00 00 	call	0	; 0x0 <_ZN9DNSClient5beginERK9IPAddress>
 4d8:	8c 30       	cpi	r24, 0x0C	; 12
 4da:	91 05       	cpc	r25, r1
 4dc:	04 f0       	brlt	.+0      	; 0x4de <_ZN9DNSClient15ProcessResponseEjR9IPAddress+0x2d2>
 4de:	00 c0       	rjmp	.+0      	; 0x4e0 <_ZN9DNSClient13getHostByNameEPKcR9IPAddress>

000004e0 <_ZN9DNSClient13getHostByNameEPKcR9IPAddress>:
 4e0:	8f 92       	push	r8
 4e2:	9f 92       	push	r9
 4e4:	af 92       	push	r10
 4e6:	bf 92       	push	r11
 4e8:	cf 92       	push	r12
 4ea:	df 92       	push	r13
 4ec:	ef 92       	push	r14
 4ee:	ff 92       	push	r15
 4f0:	0f 93       	push	r16
 4f2:	1f 93       	push	r17
 4f4:	cf 93       	push	r28
 4f6:	df 93       	push	r29
 4f8:	00 d0       	rcall	.+0      	; 0x4fa <_ZN9DNSClient13getHostByNameEPKcR9IPAddress+0x1a>
 4fa:	00 d0       	rcall	.+0      	; 0x4fc <_ZN9DNSClient13getHostByNameEPKcR9IPAddress+0x1c>
 4fc:	00 d0       	rcall	.+0      	; 0x4fe <_ZN9DNSClient13getHostByNameEPKcR9IPAddress+0x1e>
 4fe:	cd b7       	in	r28, 0x3d	; 61
 500:	de b7       	in	r29, 0x3e	; 62
 502:	6c 01       	movw	r12, r24
 504:	7b 01       	movw	r14, r22
 506:	4a 01       	movw	r8, r20
 508:	0e 94 00 00 	call	0	; 0x0 <_ZN9DNSClient5beginERK9IPAddress>
 50c:	00 97       	sbiw	r24, 0x00	; 0
 50e:	01 f0       	breq	.+0      	; 0x510 <_ZN9DNSClient13getHostByNameEPKcR9IPAddress+0x30>
 510:	00 c0       	rjmp	.+0      	; 0x512 <_ZN9DNSClient13getHostByNameEPKcR9IPAddress+0x32>
 512:	f6 01       	movw	r30, r12
 514:	82 81       	ldd	r24, Z+2	; 0x02
 516:	93 81       	ldd	r25, Z+3	; 0x03
 518:	a4 81       	ldd	r26, Z+4	; 0x04
 51a:	b5 81       	ldd	r27, Z+5	; 0x05
 51c:	40 91 00 00 	lds	r20, 0x0000
 520:	50 91 00 00 	lds	r21, 0x0000
 524:	60 91 00 00 	lds	r22, 0x0000
 528:	70 91 00 00 	lds	r23, 0x0000
 52c:	84 17       	cp	r24, r20
 52e:	95 07       	cpc	r25, r21
 530:	a6 07       	cpc	r26, r22
 532:	b7 07       	cpc	r27, r23
 534:	01 f4       	brne	.+0      	; 0x536 <_ZN9DNSClient13getHostByNameEPKcR9IPAddress+0x56>
 536:	00 c0       	rjmp	.+0      	; 0x538 <_ZN9DNSClient13getHostByNameEPKcR9IPAddress+0x58>
 538:	48 e0       	ldi	r20, 0x08	; 8
 53a:	a4 2e       	mov	r10, r20
 53c:	b1 2c       	mov	r11, r1
 53e:	ac 0c       	add	r10, r12
 540:	bd 1c       	adc	r11, r13
 542:	0e 94 00 00 	call	0	; 0x0 <_ZN9DNSClient5beginERK9IPAddress>
 546:	6f 70       	andi	r22, 0x0F	; 15
 548:	70 70       	andi	r23, 0x00	; 0
 54a:	60 50       	subi	r22, 0x00	; 0
 54c:	7c 4f       	sbci	r23, 0xFC	; 252
 54e:	c5 01       	movw	r24, r10
 550:	0e 94 00 00 	call	0	; 0x0 <_ZN9DNSClient5beginERK9IPAddress>
 554:	81 30       	cpi	r24, 0x01	; 1
 556:	01 f0       	breq	.+0      	; 0x558 <_ZN9DNSClient13getHostByNameEPKcR9IPAddress+0x78>
 558:	00 c0       	rjmp	.+0      	; 0x55a <_ZN9DNSClient13getHostByNameEPKcR9IPAddress+0x7a>
 55a:	80 e0       	ldi	r24, 0x00	; 0
 55c:	90 e0       	ldi	r25, 0x00	; 0
 55e:	9a 83       	std	Y+2, r25	; 0x02
 560:	89 83       	std	Y+1, r24	; 0x01
 562:	f6 01       	movw	r30, r12
 564:	82 81       	ldd	r24, Z+2	; 0x02
 566:	93 81       	ldd	r25, Z+3	; 0x03
 568:	a4 81       	ldd	r26, Z+4	; 0x04
 56a:	b5 81       	ldd	r27, Z+5	; 0x05
 56c:	8b 83       	std	Y+3, r24	; 0x03
 56e:	9c 83       	std	Y+4, r25	; 0x04
 570:	ad 83       	std	Y+5, r26	; 0x05
 572:	be 83       	std	Y+6, r27	; 0x06
 574:	c5 01       	movw	r24, r10
 576:	be 01       	movw	r22, r28
 578:	6f 5f       	subi	r22, 0xFF	; 255
 57a:	7f 4f       	sbci	r23, 0xFF	; 255
 57c:	45 e3       	ldi	r20, 0x35	; 53
 57e:	50 e0       	ldi	r21, 0x00	; 0
 580:	0e 94 00 00 	call	0	; 0x0 <_ZN9DNSClient5beginERK9IPAddress>
 584:	8c 01       	movw	r16, r24
 586:	00 97       	sbiw	r24, 0x00	; 0
 588:	01 f0       	breq	.+0      	; 0x58a <_ZN9DNSClient13getHostByNameEPKcR9IPAddress+0xaa>
 58a:	c6 01       	movw	r24, r12
 58c:	b7 01       	movw	r22, r14
 58e:	0e 94 00 00 	call	0	; 0x0 <_ZN9DNSClient5beginERK9IPAddress>
 592:	00 97       	sbiw	r24, 0x00	; 0
 594:	01 f0       	breq	.+0      	; 0x596 <_ZN9DNSClient13getHostByNameEPKcR9IPAddress+0xb6>
 596:	c5 01       	movw	r24, r10
 598:	0e 94 00 00 	call	0	; 0x0 <_ZN9DNSClient5beginERK9IPAddress>
 59c:	8c 01       	movw	r16, r24
 59e:	00 97       	sbiw	r24, 0x00	; 0
 5a0:	01 f4       	brne	.+0      	; 0x5a2 <_ZN9DNSClient13getHostByNameEPKcR9IPAddress+0xc2>
 5a2:	00 c0       	rjmp	.+0      	; 0x5a4 <_ZN9DNSClient13getHostByNameEPKcR9IPAddress+0xc4>
 5a4:	ff ef       	ldi	r31, 0xFF	; 255
 5a6:	0f 3f       	cpi	r16, 0xFF	; 255
 5a8:	1f 07       	cpc	r17, r31
 5aa:	01 f4       	brne	.+0      	; 0x5ac <_ZN9DNSClient13getHostByNameEPKcR9IPAddress+0xcc>
 5ac:	00 c0       	rjmp	.+0      	; 0x5ae <_ZN9DNSClient13getHostByNameEPKcR9IPAddress+0xce>
 5ae:	33 e0       	ldi	r19, 0x03	; 3
 5b0:	e3 2e       	mov	r14, r19
 5b2:	f1 2c       	mov	r15, r1
 5b4:	c6 01       	movw	r24, r12
 5b6:	68 e8       	ldi	r22, 0x88	; 136
 5b8:	73 e1       	ldi	r23, 0x13	; 19
 5ba:	a4 01       	movw	r20, r8
 5bc:	0e 94 00 00 	call	0	; 0x0 <_ZN9DNSClient5beginERK9IPAddress>
 5c0:	8c 01       	movw	r16, r24
 5c2:	08 94       	sec
 5c4:	e1 08       	sbc	r14, r1
 5c6:	f1 08       	sbc	r15, r1
 5c8:	e1 14       	cp	r14, r1
 5ca:	f1 04       	cpc	r15, r1
 5cc:	01 f0       	breq	.+0      	; 0x5ce <_ZN9DNSClient13getHostByNameEPKcR9IPAddress+0xee>
 5ce:	00 c0       	rjmp	.+0      	; 0x5d0 <_ZN9DNSClient13getHostByNameEPKcR9IPAddress+0xf0>
 5d0:	00 e0       	ldi	r16, 0x00	; 0
 5d2:	10 e0       	ldi	r17, 0x00	; 0
 5d4:	c5 01       	movw	r24, r10
 5d6:	0e 94 00 00 	call	0	; 0x0 <_ZN9DNSClient5beginERK9IPAddress>
 5da:	00 c0       	rjmp	.+0      	; 0x5dc <_ZN9DNSClient13getHostByNameEPKcR9IPAddress+0xfc>
 5dc:	01 e0       	ldi	r16, 0x01	; 1
 5de:	10 e0       	ldi	r17, 0x00	; 0
 5e0:	00 c0       	rjmp	.+0      	; 0x5e2 <_ZN9DNSClient13getHostByNameEPKcR9IPAddress+0x102>
 5e2:	0e ef       	ldi	r16, 0xFE	; 254
 5e4:	1f ef       	ldi	r17, 0xFF	; 255
 5e6:	00 c0       	rjmp	.+0      	; 0x5e8 <_ZN9DNSClient13getHostByNameEPKcR9IPAddress+0x108>
 5e8:	00 e0       	ldi	r16, 0x00	; 0
 5ea:	10 e0       	ldi	r17, 0x00	; 0
 5ec:	c8 01       	movw	r24, r16
 5ee:	26 96       	adiw	r28, 0x06	; 6
 5f0:	0f b6       	in	r0, 0x3f	; 63
 5f2:	f8 94       	cli
 5f4:	de bf       	out	0x3e, r29	; 62
 5f6:	0f be       	out	0x3f, r0	; 63
 5f8:	cd bf       	out	0x3d, r28	; 61
 5fa:	df 91       	pop	r29
 5fc:	cf 91       	pop	r28
 5fe:	1f 91       	pop	r17
 600:	0f 91       	pop	r16
 602:	ff 90       	pop	r15
 604:	ef 90       	pop	r14
 606:	df 90       	pop	r13
 608:	cf 90       	pop	r12
 60a:	bf 90       	pop	r11
 60c:	af 90       	pop	r10
 60e:	9f 90       	pop	r9
 610:	8f 90       	pop	r8
 612:	08 95       	ret

Disassembly of section .text.startup:

00000000 <_GLOBAL__sub_I__ZN9DNSClient5beginERK9IPAddress>:
   0:	0f 93       	push	r16
   2:	80 e0       	ldi	r24, 0x00	; 0
   4:	90 e0       	ldi	r25, 0x00	; 0
   6:	60 e0       	ldi	r22, 0x00	; 0
   8:	40 e0       	ldi	r20, 0x00	; 0
   a:	20 e0       	ldi	r18, 0x00	; 0
   c:	00 e0       	ldi	r16, 0x00	; 0
   e:	0e 94 00 00 	call	0	; 0x0 <_GLOBAL__sub_I__ZN9DNSClient5beginERK9IPAddress>
  12:	0f 91       	pop	r16
  14:	08 95       	ret

Ethernet.o:     file format elf32-avr

Sections:
Idx Name          Size      VMA       LMA       File off  Algn
  0 .text         0000051c  00000000  00000000  00000034  2**0
                  CONTENTS, ALLOC, LOAD, RELOC, READONLY, CODE
  1 .data         00000006  00000000  00000000  00000550  2**0
                  CONTENTS, ALLOC, LOAD, RELOC, DATA
  2 .bss          0000001a  00000000  00000000  00000556  2**0
                  ALLOC
  3 .text.startup 0000001e  00000000  00000000  00000556  2**0
                  CONTENTS, ALLOC, LOAD, RELOC, READONLY, CODE
  4 .ctors        00000002  00000000  00000000  00000574  2**0
                  CONTENTS, ALLOC, LOAD, RELOC, READONLY, DATA

Disassembly of section .text:

00000000 <_ZN10W5100Class12setGatewayIpEPh.isra.1>:
   0:	bc 01       	movw	r22, r24
   2:	81 e0       	ldi	r24, 0x01	; 1
   4:	90 e0       	ldi	r25, 0x00	; 0
   6:	44 e0       	ldi	r20, 0x04	; 4
   8:	50 e0       	ldi	r21, 0x00	; 0
   a:	0e 94 00 00 	call	0	; 0x0 <_ZN10W5100Class12setGatewayIpEPh.isra.1>
   e:	08 95       	ret

00000010 <_ZN10W5100Class13setSubnetMaskEPh.isra.3>:
  10:	bc 01       	movw	r22, r24
  12:	85 e0       	ldi	r24, 0x05	; 5
  14:	90 e0       	ldi	r25, 0x00	; 0
  16:	44 e0       	ldi	r20, 0x04	; 4
  18:	50 e0       	ldi	r21, 0x00	; 0
  1a:	0e 94 00 00 	call	0	; 0x0 <_ZN10W5100Class12setGatewayIpEPh.isra.1>
  1e:	08 95       	ret

00000020 <_ZN10W5100Class12setIPAddressEPh.isra.6>:
  20:	bc 01       	movw	r22, r24
  22:	8f e0       	ldi	r24, 0x0F	; 15
  24:	90 e0       	ldi	r25, 0x00	; 0
  26:	44 e0       	ldi	r20, 0x04	; 4
  28:	50 e0       	ldi	r21, 0x00	; 0
  2a:	0e 94 00 00 	call	0	; 0x0 <_ZN10W5100Class12setGatewayIpEPh.isra.1>
  2e:	08 95       	ret

00000030 <_ZN13EthernetClass5beginEPh>:
  30:	cf 92       	push	r12
  32:	df 92       	push	r13
  34:	ef 92       	push	r14
  36:	ff 92       	push	r15
  38:	0f 93       	push	r16
  3a:	1f 93       	push	r17
  3c:	cf 93       	push	r28
  3e:	df 93       	push	r29
  40:	cd b7       	in	r28, 0x3d	; 61
  42:	de b7       	in	r29, 0x3e	; 62
  44:	6e 97       	sbiw	r28, 0x1e	; 30
  46:	0f b6       	in	r0, 0x3f	; 63
  48:	f8 94       	cli
  4a:	de bf       	out	0x3e, r29	; 62
  4c:	0f be       	out	0x3f, r0	; 63
  4e:	cd bf       	out	0x3d, r28	; 61
  50:	6c 01       	movw	r12, r24
  52:	7b 01       	movw	r14, r22
  54:	82 e6       	ldi	r24, 0x62	; 98
  56:	90 e0       	ldi	r25, 0x00	; 0
  58:	0e 94 00 00 	call	0	; 0x0 <_ZN10W5100Class12setGatewayIpEPh.isra.1>
  5c:	8c 01       	movw	r16, r24
  5e:	82 e6       	ldi	r24, 0x62	; 98
  60:	f8 01       	movw	r30, r16
  62:	11 92       	st	Z+, r1
  64:	8a 95       	dec	r24
  66:	01 f4       	brne	.+0      	; 0x68 <_ZN13EthernetClass5beginEPh+0x38>
  68:	c8 01       	movw	r24, r16
  6a:	89 5b       	subi	r24, 0xB9	; 185
  6c:	9f 4f       	sbci	r25, 0xFF	; 255
  6e:	0e 94 00 00 	call	0	; 0x0 <_ZN10W5100Class12setGatewayIpEPh.isra.1>
  72:	f6 01       	movw	r30, r12
  74:	17 83       	std	Z+7, r17	; 0x07
  76:	06 83       	std	Z+6, r16	; 0x06
  78:	80 e0       	ldi	r24, 0x00	; 0
  7a:	90 e0       	ldi	r25, 0x00	; 0
  7c:	0e 94 00 00 	call	0	; 0x0 <_ZN10W5100Class12setGatewayIpEPh.isra.1>
  80:	89 e0       	ldi	r24, 0x09	; 9
  82:	90 e0       	ldi	r25, 0x00	; 0
  84:	b7 01       	movw	r22, r14
  86:	46 e0       	ldi	r20, 0x06	; 6
  88:	50 e0       	ldi	r21, 0x00	; 0
  8a:	0e 94 00 00 	call	0	; 0x0 <_ZN10W5100Class12setGatewayIpEPh.isra.1>
  8e:	ce 01       	movw	r24, r28
  90:	49 96       	adiw	r24, 0x19	; 25
  92:	60 e0       	ldi	r22, 0x00	; 0
  94:	40 e0       	ldi	r20, 0x00	; 0
  96:	20 e0       	ldi	r18, 0x00	; 0
  98:	00 e0       	ldi	r16, 0x00	; 0
  9a:	0e 94 00 00 	call	0	; 0x0 <_ZN10W5100Class12setGatewayIpEPh.isra.1>
  9e:	ce 01       	movw	r24, r28
  a0:	4b 96       	adiw	r24, 0x1b	; 27
  a2:	0e 94 00 00 	call	0	; 0x0 <_ZN10W5100Class12setGatewayIpEPh.isra.1>
  a6:	f6 01       	movw	r30, r12
  a8:	86 81       	ldd	r24, Z+6	; 0x06
  aa:	97 81       	ldd	r25, Z+7	; 0x07
  ac:	b7 01       	movw	r22, r14
  ae:	20 e6       	ldi	r18, 0x60	; 96
  b0:	3a ee       	ldi	r19, 0xEA	; 234
  b2:	40 e0       	ldi	r20, 0x00	; 0
  b4:	50 e0       	ldi	r21, 0x00	; 0
  b6:	a0 ea       	ldi	r26, 0xA0	; 160
  b8:	ea 2e       	mov	r14, r26
  ba:	af e0       	ldi	r26, 0x0F	; 15
  bc:	fa 2e       	mov	r15, r26
  be:	01 2d       	mov	r16, r1
  c0:	11 2d       	mov	r17, r1
  c2:	0e 94 00 00 	call	0	; 0x0 <_ZN10W5100Class12setGatewayIpEPh.isra.1>
  c6:	8c 01       	movw	r16, r24
  c8:	81 30       	cpi	r24, 0x01	; 1
  ca:	91 05       	cpc	r25, r1
  cc:	01 f4       	brne	.+0      	; 0xce <_ZN13EthernetClass5beginEPh+0x9e>
  ce:	f6 01       	movw	r30, r12
  d0:	66 81       	ldd	r22, Z+6	; 0x06
  d2:	77 81       	ldd	r23, Z+7	; 0x07
  d4:	ce 01       	movw	r24, r28
  d6:	43 96       	adiw	r24, 0x13	; 19
  d8:	0e 94 00 00 	call	0	; 0x0 <_ZN10W5100Class12setGatewayIpEPh.isra.1>
  dc:	ce 01       	movw	r24, r28
  de:	45 96       	adiw	r24, 0x15	; 21
  e0:	0e 94 00 00 	call	0	; 0x0 <_ZN10W5100Class12setGatewayIpEPh.isra.1>
  e4:	f6 01       	movw	r30, r12
  e6:	66 81       	ldd	r22, Z+6	; 0x06
  e8:	77 81       	ldd	r23, Z+7	; 0x07
  ea:	ce 01       	movw	r24, r28
  ec:	0d 96       	adiw	r24, 0x0d	; 13
  ee:	0e 94 00 00 	call	0	; 0x0 <_ZN10W5100Class12setGatewayIpEPh.isra.1>
  f2:	ce 01       	movw	r24, r28
  f4:	0f 96       	adiw	r24, 0x0f	; 15
  f6:	0e 94 00 00 	call	0	; 0x0 <_ZN10W5100Class12setGatewayIpEPh.isra.1>
  fa:	f6 01       	movw	r30, r12
  fc:	66 81       	ldd	r22, Z+6	; 0x06
  fe:	77 81       	ldd	r23, Z+7	; 0x07
 100:	ce 01       	movw	r24, r28
 102:	07 96       	adiw	r24, 0x07	; 7
 104:	0e 94 00 00 	call	0	; 0x0 <_ZN10W5100Class12setGatewayIpEPh.isra.1>
 108:	ce 01       	movw	r24, r28
 10a:	09 96       	adiw	r24, 0x09	; 9
 10c:	0e 94 00 00 	call	0	; 0x0 <_ZN10W5100Class12setGatewayIpEPh.isra.1>
 110:	f6 01       	movw	r30, r12
 112:	66 81       	ldd	r22, Z+6	; 0x06
 114:	77 81       	ldd	r23, Z+7	; 0x07
 116:	ce 01       	movw	r24, r28
 118:	01 96       	adiw	r24, 0x01	; 1
 11a:	0e 94 00 00 	call	0	; 0x0 <_ZN10W5100Class12setGatewayIpEPh.isra.1>
 11e:	8b 81       	ldd	r24, Y+3	; 0x03
 120:	9c 81       	ldd	r25, Y+4	; 0x04
 122:	ad 81       	ldd	r26, Y+5	; 0x05
 124:	be 81       	ldd	r27, Y+6	; 0x06
 126:	f6 01       	movw	r30, r12
 128:	82 83       	std	Z+2, r24	; 0x02
 12a:	93 83       	std	Z+3, r25	; 0x03
 12c:	a4 83       	std	Z+4, r26	; 0x04
 12e:	b5 83       	std	Z+5, r27	; 0x05
 130:	c8 01       	movw	r24, r16
 132:	6e 96       	adiw	r28, 0x1e	; 30
 134:	0f b6       	in	r0, 0x3f	; 63
 136:	f8 94       	cli
 138:	de bf       	out	0x3e, r29	; 62
 13a:	0f be       	out	0x3f, r0	; 63
 13c:	cd bf       	out	0x3d, r28	; 61
 13e:	df 91       	pop	r29
 140:	cf 91       	pop	r28
 142:	1f 91       	pop	r17
 144:	0f 91       	pop	r16
 146:	ff 90       	pop	r15
 148:	ef 90       	pop	r14
 14a:	df 90       	pop	r13
 14c:	cf 90       	pop	r12
 14e:	08 95       	ret

00000150 <_ZN13EthernetClass5beginEPh9IPAddressS1_S1_S1_>:
 150:	6f 92       	push	r6
 152:	7f 92       	push	r7
 154:	8f 92       	push	r8
 156:	9f 92       	push	r9
 158:	af 92       	push	r10
 15a:	bf 92       	push	r11
 15c:	cf 92       	push	r12
 15e:	df 92       	push	r13
 160:	ef 92       	push	r14
 162:	ff 92       	push	r15
 164:	0f 93       	push	r16
 166:	1f 93       	push	r17
 168:	cf 93       	push	r28
 16a:	df 93       	push	r29
 16c:	3c 01       	movw	r6, r24
 16e:	4b 01       	movw	r8, r22
 170:	5a 01       	movw	r10, r20
 172:	69 01       	movw	r12, r18
 174:	80 e0       	ldi	r24, 0x00	; 0
 176:	90 e0       	ldi	r25, 0x00	; 0
 178:	0e 94 00 00 	call	0	; 0x0 <_ZN10W5100Class12setGatewayIpEPh.isra.1>
 17c:	89 e0       	ldi	r24, 0x09	; 9
 17e:	90 e0       	ldi	r25, 0x00	; 0
 180:	b4 01       	movw	r22, r8
 182:	46 e0       	ldi	r20, 0x06	; 6
 184:	50 e0       	ldi	r21, 0x00	; 0
 186:	0e 94 00 00 	call	0	; 0x0 <_ZN10W5100Class12setGatewayIpEPh.isra.1>
 18a:	c5 01       	movw	r24, r10
 18c:	02 96       	adiw	r24, 0x02	; 2
 18e:	0e 94 00 00 	call	0	; 0x0 <_ZN10W5100Class12setGatewayIpEPh.isra.1>
 192:	c8 01       	movw	r24, r16
 194:	02 96       	adiw	r24, 0x02	; 2
 196:	0e 94 00 00 	call	0	; 0x0 <_ZN10W5100Class12setGatewayIpEPh.isra.1>
 19a:	c7 01       	movw	r24, r14
 19c:	02 96       	adiw	r24, 0x02	; 2
 19e:	0e 94 00 00 	call	0	; 0x0 <_ZN10W5100Class12setGatewayIpEPh.isra.1>
 1a2:	f6 01       	movw	r30, r12
 1a4:	82 81       	ldd	r24, Z+2	; 0x02
 1a6:	93 81       	ldd	r25, Z+3	; 0x03
 1a8:	a4 81       	ldd	r26, Z+4	; 0x04
 1aa:	b5 81       	ldd	r27, Z+5	; 0x05
 1ac:	f3 01       	movw	r30, r6
 1ae:	82 83       	std	Z+2, r24	; 0x02
 1b0:	93 83       	std	Z+3, r25	; 0x03
 1b2:	a4 83       	std	Z+4, r26	; 0x04
 1b4:	b5 83       	std	Z+5, r27	; 0x05
 1b6:	df 91       	pop	r29
 1b8:	cf 91       	pop	r28
 1ba:	1f 91       	pop	r17
 1bc:	0f 91       	pop	r16
 1be:	ff 90       	pop	r15
 1c0:	ef 90       	pop	r14
 1c2:	df 90       	pop	r13
 1c4:	cf 90       	pop	r12
 1c6:	bf 90       	pop	r11
 1c8:	af 90       	pop	r10
 1ca:	9f 90       	pop	r9
 1cc:	8f 90       	pop	r8
 1ce:	7f 90       	pop	r7
 1d0:	6f 90       	pop	r6
 1d2:	08 95       	ret

000001d4 <_ZN13EthernetClass5beginEPh9IPAddressS1_S1_>:
 1d4:	6f 92       	push	r6
 1d6:	7f 92       	push	r7
 1d8:	8f 92       	push	r8
 1da:	9f 92       	push	r9
 1dc:	af 92       	push	r10
 1de:	bf 92       	push	r11
 1e0:	cf 92       	push	r12
 1e2:	df 92       	push	r13
 1e4:	ef 92       	push	r14
 1e6:	ff 92       	push	r15
 1e8:	0f 93       	push	r16
 1ea:	1f 93       	push	r17
 1ec:	cf 93       	push	r28
 1ee:	df 93       	push	r29
 1f0:	cd b7       	in	r28, 0x3d	; 61
 1f2:	de b7       	in	r29, 0x3e	; 62
 1f4:	6e 97       	sbiw	r28, 0x1e	; 30
 1f6:	0f b6       	in	r0, 0x3f	; 63
 1f8:	f8 94       	cli
 1fa:	de bf       	out	0x3e, r29	; 62
 1fc:	0f be       	out	0x3f, r0	; 63
 1fe:	cd bf       	out	0x3d, r28	; 61
 200:	3c 01       	movw	r6, r24
 202:	4b 01       	movw	r8, r22
 204:	7a 01       	movw	r14, r20
 206:	69 01       	movw	r12, r18
 208:	58 01       	movw	r10, r16
 20a:	ce 01       	movw	r24, r28
 20c:	49 96       	adiw	r24, 0x19	; 25
 20e:	6f ef       	ldi	r22, 0xFF	; 255
 210:	4f ef       	ldi	r20, 0xFF	; 255
 212:	2f ef       	ldi	r18, 0xFF	; 255
 214:	00 e0       	ldi	r16, 0x00	; 0
 216:	0e 94 00 00 	call	0	; 0x0 <_ZN10W5100Class12setGatewayIpEPh.isra.1>
 21a:	20 e0       	ldi	r18, 0x00	; 0
 21c:	30 e0       	ldi	r19, 0x00	; 0
 21e:	3c 8b       	std	Y+20, r19	; 0x14
 220:	2b 8b       	std	Y+19, r18	; 0x13
 222:	f7 01       	movw	r30, r14
 224:	82 81       	ldd	r24, Z+2	; 0x02
 226:	93 81       	ldd	r25, Z+3	; 0x03
 228:	a4 81       	ldd	r26, Z+4	; 0x04
 22a:	b5 81       	ldd	r27, Z+5	; 0x05
 22c:	8d 8b       	std	Y+21, r24	; 0x15
 22e:	9e 8b       	std	Y+22, r25	; 0x16
 230:	af 8b       	std	Y+23, r26	; 0x17
 232:	b8 8f       	std	Y+24, r27	; 0x18
 234:	3e 87       	std	Y+14, r19	; 0x0e
 236:	2d 87       	std	Y+13, r18	; 0x0d
 238:	f6 01       	movw	r30, r12
 23a:	82 81       	ldd	r24, Z+2	; 0x02
 23c:	93 81       	ldd	r25, Z+3	; 0x03
 23e:	a4 81       	ldd	r26, Z+4	; 0x04
 240:	b5 81       	ldd	r27, Z+5	; 0x05
 242:	8f 87       	std	Y+15, r24	; 0x0f
 244:	98 8b       	std	Y+16, r25	; 0x10
 246:	a9 8b       	std	Y+17, r26	; 0x11
 248:	ba 8b       	std	Y+18, r27	; 0x12
 24a:	38 87       	std	Y+8, r19	; 0x08
 24c:	2f 83       	std	Y+7, r18	; 0x07
 24e:	f5 01       	movw	r30, r10
 250:	82 81       	ldd	r24, Z+2	; 0x02
 252:	93 81       	ldd	r25, Z+3	; 0x03
 254:	a4 81       	ldd	r26, Z+4	; 0x04
 256:	b5 81       	ldd	r27, Z+5	; 0x05
 258:	89 87       	std	Y+9, r24	; 0x09
 25a:	9a 87       	std	Y+10, r25	; 0x0a
 25c:	ab 87       	std	Y+11, r26	; 0x0b
 25e:	bc 87       	std	Y+12, r27	; 0x0c
 260:	3a 83       	std	Y+2, r19	; 0x02
 262:	29 83       	std	Y+1, r18	; 0x01
 264:	8b 8d       	ldd	r24, Y+27	; 0x1b
 266:	9c 8d       	ldd	r25, Y+28	; 0x1c
 268:	ad 8d       	ldd	r26, Y+29	; 0x1d
 26a:	be 8d       	ldd	r27, Y+30	; 0x1e
 26c:	8b 83       	std	Y+3, r24	; 0x03
 26e:	9c 83       	std	Y+4, r25	; 0x04
 270:	ad 83       	std	Y+5, r26	; 0x05
 272:	be 83       	std	Y+6, r27	; 0x06
 274:	c3 01       	movw	r24, r6
 276:	b4 01       	movw	r22, r8
 278:	ae 01       	movw	r20, r28
 27a:	4d 5e       	subi	r20, 0xED	; 237
 27c:	5f 4f       	sbci	r21, 0xFF	; 255
 27e:	9e 01       	movw	r18, r28
 280:	23 5f       	subi	r18, 0xF3	; 243
 282:	3f 4f       	sbci	r19, 0xFF	; 255
 284:	8e 01       	movw	r16, r28
 286:	09 5f       	subi	r16, 0xF9	; 249
 288:	1f 4f       	sbci	r17, 0xFF	; 255
 28a:	7e 01       	movw	r14, r28
 28c:	08 94       	sec
 28e:	e1 1c       	adc	r14, r1
 290:	f1 1c       	adc	r15, r1
 292:	0e 94 00 00 	call	0	; 0x0 <_ZN10W5100Class12setGatewayIpEPh.isra.1>
 296:	6e 96       	adiw	r28, 0x1e	; 30
 298:	0f b6       	in	r0, 0x3f	; 63
 29a:	f8 94       	cli
 29c:	de bf       	out	0x3e, r29	; 62
 29e:	0f be       	out	0x3f, r0	; 63
 2a0:	cd bf       	out	0x3d, r28	; 61
 2a2:	df 91       	pop	r29
 2a4:	cf 91       	pop	r28
 2a6:	1f 91       	pop	r17
 2a8:	0f 91       	pop	r16
 2aa:	ff 90       	pop	r15
 2ac:	ef 90       	pop	r14
 2ae:	df 90       	pop	r13
 2b0:	cf 90       	pop	r12
 2b2:	bf 90       	pop	r11
 2b4:	af 90       	pop	r10
 2b6:	9f 90       	pop	r9
 2b8:	8f 90       	pop	r8
 2ba:	7f 90       	pop	r7
 2bc:	6f 90       	pop	r6
 2be:	08 95       	ret

000002c0 <_ZN13EthernetClass5beginEPh9IPAddressS1_>:
 2c0:	ef 92       	push	r14
 2c2:	ff 92       	push	r15
 2c4:	0f 93       	push	r16
 2c6:	1f 93       	push	r17
 2c8:	cf 93       	push	r28
 2ca:	df 93       	push	r29
 2cc:	cd b7       	in	r28, 0x3d	; 61
 2ce:	de b7       	in	r29, 0x3e	; 62
 2d0:	68 97       	sbiw	r28, 0x18	; 24
 2d2:	0f b6       	in	r0, 0x3f	; 63
 2d4:	f8 94       	cli
 2d6:	de bf       	out	0x3e, r29	; 62
 2d8:	0f be       	out	0x3f, r0	; 63
 2da:	cd bf       	out	0x3d, r28	; 61
 2dc:	7b 01       	movw	r14, r22
 2de:	da 01       	movw	r26, r20
 2e0:	12 96       	adiw	r26, 0x02	; 2
 2e2:	4d 91       	ld	r20, X+
 2e4:	5d 91       	ld	r21, X+
 2e6:	6d 91       	ld	r22, X+
 2e8:	7c 91       	ld	r23, X
 2ea:	15 97       	sbiw	r26, 0x05	; 5
 2ec:	4d 8b       	std	Y+21, r20	; 0x15
 2ee:	5e 8b       	std	Y+22, r21	; 0x16
 2f0:	6f 8b       	std	Y+23, r22	; 0x17
 2f2:	78 8f       	std	Y+24, r23	; 0x18
 2f4:	e0 e0       	ldi	r30, 0x00	; 0
 2f6:	f0 e0       	ldi	r31, 0x00	; 0
 2f8:	fe 87       	std	Y+14, r31	; 0x0e
 2fa:	ed 87       	std	Y+13, r30	; 0x0d
 2fc:	4f 87       	std	Y+15, r20	; 0x0f
 2fe:	58 8b       	std	Y+16, r21	; 0x10
 300:	69 8b       	std	Y+17, r22	; 0x11
 302:	7a 8b       	std	Y+18, r23	; 0x12
 304:	f8 87       	std	Y+8, r31	; 0x08
 306:	ef 83       	std	Y+7, r30	; 0x07
 308:	d9 01       	movw	r26, r18
 30a:	12 96       	adiw	r26, 0x02	; 2
 30c:	0d 91       	ld	r16, X+
 30e:	1d 91       	ld	r17, X+
 310:	2d 91       	ld	r18, X+
 312:	3c 91       	ld	r19, X
 314:	15 97       	sbiw	r26, 0x05	; 5
 316:	09 87       	std	Y+9, r16	; 0x09
 318:	1a 87       	std	Y+10, r17	; 0x0a
 31a:	2b 87       	std	Y+11, r18	; 0x0b
 31c:	3c 87       	std	Y+12, r19	; 0x0c
 31e:	fa 83       	std	Y+2, r31	; 0x02
 320:	e9 83       	std	Y+1, r30	; 0x01
 322:	4b 83       	std	Y+3, r20	; 0x03
 324:	5c 83       	std	Y+4, r21	; 0x04
 326:	6d 83       	std	Y+5, r22	; 0x05
 328:	7e 83       	std	Y+6, r23	; 0x06
 32a:	21 e0       	ldi	r18, 0x01	; 1
 32c:	2e 83       	std	Y+6, r18	; 0x06
 32e:	b7 01       	movw	r22, r14
 330:	ae 01       	movw	r20, r28
 332:	43 5f       	subi	r20, 0xF3	; 243
 334:	5f 4f       	sbci	r21, 0xFF	; 255
 336:	9e 01       	movw	r18, r28
 338:	29 5f       	subi	r18, 0xF9	; 249
 33a:	3f 4f       	sbci	r19, 0xFF	; 255
 33c:	8e 01       	movw	r16, r28
 33e:	0f 5f       	subi	r16, 0xFF	; 255
 340:	1f 4f       	sbci	r17, 0xFF	; 255
 342:	0e 94 00 00 	call	0	; 0x0 <_ZN10W5100Class12setGatewayIpEPh.isra.1>
 346:	68 96       	adiw	r28, 0x18	; 24
 348:	0f b6       	in	r0, 0x3f	; 63
 34a:	f8 94       	cli
 34c:	de bf       	out	0x3e, r29	; 62
 34e:	0f be       	out	0x3f, r0	; 63
 350:	cd bf       	out	0x3d, r28	; 61
 352:	df 91       	pop	r29
 354:	cf 91       	pop	r28
 356:	1f 91       	pop	r17
 358:	0f 91       	pop	r16
 35a:	ff 90       	pop	r15
 35c:	ef 90       	pop	r14
 35e:	08 95       	ret

00000360 <_ZN13EthernetClass5beginEPh9IPAddress>:
 360:	cf 93       	push	r28
 362:	df 93       	push	r29
 364:	cd b7       	in	r28, 0x3d	; 61
 366:	de b7       	in	r29, 0x3e	; 62
 368:	62 97       	sbiw	r28, 0x12	; 18
 36a:	0f b6       	in	r0, 0x3f	; 63
 36c:	f8 94       	cli
 36e:	de bf       	out	0x3e, r29	; 62
 370:	0f be       	out	0x3f, r0	; 63
 372:	cd bf       	out	0x3d, r28	; 61
 374:	fb 01       	movw	r30, r22
 376:	da 01       	movw	r26, r20
 378:	12 96       	adiw	r26, 0x02	; 2
 37a:	4d 91       	ld	r20, X+
 37c:	5d 91       	ld	r21, X+
 37e:	6d 91       	ld	r22, X+
 380:	7c 91       	ld	r23, X
 382:	15 97       	sbiw	r26, 0x05	; 5
 384:	4f 87       	std	Y+15, r20	; 0x0f
 386:	58 8b       	std	Y+16, r21	; 0x10
 388:	69 8b       	std	Y+17, r22	; 0x11
 38a:	7a 8b       	std	Y+18, r23	; 0x12
 38c:	20 e0       	ldi	r18, 0x00	; 0
 38e:	30 e0       	ldi	r19, 0x00	; 0
 390:	38 87       	std	Y+8, r19	; 0x08
 392:	2f 83       	std	Y+7, r18	; 0x07
 394:	49 87       	std	Y+9, r20	; 0x09
 396:	5a 87       	std	Y+10, r21	; 0x0a
 398:	6b 87       	std	Y+11, r22	; 0x0b
 39a:	7c 87       	std	Y+12, r23	; 0x0c
 39c:	3a 83       	std	Y+2, r19	; 0x02
 39e:	29 83       	std	Y+1, r18	; 0x01
 3a0:	4b 83       	std	Y+3, r20	; 0x03
 3a2:	5c 83       	std	Y+4, r21	; 0x04
 3a4:	6d 83       	std	Y+5, r22	; 0x05
 3a6:	7e 83       	std	Y+6, r23	; 0x06
 3a8:	21 e0       	ldi	r18, 0x01	; 1
 3aa:	2e 83       	std	Y+6, r18	; 0x06
 3ac:	bf 01       	movw	r22, r30
 3ae:	ae 01       	movw	r20, r28
 3b0:	49 5f       	subi	r20, 0xF9	; 249
 3b2:	5f 4f       	sbci	r21, 0xFF	; 255
 3b4:	9e 01       	movw	r18, r28
 3b6:	2f 5f       	subi	r18, 0xFF	; 255
 3b8:	3f 4f       	sbci	r19, 0xFF	; 255
 3ba:	0e 94 00 00 	call	0	; 0x0 <_ZN10W5100Class12setGatewayIpEPh.isra.1>
 3be:	62 96       	adiw	r28, 0x12	; 18
 3c0:	0f b6       	in	r0, 0x3f	; 63
 3c2:	f8 94       	cli
 3c4:	de bf       	out	0x3e, r29	; 62
 3c6:	0f be       	out	0x3f, r0	; 63
 3c8:	cd bf       	out	0x3d, r28	; 61
 3ca:	df 91       	pop	r29
 3cc:	cf 91       	pop	r28
 3ce:	08 95       	ret

000003d0 <_ZN13EthernetClass8maintainEv>:
 3d0:	ef 92       	push	r14
 3d2:	ff 92       	push	r15
 3d4:	0f 93       	push	r16
 3d6:	1f 93       	push	r17
 3d8:	cf 93       	push	r28
 3da:	df 93       	push	r29
 3dc:	cd b7       	in	r28, 0x3d	; 61
 3de:	de b7       	in	r29, 0x3e	; 62
 3e0:	68 97       	sbiw	r28, 0x18	; 24
 3e2:	0f b6       	in	r0, 0x3f	; 63
 3e4:	f8 94       	cli
 3e6:	de bf       	out	0x3e, r29	; 62
 3e8:	0f be       	out	0x3f, r0	; 63
 3ea:	cd bf       	out	0x3d, r28	; 61
 3ec:	8c 01       	movw	r16, r24
 3ee:	fc 01       	movw	r30, r24
 3f0:	86 81       	ldd	r24, Z+6	; 0x06
 3f2:	97 81       	ldd	r25, Z+7	; 0x07
 3f4:	00 97       	sbiw	r24, 0x00	; 0
 3f6:	01 f0       	breq	.+0      	; 0x3f8 <_ZN13EthernetClass8maintainEv+0x28>
 3f8:	0e 94 00 00 	call	0	; 0x0 <_ZN10W5100Class12setGatewayIpEPh.isra.1>
 3fc:	7c 01       	movw	r14, r24
 3fe:	82 30       	cpi	r24, 0x02	; 2
 400:	91 05       	cpc	r25, r1
 402:	01 f0       	breq	.+0      	; 0x404 <_ZN13EthernetClass8maintainEv+0x34>
 404:	84 e0       	ldi	r24, 0x04	; 4
 406:	e8 16       	cp	r14, r24
 408:	f1 04       	cpc	r15, r1
 40a:	01 f4       	brne	.+0      	; 0x40c <_ZN13EthernetClass8maintainEv+0x3c>
 40c:	f8 01       	movw	r30, r16
 40e:	66 81       	ldd	r22, Z+6	; 0x06
 410:	77 81       	ldd	r23, Z+7	; 0x07
 412:	ce 01       	movw	r24, r28
 414:	43 96       	adiw	r24, 0x13	; 19
 416:	0e 94 00 00 	call	0	; 0x0 <_ZN10W5100Class12setGatewayIpEPh.isra.1>
 41a:	ce 01       	movw	r24, r28
 41c:	45 96       	adiw	r24, 0x15	; 21
 41e:	0e 94 00 00 	call	0	; 0x0 <_ZN10W5100Class12setGatewayIpEPh.isra.1>
 422:	f8 01       	movw	r30, r16
 424:	66 81       	ldd	r22, Z+6	; 0x06
 426:	77 81       	ldd	r23, Z+7	; 0x07
 428:	ce 01       	movw	r24, r28
 42a:	0d 96       	adiw	r24, 0x0d	; 13
 42c:	0e 94 00 00 	call	0	; 0x0 <_ZN10W5100Class12setGatewayIpEPh.isra.1>
 430:	ce 01       	movw	r24, r28
 432:	0f 96       	adiw	r24, 0x0f	; 15
 434:	0e 94 00 00 	call	0	; 0x0 <_ZN10W5100Class12setGatewayIpEPh.isra.1>
 438:	f8 01       	movw	r30, r16
 43a:	66 81       	ldd	r22, Z+6	; 0x06
 43c:	77 81       	ldd	r23, Z+7	; 0x07
 43e:	ce 01       	movw	r24, r28
 440:	07 96       	adiw	r24, 0x07	; 7
 442:	0e 94 00 00 	call	0	; 0x0 <_ZN10W5100Class12setGatewayIpEPh.isra.1>
 446:	ce 01       	movw	r24, r28
 448:	09 96       	adiw	r24, 0x09	; 9
 44a:	0e 94 00 00 	call	0	; 0x0 <_ZN10W5100Class12setGatewayIpEPh.isra.1>
 44e:	f8 01       	movw	r30, r16
 450:	66 81       	ldd	r22, Z+6	; 0x06
 452:	77 81       	ldd	r23, Z+7	; 0x07
 454:	ce 01       	movw	r24, r28
 456:	01 96       	adiw	r24, 0x01	; 1
 458:	0e 94 00 00 	call	0	; 0x0 <_ZN10W5100Class12setGatewayIpEPh.isra.1>
 45c:	8b 81       	ldd	r24, Y+3	; 0x03
 45e:	9c 81       	ldd	r25, Y+4	; 0x04
 460:	ad 81       	ldd	r26, Y+5	; 0x05
 462:	be 81       	ldd	r27, Y+6	; 0x06
 464:	f8 01       	movw	r30, r16
 466:	82 83       	std	Z+2, r24	; 0x02
 468:	93 83       	std	Z+3, r25	; 0x03
 46a:	a4 83       	std	Z+4, r26	; 0x04
 46c:	b5 83       	std	Z+5, r27	; 0x05
 46e:	00 c0       	rjmp	.+0      	; 0x470 <_ZN13EthernetClass8maintainEv+0xa0>
 470:	ee 24       	eor	r14, r14
 472:	ff 24       	eor	r15, r15
 474:	c7 01       	movw	r24, r14
 476:	68 96       	adiw	r28, 0x18	; 24
 478:	0f b6       	in	r0, 0x3f	; 63
 47a:	f8 94       	cli
 47c:	de bf       	out	0x3e, r29	; 62
 47e:	0f be       	out	0x3f, r0	; 63
 480:	cd bf       	out	0x3d, r28	; 61
 482:	df 91       	pop	r29
 484:	cf 91       	pop	r28
 486:	1f 91       	pop	r17
 488:	0f 91       	pop	r16
 48a:	ff 90       	pop	r15
 48c:	ef 90       	pop	r14
 48e:	08 95       	ret

00000490 <_ZN13EthernetClass7localIPEv>:
 490:	cf 93       	push	r28
 492:	df 93       	push	r29
 494:	ec 01       	movw	r28, r24
 496:	0e 94 00 00 	call	0	; 0x0 <_ZN10W5100Class12setGatewayIpEPh.isra.1>
 49a:	be 01       	movw	r22, r28
 49c:	6e 5f       	subi	r22, 0xFE	; 254
 49e:	7f 4f       	sbci	r23, 0xFF	; 255
 4a0:	8f e0       	ldi	r24, 0x0F	; 15
 4a2:	90 e0       	ldi	r25, 0x00	; 0
 4a4:	44 e0       	ldi	r20, 0x04	; 4
 4a6:	50 e0       	ldi	r21, 0x00	; 0
 4a8:	0e 94 00 00 	call	0	; 0x0 <_ZN10W5100Class12setGatewayIpEPh.isra.1>
 4ac:	ce 01       	movw	r24, r28
 4ae:	df 91       	pop	r29
 4b0:	cf 91       	pop	r28
 4b2:	08 95       	ret

000004b4 <_ZN13EthernetClass10subnetMaskEv>:
 4b4:	cf 93       	push	r28
 4b6:	df 93       	push	r29
 4b8:	ec 01       	movw	r28, r24
 4ba:	0e 94 00 00 	call	0	; 0x0 <_ZN10W5100Class12setGatewayIpEPh.isra.1>
 4be:	be 01       	movw	r22, r28
 4c0:	6e 5f       	subi	r22, 0xFE	; 254
 4c2:	7f 4f       	sbci	r23, 0xFF	; 255
 4c4:	85 e0       	ldi	r24, 0x05	; 5
 4c6:	90 e0       	ldi	r25, 0x00	; 0
 4c8:	44 e0       	ldi	r20, 0x04	; 4
 4ca:	50 e0       	ldi	r21, 0x00	; 0
 4cc:	0e 94 00 00 	call	0	; 0x0 <_ZN10W5100Class12setGatewayIpEPh.isra.1>
 4d0:	ce 01       	movw	r24, r28
 4d2:	df 91       	pop	r29
 4d4:	cf 91       	pop	r28
 4d6:	08 95       	ret

000004d8 <_ZN13EthernetClass9gatewayIPEv>:
 4d8:	cf 93       	push	r28
 4da:	df 93       	push	r29
 4dc:	ec 01       	movw	r28, r24
 4de:	0e 94 00 00 	call	0	; 0x0 <_ZN10W5100Class12setGatewayIpEPh.isra.1>
 4e2:	be 01       	movw	r22, r28
 4e4:	6e 5f       	subi	r22, 0xFE	; 254
 4e6:	7f 4f       	sbci	r23, 0xFF	; 255
 4e8:	81 e0       	ldi	r24, 0x01	; 1
 4ea:	90 e0       	ldi	r25, 0x00	; 0
 4ec:	44 e0       	ldi	r20, 0x04	; 4
 4ee:	50 e0       	ldi	r21, 0x00	; 0
 4f0:	0e 94 00 00 	call	0	; 0x0 <_ZN10W5100Class12setGatewayIpEPh.isra.1>
 4f4:	ce 01       	movw	r24, r28
 4f6:	df 91       	pop	r29
 4f8:	cf 91       	pop	r28
 4fa:	08 95       	ret

000004fc <_ZN13EthernetClass11dnsServerIPEv>:
 4fc:	20 e0       	ldi	r18, 0x00	; 0
 4fe:	30 e0       	ldi	r19, 0x00	; 0
 500:	fc 01       	movw	r30, r24
 502:	31 83       	std	Z+1, r19	; 0x01
 504:	20 83       	st	Z, r18
 506:	fb 01       	movw	r30, r22
 508:	42 81       	ldd	r20, Z+2	; 0x02
 50a:	53 81       	ldd	r21, Z+3	; 0x03
 50c:	64 81       	ldd	r22, Z+4	; 0x04
 50e:	75 81       	ldd	r23, Z+5	; 0x05
 510:	fc 01       	movw	r30, r24
 512:	42 83       	std	Z+2, r20	; 0x02
 514:	53 83       	std	Z+3, r21	; 0x03
 516:	64 83       	std	Z+4, r22	; 0x04
 518:	75 83       	std	Z+5, r23	; 0x05
 51a:	08 95       	ret

Disassembly of section .text.startup:

00000000 <_GLOBAL__sub_I__ZN13EthernetClass6_stateE>:
   0:	0f 93       	push	r16
   2:	80 e0       	ldi	r24, 0x00	; 0
   4:	90 e0       	ldi	r25, 0x00	; 0
   6:	60 e0       	ldi	r22, 0x00	; 0
   8:	40 e0       	ldi	r20, 0x00	; 0
   a:	20 e0       	ldi	r18, 0x00	; 0
   c:	00 e0       	ldi	r16, 0x00	; 0
   e:	0e 94 00 00 	call	0	; 0x0 <_GLOBAL__sub_I__ZN13EthernetClass6_stateE>
  12:	80 e0       	ldi	r24, 0x00	; 0
  14:	90 e0       	ldi	r25, 0x00	; 0
  16:	0e 94 00 00 	call	0	; 0x0 <_GLOBAL__sub_I__ZN13EthernetClass6_stateE>
  1a:	0f 91       	pop	r16
  1c:	08 95       	ret

EthernetClient.o:     file format elf32-avr

Sections:
Idx Name          Size      VMA       LMA       File off  Algn
  0 .text         00000412  00000000  00000000  00000034  2**0
                  CONTENTS, ALLOC, LOAD, RELOC, READONLY, CODE
  1 .data         0000004a  00000000  00000000  00000446  2**0
                  CONTENTS, ALLOC, LOAD, RELOC, DATA
  2 .bss          00000006  00000000  00000000  00000490  2**0
                  ALLOC
  3 .text.startup 00000016  00000000  00000000  00000490  2**0
                  CONTENTS, ALLOC, LOAD, RELOC, READONLY, CODE
  4 .ctors        00000002  00000000  00000000  000004a6  2**0
                  CONTENTS, ALLOC, LOAD, RELOC, READONLY, DATA

Disassembly of section .text:

00000000 <_ZN14EthernetClient5writeEh>:
   0:	cf 93       	push	r28
   2:	df 93       	push	r29
   4:	0f 92       	push	r0
   6:	cd b7       	in	r28, 0x3d	; 61
   8:	de b7       	in	r29, 0x3e	; 62
   a:	69 83       	std	Y+1, r22	; 0x01
   c:	dc 01       	movw	r26, r24
   e:	ed 91       	ld	r30, X+
  10:	fc 91       	ld	r31, X
  12:	02 80       	ldd	r0, Z+2	; 0x02
  14:	f3 81       	ldd	r31, Z+3	; 0x03
  16:	e0 2d       	mov	r30, r0
  18:	be 01       	movw	r22, r28
  1a:	6f 5f       	subi	r22, 0xFF	; 255
  1c:	7f 4f       	sbci	r23, 0xFF	; 255
  1e:	41 e0       	ldi	r20, 0x01	; 1
  20:	50 e0       	ldi	r21, 0x00	; 0
  22:	09 95       	icall
  24:	0f 90       	pop	r0
  26:	df 91       	pop	r29
  28:	cf 91       	pop	r28
  2a:	08 95       	ret

0000002c <_ZN14EthernetClient5flushEv>:
  2c:	cf 93       	push	r28
  2e:	df 93       	push	r29
  30:	ec 01       	movw	r28, r24
  32:	00 c0       	rjmp	.+0      	; 0x34 <_ZN14EthernetClient5flushEv+0x8>
  34:	e8 81       	ld	r30, Y
  36:	f9 81       	ldd	r31, Y+1	; 0x01
  38:	06 80       	ldd	r0, Z+6	; 0x06
  3a:	f7 81       	ldd	r31, Z+7	; 0x07
  3c:	e0 2d       	mov	r30, r0
  3e:	ce 01       	movw	r24, r28
  40:	09 95       	icall
  42:	e8 81       	ld	r30, Y
  44:	f9 81       	ldd	r31, Y+1	; 0x01
  46:	04 80       	ldd	r0, Z+4	; 0x04
  48:	f5 81       	ldd	r31, Z+5	; 0x05
  4a:	e0 2d       	mov	r30, r0
  4c:	ce 01       	movw	r24, r28
  4e:	09 95       	icall
  50:	00 97       	sbiw	r24, 0x00	; 0
  52:	01 f4       	brne	.+0      	; 0x54 <_ZN14EthernetClient5flushEv+0x28>
  54:	df 91       	pop	r29
  56:	cf 91       	pop	r28
  58:	08 95       	ret

0000005a <_ZN14EthernetClientcvbEv>:
  5a:	21 e0       	ldi	r18, 0x01	; 1
  5c:	fc 01       	movw	r30, r24
  5e:	84 85       	ldd	r24, Z+12	; 0x0c
  60:	84 30       	cpi	r24, 0x04	; 4
  62:	01 f4       	brne	.+0      	; 0x64 <_ZN14EthernetClientcvbEv+0xa>
  64:	20 e0       	ldi	r18, 0x00	; 0
  66:	82 2f       	mov	r24, r18
  68:	08 95       	ret

0000006a <_ZN14EthernetClient4peekEv>:
  6a:	0f 93       	push	r16
  6c:	1f 93       	push	r17
  6e:	cf 93       	push	r28
  70:	df 93       	push	r29
  72:	0f 92       	push	r0
  74:	cd b7       	in	r28, 0x3d	; 61
  76:	de b7       	in	r29, 0x3e	; 62
  78:	8c 01       	movw	r16, r24
  7a:	dc 01       	movw	r26, r24
  7c:	ed 91       	ld	r30, X+
  7e:	fc 91       	ld	r31, X
  80:	04 80       	ldd	r0, Z+4	; 0x04
  82:	f5 81       	ldd	r31, Z+5	; 0x05
  84:	e0 2d       	mov	r30, r0
  86:	09 95       	icall
  88:	00 97       	sbiw	r24, 0x00	; 0
  8a:	01 f0       	breq	.+0      	; 0x8c <_ZN14EthernetClient4peekEv+0x22>
  8c:	f8 01       	movw	r30, r16
  8e:	84 85       	ldd	r24, Z+12	; 0x0c
  90:	be 01       	movw	r22, r28
  92:	6f 5f       	subi	r22, 0xFF	; 255
  94:	7f 4f       	sbci	r23, 0xFF	; 255
  96:	0e 94 00 00 	call	0	; 0x0 <_ZN14EthernetClient5writeEh>
  9a:	89 81       	ldd	r24, Y+1	; 0x01
  9c:	90 e0       	ldi	r25, 0x00	; 0
  9e:	00 c0       	rjmp	.+0      	; 0xa0 <_ZN14EthernetClient4peekEv+0x36>
  a0:	8f ef       	ldi	r24, 0xFF	; 255
  a2:	9f ef       	ldi	r25, 0xFF	; 255
  a4:	0f 90       	pop	r0
  a6:	df 91       	pop	r29
  a8:	cf 91       	pop	r28
  aa:	1f 91       	pop	r17
  ac:	0f 91       	pop	r16
  ae:	08 95       	ret

000000b0 <_ZN14EthernetClient4readEPhj>:
  b0:	fc 01       	movw	r30, r24
  b2:	84 85       	ldd	r24, Z+12	; 0x0c
  b4:	0e 94 00 00 	call	0	; 0x0 <_ZN14EthernetClient5writeEh>
  b8:	08 95       	ret

000000ba <_ZN14EthernetClient4readEv>:
  ba:	cf 93       	push	r28
  bc:	df 93       	push	r29
  be:	0f 92       	push	r0
  c0:	cd b7       	in	r28, 0x3d	; 61
  c2:	de b7       	in	r29, 0x3e	; 62
  c4:	fc 01       	movw	r30, r24
  c6:	84 85       	ldd	r24, Z+12	; 0x0c
  c8:	be 01       	movw	r22, r28
  ca:	6f 5f       	subi	r22, 0xFF	; 255
  cc:	7f 4f       	sbci	r23, 0xFF	; 255
  ce:	41 e0       	ldi	r20, 0x01	; 1
  d0:	50 e0       	ldi	r21, 0x00	; 0
  d2:	0e 94 00 00 	call	0	; 0x0 <_ZN14EthernetClient5writeEh>
  d6:	18 16       	cp	r1, r24
  d8:	19 06       	cpc	r1, r25
  da:	04 f4       	brge	.+0      	; 0xdc <_ZN14EthernetClient4readEv+0x22>
  dc:	89 81       	ldd	r24, Y+1	; 0x01
  de:	90 e0       	ldi	r25, 0x00	; 0
  e0:	00 c0       	rjmp	.+0      	; 0xe2 <_ZN14EthernetClient4readEv+0x28>
  e2:	8f ef       	ldi	r24, 0xFF	; 255
  e4:	9f ef       	ldi	r25, 0xFF	; 255
  e6:	0f 90       	pop	r0
  e8:	df 91       	pop	r29
  ea:	cf 91       	pop	r28
  ec:	08 95       	ret

000000ee <_ZN14EthernetClient7connectEPKcj>:
  ee:	cf 92       	push	r12
  f0:	df 92       	push	r13
  f2:	ef 92       	push	r14
  f4:	ff 92       	push	r15
  f6:	0f 93       	push	r16
  f8:	1f 93       	push	r17
  fa:	cf 93       	push	r28
  fc:	df 93       	push	r29
  fe:	cd b7       	in	r28, 0x3d	; 61
 100:	de b7       	in	r29, 0x3e	; 62
 102:	e5 97       	sbiw	r28, 0x35	; 53
 104:	0f b6       	in	r0, 0x3f	; 63
 106:	f8 94       	cli
 108:	de bf       	out	0x3e, r29	; 62
 10a:	0f be       	out	0x3f, r0	; 63
 10c:	cd bf       	out	0x3d, r28	; 61
 10e:	7c 01       	movw	r14, r24
 110:	8b 01       	movw	r16, r22
 112:	6a 01       	movw	r12, r20
 114:	ce 01       	movw	r24, r28
 116:	43 96       	adiw	r24, 0x13	; 19
 118:	0e 94 00 00 	call	0	; 0x0 <_ZN14EthernetClient5writeEh>
 11c:	ce 01       	movw	r24, r28
 11e:	4b 96       	adiw	r24, 0x1b	; 27
 120:	0e 94 00 00 	call	0	; 0x0 <_ZN14EthernetClient5writeEh>
 124:	ce 01       	movw	r24, r28
 126:	0d 96       	adiw	r24, 0x0d	; 13
 128:	0e 94 00 00 	call	0	; 0x0 <_ZN14EthernetClient5writeEh>
 12c:	ce 01       	movw	r24, r28
 12e:	07 96       	adiw	r24, 0x07	; 7
 130:	60 e0       	ldi	r22, 0x00	; 0
 132:	70 e0       	ldi	r23, 0x00	; 0
 134:	0e 94 00 00 	call	0	; 0x0 <_ZN14EthernetClient5writeEh>
 138:	ce 01       	movw	r24, r28
 13a:	43 96       	adiw	r24, 0x13	; 19
 13c:	be 01       	movw	r22, r28
 13e:	69 5f       	subi	r22, 0xF9	; 249
 140:	7f 4f       	sbci	r23, 0xFF	; 255
 142:	0e 94 00 00 	call	0	; 0x0 <_ZN14EthernetClient5writeEh>
 146:	ce 01       	movw	r24, r28
 148:	43 96       	adiw	r24, 0x13	; 19
 14a:	b8 01       	movw	r22, r16
 14c:	ae 01       	movw	r20, r28
 14e:	43 5f       	subi	r20, 0xF3	; 243
 150:	5f 4f       	sbci	r21, 0xFF	; 255
 152:	0e 94 00 00 	call	0	; 0x0 <_ZN14EthernetClient5writeEh>
 156:	81 30       	cpi	r24, 0x01	; 1
 158:	91 05       	cpc	r25, r1
 15a:	01 f4       	brne	.+0      	; 0x15c <_ZN14EthernetClient7connectEPKcj+0x6e>
 15c:	d7 01       	movw	r26, r14
 15e:	ed 91       	ld	r30, X+
 160:	fc 91       	ld	r31, X
 162:	04 84       	ldd	r0, Z+12	; 0x0c
 164:	f5 85       	ldd	r31, Z+13	; 0x0d
 166:	e0 2d       	mov	r30, r0
 168:	80 e0       	ldi	r24, 0x00	; 0
 16a:	90 e0       	ldi	r25, 0x00	; 0
 16c:	9a 83       	std	Y+2, r25	; 0x02
 16e:	89 83       	std	Y+1, r24	; 0x01
 170:	8f 85       	ldd	r24, Y+15	; 0x0f
 172:	98 89       	ldd	r25, Y+16	; 0x10
 174:	a9 89       	ldd	r26, Y+17	; 0x11
 176:	ba 89       	ldd	r27, Y+18	; 0x12
 178:	8b 83       	std	Y+3, r24	; 0x03
 17a:	9c 83       	std	Y+4, r25	; 0x04
 17c:	ad 83       	std	Y+5, r26	; 0x05
 17e:	be 83       	std	Y+6, r27	; 0x06
 180:	c7 01       	movw	r24, r14
 182:	be 01       	movw	r22, r28
 184:	6f 5f       	subi	r22, 0xFF	; 255
 186:	7f 4f       	sbci	r23, 0xFF	; 255
 188:	a6 01       	movw	r20, r12
 18a:	09 95       	icall
 18c:	e5 96       	adiw	r28, 0x35	; 53
 18e:	0f b6       	in	r0, 0x3f	; 63
 190:	f8 94       	cli
 192:	de bf       	out	0x3e, r29	; 62
 194:	0f be       	out	0x3f, r0	; 63
 196:	cd bf       	out	0x3d, r28	; 61
 198:	df 91       	pop	r29
 19a:	cf 91       	pop	r28
 19c:	1f 91       	pop	r17
 19e:	0f 91       	pop	r16
 1a0:	ff 90       	pop	r15
 1a2:	ef 90       	pop	r14
 1a4:	df 90       	pop	r13
 1a6:	cf 90       	pop	r12
 1a8:	08 95       	ret

000001aa <_ZN14EthernetClient9availableEv>:
 1aa:	fc 01       	movw	r30, r24
 1ac:	64 85       	ldd	r22, Z+12	; 0x0c
 1ae:	64 30       	cpi	r22, 0x04	; 4
 1b0:	01 f0       	breq	.+0      	; 0x1b2 <_ZN14EthernetClient9availableEv+0x8>
 1b2:	80 e0       	ldi	r24, 0x00	; 0
 1b4:	90 e0       	ldi	r25, 0x00	; 0
 1b6:	0e 94 00 00 	call	0	; 0x0 <_ZN14EthernetClient5writeEh>
 1ba:	9c 01       	movw	r18, r24
 1bc:	00 c0       	rjmp	.+0      	; 0x1be <_ZN14EthernetClient9availableEv+0x14>
 1be:	20 e0       	ldi	r18, 0x00	; 0
 1c0:	30 e0       	ldi	r19, 0x00	; 0
 1c2:	c9 01       	movw	r24, r18
 1c4:	08 95       	ret

000001c6 <_ZN14EthernetClient5writeEPKhj>:
 1c6:	0f 93       	push	r16
 1c8:	1f 93       	push	r17
 1ca:	cf 93       	push	r28
 1cc:	df 93       	push	r29
 1ce:	8c 01       	movw	r16, r24
 1d0:	ea 01       	movw	r28, r20
 1d2:	fc 01       	movw	r30, r24
 1d4:	84 85       	ldd	r24, Z+12	; 0x0c
 1d6:	84 30       	cpi	r24, 0x04	; 4
 1d8:	01 f4       	brne	.+0      	; 0x1da <_ZN14EthernetClient5writeEPKhj+0x14>
 1da:	81 e0       	ldi	r24, 0x01	; 1
 1dc:	90 e0       	ldi	r25, 0x00	; 0
 1de:	00 c0       	rjmp	.+0      	; 0x1e0 <_ZN14EthernetClient5writeEPKhj+0x1a>
 1e0:	0e 94 00 00 	call	0	; 0x0 <_ZN14EthernetClient5writeEh>
 1e4:	00 97       	sbiw	r24, 0x00	; 0
 1e6:	01 f4       	brne	.+0      	; 0x1e8 <_ZN14EthernetClient5writeEPKhj+0x22>
 1e8:	81 e0       	ldi	r24, 0x01	; 1
 1ea:	90 e0       	ldi	r25, 0x00	; 0
 1ec:	f8 01       	movw	r30, r16
 1ee:	93 83       	std	Z+3, r25	; 0x03
 1f0:	82 83       	std	Z+2, r24	; 0x02
 1f2:	c0 e0       	ldi	r28, 0x00	; 0
 1f4:	d0 e0       	ldi	r29, 0x00	; 0
 1f6:	ce 01       	movw	r24, r28
 1f8:	df 91       	pop	r29
 1fa:	cf 91       	pop	r28
 1fc:	1f 91       	pop	r17
 1fe:	0f 91       	pop	r16
 200:	08 95       	ret

00000202 <_ZN14EthernetClientC1Ev>:
 202:	fc 01       	movw	r30, r24
 204:	13 82       	std	Z+3, r1	; 0x03
 206:	12 82       	std	Z+2, r1	; 0x02
 208:	48 ee       	ldi	r20, 0xE8	; 232
 20a:	53 e0       	ldi	r21, 0x03	; 3
 20c:	60 e0       	ldi	r22, 0x00	; 0
 20e:	70 e0       	ldi	r23, 0x00	; 0
 210:	44 83       	std	Z+4, r20	; 0x04
 212:	55 83       	std	Z+5, r21	; 0x05
 214:	66 83       	std	Z+6, r22	; 0x06
 216:	77 83       	std	Z+7, r23	; 0x07
 218:	80 e0       	ldi	r24, 0x00	; 0
 21a:	90 e0       	ldi	r25, 0x00	; 0
 21c:	91 83       	std	Z+1, r25	; 0x01
 21e:	80 83       	st	Z, r24
 220:	84 e0       	ldi	r24, 0x04	; 4
 222:	84 87       	std	Z+12, r24	; 0x0c
 224:	08 95       	ret

00000226 <_ZN14EthernetClientC1Eh>:
 226:	fc 01       	movw	r30, r24
 228:	26 2f       	mov	r18, r22
 22a:	13 82       	std	Z+3, r1	; 0x03
 22c:	12 82       	std	Z+2, r1	; 0x02
 22e:	48 ee       	ldi	r20, 0xE8	; 232
 230:	53 e0       	ldi	r21, 0x03	; 3
 232:	60 e0       	ldi	r22, 0x00	; 0
 234:	70 e0       	ldi	r23, 0x00	; 0
 236:	44 83       	std	Z+4, r20	; 0x04
 238:	55 83       	std	Z+5, r21	; 0x05
 23a:	66 83       	std	Z+6, r22	; 0x06
 23c:	77 83       	std	Z+7, r23	; 0x07
 23e:	80 e0       	ldi	r24, 0x00	; 0
 240:	90 e0       	ldi	r25, 0x00	; 0
 242:	91 83       	std	Z+1, r25	; 0x01
 244:	80 83       	st	Z, r24
 246:	24 87       	std	Z+12, r18	; 0x0c
 248:	08 95       	ret

0000024a <_ZN14EthernetClient6statusEv>:
 24a:	fc 01       	movw	r30, r24
 24c:	84 85       	ldd	r24, Z+12	; 0x0c
 24e:	84 30       	cpi	r24, 0x04	; 4
 250:	01 f0       	breq	.+0      	; 0x252 <_ZN14EthernetClient6statusEv+0x8>
 252:	38 2f       	mov	r19, r24
 254:	20 e0       	ldi	r18, 0x00	; 0
 256:	c9 01       	movw	r24, r18
 258:	8d 5f       	subi	r24, 0xFD	; 253
 25a:	9b 4f       	sbci	r25, 0xFB	; 251
 25c:	0e 94 00 00 	call	0	; 0x0 <_ZN14EthernetClient5writeEh>
 260:	08 95       	ret
 262:	80 e0       	ldi	r24, 0x00	; 0
 264:	08 95       	ret

00000266 <_ZN14EthernetClient9connectedEv>:
 266:	cf 93       	push	r28
 268:	df 93       	push	r29
 26a:	ec 01       	movw	r28, r24
 26c:	8c 85       	ldd	r24, Y+12	; 0x0c
 26e:	84 30       	cpi	r24, 0x04	; 4
 270:	01 f0       	breq	.+0      	; 0x272 <_ZN14EthernetClient9connectedEv+0xc>
 272:	ce 01       	movw	r24, r28
 274:	0e 94 00 00 	call	0	; 0x0 <_ZN14EthernetClient5writeEh>
 278:	84 31       	cpi	r24, 0x14	; 20
 27a:	01 f0       	breq	.+0      	; 0x27c <_ZN14EthernetClient9connectedEv+0x16>
 27c:	88 23       	and	r24, r24
 27e:	01 f0       	breq	.+0      	; 0x280 <_ZN14EthernetClient9connectedEv+0x1a>
 280:	88 31       	cpi	r24, 0x18	; 24
 282:	01 f0       	breq	.+0      	; 0x284 <_ZN14EthernetClient9connectedEv+0x1e>
 284:	8c 31       	cpi	r24, 0x1C	; 28
 286:	01 f4       	brne	.+0      	; 0x288 <_ZN14EthernetClient9connectedEv+0x22>
 288:	e8 81       	ld	r30, Y
 28a:	f9 81       	ldd	r31, Y+1	; 0x01
 28c:	04 80       	ldd	r0, Z+4	; 0x04
 28e:	f5 81       	ldd	r31, Z+5	; 0x05
 290:	e0 2d       	mov	r30, r0
 292:	ce 01       	movw	r24, r28
 294:	09 95       	icall
 296:	21 e0       	ldi	r18, 0x01	; 1
 298:	00 97       	sbiw	r24, 0x00	; 0
 29a:	01 f4       	brne	.+0      	; 0x29c <_ZN14EthernetClient9connectedEv+0x36>
 29c:	20 e0       	ldi	r18, 0x00	; 0
 29e:	00 c0       	rjmp	.+0      	; 0x2a0 <_ZN14EthernetClient9connectedEv+0x3a>
 2a0:	21 e0       	ldi	r18, 0x01	; 1
 2a2:	82 2f       	mov	r24, r18
 2a4:	00 c0       	rjmp	.+0      	; 0x2a6 <_ZN14EthernetClient9connectedEv+0x40>
 2a6:	80 e0       	ldi	r24, 0x00	; 0
 2a8:	df 91       	pop	r29
 2aa:	cf 91       	pop	r28
 2ac:	08 95       	ret

000002ae <_ZN14EthernetClient4stopEv>:
 2ae:	cf 92       	push	r12
 2b0:	df 92       	push	r13
 2b2:	ef 92       	push	r14
 2b4:	ff 92       	push	r15
 2b6:	cf 93       	push	r28
 2b8:	df 93       	push	r29
 2ba:	ec 01       	movw	r28, r24
 2bc:	8c 85       	ldd	r24, Y+12	; 0x0c
 2be:	84 30       	cpi	r24, 0x04	; 4
 2c0:	01 f0       	breq	.+0      	; 0x2c2 <_ZN14EthernetClient4stopEv+0x14>
 2c2:	0e 94 00 00 	call	0	; 0x0 <_ZN14EthernetClient5writeEh>
 2c6:	0e 94 00 00 	call	0	; 0x0 <_ZN14EthernetClient5writeEh>
 2ca:	6b 01       	movw	r12, r22
 2cc:	7c 01       	movw	r14, r24
 2ce:	ce 01       	movw	r24, r28
 2d0:	0e 94 00 00 	call	0	; 0x0 <_ZN14EthernetClient5writeEh>
 2d4:	88 23       	and	r24, r24
 2d6:	01 f0       	breq	.+0      	; 0x2d8 <_ZN14EthernetClient4stopEv+0x2a>
 2d8:	0e 94 00 00 	call	0	; 0x0 <_ZN14EthernetClient5writeEh>
 2dc:	dc 01       	movw	r26, r24
 2de:	cb 01       	movw	r24, r22
 2e0:	8c 19       	sub	r24, r12
 2e2:	9d 09       	sbc	r25, r13
 2e4:	ae 09       	sbc	r26, r14
 2e6:	bf 09       	sbc	r27, r15
 2e8:	88 3e       	cpi	r24, 0xE8	; 232
 2ea:	23 e0       	ldi	r18, 0x03	; 3
 2ec:	92 07       	cpc	r25, r18
 2ee:	20 e0       	ldi	r18, 0x00	; 0
 2f0:	a2 07       	cpc	r26, r18
 2f2:	20 e0       	ldi	r18, 0x00	; 0
 2f4:	b2 07       	cpc	r27, r18
 2f6:	00 f0       	brcs	.+0      	; 0x2f8 <_ZN14EthernetClient4stopEv+0x4a>
 2f8:	ce 01       	movw	r24, r28
 2fa:	0e 94 00 00 	call	0	; 0x0 <_ZN14EthernetClient5writeEh>
 2fe:	88 23       	and	r24, r24
 300:	01 f0       	breq	.+0      	; 0x302 <_ZN14EthernetClient4stopEv+0x54>
 302:	8c 85       	ldd	r24, Y+12	; 0x0c
 304:	0e 94 00 00 	call	0	; 0x0 <_ZN14EthernetClient5writeEh>
 308:	ec 85       	ldd	r30, Y+12	; 0x0c
 30a:	f0 e0       	ldi	r31, 0x00	; 0
 30c:	ee 0f       	add	r30, r30
 30e:	ff 1f       	adc	r31, r31
 310:	e0 50       	subi	r30, 0x00	; 0
 312:	f0 40       	sbci	r31, 0x00	; 0
 314:	11 82       	std	Z+1, r1	; 0x01
 316:	10 82       	st	Z, r1
 318:	84 e0       	ldi	r24, 0x04	; 4
 31a:	8c 87       	std	Y+12, r24	; 0x0c
 31c:	00 c0       	rjmp	.+0      	; 0x31e <_ZN14EthernetClient4stopEv+0x70>
 31e:	61 e0       	ldi	r22, 0x01	; 1
 320:	70 e0       	ldi	r23, 0x00	; 0
 322:	80 e0       	ldi	r24, 0x00	; 0
 324:	90 e0       	ldi	r25, 0x00	; 0
 326:	0e 94 00 00 	call	0	; 0x0 <_ZN14EthernetClient5writeEh>
 32a:	00 c0       	rjmp	.+0      	; 0x32c <_ZN14EthernetClient4stopEv+0x7e>
 32c:	df 91       	pop	r29
 32e:	cf 91       	pop	r28
 330:	ff 90       	pop	r15
 332:	ef 90       	pop	r14
 334:	df 90       	pop	r13
 336:	cf 90       	pop	r12
 338:	08 95       	ret

0000033a <_ZN14EthernetClient7connectE9IPAddressj>:
 33a:	bf 92       	push	r11
 33c:	cf 92       	push	r12
 33e:	df 92       	push	r13
 340:	ef 92       	push	r14
 342:	ff 92       	push	r15
 344:	0f 93       	push	r16
 346:	1f 93       	push	r17
 348:	cf 93       	push	r28
 34a:	df 93       	push	r29
 34c:	ec 01       	movw	r28, r24
 34e:	7b 01       	movw	r14, r22
 350:	6a 01       	movw	r12, r20
 352:	8c 85       	ldd	r24, Y+12	; 0x0c
 354:	84 30       	cpi	r24, 0x04	; 4
 356:	01 f0       	breq	.+0      	; 0x358 <_ZN14EthernetClient7connectE9IPAddressj+0x1e>
 358:	00 c0       	rjmp	.+0      	; 0x35a <_ZN14EthernetClient7connectE9IPAddressj+0x20>
 35a:	03 e0       	ldi	r16, 0x03	; 3
 35c:	14 e0       	ldi	r17, 0x04	; 4
 35e:	bb 24       	eor	r11, r11
 360:	c8 01       	movw	r24, r16
 362:	0e 94 00 00 	call	0	; 0x0 <_ZN14EthernetClient5writeEh>
 366:	88 23       	and	r24, r24
 368:	01 f0       	breq	.+0      	; 0x36a <_ZN14EthernetClient7connectE9IPAddressj+0x30>
 36a:	88 31       	cpi	r24, 0x18	; 24
 36c:	01 f0       	breq	.+0      	; 0x36e <_ZN14EthernetClient7connectE9IPAddressj+0x34>
 36e:	8c 31       	cpi	r24, 0x1C	; 28
 370:	01 f4       	brne	.+0      	; 0x372 <_ZN14EthernetClient7connectE9IPAddressj+0x38>
 372:	bc 86       	std	Y+12, r11	; 0x0c
 374:	00 c0       	rjmp	.+0      	; 0x376 <_ZN14EthernetClient7connectE9IPAddressj+0x3c>
 376:	b3 94       	inc	r11
 378:	00 50       	subi	r16, 0x00	; 0
 37a:	1f 4f       	sbci	r17, 0xFF	; 255
 37c:	84 e0       	ldi	r24, 0x04	; 4
 37e:	b8 16       	cp	r11, r24
 380:	01 f4       	brne	.+0      	; 0x382 <_ZN14EthernetClient7connectE9IPAddressj+0x48>
 382:	8c 85       	ldd	r24, Y+12	; 0x0c
 384:	84 30       	cpi	r24, 0x04	; 4
 386:	01 f0       	breq	.+0      	; 0x388 <_ZN14EthernetClient7connectE9IPAddressj+0x4e>
 388:	20 91 00 00 	lds	r18, 0x0000
 38c:	30 91 00 00 	lds	r19, 0x0000
 390:	2f 5f       	subi	r18, 0xFF	; 255
 392:	3f 4f       	sbci	r19, 0xFF	; 255
 394:	30 93 00 00 	sts	0x0000, r19
 398:	20 93 00 00 	sts	0x0000, r18
 39c:	21 15       	cp	r18, r1
 39e:	31 05       	cpc	r19, r1
 3a0:	01 f4       	brne	.+0      	; 0x3a2 <_ZN14EthernetClient7connectE9IPAddressj+0x68>
 3a2:	20 e0       	ldi	r18, 0x00	; 0
 3a4:	34 e0       	ldi	r19, 0x04	; 4
 3a6:	30 93 00 00 	sts	0x0000, r19
 3aa:	20 93 00 00 	sts	0x0000, r18
 3ae:	40 91 00 00 	lds	r20, 0x0000
 3b2:	50 91 00 00 	lds	r21, 0x0000
 3b6:	61 e0       	ldi	r22, 0x01	; 1
 3b8:	20 e0       	ldi	r18, 0x00	; 0
 3ba:	0e 94 00 00 	call	0	; 0x0 <_ZN14EthernetClient5writeEh>
 3be:	b7 01       	movw	r22, r14
 3c0:	6e 5f       	subi	r22, 0xFE	; 254
 3c2:	7f 4f       	sbci	r23, 0xFF	; 255
 3c4:	8c 85       	ldd	r24, Y+12	; 0x0c
 3c6:	a6 01       	movw	r20, r12
 3c8:	0e 94 00 00 	call	0	; 0x0 <_ZN14EthernetClient5writeEh>
 3cc:	00 c0       	rjmp	.+0      	; 0x3ce <_ZN14EthernetClient7connectE9IPAddressj+0x94>
 3ce:	61 e0       	ldi	r22, 0x01	; 1
 3d0:	70 e0       	ldi	r23, 0x00	; 0
 3d2:	80 e0       	ldi	r24, 0x00	; 0
 3d4:	90 e0       	ldi	r25, 0x00	; 0
 3d6:	0e 94 00 00 	call	0	; 0x0 <_ZN14EthernetClient5writeEh>
 3da:	ce 01       	movw	r24, r28
 3dc:	0e 94 00 00 	call	0	; 0x0 <_ZN14EthernetClient5writeEh>
 3e0:	88 23       	and	r24, r24
 3e2:	01 f4       	brne	.+0      	; 0x3e4 <_ZN14EthernetClient7connectE9IPAddressj+0xaa>
 3e4:	84 e0       	ldi	r24, 0x04	; 4
 3e6:	8c 87       	std	Y+12, r24	; 0x0c
 3e8:	00 c0       	rjmp	.+0      	; 0x3ea <_ZN14EthernetClient7connectE9IPAddressj+0xb0>
 3ea:	ce 01       	movw	r24, r28
 3ec:	0e 94 00 00 	call	0	; 0x0 <_ZN14EthernetClient5writeEh>
 3f0:	87 31       	cpi	r24, 0x17	; 23
 3f2:	01 f4       	brne	.+0      	; 0x3f4 <_ZN14EthernetClient7connectE9IPAddressj+0xba>
 3f4:	81 e0       	ldi	r24, 0x01	; 1
 3f6:	90 e0       	ldi	r25, 0x00	; 0
 3f8:	00 c0       	rjmp	.+0      	; 0x3fa <_ZN14EthernetClient7connectE9IPAddressj+0xc0>
 3fa:	80 e0       	ldi	r24, 0x00	; 0
 3fc:	90 e0       	ldi	r25, 0x00	; 0
 3fe:	df 91       	pop	r29
 400:	cf 91       	pop	r28
 402:	1f 91       	pop	r17
 404:	0f 91       	pop	r16
 406:	ff 90       	pop	r15
 408:	ef 90       	pop	r14
 40a:	df 90       	pop	r13
 40c:	cf 90       	pop	r12
 40e:	bf 90       	pop	r11
 410:	08 95       	ret

Disassembly of section .text.startup:

00000000 <_GLOBAL__sub_I__ZN14EthernetClient8_srcportE>:
   0:	0f 93       	push	r16
   2:	80 e0       	ldi	r24, 0x00	; 0
   4:	90 e0       	ldi	r25, 0x00	; 0
   6:	60 e0       	ldi	r22, 0x00	; 0
   8:	40 e0       	ldi	r20, 0x00	; 0
   a:	20 e0       	ldi	r18, 0x00	; 0
   c:	00 e0       	ldi	r16, 0x00	; 0
   e:	0e 94 00 00 	call	0	; 0x0 <_GLOBAL__sub_I__ZN14EthernetClient8_srcportE>
  12:	0f 91       	pop	r16
  14:	08 95       	ret

EthernetServer.o:     file format elf32-avr

Sections:
Idx Name          Size      VMA       LMA       File off  Algn
  0 .text         00000318  00000000  00000000  00000034  2**0
                  CONTENTS, ALLOC, LOAD, RELOC, READONLY, CODE
  1 .data         00000040  00000000  00000000  0000034c  2**0
                  CONTENTS, ALLOC, LOAD, RELOC, DATA
  2 .bss          00000006  00000000  00000000  0000038c  2**0
                  ALLOC
  3 .text.startup 00000016  00000000  00000000  0000038c  2**0
                  CONTENTS, ALLOC, LOAD, RELOC, READONLY, CODE
  4 .ctors        00000002  00000000  00000000  000003a2  2**0
                  CONTENTS, ALLOC, LOAD, RELOC, READONLY, DATA

Disassembly of section .text:

00000000 <_ZN14EthernetServer5writeEh>:
   0:	cf 93       	push	r28
   2:	df 93       	push	r29
   4:	0f 92       	push	r0
   6:	cd b7       	in	r28, 0x3d	; 61
   8:	de b7       	in	r29, 0x3e	; 62
   a:	69 83       	std	Y+1, r22	; 0x01
   c:	dc 01       	movw	r26, r24
   e:	ed 91       	ld	r30, X+
  10:	fc 91       	ld	r31, X
  12:	02 80       	ldd	r0, Z+2	; 0x02
  14:	f3 81       	ldd	r31, Z+3	; 0x03
  16:	e0 2d       	mov	r30, r0
  18:	be 01       	movw	r22, r28
  1a:	6f 5f       	subi	r22, 0xFF	; 255
  1c:	7f 4f       	sbci	r23, 0xFF	; 255
  1e:	41 e0       	ldi	r20, 0x01	; 1
  20:	50 e0       	ldi	r21, 0x00	; 0
  22:	09 95       	icall
  24:	0f 90       	pop	r0
  26:	df 91       	pop	r29
  28:	cf 91       	pop	r28
  2a:	08 95       	ret

0000002c <_ZN14EthernetServer5beginEv>:
  2c:	ef 92       	push	r14
  2e:	ff 92       	push	r15
  30:	0f 93       	push	r16
  32:	1f 93       	push	r17
  34:	cf 93       	push	r28
  36:	df 93       	push	r29
  38:	cd b7       	in	r28, 0x3d	; 61
  3a:	de b7       	in	r29, 0x3e	; 62
  3c:	2d 97       	sbiw	r28, 0x0d	; 13
  3e:	0f b6       	in	r0, 0x3f	; 63
  40:	f8 94       	cli
  42:	de bf       	out	0x3e, r29	; 62
  44:	0f be       	out	0x3f, r0	; 63
  46:	cd bf       	out	0x3d, r28	; 61
  48:	7c 01       	movw	r14, r24
  4a:	00 e0       	ldi	r16, 0x00	; 0
  4c:	10 e0       	ldi	r17, 0x00	; 0
  4e:	ce 01       	movw	r24, r28
  50:	01 96       	adiw	r24, 0x01	; 1
  52:	60 2f       	mov	r22, r16
  54:	0e 94 00 00 	call	0	; 0x0 <_ZN14EthernetServer5writeEh>
  58:	ce 01       	movw	r24, r28
  5a:	01 96       	adiw	r24, 0x01	; 1
  5c:	0e 94 00 00 	call	0	; 0x0 <_ZN14EthernetServer5writeEh>
  60:	88 23       	and	r24, r24
  62:	01 f4       	brne	.+0      	; 0x64 <_ZN14EthernetServer5beginEv+0x38>
  64:	f7 01       	movw	r30, r14
  66:	44 81       	ldd	r20, Z+4	; 0x04
  68:	55 81       	ldd	r21, Z+5	; 0x05
  6a:	80 2f       	mov	r24, r16
  6c:	61 e0       	ldi	r22, 0x01	; 1
  6e:	20 e0       	ldi	r18, 0x00	; 0
  70:	0e 94 00 00 	call	0	; 0x0 <_ZN14EthernetServer5writeEh>
  74:	80 2f       	mov	r24, r16
  76:	0e 94 00 00 	call	0	; 0x0 <_ZN14EthernetServer5writeEh>
  7a:	f7 01       	movw	r30, r14
  7c:	84 81       	ldd	r24, Z+4	; 0x04
  7e:	95 81       	ldd	r25, Z+5	; 0x05
  80:	f8 01       	movw	r30, r16
  82:	ee 0f       	add	r30, r30
  84:	ff 1f       	adc	r31, r31
  86:	e0 50       	subi	r30, 0x00	; 0
  88:	f0 40       	sbci	r31, 0x00	; 0
  8a:	91 83       	std	Z+1, r25	; 0x01
  8c:	80 83       	st	Z, r24
  8e:	00 c0       	rjmp	.+0      	; 0x90 <_ZN14EthernetServer5beginEv+0x64>
  90:	0f 5f       	subi	r16, 0xFF	; 255
  92:	1f 4f       	sbci	r17, 0xFF	; 255
  94:	04 30       	cpi	r16, 0x04	; 4
  96:	11 05       	cpc	r17, r1
  98:	01 f4       	brne	.+0      	; 0x9a <_ZN14EthernetServer5beginEv+0x6e>
  9a:	2d 96       	adiw	r28, 0x0d	; 13
  9c:	0f b6       	in	r0, 0x3f	; 63
  9e:	f8 94       	cli
  a0:	de bf       	out	0x3e, r29	; 62
  a2:	0f be       	out	0x3f, r0	; 63
  a4:	cd bf       	out	0x3d, r28	; 61
  a6:	df 91       	pop	r29
  a8:	cf 91       	pop	r28
  aa:	1f 91       	pop	r17
  ac:	0f 91       	pop	r16
  ae:	ff 90       	pop	r15
  b0:	ef 90       	pop	r14
  b2:	08 95       	ret

000000b4 <_ZN14EthernetServerC1Ej>:
  b4:	fc 01       	movw	r30, r24
  b6:	13 82       	std	Z+3, r1	; 0x03
  b8:	12 82       	std	Z+2, r1	; 0x02
  ba:	80 e0       	ldi	r24, 0x00	; 0
  bc:	90 e0       	ldi	r25, 0x00	; 0
  be:	91 83       	std	Z+1, r25	; 0x01
  c0:	80 83       	st	Z, r24
  c2:	75 83       	std	Z+5, r23	; 0x05
  c4:	64 83       	std	Z+4, r22	; 0x04
  c6:	08 95       	ret

000000c8 <_ZN14EthernetServer6acceptEv>:
  c8:	af 92       	push	r10
  ca:	bf 92       	push	r11
  cc:	cf 92       	push	r12
  ce:	df 92       	push	r13
  d0:	ef 92       	push	r14
  d2:	ff 92       	push	r15
  d4:	1f 93       	push	r17
  d6:	cf 93       	push	r28
  d8:	df 93       	push	r29
  da:	cd b7       	in	r28, 0x3d	; 61
  dc:	de b7       	in	r29, 0x3e	; 62
  de:	2d 97       	sbiw	r28, 0x0d	; 13
  e0:	0f b6       	in	r0, 0x3f	; 63
  e2:	f8 94       	cli
  e4:	de bf       	out	0x3e, r29	; 62
  e6:	0f be       	out	0x3f, r0	; 63
  e8:	cd bf       	out	0x3d, r28	; 61
  ea:	7c 01       	movw	r14, r24
  ec:	40 e0       	ldi	r20, 0x00	; 0
  ee:	c4 2e       	mov	r12, r20
  f0:	40 e0       	ldi	r20, 0x00	; 0
  f2:	d4 2e       	mov	r13, r20
  f4:	10 e0       	ldi	r17, 0x00	; 0
  f6:	aa 24       	eor	r10, r10
  f8:	bb 24       	eor	r11, r11
  fa:	ce 01       	movw	r24, r28
  fc:	01 96       	adiw	r24, 0x01	; 1
  fe:	61 2f       	mov	r22, r17
 100:	0e 94 00 00 	call	0	; 0x0 <_ZN14EthernetServer5writeEh>
 104:	d6 01       	movw	r26, r12
 106:	8d 91       	ld	r24, X+
 108:	9d 91       	ld	r25, X+
 10a:	6d 01       	movw	r12, r26
 10c:	f7 01       	movw	r30, r14
 10e:	24 81       	ldd	r18, Z+4	; 0x04
 110:	35 81       	ldd	r19, Z+5	; 0x05
 112:	82 17       	cp	r24, r18
 114:	93 07       	cpc	r25, r19
 116:	01 f4       	brne	.+0      	; 0x118 <_ZN14EthernetServer6acceptEv+0x50>
 118:	ce 01       	movw	r24, r28
 11a:	01 96       	adiw	r24, 0x01	; 1
 11c:	0e 94 00 00 	call	0	; 0x0 <_ZN14EthernetServer5writeEh>
 120:	84 31       	cpi	r24, 0x14	; 20
 122:	01 f0       	breq	.+0      	; 0x124 <_ZN14EthernetServer6acceptEv+0x5c>
 124:	ce 01       	movw	r24, r28
 126:	01 96       	adiw	r24, 0x01	; 1
 128:	0e 94 00 00 	call	0	; 0x0 <_ZN14EthernetServer5writeEh>
 12c:	8c 31       	cpi	r24, 0x1C	; 28
 12e:	01 f4       	brne	.+0      	; 0x130 <_ZN14EthernetServer6acceptEv+0x68>
 130:	ce 01       	movw	r24, r28
 132:	01 96       	adiw	r24, 0x01	; 1
 134:	0e 94 00 00 	call	0	; 0x0 <_ZN14EthernetServer5writeEh>
 138:	00 97       	sbiw	r24, 0x00	; 0
 13a:	01 f4       	brne	.+0      	; 0x13c <_ZN14EthernetServer6acceptEv+0x74>
 13c:	ce 01       	movw	r24, r28
 13e:	01 96       	adiw	r24, 0x01	; 1
 140:	0e 94 00 00 	call	0	; 0x0 <_ZN14EthernetServer5writeEh>
 144:	00 c0       	rjmp	.+0      	; 0x146 <_ZN14EthernetServer6acceptEv+0x7e>
 146:	31 e0       	ldi	r19, 0x01	; 1
 148:	a3 2e       	mov	r10, r19
 14a:	b1 2c       	mov	r11, r1
 14c:	1f 5f       	subi	r17, 0xFF	; 255
 14e:	14 30       	cpi	r17, 0x04	; 4
 150:	01 f4       	brne	.+0      	; 0x152 <_ZN14EthernetServer6acceptEv+0x8a>
 152:	a1 14       	cp	r10, r1
 154:	b1 04       	cpc	r11, r1
 156:	01 f4       	brne	.+0      	; 0x158 <_ZN14EthernetServer6acceptEv+0x90>
 158:	d7 01       	movw	r26, r14
 15a:	ed 91       	ld	r30, X+
 15c:	fc 91       	ld	r31, X
 15e:	04 80       	ldd	r0, Z+4	; 0x04
 160:	f5 81       	ldd	r31, Z+5	; 0x05
 162:	e0 2d       	mov	r30, r0
 164:	c7 01       	movw	r24, r14
 166:	09 95       	icall
 168:	2d 96       	adiw	r28, 0x0d	; 13
 16a:	0f b6       	in	r0, 0x3f	; 63
 16c:	f8 94       	cli
 16e:	de bf       	out	0x3e, r29	; 62
 170:	0f be       	out	0x3f, r0	; 63
 172:	cd bf       	out	0x3d, r28	; 61
 174:	df 91       	pop	r29
 176:	cf 91       	pop	r28
 178:	1f 91       	pop	r17
 17a:	ff 90       	pop	r15
 17c:	ef 90       	pop	r14
 17e:	df 90       	pop	r13
 180:	cf 90       	pop	r12
 182:	bf 90       	pop	r11
 184:	af 90       	pop	r10
 186:	08 95       	ret

00000188 <_ZN14EthernetServer5writeEPKhj>:
 188:	6f 92       	push	r6
 18a:	7f 92       	push	r7
 18c:	8f 92       	push	r8
 18e:	9f 92       	push	r9
 190:	af 92       	push	r10
 192:	bf 92       	push	r11
 194:	cf 92       	push	r12
 196:	df 92       	push	r13
 198:	ef 92       	push	r14
 19a:	ff 92       	push	r15
 19c:	1f 93       	push	r17
 19e:	cf 93       	push	r28
 1a0:	df 93       	push	r29
 1a2:	cd b7       	in	r28, 0x3d	; 61
 1a4:	de b7       	in	r29, 0x3e	; 62
 1a6:	2d 97       	sbiw	r28, 0x0d	; 13
 1a8:	0f b6       	in	r0, 0x3f	; 63
 1aa:	f8 94       	cli
 1ac:	de bf       	out	0x3e, r29	; 62
 1ae:	0f be       	out	0x3f, r0	; 63
 1b0:	cd bf       	out	0x3d, r28	; 61
 1b2:	6c 01       	movw	r12, r24
 1b4:	4b 01       	movw	r8, r22
 1b6:	3a 01       	movw	r6, r20
 1b8:	0e 94 00 00 	call	0	; 0x0 <_ZN14EthernetServer5writeEh>
 1bc:	e0 e0       	ldi	r30, 0x00	; 0
 1be:	ae 2e       	mov	r10, r30
 1c0:	e0 e0       	ldi	r30, 0x00	; 0
 1c2:	be 2e       	mov	r11, r30
 1c4:	10 e0       	ldi	r17, 0x00	; 0
 1c6:	ee 24       	eor	r14, r14
 1c8:	ff 24       	eor	r15, r15
 1ca:	ce 01       	movw	r24, r28
 1cc:	01 96       	adiw	r24, 0x01	; 1
 1ce:	61 2f       	mov	r22, r17
 1d0:	0e 94 00 00 	call	0	; 0x0 <_ZN14EthernetServer5writeEh>
 1d4:	f5 01       	movw	r30, r10
 1d6:	81 91       	ld	r24, Z+
 1d8:	91 91       	ld	r25, Z+
 1da:	5f 01       	movw	r10, r30
 1dc:	f6 01       	movw	r30, r12
 1de:	24 81       	ldd	r18, Z+4	; 0x04
 1e0:	35 81       	ldd	r19, Z+5	; 0x05
 1e2:	82 17       	cp	r24, r18
 1e4:	93 07       	cpc	r25, r19
 1e6:	01 f4       	brne	.+0      	; 0x1e8 <_ZN14EthernetServer5writeEPKhj+0x60>
 1e8:	ce 01       	movw	r24, r28
 1ea:	01 96       	adiw	r24, 0x01	; 1
 1ec:	0e 94 00 00 	call	0	; 0x0 <_ZN14EthernetServer5writeEh>
 1f0:	87 31       	cpi	r24, 0x17	; 23
 1f2:	01 f4       	brne	.+0      	; 0x1f4 <_ZN14EthernetServer5writeEPKhj+0x6c>
 1f4:	ce 01       	movw	r24, r28
 1f6:	01 96       	adiw	r24, 0x01	; 1
 1f8:	b4 01       	movw	r22, r8
 1fa:	a3 01       	movw	r20, r6
 1fc:	0e 94 00 00 	call	0	; 0x0 <_ZN14EthernetServer5writeEh>
 200:	e8 0e       	add	r14, r24
 202:	f9 1e       	adc	r15, r25
 204:	1f 5f       	subi	r17, 0xFF	; 255
 206:	14 30       	cpi	r17, 0x04	; 4
 208:	01 f4       	brne	.+0      	; 0x20a <_ZN14EthernetServer5writeEPKhj+0x82>
 20a:	c7 01       	movw	r24, r14
 20c:	2d 96       	adiw	r28, 0x0d	; 13
 20e:	0f b6       	in	r0, 0x3f	; 63
 210:	f8 94       	cli
 212:	de bf       	out	0x3e, r29	; 62
 214:	0f be       	out	0x3f, r0	; 63
 216:	cd bf       	out	0x3d, r28	; 61
 218:	df 91       	pop	r29
 21a:	cf 91       	pop	r28
 21c:	1f 91       	pop	r17
 21e:	ff 90       	pop	r15
 220:	ef 90       	pop	r14
 222:	df 90       	pop	r13
 224:	cf 90       	pop	r12
 226:	bf 90       	pop	r11
 228:	af 90       	pop	r10
 22a:	9f 90       	pop	r9
 22c:	8f 90       	pop	r8
 22e:	7f 90       	pop	r7
 230:	6f 90       	pop	r6
 232:	08 95       	ret

00000234 <_ZN14EthernetServer9availableEv>:
 234:	af 92       	push	r10
 236:	bf 92       	push	r11
 238:	cf 92       	push	r12
 23a:	df 92       	push	r13
 23c:	ff 92       	push	r15
 23e:	0f 93       	push	r16
 240:	1f 93       	push	r17
 242:	cf 93       	push	r28
 244:	df 93       	push	r29
 246:	cd b7       	in	r28, 0x3d	; 61
 248:	de b7       	in	r29, 0x3e	; 62
 24a:	2d 97       	sbiw	r28, 0x0d	; 13
 24c:	0f b6       	in	r0, 0x3f	; 63
 24e:	f8 94       	cli
 250:	de bf       	out	0x3e, r29	; 62
 252:	0f be       	out	0x3f, r0	; 63
 254:	cd bf       	out	0x3d, r28	; 61
 256:	8c 01       	movw	r16, r24
 258:	6b 01       	movw	r12, r22
 25a:	cb 01       	movw	r24, r22
 25c:	0e 94 00 00 	call	0	; 0x0 <_ZN14EthernetServer5writeEh>
 260:	f0 e0       	ldi	r31, 0x00	; 0
 262:	af 2e       	mov	r10, r31
 264:	f0 e0       	ldi	r31, 0x00	; 0
 266:	bf 2e       	mov	r11, r31
 268:	ff 24       	eor	r15, r15
 26a:	ce 01       	movw	r24, r28
 26c:	01 96       	adiw	r24, 0x01	; 1
 26e:	6f 2d       	mov	r22, r15
 270:	0e 94 00 00 	call	0	; 0x0 <_ZN14EthernetServer5writeEh>
 274:	f5 01       	movw	r30, r10
 276:	81 91       	ld	r24, Z+
 278:	91 91       	ld	r25, Z+
 27a:	5f 01       	movw	r10, r30
 27c:	f6 01       	movw	r30, r12
 27e:	24 81       	ldd	r18, Z+4	; 0x04
 280:	35 81       	ldd	r19, Z+5	; 0x05
 282:	82 17       	cp	r24, r18
 284:	93 07       	cpc	r25, r19
 286:	01 f4       	brne	.+0      	; 0x288 <_ZN14EthernetServer9availableEv+0x54>
 288:	ce 01       	movw	r24, r28
 28a:	01 96       	adiw	r24, 0x01	; 1
 28c:	0e 94 00 00 	call	0	; 0x0 <_ZN14EthernetServer5writeEh>
 290:	87 31       	cpi	r24, 0x17	; 23
 292:	01 f0       	breq	.+0      	; 0x294 <_ZN14EthernetServer9availableEv+0x60>
 294:	ce 01       	movw	r24, r28
 296:	01 96       	adiw	r24, 0x01	; 1
 298:	0e 94 00 00 	call	0	; 0x0 <_ZN14EthernetServer5writeEh>
 29c:	8c 31       	cpi	r24, 0x1C	; 28
 29e:	01 f4       	brne	.+0      	; 0x2a0 <_ZN14EthernetServer9availableEv+0x6c>
 2a0:	ce 01       	movw	r24, r28
 2a2:	01 96       	adiw	r24, 0x01	; 1
 2a4:	0e 94 00 00 	call	0	; 0x0 <_ZN14EthernetServer5writeEh>
 2a8:	00 97       	sbiw	r24, 0x00	; 0
 2aa:	01 f0       	breq	.+0      	; 0x2ac <_ZN14EthernetServer9availableEv+0x78>
 2ac:	8b 81       	ldd	r24, Y+3	; 0x03
 2ae:	9c 81       	ldd	r25, Y+4	; 0x04
 2b0:	f8 01       	movw	r30, r16
 2b2:	93 83       	std	Z+3, r25	; 0x03
 2b4:	82 83       	std	Z+2, r24	; 0x02
 2b6:	8d 81       	ldd	r24, Y+5	; 0x05
 2b8:	9e 81       	ldd	r25, Y+6	; 0x06
 2ba:	af 81       	ldd	r26, Y+7	; 0x07
 2bc:	b8 85       	ldd	r27, Y+8	; 0x08
 2be:	84 83       	std	Z+4, r24	; 0x04
 2c0:	95 83       	std	Z+5, r25	; 0x05
 2c2:	a6 83       	std	Z+6, r26	; 0x06
 2c4:	b7 83       	std	Z+7, r27	; 0x07
 2c6:	89 85       	ldd	r24, Y+9	; 0x09
 2c8:	9a 85       	ldd	r25, Y+10	; 0x0a
 2ca:	ab 85       	ldd	r26, Y+11	; 0x0b
 2cc:	bc 85       	ldd	r27, Y+12	; 0x0c
 2ce:	80 87       	std	Z+8, r24	; 0x08
 2d0:	91 87       	std	Z+9, r25	; 0x09
 2d2:	a2 87       	std	Z+10, r26	; 0x0a
 2d4:	b3 87       	std	Z+11, r27	; 0x0b
 2d6:	80 e0       	ldi	r24, 0x00	; 0
 2d8:	90 e0       	ldi	r25, 0x00	; 0
 2da:	91 83       	std	Z+1, r25	; 0x01
 2dc:	80 83       	st	Z, r24
 2de:	8d 85       	ldd	r24, Y+13	; 0x0d
 2e0:	84 87       	std	Z+12, r24	; 0x0c
 2e2:	00 c0       	rjmp	.+0      	; 0x2e4 <_ZN14EthernetServer9availableEv+0xb0>
 2e4:	f3 94       	inc	r15
 2e6:	f4 e0       	ldi	r31, 0x04	; 4
 2e8:	ff 16       	cp	r15, r31
 2ea:	01 f0       	breq	.+0      	; 0x2ec <_ZN14EthernetServer9availableEv+0xb8>
 2ec:	00 c0       	rjmp	.+0      	; 0x2ee <_ZN14EthernetServer9availableEv+0xba>
 2ee:	c8 01       	movw	r24, r16
 2f0:	64 e0       	ldi	r22, 0x04	; 4
 2f2:	0e 94 00 00 	call	0	; 0x0 <_ZN14EthernetServer5writeEh>
 2f6:	c8 01       	movw	r24, r16
 2f8:	2d 96       	adiw	r28, 0x0d	; 13
 2fa:	0f b6       	in	r0, 0x3f	; 63
 2fc:	f8 94       	cli
 2fe:	de bf       	out	0x3e, r29	; 62
 300:	0f be       	out	0x3f, r0	; 63
 302:	cd bf       	out	0x3d, r28	; 61
 304:	df 91       	pop	r29
 306:	cf 91       	pop	r28
 308:	1f 91       	pop	r17
 30a:	0f 91       	pop	r16
 30c:	ff 90       	pop	r15
 30e:	df 90       	pop	r13
 310:	cf 90       	pop	r12
 312:	bf 90       	pop	r11
 314:	af 90       	pop	r10
 316:	08 95       	ret

Disassembly of section .text.startup:

00000000 <_GLOBAL__sub_I__ZN14EthernetServerC2Ej>:
   0:	0f 93       	push	r16
   2:	80 e0       	ldi	r24, 0x00	; 0
   4:	90 e0       	ldi	r25, 0x00	; 0
   6:	60 e0       	ldi	r22, 0x00	; 0
   8:	40 e0       	ldi	r20, 0x00	; 0
   a:	20 e0       	ldi	r18, 0x00	; 0
   c:	00 e0       	ldi	r16, 0x00	; 0
   e:	0e 94 00 00 	call	0	; 0x0 <_GLOBAL__sub_I__ZN14EthernetServerC2Ej>
  12:	0f 91       	pop	r16
  14:	08 95       	ret

EthernetUdp.o:     file format elf32-avr

Sections:
Idx Name          Size      VMA       LMA       File off  Algn
  0 .text         000003ae  00000000  00000000  00000034  2**0
                  CONTENTS, ALLOC, LOAD, RELOC, READONLY, CODE
  1 .data         0000005e  00000000  00000000  000003e2  2**0
                  CONTENTS, ALLOC, LOAD, RELOC, DATA
  2 .bss          00000006  00000000  00000000  00000440  2**0
                  ALLOC
  3 .text.startup 00000016  00000000  00000000  00000440  2**0
                  CONTENTS, ALLOC, LOAD, RELOC, READONLY, CODE
  4 .ctors        00000002  00000000  00000000  00000456  2**0
                  CONTENTS, ALLOC, LOAD, RELOC, READONLY, DATA

Disassembly of section .text:

00000000 <_ZN11EthernetUDP4readEPcj>:
   0:	dc 01       	movw	r26, r24
   2:	ed 91       	ld	r30, X+
   4:	fc 91       	ld	r31, X
   6:	00 8c       	ldd	r0, Z+24	; 0x18
   8:	f1 8d       	ldd	r31, Z+25	; 0x19
   a:	e0 2d       	mov	r30, r0
   c:	09 95       	icall
   e:	08 95       	ret

00000010 <_ZN11EthernetUDP8remoteIPEv>:
  10:	20 e0       	ldi	r18, 0x00	; 0
  12:	30 e0       	ldi	r19, 0x00	; 0
  14:	fc 01       	movw	r30, r24
  16:	31 83       	std	Z+1, r19	; 0x01
  18:	20 83       	st	Z, r18
  1a:	fb 01       	movw	r30, r22
  1c:	41 89       	ldd	r20, Z+17	; 0x11
  1e:	52 89       	ldd	r21, Z+18	; 0x12
  20:	63 89       	ldd	r22, Z+19	; 0x13
  22:	74 89       	ldd	r23, Z+20	; 0x14
  24:	fc 01       	movw	r30, r24
  26:	42 83       	std	Z+2, r20	; 0x02
  28:	53 83       	std	Z+3, r21	; 0x03
  2a:	64 83       	std	Z+4, r22	; 0x04
  2c:	75 83       	std	Z+5, r23	; 0x05
  2e:	08 95       	ret

00000030 <_ZN11EthernetUDP10remotePortEv>:
  30:	fc 01       	movw	r30, r24
  32:	85 89       	ldd	r24, Z+21	; 0x15
  34:	96 89       	ldd	r25, Z+22	; 0x16
  36:	08 95       	ret

00000038 <_ZN11EthernetUDP9availableEv>:
  38:	fc 01       	movw	r30, r24
  3a:	81 8d       	ldd	r24, Z+25	; 0x19
  3c:	92 8d       	ldd	r25, Z+26	; 0x1a
  3e:	08 95       	ret

00000040 <_ZN11EthernetUDP5writeEh>:
  40:	cf 93       	push	r28
  42:	df 93       	push	r29
  44:	0f 92       	push	r0
  46:	cd b7       	in	r28, 0x3d	; 61
  48:	de b7       	in	r29, 0x3e	; 62
  4a:	69 83       	std	Y+1, r22	; 0x01
  4c:	dc 01       	movw	r26, r24
  4e:	ed 91       	ld	r30, X+
  50:	fc 91       	ld	r31, X
  52:	02 80       	ldd	r0, Z+2	; 0x02
  54:	f3 81       	ldd	r31, Z+3	; 0x03
  56:	e0 2d       	mov	r30, r0
  58:	be 01       	movw	r22, r28
  5a:	6f 5f       	subi	r22, 0xFF	; 255
  5c:	7f 4f       	sbci	r23, 0xFF	; 255
  5e:	41 e0       	ldi	r20, 0x01	; 1
  60:	50 e0       	ldi	r21, 0x00	; 0
  62:	09 95       	icall
  64:	0f 90       	pop	r0
  66:	df 91       	pop	r29
  68:	cf 91       	pop	r28
  6a:	08 95       	ret

0000006c <_ZN11EthernetUDP5flushEv>:
  6c:	cf 93       	push	r28
  6e:	df 93       	push	r29
  70:	ec 01       	movw	r28, r24
  72:	00 c0       	rjmp	.+0      	; 0x74 <_ZN11EthernetUDP5flushEv+0x8>
  74:	e8 81       	ld	r30, Y
  76:	f9 81       	ldd	r31, Y+1	; 0x01
  78:	06 80       	ldd	r0, Z+6	; 0x06
  7a:	f7 81       	ldd	r31, Z+7	; 0x07
  7c:	e0 2d       	mov	r30, r0
  7e:	ce 01       	movw	r24, r28
  80:	09 95       	icall
  82:	89 8d       	ldd	r24, Y+25	; 0x19
  84:	9a 8d       	ldd	r25, Y+26	; 0x1a
  86:	00 97       	sbiw	r24, 0x00	; 0
  88:	01 f4       	brne	.+0      	; 0x8a <_ZN11EthernetUDP5flushEv+0x1e>
  8a:	df 91       	pop	r29
  8c:	cf 91       	pop	r28
  8e:	08 95       	ret

00000090 <_ZN11EthernetUDP4peekEv>:
  90:	cf 93       	push	r28
  92:	df 93       	push	r29
  94:	0f 92       	push	r0
  96:	cd b7       	in	r28, 0x3d	; 61
  98:	de b7       	in	r29, 0x3e	; 62
  9a:	fc 01       	movw	r30, r24
  9c:	81 8d       	ldd	r24, Z+25	; 0x19
  9e:	92 8d       	ldd	r25, Z+26	; 0x1a
  a0:	00 97       	sbiw	r24, 0x00	; 0
  a2:	01 f0       	breq	.+0      	; 0xa4 <_ZN11EthernetUDP4peekEv+0x14>
  a4:	84 85       	ldd	r24, Z+12	; 0x0c
  a6:	be 01       	movw	r22, r28
  a8:	6f 5f       	subi	r22, 0xFF	; 255
  aa:	7f 4f       	sbci	r23, 0xFF	; 255
  ac:	0e 94 00 00 	call	0	; 0x0 <_ZN11EthernetUDP4readEPcj>
  b0:	89 81       	ldd	r24, Y+1	; 0x01
  b2:	90 e0       	ldi	r25, 0x00	; 0
  b4:	00 c0       	rjmp	.+0      	; 0xb6 <_ZN11EthernetUDP4peekEv+0x26>
  b6:	8f ef       	ldi	r24, 0xFF	; 255
  b8:	9f ef       	ldi	r25, 0xFF	; 255
  ba:	0f 90       	pop	r0
  bc:	df 91       	pop	r29
  be:	cf 91       	pop	r28
  c0:	08 95       	ret

000000c2 <_ZN11EthernetUDP4readEPhj>:
  c2:	cf 93       	push	r28
  c4:	df 93       	push	r29
  c6:	ec 01       	movw	r28, r24
  c8:	9a 01       	movw	r18, r20
  ca:	49 8d       	ldd	r20, Y+25	; 0x19
  cc:	5a 8d       	ldd	r21, Y+26	; 0x1a
  ce:	41 15       	cp	r20, r1
  d0:	51 05       	cpc	r21, r1
  d2:	01 f0       	breq	.+0      	; 0xd4 <_ZN11EthernetUDP4readEPhj+0x12>
  d4:	8c 85       	ldd	r24, Y+12	; 0x0c
  d6:	24 17       	cp	r18, r20
  d8:	35 07       	cpc	r19, r21
  da:	00 f4       	brcc	.+0      	; 0xdc <_ZN11EthernetUDP4readEPhj+0x1a>
  dc:	a9 01       	movw	r20, r18
  de:	0e 94 00 00 	call	0	; 0x0 <_ZN11EthernetUDP4readEPcj>
  e2:	18 16       	cp	r1, r24
  e4:	19 06       	cpc	r1, r25
  e6:	04 f4       	brge	.+0      	; 0xe8 <_ZN11EthernetUDP4readEPhj+0x26>
  e8:	29 8d       	ldd	r18, Y+25	; 0x19
  ea:	3a 8d       	ldd	r19, Y+26	; 0x1a
  ec:	28 1b       	sub	r18, r24
  ee:	39 0b       	sbc	r19, r25
  f0:	3a 8f       	std	Y+26, r19	; 0x1a
  f2:	29 8f       	std	Y+25, r18	; 0x19
  f4:	00 c0       	rjmp	.+0      	; 0xf6 <_ZN11EthernetUDP4readEPhj+0x34>
  f6:	8f ef       	ldi	r24, 0xFF	; 255
  f8:	9f ef       	ldi	r25, 0xFF	; 255
  fa:	df 91       	pop	r29
  fc:	cf 91       	pop	r28
  fe:	08 95       	ret

00000100 <_ZN11EthernetUDP4readEv>:
 100:	0f 93       	push	r16
 102:	1f 93       	push	r17
 104:	cf 93       	push	r28
 106:	df 93       	push	r29
 108:	0f 92       	push	r0
 10a:	cd b7       	in	r28, 0x3d	; 61
 10c:	de b7       	in	r29, 0x3e	; 62
 10e:	8c 01       	movw	r16, r24
 110:	fc 01       	movw	r30, r24
 112:	81 8d       	ldd	r24, Z+25	; 0x19
 114:	92 8d       	ldd	r25, Z+26	; 0x1a
 116:	00 97       	sbiw	r24, 0x00	; 0
 118:	01 f0       	breq	.+0      	; 0x11a <_ZN11EthernetUDP4readEv+0x1a>
 11a:	84 85       	ldd	r24, Z+12	; 0x0c
 11c:	be 01       	movw	r22, r28
 11e:	6f 5f       	subi	r22, 0xFF	; 255
 120:	7f 4f       	sbci	r23, 0xFF	; 255
 122:	41 e0       	ldi	r20, 0x01	; 1
 124:	50 e0       	ldi	r21, 0x00	; 0
 126:	0e 94 00 00 	call	0	; 0x0 <_ZN11EthernetUDP4readEPcj>
 12a:	18 16       	cp	r1, r24
 12c:	19 06       	cpc	r1, r25
 12e:	04 f4       	brge	.+0      	; 0x130 <_ZN11EthernetUDP4readEv+0x30>
 130:	f8 01       	movw	r30, r16
 132:	81 8d       	ldd	r24, Z+25	; 0x19
 134:	92 8d       	ldd	r25, Z+26	; 0x1a
 136:	01 97       	sbiw	r24, 0x01	; 1
 138:	92 8f       	std	Z+26, r25	; 0x1a
 13a:	81 8f       	std	Z+25, r24	; 0x19
 13c:	89 81       	ldd	r24, Y+1	; 0x01
 13e:	90 e0       	ldi	r25, 0x00	; 0
 140:	00 c0       	rjmp	.+0      	; 0x142 <_ZN11EthernetUDP4readEv+0x42>
 142:	8f ef       	ldi	r24, 0xFF	; 255
 144:	9f ef       	ldi	r25, 0xFF	; 255
 146:	0f 90       	pop	r0
 148:	df 91       	pop	r29
 14a:	cf 91       	pop	r28
 14c:	1f 91       	pop	r17
 14e:	0f 91       	pop	r16
 150:	08 95       	ret

00000152 <_ZN11EthernetUDP5writeEPKhj>:
 152:	cf 93       	push	r28
 154:	df 93       	push	r29
 156:	ec 01       	movw	r28, r24
 158:	9b 01       	movw	r18, r22
 15a:	fa 01       	movw	r30, r20
 15c:	6f 89       	ldd	r22, Y+23	; 0x17
 15e:	78 8d       	ldd	r23, Y+24	; 0x18
 160:	8c 85       	ldd	r24, Y+12	; 0x0c
 162:	a9 01       	movw	r20, r18
 164:	9f 01       	movw	r18, r30
 166:	0e 94 00 00 	call	0	; 0x0 <_ZN11EthernetUDP4readEPcj>
 16a:	2f 89       	ldd	r18, Y+23	; 0x17
 16c:	38 8d       	ldd	r19, Y+24	; 0x18
 16e:	28 0f       	add	r18, r24
 170:	39 1f       	adc	r19, r25
 172:	38 8f       	std	Y+24, r19	; 0x18
 174:	2f 8b       	std	Y+23, r18	; 0x17
 176:	df 91       	pop	r29
 178:	cf 91       	pop	r28
 17a:	08 95       	ret

0000017c <_ZN11EthernetUDP9endPacketEv>:
 17c:	fc 01       	movw	r30, r24
 17e:	84 85       	ldd	r24, Z+12	; 0x0c
 180:	0e 94 00 00 	call	0	; 0x0 <_ZN11EthernetUDP4readEPcj>
 184:	08 95       	ret

00000186 <_ZN11EthernetUDP11beginPacketE9IPAddressj>:
 186:	fc 01       	movw	r30, r24
 188:	10 8e       	std	Z+24, r1	; 0x18
 18a:	17 8a       	std	Z+23, r1	; 0x17
 18c:	6e 5f       	subi	r22, 0xFE	; 254
 18e:	7f 4f       	sbci	r23, 0xFF	; 255
 190:	84 85       	ldd	r24, Z+12	; 0x0c
 192:	0e 94 00 00 	call	0	; 0x0 <_ZN11EthernetUDP4readEPcj>
 196:	08 95       	ret

00000198 <_ZN11EthernetUDP11parsePacketEv>:
 198:	0f 93       	push	r16
 19a:	1f 93       	push	r17
 19c:	cf 93       	push	r28
 19e:	df 93       	push	r29
 1a0:	cd b7       	in	r28, 0x3d	; 61
 1a2:	de b7       	in	r29, 0x3e	; 62
 1a4:	28 97       	sbiw	r28, 0x08	; 8
 1a6:	0f b6       	in	r0, 0x3f	; 63
 1a8:	f8 94       	cli
 1aa:	de bf       	out	0x3e, r29	; 62
 1ac:	0f be       	out	0x3f, r0	; 63
 1ae:	cd bf       	out	0x3d, r28	; 61
 1b0:	8c 01       	movw	r16, r24
 1b2:	dc 01       	movw	r26, r24
 1b4:	ed 91       	ld	r30, X+
 1b6:	fc 91       	ld	r31, X
 1b8:	02 84       	ldd	r0, Z+10	; 0x0a
 1ba:	f3 85       	ldd	r31, Z+11	; 0x0b
 1bc:	e0 2d       	mov	r30, r0
 1be:	09 95       	icall
 1c0:	80 e0       	ldi	r24, 0x00	; 0
 1c2:	90 e0       	ldi	r25, 0x00	; 0
 1c4:	f8 01       	movw	r30, r16
 1c6:	64 85       	ldd	r22, Z+12	; 0x0c
 1c8:	0e 94 00 00 	call	0	; 0x0 <_ZN11EthernetUDP4readEPcj>
 1cc:	00 97       	sbiw	r24, 0x00	; 0
 1ce:	01 f0       	breq	.+0      	; 0x1d0 <_ZN11EthernetUDP11parsePacketEv+0x38>
 1d0:	d8 01       	movw	r26, r16
 1d2:	1c 96       	adiw	r26, 0x0c	; 12
 1d4:	8c 91       	ld	r24, X
 1d6:	be 01       	movw	r22, r28
 1d8:	6f 5f       	subi	r22, 0xFF	; 255
 1da:	7f 4f       	sbci	r23, 0xFF	; 255
 1dc:	48 e0       	ldi	r20, 0x08	; 8
 1de:	50 e0       	ldi	r21, 0x00	; 0
 1e0:	0e 94 00 00 	call	0	; 0x0 <_ZN11EthernetUDP4readEPcj>
 1e4:	18 16       	cp	r1, r24
 1e6:	19 06       	cpc	r1, r25
 1e8:	04 f4       	brge	.+0      	; 0x1ea <_ZN11EthernetUDP11parsePacketEv+0x52>
 1ea:	c8 01       	movw	r24, r16
 1ec:	0f 96       	adiw	r24, 0x0f	; 15
 1ee:	be 01       	movw	r22, r28
 1f0:	6f 5f       	subi	r22, 0xFF	; 255
 1f2:	7f 4f       	sbci	r23, 0xFF	; 255
 1f4:	0e 94 00 00 	call	0	; 0x0 <_ZN11EthernetUDP4readEPcj>
 1f8:	9d 81       	ldd	r25, Y+5	; 0x05
 1fa:	80 e0       	ldi	r24, 0x00	; 0
 1fc:	2e 81       	ldd	r18, Y+6	; 0x06
 1fe:	82 0f       	add	r24, r18
 200:	91 1d       	adc	r25, r1
 202:	f8 01       	movw	r30, r16
 204:	96 8b       	std	Z+22, r25	; 0x16
 206:	85 8b       	std	Z+21, r24	; 0x15
 208:	9f 81       	ldd	r25, Y+7	; 0x07
 20a:	80 e0       	ldi	r24, 0x00	; 0
 20c:	28 85       	ldd	r18, Y+8	; 0x08
 20e:	82 0f       	add	r24, r18
 210:	91 1d       	adc	r25, r1
 212:	92 8f       	std	Z+26, r25	; 0x1a
 214:	81 8f       	std	Z+25, r24	; 0x19
 216:	00 c0       	rjmp	.+0      	; 0x218 <_ZN11EthernetUDP11parsePacketEv+0x80>
 218:	80 e0       	ldi	r24, 0x00	; 0
 21a:	90 e0       	ldi	r25, 0x00	; 0
 21c:	28 96       	adiw	r28, 0x08	; 8
 21e:	0f b6       	in	r0, 0x3f	; 63
 220:	f8 94       	cli
 222:	de bf       	out	0x3e, r29	; 62
 224:	0f be       	out	0x3f, r0	; 63
 226:	cd bf       	out	0x3d, r28	; 61
 228:	df 91       	pop	r29
 22a:	cf 91       	pop	r28
 22c:	1f 91       	pop	r17
 22e:	0f 91       	pop	r16
 230:	08 95       	ret

00000232 <_ZN11EthernetUDP4stopEv>:
 232:	cf 93       	push	r28
 234:	df 93       	push	r29
 236:	ec 01       	movw	r28, r24
 238:	8c 85       	ldd	r24, Y+12	; 0x0c
 23a:	84 30       	cpi	r24, 0x04	; 4
 23c:	01 f0       	breq	.+0      	; 0x23e <_ZN11EthernetUDP4stopEv+0xc>
 23e:	0e 94 00 00 	call	0	; 0x0 <_ZN11EthernetUDP4readEPcj>
 242:	ec 85       	ldd	r30, Y+12	; 0x0c
 244:	f0 e0       	ldi	r31, 0x00	; 0
 246:	ee 0f       	add	r30, r30
 248:	ff 1f       	adc	r31, r31
 24a:	e0 50       	subi	r30, 0x00	; 0
 24c:	f0 40       	sbci	r31, 0x00	; 0
 24e:	11 82       	std	Z+1, r1	; 0x01
 250:	10 82       	st	Z, r1
 252:	84 e0       	ldi	r24, 0x04	; 4
 254:	8c 87       	std	Y+12, r24	; 0x0c
 256:	df 91       	pop	r29
 258:	cf 91       	pop	r28
 25a:	08 95       	ret

0000025c <_ZN11EthernetUDP5beginEj>:
 25c:	df 92       	push	r13
 25e:	ef 92       	push	r14
 260:	ff 92       	push	r15
 262:	0f 93       	push	r16
 264:	1f 93       	push	r17
 266:	cf 93       	push	r28
 268:	df 93       	push	r29
 26a:	ec 01       	movw	r28, r24
 26c:	7b 01       	movw	r14, r22
 26e:	8c 85       	ldd	r24, Y+12	; 0x0c
 270:	84 30       	cpi	r24, 0x04	; 4
 272:	01 f4       	brne	.+0      	; 0x274 <_ZN11EthernetUDP5beginEj+0x18>
 274:	03 e0       	ldi	r16, 0x03	; 3
 276:	14 e0       	ldi	r17, 0x04	; 4
 278:	dd 24       	eor	r13, r13
 27a:	c8 01       	movw	r24, r16
 27c:	0e 94 00 00 	call	0	; 0x0 <_ZN11EthernetUDP4readEPcj>
 280:	88 23       	and	r24, r24
 282:	01 f0       	breq	.+0      	; 0x284 <_ZN11EthernetUDP5beginEj+0x28>
 284:	88 31       	cpi	r24, 0x18	; 24
 286:	01 f4       	brne	.+0      	; 0x288 <_ZN11EthernetUDP5beginEj+0x2c>
 288:	dc 86       	std	Y+12, r13	; 0x0c
 28a:	00 c0       	rjmp	.+0      	; 0x28c <_ZN11EthernetUDP5beginEj+0x30>
 28c:	d3 94       	inc	r13
 28e:	00 50       	subi	r16, 0x00	; 0
 290:	1f 4f       	sbci	r17, 0xFF	; 255
 292:	84 e0       	ldi	r24, 0x04	; 4
 294:	d8 16       	cp	r13, r24
 296:	01 f4       	brne	.+0      	; 0x298 <_ZN11EthernetUDP5beginEj+0x3c>
 298:	8c 85       	ldd	r24, Y+12	; 0x0c
 29a:	84 30       	cpi	r24, 0x04	; 4
 29c:	01 f0       	breq	.+0      	; 0x29e <_ZN11EthernetUDP5beginEj+0x42>
 29e:	fe 86       	std	Y+14, r15	; 0x0e
 2a0:	ed 86       	std	Y+13, r14	; 0x0d
 2a2:	1a 8e       	std	Y+26, r1	; 0x1a
 2a4:	19 8e       	std	Y+25, r1	; 0x19
 2a6:	62 e0       	ldi	r22, 0x02	; 2
 2a8:	a7 01       	movw	r20, r14
 2aa:	20 e0       	ldi	r18, 0x00	; 0
 2ac:	0e 94 00 00 	call	0	; 0x0 <_ZN11EthernetUDP4readEPcj>
 2b0:	81 e0       	ldi	r24, 0x01	; 1
 2b2:	00 c0       	rjmp	.+0      	; 0x2b4 <_ZN11EthernetUDP5beginEj+0x58>
 2b4:	80 e0       	ldi	r24, 0x00	; 0
 2b6:	df 91       	pop	r29
 2b8:	cf 91       	pop	r28
 2ba:	1f 91       	pop	r17
 2bc:	0f 91       	pop	r16
 2be:	ff 90       	pop	r15
 2c0:	ef 90       	pop	r14
 2c2:	df 90       	pop	r13
 2c4:	08 95       	ret

000002c6 <_ZN11EthernetUDPC1Ev>:
 2c6:	fc 01       	movw	r30, r24
 2c8:	13 82       	std	Z+3, r1	; 0x03
 2ca:	12 82       	std	Z+2, r1	; 0x02
 2cc:	48 ee       	ldi	r20, 0xE8	; 232
 2ce:	53 e0       	ldi	r21, 0x03	; 3
 2d0:	60 e0       	ldi	r22, 0x00	; 0
 2d2:	70 e0       	ldi	r23, 0x00	; 0
 2d4:	44 83       	std	Z+4, r20	; 0x04
 2d6:	55 83       	std	Z+5, r21	; 0x05
 2d8:	66 83       	std	Z+6, r22	; 0x06
 2da:	77 83       	std	Z+7, r23	; 0x07
 2dc:	80 e0       	ldi	r24, 0x00	; 0
 2de:	90 e0       	ldi	r25, 0x00	; 0
 2e0:	91 83       	std	Z+1, r25	; 0x01
 2e2:	80 83       	st	Z, r24
 2e4:	84 e0       	ldi	r24, 0x04	; 4
 2e6:	84 87       	std	Z+12, r24	; 0x0c
 2e8:	cf 01       	movw	r24, r30
 2ea:	0f 96       	adiw	r24, 0x0f	; 15
 2ec:	0e 94 00 00 	call	0	; 0x0 <_ZN11EthernetUDP4readEPcj>
 2f0:	08 95       	ret

000002f2 <_ZN11EthernetUDP11beginPacketEPKcj>:
 2f2:	cf 92       	push	r12
 2f4:	df 92       	push	r13
 2f6:	ef 92       	push	r14
 2f8:	ff 92       	push	r15
 2fa:	0f 93       	push	r16
 2fc:	1f 93       	push	r17
 2fe:	cf 93       	push	r28
 300:	df 93       	push	r29
 302:	cd b7       	in	r28, 0x3d	; 61
 304:	de b7       	in	r29, 0x3e	; 62
 306:	e5 97       	sbiw	r28, 0x35	; 53
 308:	0f b6       	in	r0, 0x3f	; 63
 30a:	f8 94       	cli
 30c:	de bf       	out	0x3e, r29	; 62
 30e:	0f be       	out	0x3f, r0	; 63
 310:	cd bf       	out	0x3d, r28	; 61
 312:	7c 01       	movw	r14, r24
 314:	8b 01       	movw	r16, r22
 316:	6a 01       	movw	r12, r20
 318:	ce 01       	movw	r24, r28
 31a:	43 96       	adiw	r24, 0x13	; 19
 31c:	0e 94 00 00 	call	0	; 0x0 <_ZN11EthernetUDP4readEPcj>
 320:	ce 01       	movw	r24, r28
 322:	4b 96       	adiw	r24, 0x1b	; 27
 324:	0e 94 00 00 	call	0	; 0x0 <_ZN11EthernetUDP4readEPcj>
 328:	ce 01       	movw	r24, r28
 32a:	0d 96       	adiw	r24, 0x0d	; 13
 32c:	0e 94 00 00 	call	0	; 0x0 <_ZN11EthernetUDP4readEPcj>
 330:	ce 01       	movw	r24, r28
 332:	07 96       	adiw	r24, 0x07	; 7
 334:	60 e0       	ldi	r22, 0x00	; 0
 336:	70 e0       	ldi	r23, 0x00	; 0
 338:	0e 94 00 00 	call	0	; 0x0 <_ZN11EthernetUDP4readEPcj>
 33c:	ce 01       	movw	r24, r28
 33e:	43 96       	adiw	r24, 0x13	; 19
 340:	be 01       	movw	r22, r28
 342:	69 5f       	subi	r22, 0xF9	; 249
 344:	7f 4f       	sbci	r23, 0xFF	; 255
 346:	0e 94 00 00 	call	0	; 0x0 <_ZN11EthernetUDP4readEPcj>
 34a:	ce 01       	movw	r24, r28
 34c:	43 96       	adiw	r24, 0x13	; 19
 34e:	b8 01       	movw	r22, r16
 350:	ae 01       	movw	r20, r28
 352:	43 5f       	subi	r20, 0xF3	; 243
 354:	5f 4f       	sbci	r21, 0xFF	; 255
 356:	0e 94 00 00 	call	0	; 0x0 <_ZN11EthernetUDP4readEPcj>
 35a:	81 30       	cpi	r24, 0x01	; 1
 35c:	91 05       	cpc	r25, r1
 35e:	01 f4       	brne	.+0      	; 0x360 <_ZN11EthernetUDP11beginPacketEPKcj+0x6e>
 360:	d7 01       	movw	r26, r14
 362:	ed 91       	ld	r30, X+
 364:	fc 91       	ld	r31, X
 366:	00 88       	ldd	r0, Z+16	; 0x10
 368:	f1 89       	ldd	r31, Z+17	; 0x11
 36a:	e0 2d       	mov	r30, r0
 36c:	80 e0       	ldi	r24, 0x00	; 0
 36e:	90 e0       	ldi	r25, 0x00	; 0
 370:	9a 83       	std	Y+2, r25	; 0x02
 372:	89 83       	std	Y+1, r24	; 0x01
 374:	8f 85       	ldd	r24, Y+15	; 0x0f
 376:	98 89       	ldd	r25, Y+16	; 0x10
 378:	a9 89       	ldd	r26, Y+17	; 0x11
 37a:	ba 89       	ldd	r27, Y+18	; 0x12
 37c:	8b 83       	std	Y+3, r24	; 0x03
 37e:	9c 83       	std	Y+4, r25	; 0x04
 380:	ad 83       	std	Y+5, r26	; 0x05
 382:	be 83       	std	Y+6, r27	; 0x06
 384:	c7 01       	movw	r24, r14
 386:	be 01       	movw	r22, r28
 388:	6f 5f       	subi	r22, 0xFF	; 255
 38a:	7f 4f       	sbci	r23, 0xFF	; 255
 38c:	a6 01       	movw	r20, r12
 38e:	09 95       	icall
 390:	e5 96       	adiw	r28, 0x35	; 53
 392:	0f b6       	in	r0, 0x3f	; 63
 394:	f8 94       	cli
 396:	de bf       	out	0x3e, r29	; 62
 398:	0f be       	out	0x3f, r0	; 63
 39a:	cd bf       	out	0x3d, r28	; 61
 39c:	df 91       	pop	r29
 39e:	cf 91       	pop	r28
 3a0:	1f 91       	pop	r17
 3a2:	0f 91       	pop	r16
 3a4:	ff 90       	pop	r15
 3a6:	ef 90       	pop	r14
 3a8:	df 90       	pop	r13
 3aa:	cf 90       	pop	r12
 3ac:	08 95       	ret

Disassembly of section .text.startup:

00000000 <_GLOBAL__sub_I__ZN11EthernetUDPC2Ev>:
   0:	0f 93       	push	r16
   2:	80 e0       	ldi	r24, 0x00	; 0
   4:	90 e0       	ldi	r25, 0x00	; 0
   6:	60 e0       	ldi	r22, 0x00	; 0
   8:	40 e0       	ldi	r20, 0x00	; 0
   a:	20 e0       	ldi	r18, 0x00	; 0
   c:	00 e0       	ldi	r16, 0x00	; 0
   e:	0e 94 00 00 	call	0	; 0x0 <_GLOBAL__sub_I__ZN11EthernetUDPC2Ev>
  12:	0f 91       	pop	r16
  14:	08 95       	ret

EEPROM.o:     file format elf32-avr

Sections:
Idx Name          Size      VMA       LMA       File off  Algn
  0 .text         00000012  00000000  00000000  00000034  2**0
                  CONTENTS, ALLOC, LOAD, RELOC, READONLY, CODE
  1 .data         00000000  00000000  00000000  00000046  2**0
                  CONTENTS, ALLOC, LOAD, DATA
  2 .bss          00000001  00000000  00000000  00000046  2**0
                  ALLOC

Disassembly of section .text:

00000000 <_ZN11EEPROMClass4readEi>:
   0:	cb 01       	movw	r24, r22
   2:	0e 94 00 00 	call	0	; 0x0 <_ZN11EEPROMClass4readEi>
   6:	08 95       	ret

00000008 <_ZN11EEPROMClass5writeEih>:
   8:	cb 01       	movw	r24, r22
   a:	64 2f       	mov	r22, r20
   c:	0e 94 00 00 	call	0	; 0x0 <_ZN11EEPROMClass4readEi>
  10:	08 95       	ret
