In archive libArduino_cores.a:

CDC.o:     file format elf32-avr

Sections:
Idx Name          Size      VMA       LMA       File off  Algn
  0 .text         00000000  00000000  00000000  00000034  2**0
                  CONTENTS, ALLOC, LOAD, READONLY, CODE
  1 .data         00000000  00000000  00000000  00000034  2**0
                  CONTENTS, ALLOC, LOAD, DATA
  2 .bss          00000000  00000000  00000000  00000034  2**0
                  ALLOC
  3 .comment      00000012  00000000  00000000  00000034  2**0
                  CONTENTS, READONLY

HID.o:     file format elf32-avr

Sections:
Idx Name          Size      VMA       LMA       File off  Algn
  0 .text         00000000  00000000  00000000  00000034  2**0
                  CONTENTS, ALLOC, LOAD, READONLY, CODE
  1 .data         00000000  00000000  00000000  00000034  2**0
                  CONTENTS, ALLOC, LOAD, DATA
  2 .bss          00000000  00000000  00000000  00000034  2**0
                  ALLOC
  3 .comment      00000012  00000000  00000000  00000034  2**0
                  CONTENTS, READONLY

HardwareSerial.o:     file format elf32-avr

Sections:
Idx Name          Size      VMA       LMA       File off  Algn
  0 .group        00000008  00000000  00000000  00000034  2**2
                  CONTENTS, READONLY, EXCLUDE, GROUP, LINK_ONCE_DISCARD
  1 .group        00000008  00000000  00000000  0000003c  2**2
                  CONTENTS, READONLY, EXCLUDE, GROUP, LINK_ONCE_DISCARD
  2 .text         00000456  00000000  00000000  00000044  2**0
                  CONTENTS, ALLOC, LOAD, RELOC, READONLY, CODE
  3 .data         00000000  00000000  00000000  0000049a  2**0
                  CONTENTS, ALLOC, LOAD, DATA
  4 .bss          000000a7  00000000  00000000  0000049a  2**0
                  ALLOC
  5 .text.startup 000000a0  00000000  00000000  0000049a  2**0
                  CONTENTS, ALLOC, LOAD, RELOC, READONLY, CODE
  6 .ctors        00000002  00000000  00000000  0000053a  2**1
                  CONTENTS, ALLOC, LOAD, RELOC, READONLY, DATA
  7 .rodata._ZTV14HardwareSerial 00000010  00000000  00000000  0000053c  2**0
                  CONTENTS, ALLOC, LOAD, RELOC, READONLY, DATA
  8 .rodata._ZTV6Stream 00000010  00000000  00000000  0000054c  2**0
                  CONTENTS, ALLOC, LOAD, RELOC, READONLY, DATA
  9 .comment      00000012  00000000  00000000  0000055c  2**0
                  CONTENTS, READONLY

Disassembly of section .text:

00000000 <_ZN14HardwareSerial9availableEv>:
   0:	fc 01       	movw	r30, r24
   2:	84 85       	ldd	r24, Z+12	; 0x0c
   4:	95 85       	ldd	r25, Z+13	; 0x0d
   6:	fc 01       	movw	r30, r24
   8:	e0 5c       	subi	r30, 0xC0	; 192
   a:	ff 4f       	sbci	r31, 0xFF	; 255
   c:	20 81       	ld	r18, Z
   e:	31 81       	ldd	r19, Z+1	; 0x01
  10:	fc 01       	movw	r30, r24
  12:	ee 5b       	subi	r30, 0xBE	; 190
  14:	ff 4f       	sbci	r31, 0xFF	; 255
  16:	80 81       	ld	r24, Z
  18:	91 81       	ldd	r25, Z+1	; 0x01
  1a:	28 1b       	sub	r18, r24
  1c:	39 0b       	sbc	r19, r25
  1e:	2f 73       	andi	r18, 0x3F	; 63
  20:	33 27       	eor	r19, r19
  22:	c9 01       	movw	r24, r18
  24:	08 95       	ret

00000026 <_ZN14HardwareSerial4peekEv>:
  26:	fc 01       	movw	r30, r24
  28:	84 85       	ldd	r24, Z+12	; 0x0c
  2a:	95 85       	ldd	r25, Z+13	; 0x0d
  2c:	fc 01       	movw	r30, r24
  2e:	e0 5c       	subi	r30, 0xC0	; 192
  30:	ff 4f       	sbci	r31, 0xFF	; 255
  32:	40 81       	ld	r20, Z
  34:	51 81       	ldd	r21, Z+1	; 0x01
  36:	fc 01       	movw	r30, r24
  38:	ee 5b       	subi	r30, 0xBE	; 190
  3a:	ff 4f       	sbci	r31, 0xFF	; 255
  3c:	20 81       	ld	r18, Z
  3e:	31 81       	ldd	r19, Z+1	; 0x01
  40:	42 17       	cp	r20, r18
  42:	53 07       	cpc	r21, r19
  44:	01 f0       	breq	.+0      	; 0x46 <_ZN14HardwareSerial4peekEv+0x20>
  46:	01 90       	ld	r0, Z+
  48:	f0 81       	ld	r31, Z
  4a:	e0 2d       	mov	r30, r0
  4c:	e8 0f       	add	r30, r24
  4e:	f9 1f       	adc	r31, r25
  50:	20 81       	ld	r18, Z
  52:	30 e0       	ldi	r19, 0x00	; 0
  54:	00 c0       	rjmp	.+0      	; 0x56 <_ZN14HardwareSerial4peekEv+0x30>
  56:	2f ef       	ldi	r18, 0xFF	; 255
  58:	3f ef       	ldi	r19, 0xFF	; 255
  5a:	c9 01       	movw	r24, r18
  5c:	08 95       	ret

0000005e <_ZN14HardwareSerial4readEv>:
  5e:	fc 01       	movw	r30, r24
  60:	84 85       	ldd	r24, Z+12	; 0x0c
  62:	95 85       	ldd	r25, Z+13	; 0x0d
  64:	fc 01       	movw	r30, r24
  66:	e0 5c       	subi	r30, 0xC0	; 192
  68:	ff 4f       	sbci	r31, 0xFF	; 255
  6a:	40 81       	ld	r20, Z
  6c:	51 81       	ldd	r21, Z+1	; 0x01
  6e:	fc 01       	movw	r30, r24
  70:	ee 5b       	subi	r30, 0xBE	; 190
  72:	ff 4f       	sbci	r31, 0xFF	; 255
  74:	20 81       	ld	r18, Z
  76:	31 81       	ldd	r19, Z+1	; 0x01
  78:	42 17       	cp	r20, r18
  7a:	53 07       	cpc	r21, r19
  7c:	01 f0       	breq	.+0      	; 0x7e <_ZN14HardwareSerial4readEv+0x20>
  7e:	a0 81       	ld	r26, Z
  80:	b1 81       	ldd	r27, Z+1	; 0x01
  82:	a8 0f       	add	r26, r24
  84:	b9 1f       	adc	r27, r25
  86:	8c 91       	ld	r24, X
  88:	20 81       	ld	r18, Z
  8a:	31 81       	ldd	r19, Z+1	; 0x01
  8c:	2f 5f       	subi	r18, 0xFF	; 255
  8e:	3f 4f       	sbci	r19, 0xFF	; 255
  90:	2f 73       	andi	r18, 0x3F	; 63
  92:	33 27       	eor	r19, r19
  94:	31 83       	std	Z+1, r19	; 0x01
  96:	20 83       	st	Z, r18
  98:	28 2f       	mov	r18, r24
  9a:	30 e0       	ldi	r19, 0x00	; 0
  9c:	00 c0       	rjmp	.+0      	; 0x9e <_ZN14HardwareSerial4readEv+0x40>
  9e:	2f ef       	ldi	r18, 0xFF	; 255
  a0:	3f ef       	ldi	r19, 0xFF	; 255
  a2:	c9 01       	movw	r24, r18
  a4:	08 95       	ret

000000a6 <_ZN14HardwareSerial5flushEv>:
  a6:	fc 01       	movw	r30, r24
  a8:	86 85       	ldd	r24, Z+14	; 0x0e
  aa:	97 85       	ldd	r25, Z+15	; 0x0f
  ac:	fc 01       	movw	r30, r24
  ae:	e0 5c       	subi	r30, 0xC0	; 192
  b0:	ff 4f       	sbci	r31, 0xFF	; 255
  b2:	dc 01       	movw	r26, r24
  b4:	ae 5b       	subi	r26, 0xBE	; 190
  b6:	bf 4f       	sbci	r27, 0xFF	; 255
  b8:	40 81       	ld	r20, Z
  ba:	51 81       	ldd	r21, Z+1	; 0x01
  bc:	2d 91       	ld	r18, X+
  be:	3c 91       	ld	r19, X
  c0:	11 97       	sbiw	r26, 0x01	; 1
  c2:	42 17       	cp	r20, r18
  c4:	53 07       	cpc	r21, r19
  c6:	01 f4       	brne	.+0      	; 0xc8 <_ZN14HardwareSerial5flushEv+0x22>
  c8:	08 95       	ret

000000ca <_ZN14HardwareSerial5writeEh>:
  ca:	cf 93       	push	r28
  cc:	df 93       	push	r29
  ce:	fc 01       	movw	r30, r24
  d0:	86 85       	ldd	r24, Z+14	; 0x0e
  d2:	97 85       	ldd	r25, Z+15	; 0x0f
  d4:	dc 01       	movw	r26, r24
  d6:	a0 5c       	subi	r26, 0xC0	; 192
  d8:	bf 4f       	sbci	r27, 0xFF	; 255
  da:	2d 91       	ld	r18, X+
  dc:	3c 91       	ld	r19, X
  de:	11 97       	sbiw	r26, 0x01	; 1
  e0:	2f 5f       	subi	r18, 0xFF	; 255
  e2:	3f 4f       	sbci	r19, 0xFF	; 255
  e4:	2f 73       	andi	r18, 0x3F	; 63
  e6:	33 27       	eor	r19, r19
  e8:	ec 01       	movw	r28, r24
  ea:	ce 5b       	subi	r28, 0xBE	; 190
  ec:	df 4f       	sbci	r29, 0xFF	; 255
  ee:	48 81       	ld	r20, Y
  f0:	59 81       	ldd	r21, Y+1	; 0x01
  f2:	24 17       	cp	r18, r20
  f4:	35 07       	cpc	r19, r21
  f6:	01 f0       	breq	.+0      	; 0xf8 <_ZN14HardwareSerial5writeEh+0x2e>
  f8:	0d 90       	ld	r0, X+
  fa:	bc 91       	ld	r27, X
  fc:	a0 2d       	mov	r26, r0
  fe:	a8 0f       	add	r26, r24
 100:	b9 1f       	adc	r27, r25
 102:	6c 93       	st	X, r22
 104:	a6 85       	ldd	r26, Z+14	; 0x0e
 106:	b7 85       	ldd	r27, Z+15	; 0x0f
 108:	a0 5c       	subi	r26, 0xC0	; 192
 10a:	bf 4f       	sbci	r27, 0xFF	; 255
 10c:	11 96       	adiw	r26, 0x01	; 1
 10e:	3c 93       	st	X, r19
 110:	2e 93       	st	-X, r18
 112:	a6 89       	ldd	r26, Z+22	; 0x16
 114:	b7 89       	ldd	r27, Z+23	; 0x17
 116:	2c 91       	ld	r18, X
 118:	81 e0       	ldi	r24, 0x01	; 1
 11a:	90 e0       	ldi	r25, 0x00	; 0
 11c:	05 8c       	ldd	r0, Z+29	; 0x1d
 11e:	00 c0       	rjmp	.+0      	; 0x120 <_ZN14HardwareSerial5writeEh+0x56>
 120:	88 0f       	add	r24, r24
 122:	99 1f       	adc	r25, r25
 124:	0a 94       	dec	r0
 126:	02 f4       	brpl	.+0      	; 0x128 <_ZN14HardwareSerial5writeEh+0x5e>
 128:	28 2b       	or	r18, r24
 12a:	2c 93       	st	X, r18
 12c:	81 e0       	ldi	r24, 0x01	; 1
 12e:	90 e0       	ldi	r25, 0x00	; 0
 130:	df 91       	pop	r29
 132:	cf 91       	pop	r28
 134:	08 95       	ret

00000136 <_Z11serialEventv>:
 136:	08 95       	ret

00000138 <__vector_18>:
 138:	1f 92       	push	r1
 13a:	0f 92       	push	r0
 13c:	0f b6       	in	r0, 0x3f	; 63
 13e:	0f 92       	push	r0
 140:	11 24       	eor	r1, r1
 142:	2f 93       	push	r18
 144:	3f 93       	push	r19
 146:	4f 93       	push	r20
 148:	8f 93       	push	r24
 14a:	9f 93       	push	r25
 14c:	ef 93       	push	r30
 14e:	ff 93       	push	r31
 150:	40 91 c6 00 	lds	r20, 0x00C6
 154:	80 91 00 00 	lds	r24, 0x0000
 158:	90 91 00 00 	lds	r25, 0x0000
 15c:	01 96       	adiw	r24, 0x01	; 1
 15e:	8f 73       	andi	r24, 0x3F	; 63
 160:	99 27       	eor	r25, r25
 162:	20 91 00 00 	lds	r18, 0x0000
 166:	30 91 00 00 	lds	r19, 0x0000
 16a:	82 17       	cp	r24, r18
 16c:	93 07       	cpc	r25, r19
 16e:	01 f0       	breq	.+0      	; 0x170 <__vector_18+0x38>
 170:	e0 91 00 00 	lds	r30, 0x0000
 174:	f0 91 00 00 	lds	r31, 0x0000
 178:	e0 50       	subi	r30, 0x00	; 0
 17a:	f0 40       	sbci	r31, 0x00	; 0
 17c:	40 83       	st	Z, r20
 17e:	90 93 00 00 	sts	0x0000, r25
 182:	80 93 00 00 	sts	0x0000, r24
 186:	ff 91       	pop	r31
 188:	ef 91       	pop	r30
 18a:	9f 91       	pop	r25
 18c:	8f 91       	pop	r24
 18e:	4f 91       	pop	r20
 190:	3f 91       	pop	r19
 192:	2f 91       	pop	r18
 194:	0f 90       	pop	r0
 196:	0f be       	out	0x3f, r0	; 63
 198:	0f 90       	pop	r0
 19a:	1f 90       	pop	r1
 19c:	18 95       	reti

0000019e <_Z14serialEventRunv>:
 19e:	80 e0       	ldi	r24, 0x00	; 0
 1a0:	90 e0       	ldi	r25, 0x00	; 0
 1a2:	0e 94 00 00 	call	0	; 0x0 <_ZN14HardwareSerial9availableEv>
 1a6:	89 2b       	or	r24, r25
 1a8:	01 f0       	breq	.+0      	; 0x1aa <_Z14serialEventRunv+0xc>
 1aa:	0c 94 00 00 	jmp	0	; 0x0 <_ZN14HardwareSerial9availableEv>
 1ae:	08 95       	ret

000001b0 <__vector_19>:
 1b0:	1f 92       	push	r1
 1b2:	0f 92       	push	r0
 1b4:	0f b6       	in	r0, 0x3f	; 63
 1b6:	0f 92       	push	r0
 1b8:	11 24       	eor	r1, r1
 1ba:	2f 93       	push	r18
 1bc:	3f 93       	push	r19
 1be:	8f 93       	push	r24
 1c0:	9f 93       	push	r25
 1c2:	ef 93       	push	r30
 1c4:	ff 93       	push	r31
 1c6:	20 91 00 00 	lds	r18, 0x0000
 1ca:	30 91 00 00 	lds	r19, 0x0000
 1ce:	80 91 00 00 	lds	r24, 0x0000
 1d2:	90 91 00 00 	lds	r25, 0x0000
 1d6:	28 17       	cp	r18, r24
 1d8:	39 07       	cpc	r19, r25
 1da:	01 f4       	brne	.+0      	; 0x1dc <__vector_19+0x2c>
 1dc:	80 91 c1 00 	lds	r24, 0x00C1
 1e0:	8f 7d       	andi	r24, 0xDF	; 223
 1e2:	80 93 c1 00 	sts	0x00C1, r24
 1e6:	00 c0       	rjmp	.+0      	; 0x1e8 <__vector_19+0x38>
 1e8:	e0 91 00 00 	lds	r30, 0x0000
 1ec:	f0 91 00 00 	lds	r31, 0x0000
 1f0:	e0 50       	subi	r30, 0x00	; 0
 1f2:	f0 40       	sbci	r31, 0x00	; 0
 1f4:	20 81       	ld	r18, Z
 1f6:	80 91 00 00 	lds	r24, 0x0000
 1fa:	90 91 00 00 	lds	r25, 0x0000
 1fe:	01 96       	adiw	r24, 0x01	; 1
 200:	8f 73       	andi	r24, 0x3F	; 63
 202:	99 27       	eor	r25, r25
 204:	90 93 00 00 	sts	0x0000, r25
 208:	80 93 00 00 	sts	0x0000, r24
 20c:	20 93 c6 00 	sts	0x00C6, r18
 210:	ff 91       	pop	r31
 212:	ef 91       	pop	r30
 214:	9f 91       	pop	r25
 216:	8f 91       	pop	r24
 218:	3f 91       	pop	r19
 21a:	2f 91       	pop	r18
 21c:	0f 90       	pop	r0
 21e:	0f be       	out	0x3f, r0	; 63
 220:	0f 90       	pop	r0
 222:	1f 90       	pop	r1
 224:	18 95       	reti

00000226 <_ZN14HardwareSerialC1EP11ring_bufferS1_PVhS3_S3_S3_S3_hhhhh>:
 226:	8f 92       	push	r8
 228:	af 92       	push	r10
 22a:	bf 92       	push	r11
 22c:	cf 92       	push	r12
 22e:	df 92       	push	r13
 230:	ef 92       	push	r14
 232:	ff 92       	push	r15
 234:	0f 93       	push	r16
 236:	1f 93       	push	r17
 238:	cf 93       	push	r28
 23a:	df 93       	push	r29
 23c:	cd b7       	in	r28, 0x3d	; 61
 23e:	de b7       	in	r29, 0x3e	; 62
 240:	fc 01       	movw	r30, r24
 242:	13 82       	std	Z+3, r1	; 0x03
 244:	12 82       	std	Z+2, r1	; 0x02
 246:	88 ee       	ldi	r24, 0xE8	; 232
 248:	93 e0       	ldi	r25, 0x03	; 3
 24a:	a0 e0       	ldi	r26, 0x00	; 0
 24c:	b0 e0       	ldi	r27, 0x00	; 0
 24e:	84 83       	std	Z+4, r24	; 0x04
 250:	95 83       	std	Z+5, r25	; 0x05
 252:	a6 83       	std	Z+6, r26	; 0x06
 254:	b7 83       	std	Z+7, r27	; 0x07
 256:	80 e0       	ldi	r24, 0x00	; 0
 258:	90 e0       	ldi	r25, 0x00	; 0
 25a:	91 83       	std	Z+1, r25	; 0x01
 25c:	80 83       	st	Z, r24
 25e:	75 87       	std	Z+13, r23	; 0x0d
 260:	64 87       	std	Z+12, r22	; 0x0c
 262:	57 87       	std	Z+15, r21	; 0x0f
 264:	46 87       	std	Z+14, r20	; 0x0e
 266:	31 8b       	std	Z+17, r19	; 0x11
 268:	20 8b       	std	Z+16, r18	; 0x10
 26a:	13 8b       	std	Z+19, r17	; 0x13
 26c:	02 8b       	std	Z+18, r16	; 0x12
 26e:	f5 8a       	std	Z+21, r15	; 0x15
 270:	e4 8a       	std	Z+20, r14	; 0x14
 272:	d7 8a       	std	Z+23, r13	; 0x17
 274:	c6 8a       	std	Z+22, r12	; 0x16
 276:	b1 8e       	std	Z+25, r11	; 0x19
 278:	a0 8e       	std	Z+24, r10	; 0x18
 27a:	82 8e       	std	Z+26, r8	; 0x1a
 27c:	8e 85       	ldd	r24, Y+14	; 0x0e
 27e:	83 8f       	std	Z+27, r24	; 0x1b
 280:	8f 85       	ldd	r24, Y+15	; 0x0f
 282:	84 8f       	std	Z+28, r24	; 0x1c
 284:	88 89       	ldd	r24, Y+16	; 0x10
 286:	85 8f       	std	Z+29, r24	; 0x1d
 288:	89 89       	ldd	r24, Y+17	; 0x11
 28a:	86 8f       	std	Z+30, r24	; 0x1e
 28c:	df 91       	pop	r29
 28e:	cf 91       	pop	r28
 290:	1f 91       	pop	r17
 292:	0f 91       	pop	r16
 294:	ff 90       	pop	r15
 296:	ef 90       	pop	r14
 298:	df 90       	pop	r13
 29a:	cf 90       	pop	r12
 29c:	bf 90       	pop	r11
 29e:	af 90       	pop	r10
 2a0:	8f 90       	pop	r8
 2a2:	08 95       	ret

000002a4 <_ZN14HardwareSerial5beginEm>:
 2a4:	cf 92       	push	r12
 2a6:	df 92       	push	r13
 2a8:	ef 92       	push	r14
 2aa:	ff 92       	push	r15
 2ac:	cf 93       	push	r28
 2ae:	df 93       	push	r29
 2b0:	ec 01       	movw	r28, r24
 2b2:	6a 01       	movw	r12, r20
 2b4:	7b 01       	movw	r14, r22
 2b6:	41 15       	cp	r20, r1
 2b8:	81 ee       	ldi	r24, 0xE1	; 225
 2ba:	58 07       	cpc	r21, r24
 2bc:	61 05       	cpc	r22, r1
 2be:	71 05       	cpc	r23, r1
 2c0:	01 f0       	breq	.+0      	; 0x2c2 <_ZN14HardwareSerial5beginEm+0x1e>
 2c2:	ec 89       	ldd	r30, Y+20	; 0x14
 2c4:	fd 89       	ldd	r31, Y+21	; 0x15
 2c6:	81 e0       	ldi	r24, 0x01	; 1
 2c8:	90 e0       	ldi	r25, 0x00	; 0
 2ca:	0e 8c       	ldd	r0, Y+30	; 0x1e
 2cc:	00 c0       	rjmp	.+0      	; 0x2ce <_ZN14HardwareSerial5beginEm+0x2a>
 2ce:	88 0f       	add	r24, r24
 2d0:	99 1f       	adc	r25, r25
 2d2:	0a 94       	dec	r0
 2d4:	02 f4       	brpl	.+0      	; 0x2d6 <_ZN14HardwareSerial5beginEm+0x32>
 2d6:	80 83       	st	Z, r24
 2d8:	60 e0       	ldi	r22, 0x00	; 0
 2da:	79 e0       	ldi	r23, 0x09	; 9
 2dc:	8d e3       	ldi	r24, 0x3D	; 61
 2de:	90 e0       	ldi	r25, 0x00	; 0
 2e0:	a7 01       	movw	r20, r14
 2e2:	96 01       	movw	r18, r12
 2e4:	0e 94 00 00 	call	0	; 0x0 <_ZN14HardwareSerial9availableEv>
 2e8:	21 50       	subi	r18, 0x01	; 1
 2ea:	31 09       	sbc	r19, r1
 2ec:	41 09       	sbc	r20, r1
 2ee:	51 09       	sbc	r21, r1
 2f0:	56 95       	lsr	r21
 2f2:	47 95       	ror	r20
 2f4:	37 95       	ror	r19
 2f6:	27 95       	ror	r18
 2f8:	21 15       	cp	r18, r1
 2fa:	80 e1       	ldi	r24, 0x10	; 16
 2fc:	38 07       	cpc	r19, r24
 2fe:	00 f0       	brcs	.+0      	; 0x300 <_ZN14HardwareSerial5beginEm+0x5c>
 300:	ec 89       	ldd	r30, Y+20	; 0x14
 302:	fd 89       	ldd	r31, Y+21	; 0x15
 304:	10 82       	st	Z, r1
 306:	60 e8       	ldi	r22, 0x80	; 128
 308:	74 e8       	ldi	r23, 0x84	; 132
 30a:	8e e1       	ldi	r24, 0x1E	; 30
 30c:	90 e0       	ldi	r25, 0x00	; 0
 30e:	a7 01       	movw	r20, r14
 310:	96 01       	movw	r18, r12
 312:	0e 94 00 00 	call	0	; 0x0 <_ZN14HardwareSerial9availableEv>
 316:	21 50       	subi	r18, 0x01	; 1
 318:	31 09       	sbc	r19, r1
 31a:	41 09       	sbc	r20, r1
 31c:	51 09       	sbc	r21, r1
 31e:	56 95       	lsr	r21
 320:	47 95       	ror	r20
 322:	37 95       	ror	r19
 324:	27 95       	ror	r18
 326:	e8 89       	ldd	r30, Y+16	; 0x10
 328:	f9 89       	ldd	r31, Y+17	; 0x11
 32a:	30 83       	st	Z, r19
 32c:	ea 89       	ldd	r30, Y+18	; 0x12
 32e:	fb 89       	ldd	r31, Y+19	; 0x13
 330:	20 83       	st	Z, r18
 332:	ee 89       	ldd	r30, Y+22	; 0x16
 334:	ff 89       	ldd	r31, Y+23	; 0x17
 336:	40 81       	ld	r20, Z
 338:	81 e0       	ldi	r24, 0x01	; 1
 33a:	90 e0       	ldi	r25, 0x00	; 0
 33c:	9c 01       	movw	r18, r24
 33e:	0a 8c       	ldd	r0, Y+26	; 0x1a
 340:	00 c0       	rjmp	.+0      	; 0x342 <_ZN14HardwareSerial5beginEm+0x9e>
 342:	22 0f       	add	r18, r18
 344:	33 1f       	adc	r19, r19
 346:	0a 94       	dec	r0
 348:	02 f4       	brpl	.+0      	; 0x34a <_ZN14HardwareSerial5beginEm+0xa6>
 34a:	42 2b       	or	r20, r18
 34c:	40 83       	st	Z, r20
 34e:	ee 89       	ldd	r30, Y+22	; 0x16
 350:	ff 89       	ldd	r31, Y+23	; 0x17
 352:	40 81       	ld	r20, Z
 354:	9c 01       	movw	r18, r24
 356:	0b 8c       	ldd	r0, Y+27	; 0x1b
 358:	00 c0       	rjmp	.+0      	; 0x35a <_ZN14HardwareSerial5beginEm+0xb6>
 35a:	22 0f       	add	r18, r18
 35c:	33 1f       	adc	r19, r19
 35e:	0a 94       	dec	r0
 360:	02 f4       	brpl	.+0      	; 0x362 <_ZN14HardwareSerial5beginEm+0xbe>
 362:	42 2b       	or	r20, r18
 364:	40 83       	st	Z, r20
 366:	ee 89       	ldd	r30, Y+22	; 0x16
 368:	ff 89       	ldd	r31, Y+23	; 0x17
 36a:	40 81       	ld	r20, Z
 36c:	9c 01       	movw	r18, r24
 36e:	0c 8c       	ldd	r0, Y+28	; 0x1c
 370:	00 c0       	rjmp	.+0      	; 0x372 <_ZN14HardwareSerial5beginEm+0xce>
 372:	22 0f       	add	r18, r18
 374:	33 1f       	adc	r19, r19
 376:	0a 94       	dec	r0
 378:	02 f4       	brpl	.+0      	; 0x37a <_ZN14HardwareSerial5beginEm+0xd6>
 37a:	42 2b       	or	r20, r18
 37c:	40 83       	st	Z, r20
 37e:	ee 89       	ldd	r30, Y+22	; 0x16
 380:	ff 89       	ldd	r31, Y+23	; 0x17
 382:	20 81       	ld	r18, Z
 384:	0d 8c       	ldd	r0, Y+29	; 0x1d
 386:	00 c0       	rjmp	.+0      	; 0x388 <_ZN14HardwareSerial5beginEm+0xe4>
 388:	88 0f       	add	r24, r24
 38a:	99 1f       	adc	r25, r25
 38c:	0a 94       	dec	r0
 38e:	02 f4       	brpl	.+0      	; 0x390 <_ZN14HardwareSerial5beginEm+0xec>
 390:	80 95       	com	r24
 392:	82 23       	and	r24, r18
 394:	80 83       	st	Z, r24
 396:	df 91       	pop	r29
 398:	cf 91       	pop	r28
 39a:	ff 90       	pop	r15
 39c:	ef 90       	pop	r14
 39e:	df 90       	pop	r13
 3a0:	cf 90       	pop	r12
 3a2:	08 95       	ret

000003a4 <_ZN14HardwareSerial3endEv>:
 3a4:	cf 93       	push	r28
 3a6:	df 93       	push	r29
 3a8:	fc 01       	movw	r30, r24
 3aa:	86 85       	ldd	r24, Z+14	; 0x0e
 3ac:	97 85       	ldd	r25, Z+15	; 0x0f
 3ae:	dc 01       	movw	r26, r24
 3b0:	a0 5c       	subi	r26, 0xC0	; 192
 3b2:	bf 4f       	sbci	r27, 0xFF	; 255
 3b4:	ec 01       	movw	r28, r24
 3b6:	ce 5b       	subi	r28, 0xBE	; 190
 3b8:	df 4f       	sbci	r29, 0xFF	; 255
 3ba:	4d 91       	ld	r20, X+
 3bc:	5c 91       	ld	r21, X
 3be:	11 97       	sbiw	r26, 0x01	; 1
 3c0:	28 81       	ld	r18, Y
 3c2:	39 81       	ldd	r19, Y+1	; 0x01
 3c4:	42 17       	cp	r20, r18
 3c6:	53 07       	cpc	r21, r19
 3c8:	01 f4       	brne	.+0      	; 0x3ca <_ZN14HardwareSerial3endEv+0x26>
 3ca:	a6 89       	ldd	r26, Z+22	; 0x16
 3cc:	b7 89       	ldd	r27, Z+23	; 0x17
 3ce:	4c 91       	ld	r20, X
 3d0:	81 e0       	ldi	r24, 0x01	; 1
 3d2:	90 e0       	ldi	r25, 0x00	; 0
 3d4:	9c 01       	movw	r18, r24
 3d6:	02 8c       	ldd	r0, Z+26	; 0x1a
 3d8:	00 c0       	rjmp	.+0      	; 0x3da <_ZN14HardwareSerial3endEv+0x36>
 3da:	22 0f       	add	r18, r18
 3dc:	33 1f       	adc	r19, r19
 3de:	0a 94       	dec	r0
 3e0:	02 f4       	brpl	.+0      	; 0x3e2 <_ZN14HardwareSerial3endEv+0x3e>
 3e2:	20 95       	com	r18
 3e4:	24 23       	and	r18, r20
 3e6:	2c 93       	st	X, r18
 3e8:	a6 89       	ldd	r26, Z+22	; 0x16
 3ea:	b7 89       	ldd	r27, Z+23	; 0x17
 3ec:	4c 91       	ld	r20, X
 3ee:	9c 01       	movw	r18, r24
 3f0:	03 8c       	ldd	r0, Z+27	; 0x1b
 3f2:	00 c0       	rjmp	.+0      	; 0x3f4 <_ZN14HardwareSerial3endEv+0x50>
 3f4:	22 0f       	add	r18, r18
 3f6:	33 1f       	adc	r19, r19
 3f8:	0a 94       	dec	r0
 3fa:	02 f4       	brpl	.+0      	; 0x3fc <_ZN14HardwareSerial3endEv+0x58>
 3fc:	20 95       	com	r18
 3fe:	24 23       	and	r18, r20
 400:	2c 93       	st	X, r18
 402:	a6 89       	ldd	r26, Z+22	; 0x16
 404:	b7 89       	ldd	r27, Z+23	; 0x17
 406:	4c 91       	ld	r20, X
 408:	9c 01       	movw	r18, r24
 40a:	04 8c       	ldd	r0, Z+28	; 0x1c
 40c:	00 c0       	rjmp	.+0      	; 0x40e <_ZN14HardwareSerial3endEv+0x6a>
 40e:	22 0f       	add	r18, r18
 410:	33 1f       	adc	r19, r19
 412:	0a 94       	dec	r0
 414:	02 f4       	brpl	.+0      	; 0x416 <_ZN14HardwareSerial3endEv+0x72>
 416:	20 95       	com	r18
 418:	24 23       	and	r18, r20
 41a:	2c 93       	st	X, r18
 41c:	a6 89       	ldd	r26, Z+22	; 0x16
 41e:	b7 89       	ldd	r27, Z+23	; 0x17
 420:	2c 91       	ld	r18, X
 422:	05 8c       	ldd	r0, Z+29	; 0x1d
 424:	00 c0       	rjmp	.+0      	; 0x426 <_ZN14HardwareSerial3endEv+0x82>
 426:	88 0f       	add	r24, r24
 428:	99 1f       	adc	r25, r25
 42a:	0a 94       	dec	r0
 42c:	02 f4       	brpl	.+0      	; 0x42e <_ZN14HardwareSerial3endEv+0x8a>
 42e:	80 95       	com	r24
 430:	82 23       	and	r24, r18
 432:	8c 93       	st	X, r24
 434:	84 85       	ldd	r24, Z+12	; 0x0c
 436:	95 85       	ldd	r25, Z+13	; 0x0d
 438:	fc 01       	movw	r30, r24
 43a:	ee 5b       	subi	r30, 0xBE	; 190
 43c:	ff 4f       	sbci	r31, 0xFF	; 255
 43e:	20 81       	ld	r18, Z
 440:	31 81       	ldd	r19, Z+1	; 0x01
 442:	fc 01       	movw	r30, r24
 444:	e0 5c       	subi	r30, 0xC0	; 192
 446:	ff 4f       	sbci	r31, 0xFF	; 255
 448:	31 83       	std	Z+1, r19	; 0x01
 44a:	20 83       	st	Z, r18
 44c:	df 91       	pop	r29
 44e:	cf 91       	pop	r28
 450:	08 95       	ret

00000452 <_ZN14HardwareSerialcvbEv>:
 452:	81 e0       	ldi	r24, 0x01	; 1
 454:	08 95       	ret

Disassembly of section .text.startup:

00000000 <_GLOBAL__sub_I_rx_buffer>:
   0:	10 92 00 00 	sts	0x0000, r1
   4:	10 92 00 00 	sts	0x0000, r1
   8:	88 ee       	ldi	r24, 0xE8	; 232
   a:	93 e0       	ldi	r25, 0x03	; 3
   c:	a0 e0       	ldi	r26, 0x00	; 0
   e:	b0 e0       	ldi	r27, 0x00	; 0
  10:	80 93 00 00 	sts	0x0000, r24
  14:	90 93 00 00 	sts	0x0000, r25
  18:	a0 93 00 00 	sts	0x0000, r26
  1c:	b0 93 00 00 	sts	0x0000, r27
  20:	80 e0       	ldi	r24, 0x00	; 0
  22:	90 e0       	ldi	r25, 0x00	; 0
  24:	90 93 00 00 	sts	0x0000, r25
  28:	80 93 00 00 	sts	0x0000, r24
  2c:	80 e0       	ldi	r24, 0x00	; 0
  2e:	90 e0       	ldi	r25, 0x00	; 0
  30:	90 93 00 00 	sts	0x0000, r25
  34:	80 93 00 00 	sts	0x0000, r24
  38:	80 e0       	ldi	r24, 0x00	; 0
  3a:	90 e0       	ldi	r25, 0x00	; 0
  3c:	90 93 00 00 	sts	0x0000, r25
  40:	80 93 00 00 	sts	0x0000, r24
  44:	85 ec       	ldi	r24, 0xC5	; 197
  46:	90 e0       	ldi	r25, 0x00	; 0
  48:	90 93 00 00 	sts	0x0000, r25
  4c:	80 93 00 00 	sts	0x0000, r24
  50:	84 ec       	ldi	r24, 0xC4	; 196
  52:	90 e0       	ldi	r25, 0x00	; 0
  54:	90 93 00 00 	sts	0x0000, r25
  58:	80 93 00 00 	sts	0x0000, r24
  5c:	80 ec       	ldi	r24, 0xC0	; 192
  5e:	90 e0       	ldi	r25, 0x00	; 0
  60:	90 93 00 00 	sts	0x0000, r25
  64:	80 93 00 00 	sts	0x0000, r24
  68:	81 ec       	ldi	r24, 0xC1	; 193
  6a:	90 e0       	ldi	r25, 0x00	; 0
  6c:	90 93 00 00 	sts	0x0000, r25
  70:	80 93 00 00 	sts	0x0000, r24
  74:	86 ec       	ldi	r24, 0xC6	; 198
  76:	90 e0       	ldi	r25, 0x00	; 0
  78:	90 93 00 00 	sts	0x0000, r25
  7c:	80 93 00 00 	sts	0x0000, r24
  80:	84 e0       	ldi	r24, 0x04	; 4
  82:	80 93 00 00 	sts	0x0000, r24
  86:	83 e0       	ldi	r24, 0x03	; 3
  88:	80 93 00 00 	sts	0x0000, r24
  8c:	87 e0       	ldi	r24, 0x07	; 7
  8e:	80 93 00 00 	sts	0x0000, r24
  92:	85 e0       	ldi	r24, 0x05	; 5
  94:	80 93 00 00 	sts	0x0000, r24
  98:	81 e0       	ldi	r24, 0x01	; 1
  9a:	80 93 00 00 	sts	0x0000, r24
  9e:	08 95       	ret

IPAddress.o:     file format elf32-avr

Sections:
Idx Name          Size      VMA       LMA       File off  Algn
  0 .group        00000008  00000000  00000000  00000034  2**2
                  CONTENTS, READONLY, EXCLUDE, GROUP, LINK_ONCE_DISCARD
  1 .group        00000008  00000000  00000000  0000003c  2**2
                  CONTENTS, READONLY, EXCLUDE, GROUP, LINK_ONCE_DISCARD
  2 .text         00000116  00000000  00000000  00000044  2**0
                  CONTENTS, ALLOC, LOAD, RELOC, READONLY, CODE
  3 .data         00000000  00000000  00000000  0000015a  2**0
                  CONTENTS, ALLOC, LOAD, DATA
  4 .bss          00000006  00000000  00000000  0000015a  2**0
                  ALLOC
  5 .text.startup 0000001e  00000000  00000000  0000015a  2**0
                  CONTENTS, ALLOC, LOAD, RELOC, READONLY, CODE
  6 .ctors        00000002  00000000  00000000  00000178  2**1
                  CONTENTS, ALLOC, LOAD, RELOC, READONLY, DATA
  7 .rodata._ZTV9IPAddress 00000006  00000000  00000000  0000017a  2**0
                  CONTENTS, ALLOC, LOAD, RELOC, READONLY, DATA
  8 .rodata._ZTV9Printable 00000006  00000000  00000000  00000180  2**0
                  CONTENTS, ALLOC, LOAD, RELOC, READONLY, DATA
  9 .comment      00000012  00000000  00000000  00000186  2**0
                  CONTENTS, READONLY

Disassembly of section .text:

00000000 <_ZNK9IPAddress7printToER5Print>:
   0:	af 92       	push	r10
   2:	bf 92       	push	r11
   4:	cf 92       	push	r12
   6:	df 92       	push	r13
   8:	ef 92       	push	r14
   a:	ff 92       	push	r15
   c:	0f 93       	push	r16
   e:	1f 93       	push	r17
  10:	cf 93       	push	r28
  12:	df 93       	push	r29
  14:	6c 01       	movw	r12, r24
  16:	7b 01       	movw	r14, r22
  18:	c0 e0       	ldi	r28, 0x00	; 0
  1a:	d0 e0       	ldi	r29, 0x00	; 0
  1c:	00 e0       	ldi	r16, 0x00	; 0
  1e:	10 e0       	ldi	r17, 0x00	; 0
  20:	f6 01       	movw	r30, r12
  22:	ec 0f       	add	r30, r28
  24:	fd 1f       	adc	r31, r29
  26:	4a e0       	ldi	r20, 0x0A	; 10
  28:	50 e0       	ldi	r21, 0x00	; 0
  2a:	62 81       	ldd	r22, Z+2	; 0x02
  2c:	c7 01       	movw	r24, r14
  2e:	0e 94 00 00 	call	0	; 0x0 <_ZNK9IPAddress7printToER5Print>
  32:	5c 01       	movw	r10, r24
  34:	6e e2       	ldi	r22, 0x2E	; 46
  36:	c7 01       	movw	r24, r14
  38:	0e 94 00 00 	call	0	; 0x0 <_ZNK9IPAddress7printToER5Print>
  3c:	8a 0d       	add	r24, r10
  3e:	9b 1d       	adc	r25, r11
  40:	08 0f       	add	r16, r24
  42:	19 1f       	adc	r17, r25
  44:	21 96       	adiw	r28, 0x01	; 1
  46:	c3 30       	cpi	r28, 0x03	; 3
  48:	d1 05       	cpc	r29, r1
  4a:	01 f4       	brne	.+0      	; 0x4c <_ZNK9IPAddress7printToER5Print+0x4c>
  4c:	4a e0       	ldi	r20, 0x0A	; 10
  4e:	50 e0       	ldi	r21, 0x00	; 0
  50:	f6 01       	movw	r30, r12
  52:	65 81       	ldd	r22, Z+5	; 0x05
  54:	c7 01       	movw	r24, r14
  56:	0e 94 00 00 	call	0	; 0x0 <_ZNK9IPAddress7printToER5Print>
  5a:	08 0f       	add	r16, r24
  5c:	19 1f       	adc	r17, r25
  5e:	c8 01       	movw	r24, r16
  60:	df 91       	pop	r29
  62:	cf 91       	pop	r28
  64:	1f 91       	pop	r17
  66:	0f 91       	pop	r16
  68:	ff 90       	pop	r15
  6a:	ef 90       	pop	r14
  6c:	df 90       	pop	r13
  6e:	cf 90       	pop	r12
  70:	bf 90       	pop	r11
  72:	af 90       	pop	r10
  74:	08 95       	ret

00000076 <_ZN9IPAddressC1Ev>:
  76:	20 e0       	ldi	r18, 0x00	; 0
  78:	30 e0       	ldi	r19, 0x00	; 0
  7a:	fc 01       	movw	r30, r24
  7c:	31 83       	std	Z+1, r19	; 0x01
  7e:	20 83       	st	Z, r18
  80:	12 82       	std	Z+2, r1	; 0x02
  82:	13 82       	std	Z+3, r1	; 0x03
  84:	14 82       	std	Z+4, r1	; 0x04
  86:	15 82       	std	Z+5, r1	; 0x05
  88:	08 95       	ret

0000008a <_ZN9IPAddressC1Ehhhh>:
  8a:	0f 93       	push	r16
  8c:	fc 01       	movw	r30, r24
  8e:	80 e0       	ldi	r24, 0x00	; 0
  90:	90 e0       	ldi	r25, 0x00	; 0
  92:	91 83       	std	Z+1, r25	; 0x01
  94:	80 83       	st	Z, r24
  96:	62 83       	std	Z+2, r22	; 0x02
  98:	43 83       	std	Z+3, r20	; 0x03
  9a:	24 83       	std	Z+4, r18	; 0x04
  9c:	05 83       	std	Z+5, r16	; 0x05
  9e:	0f 91       	pop	r16
  a0:	08 95       	ret

000000a2 <_ZN9IPAddressC1Em>:
  a2:	20 e0       	ldi	r18, 0x00	; 0
  a4:	30 e0       	ldi	r19, 0x00	; 0
  a6:	fc 01       	movw	r30, r24
  a8:	31 83       	std	Z+1, r19	; 0x01
  aa:	20 83       	st	Z, r18
  ac:	42 83       	std	Z+2, r20	; 0x02
  ae:	53 83       	std	Z+3, r21	; 0x03
  b0:	64 83       	std	Z+4, r22	; 0x04
  b2:	75 83       	std	Z+5, r23	; 0x05
  b4:	08 95       	ret

000000b6 <_ZN9IPAddressC1EPKh>:
  b6:	20 e0       	ldi	r18, 0x00	; 0
  b8:	30 e0       	ldi	r19, 0x00	; 0
  ba:	fc 01       	movw	r30, r24
  bc:	31 83       	std	Z+1, r19	; 0x01
  be:	20 83       	st	Z, r18
  c0:	fb 01       	movw	r30, r22
  c2:	40 81       	ld	r20, Z
  c4:	51 81       	ldd	r21, Z+1	; 0x01
  c6:	62 81       	ldd	r22, Z+2	; 0x02
  c8:	73 81       	ldd	r23, Z+3	; 0x03
  ca:	fc 01       	movw	r30, r24
  cc:	42 83       	std	Z+2, r20	; 0x02
  ce:	53 83       	std	Z+3, r21	; 0x03
  d0:	64 83       	std	Z+4, r22	; 0x04
  d2:	75 83       	std	Z+5, r23	; 0x05
  d4:	08 95       	ret

000000d6 <_ZN9IPAddressaSEPKh>:
  d6:	fc 01       	movw	r30, r24
  d8:	db 01       	movw	r26, r22
  da:	4d 91       	ld	r20, X+
  dc:	5d 91       	ld	r21, X+
  de:	6d 91       	ld	r22, X+
  e0:	7c 91       	ld	r23, X
  e2:	42 83       	std	Z+2, r20	; 0x02
  e4:	53 83       	std	Z+3, r21	; 0x03
  e6:	64 83       	std	Z+4, r22	; 0x04
  e8:	75 83       	std	Z+5, r23	; 0x05
  ea:	08 95       	ret

000000ec <_ZN9IPAddressaSEm>:
  ec:	fc 01       	movw	r30, r24
  ee:	42 83       	std	Z+2, r20	; 0x02
  f0:	53 83       	std	Z+3, r21	; 0x03
  f2:	64 83       	std	Z+4, r22	; 0x04
  f4:	75 83       	std	Z+5, r23	; 0x05
  f6:	08 95       	ret

000000f8 <_ZN9IPAddresseqEPKh>:
  f8:	9b 01       	movw	r18, r22
  fa:	bc 01       	movw	r22, r24
  fc:	6e 5f       	subi	r22, 0xFE	; 254
  fe:	7f 4f       	sbci	r23, 0xFF	; 255
 100:	44 e0       	ldi	r20, 0x04	; 4
 102:	50 e0       	ldi	r21, 0x00	; 0
 104:	c9 01       	movw	r24, r18
 106:	0e 94 00 00 	call	0	; 0x0 <_ZNK9IPAddress7printToER5Print>
 10a:	9c 01       	movw	r18, r24
 10c:	81 e0       	ldi	r24, 0x01	; 1
 10e:	23 2b       	or	r18, r19
 110:	01 f0       	breq	.+0      	; 0x112 <_ZN9IPAddresseqEPKh+0x1a>
 112:	80 e0       	ldi	r24, 0x00	; 0
 114:	08 95       	ret

Disassembly of section .text.startup:

00000000 <_GLOBAL__sub_I__ZN9IPAddressC2Ev>:
   0:	80 e0       	ldi	r24, 0x00	; 0
   2:	90 e0       	ldi	r25, 0x00	; 0
   4:	90 93 00 00 	sts	0x0000, r25
   8:	80 93 00 00 	sts	0x0000, r24
   c:	10 92 00 00 	sts	0x0000, r1
  10:	10 92 00 00 	sts	0x0000, r1
  14:	10 92 00 00 	sts	0x0000, r1
  18:	10 92 00 00 	sts	0x0000, r1
  1c:	08 95       	ret

Print.o:     file format elf32-avr

Sections:
Idx Name          Size      VMA       LMA       File off  Algn
  0 .group        00000008  00000000  00000000  00000034  2**2
                  CONTENTS, READONLY, EXCLUDE, GROUP, LINK_ONCE_DISCARD
  1 .group        00000008  00000000  00000000  0000003c  2**2
                  CONTENTS, READONLY, EXCLUDE, GROUP, LINK_ONCE_DISCARD
  2 .text         0000060e  00000000  00000000  00000044  2**0
                  CONTENTS, ALLOC, LOAD, RELOC, READONLY, CODE
  3 .data         00000000  00000000  00000000  00000652  2**0
                  CONTENTS, ALLOC, LOAD, DATA
  4 .bss          00000000  00000000  00000000  00000652  2**0
                  ALLOC
  5 .text._ZN5Print5writeEPKc 00000020  00000000  00000000  00000652  2**0
                  CONTENTS, ALLOC, LOAD, RELOC, READONLY, CODE
  6 .rodata.str1.1 00000002  00000000  00000000  00000672  2**0
                  CONTENTS, ALLOC, LOAD, READONLY, DATA
  7 .rodata._ZTV5Print 00000008  00000000  00000000  00000674  2**0
                  CONTENTS, ALLOC, LOAD, RELOC, READONLY, DATA
  8 .comment      00000012  00000000  00000000  0000067c  2**0
                  CONTENTS, READONLY

Disassembly of section .text:

00000000 <_ZN5Print5writeEPKhj>:
   0:	cf 92       	push	r12
   2:	df 92       	push	r13
   4:	ef 92       	push	r14
   6:	ff 92       	push	r15
   8:	0f 93       	push	r16
   a:	1f 93       	push	r17
   c:	cf 93       	push	r28
   e:	df 93       	push	r29
  10:	6c 01       	movw	r12, r24
  12:	eb 01       	movw	r28, r22
  14:	7a 01       	movw	r14, r20
  16:	e6 0e       	add	r14, r22
  18:	f7 1e       	adc	r15, r23
  1a:	00 e0       	ldi	r16, 0x00	; 0
  1c:	10 e0       	ldi	r17, 0x00	; 0
  1e:	00 c0       	rjmp	.+0      	; 0x20 <_ZN5Print5writeEPKhj+0x20>
  20:	69 91       	ld	r22, Y+
  22:	d6 01       	movw	r26, r12
  24:	ed 91       	ld	r30, X+
  26:	fc 91       	ld	r31, X
  28:	01 90       	ld	r0, Z+
  2a:	f0 81       	ld	r31, Z
  2c:	e0 2d       	mov	r30, r0
  2e:	c6 01       	movw	r24, r12
  30:	09 95       	icall
  32:	08 0f       	add	r16, r24
  34:	19 1f       	adc	r17, r25
  36:	ce 15       	cp	r28, r14
  38:	df 05       	cpc	r29, r15
  3a:	01 f4       	brne	.+0      	; 0x3c <_ZN5Print5writeEPKhj+0x3c>
  3c:	c8 01       	movw	r24, r16
  3e:	df 91       	pop	r29
  40:	cf 91       	pop	r28
  42:	1f 91       	pop	r17
  44:	0f 91       	pop	r16
  46:	ff 90       	pop	r15
  48:	ef 90       	pop	r14
  4a:	df 90       	pop	r13
  4c:	cf 90       	pop	r12
  4e:	08 95       	ret

00000050 <_ZN5Print5printEPK19__FlashStringHelper>:
  50:	ef 92       	push	r14
  52:	ff 92       	push	r15
  54:	0f 93       	push	r16
  56:	1f 93       	push	r17
  58:	cf 93       	push	r28
  5a:	df 93       	push	r29
  5c:	7c 01       	movw	r14, r24
  5e:	eb 01       	movw	r28, r22
  60:	00 e0       	ldi	r16, 0x00	; 0
  62:	10 e0       	ldi	r17, 0x00	; 0
  64:	fe 01       	movw	r30, r28
  66:	21 96       	adiw	r28, 0x01	; 1
  68:	64 91       	lpm	r22, Z
  6a:	66 23       	and	r22, r22
  6c:	01 f0       	breq	.+0      	; 0x6e <_ZN5Print5printEPK19__FlashStringHelper+0x1e>
  6e:	f7 01       	movw	r30, r14
  70:	a0 81       	ld	r26, Z
  72:	b1 81       	ldd	r27, Z+1	; 0x01
  74:	ed 91       	ld	r30, X+
  76:	fc 91       	ld	r31, X
  78:	c7 01       	movw	r24, r14
  7a:	09 95       	icall
  7c:	08 0f       	add	r16, r24
  7e:	19 1f       	adc	r17, r25
  80:	00 c0       	rjmp	.+0      	; 0x82 <_ZN5Print5printEPK19__FlashStringHelper+0x32>
  82:	c8 01       	movw	r24, r16
  84:	df 91       	pop	r29
  86:	cf 91       	pop	r28
  88:	1f 91       	pop	r17
  8a:	0f 91       	pop	r16
  8c:	ff 90       	pop	r15
  8e:	ef 90       	pop	r14
  90:	08 95       	ret

00000092 <_ZN5Print5printERK6String>:
  92:	af 92       	push	r10
  94:	bf 92       	push	r11
  96:	cf 92       	push	r12
  98:	df 92       	push	r13
  9a:	ef 92       	push	r14
  9c:	ff 92       	push	r15
  9e:	0f 93       	push	r16
  a0:	1f 93       	push	r17
  a2:	cf 93       	push	r28
  a4:	df 93       	push	r29
  a6:	7c 01       	movw	r14, r24
  a8:	6b 01       	movw	r12, r22
  aa:	00 e0       	ldi	r16, 0x00	; 0
  ac:	10 e0       	ldi	r17, 0x00	; 0
  ae:	c0 e0       	ldi	r28, 0x00	; 0
  b0:	d0 e0       	ldi	r29, 0x00	; 0
  b2:	00 c0       	rjmp	.+0      	; 0xb4 <_ZN5Print5printERK6String+0x22>
  b4:	d7 01       	movw	r26, r14
  b6:	ed 91       	ld	r30, X+
  b8:	fc 91       	ld	r31, X
  ba:	a0 80       	ld	r10, Z
  bc:	b1 80       	ldd	r11, Z+1	; 0x01
  be:	b8 01       	movw	r22, r16
  c0:	c6 01       	movw	r24, r12
  c2:	0e 94 00 00 	call	0	; 0x0 <_ZN5Print5writeEPKhj>
  c6:	68 2f       	mov	r22, r24
  c8:	c7 01       	movw	r24, r14
  ca:	f5 01       	movw	r30, r10
  cc:	09 95       	icall
  ce:	c8 0f       	add	r28, r24
  d0:	d9 1f       	adc	r29, r25
  d2:	0f 5f       	subi	r16, 0xFF	; 255
  d4:	1f 4f       	sbci	r17, 0xFF	; 255
  d6:	d6 01       	movw	r26, r12
  d8:	14 96       	adiw	r26, 0x04	; 4
  da:	8d 91       	ld	r24, X+
  dc:	9c 91       	ld	r25, X
  de:	15 97       	sbiw	r26, 0x05	; 5
  e0:	08 17       	cp	r16, r24
  e2:	19 07       	cpc	r17, r25
  e4:	00 f0       	brcs	.+0      	; 0xe6 <_ZN5Print5printERK6String+0x54>
  e6:	ce 01       	movw	r24, r28
  e8:	df 91       	pop	r29
  ea:	cf 91       	pop	r28
  ec:	1f 91       	pop	r17
  ee:	0f 91       	pop	r16
  f0:	ff 90       	pop	r15
  f2:	ef 90       	pop	r14
  f4:	df 90       	pop	r13
  f6:	cf 90       	pop	r12
  f8:	bf 90       	pop	r11
  fa:	af 90       	pop	r10
  fc:	08 95       	ret

000000fe <_ZN5Print5printEPKc>:
  fe:	0c 94 00 00 	jmp	0	; 0x0 <_ZN5Print5writeEPKhj>

00000102 <_ZN5Print5printEc>:
 102:	dc 01       	movw	r26, r24
 104:	ed 91       	ld	r30, X+
 106:	fc 91       	ld	r31, X
 108:	01 90       	ld	r0, Z+
 10a:	f0 81       	ld	r31, Z
 10c:	e0 2d       	mov	r30, r0
 10e:	09 94       	ijmp

00000110 <_ZN5Print5printERK9Printable>:
 110:	db 01       	movw	r26, r22
 112:	ed 91       	ld	r30, X+
 114:	fc 91       	ld	r31, X
 116:	11 97       	sbiw	r26, 0x01	; 1
 118:	01 90       	ld	r0, Z+
 11a:	f0 81       	ld	r31, Z
 11c:	e0 2d       	mov	r30, r0
 11e:	bc 01       	movw	r22, r24
 120:	cd 01       	movw	r24, r26
 122:	09 94       	ijmp

00000124 <_ZN5Print7printlnEv>:
 124:	0f 93       	push	r16
 126:	1f 93       	push	r17
 128:	cf 93       	push	r28
 12a:	df 93       	push	r29
 12c:	ec 01       	movw	r28, r24
 12e:	6d e0       	ldi	r22, 0x0D	; 13
 130:	0e 94 00 00 	call	0	; 0x0 <_ZN5Print5writeEPKhj>
 134:	8c 01       	movw	r16, r24
 136:	6a e0       	ldi	r22, 0x0A	; 10
 138:	ce 01       	movw	r24, r28
 13a:	0e 94 00 00 	call	0	; 0x0 <_ZN5Print5writeEPKhj>
 13e:	9c 01       	movw	r18, r24
 140:	20 0f       	add	r18, r16
 142:	31 1f       	adc	r19, r17
 144:	c9 01       	movw	r24, r18
 146:	df 91       	pop	r29
 148:	cf 91       	pop	r28
 14a:	1f 91       	pop	r17
 14c:	0f 91       	pop	r16
 14e:	08 95       	ret

00000150 <_ZN5Print7printlnEPK19__FlashStringHelper>:
 150:	0f 93       	push	r16
 152:	1f 93       	push	r17
 154:	cf 93       	push	r28
 156:	df 93       	push	r29
 158:	ec 01       	movw	r28, r24
 15a:	0e 94 00 00 	call	0	; 0x0 <_ZN5Print5writeEPKhj>
 15e:	8c 01       	movw	r16, r24
 160:	ce 01       	movw	r24, r28
 162:	0e 94 00 00 	call	0	; 0x0 <_ZN5Print5writeEPKhj>
 166:	9c 01       	movw	r18, r24
 168:	20 0f       	add	r18, r16
 16a:	31 1f       	adc	r19, r17
 16c:	c9 01       	movw	r24, r18
 16e:	df 91       	pop	r29
 170:	cf 91       	pop	r28
 172:	1f 91       	pop	r17
 174:	0f 91       	pop	r16
 176:	08 95       	ret

00000178 <_ZN5Print7printlnERK6String>:
 178:	0f 93       	push	r16
 17a:	1f 93       	push	r17
 17c:	cf 93       	push	r28
 17e:	df 93       	push	r29
 180:	ec 01       	movw	r28, r24
 182:	0e 94 00 00 	call	0	; 0x0 <_ZN5Print5writeEPKhj>
 186:	8c 01       	movw	r16, r24
 188:	ce 01       	movw	r24, r28
 18a:	0e 94 00 00 	call	0	; 0x0 <_ZN5Print5writeEPKhj>
 18e:	9c 01       	movw	r18, r24
 190:	20 0f       	add	r18, r16
 192:	31 1f       	adc	r19, r17
 194:	c9 01       	movw	r24, r18
 196:	df 91       	pop	r29
 198:	cf 91       	pop	r28
 19a:	1f 91       	pop	r17
 19c:	0f 91       	pop	r16
 19e:	08 95       	ret

000001a0 <_ZN5Print7printlnEPKc>:
 1a0:	0f 93       	push	r16
 1a2:	1f 93       	push	r17
 1a4:	cf 93       	push	r28
 1a6:	df 93       	push	r29
 1a8:	ec 01       	movw	r28, r24
 1aa:	0e 94 00 00 	call	0	; 0x0 <_ZN5Print5writeEPKhj>
 1ae:	8c 01       	movw	r16, r24
 1b0:	ce 01       	movw	r24, r28
 1b2:	0e 94 00 00 	call	0	; 0x0 <_ZN5Print5writeEPKhj>
 1b6:	98 01       	movw	r18, r16
 1b8:	28 0f       	add	r18, r24
 1ba:	39 1f       	adc	r19, r25
 1bc:	c9 01       	movw	r24, r18
 1be:	df 91       	pop	r29
 1c0:	cf 91       	pop	r28
 1c2:	1f 91       	pop	r17
 1c4:	0f 91       	pop	r16
 1c6:	08 95       	ret

000001c8 <_ZN5Print7printlnEc>:
 1c8:	0f 93       	push	r16
 1ca:	1f 93       	push	r17
 1cc:	cf 93       	push	r28
 1ce:	df 93       	push	r29
 1d0:	ec 01       	movw	r28, r24
 1d2:	0e 94 00 00 	call	0	; 0x0 <_ZN5Print5writeEPKhj>
 1d6:	8c 01       	movw	r16, r24
 1d8:	ce 01       	movw	r24, r28
 1da:	0e 94 00 00 	call	0	; 0x0 <_ZN5Print5writeEPKhj>
 1de:	9c 01       	movw	r18, r24
 1e0:	20 0f       	add	r18, r16
 1e2:	31 1f       	adc	r19, r17
 1e4:	c9 01       	movw	r24, r18
 1e6:	df 91       	pop	r29
 1e8:	cf 91       	pop	r28
 1ea:	1f 91       	pop	r17
 1ec:	0f 91       	pop	r16
 1ee:	08 95       	ret

000001f0 <_ZN5Print7printlnERK9Printable>:
 1f0:	0f 93       	push	r16
 1f2:	1f 93       	push	r17
 1f4:	cf 93       	push	r28
 1f6:	df 93       	push	r29
 1f8:	ec 01       	movw	r28, r24
 1fa:	0e 94 00 00 	call	0	; 0x0 <_ZN5Print5writeEPKhj>
 1fe:	8c 01       	movw	r16, r24
 200:	ce 01       	movw	r24, r28
 202:	0e 94 00 00 	call	0	; 0x0 <_ZN5Print5writeEPKhj>
 206:	9c 01       	movw	r18, r24
 208:	20 0f       	add	r18, r16
 20a:	31 1f       	adc	r19, r17
 20c:	c9 01       	movw	r24, r18
 20e:	df 91       	pop	r29
 210:	cf 91       	pop	r28
 212:	1f 91       	pop	r17
 214:	0f 91       	pop	r16
 216:	08 95       	ret

00000218 <_ZN5Print11printNumberEmh>:
 218:	4f 92       	push	r4
 21a:	5f 92       	push	r5
 21c:	6f 92       	push	r6
 21e:	7f 92       	push	r7
 220:	9f 92       	push	r9
 222:	af 92       	push	r10
 224:	bf 92       	push	r11
 226:	cf 92       	push	r12
 228:	df 92       	push	r13
 22a:	ef 92       	push	r14
 22c:	ff 92       	push	r15
 22e:	0f 93       	push	r16
 230:	1f 93       	push	r17
 232:	cf 93       	push	r28
 234:	df 93       	push	r29
 236:	cd b7       	in	r28, 0x3d	; 61
 238:	de b7       	in	r29, 0x3e	; 62
 23a:	a1 97       	sbiw	r28, 0x21	; 33
 23c:	0f b6       	in	r0, 0x3f	; 63
 23e:	f8 94       	cli
 240:	de bf       	out	0x3e, r29	; 62
 242:	0f be       	out	0x3f, r0	; 63
 244:	cd bf       	out	0x3d, r28	; 61
 246:	5c 01       	movw	r10, r24
 248:	6a 01       	movw	r12, r20
 24a:	7b 01       	movw	r14, r22
 24c:	92 2e       	mov	r9, r18
 24e:	19 a2       	std	Y+33, r1	; 0x21
 250:	81 e0       	ldi	r24, 0x01	; 1
 252:	82 17       	cp	r24, r18
 254:	00 f0       	brcs	.+0      	; 0x256 <_ZN5Print11printNumberEmh+0x3e>
 256:	8a e0       	ldi	r24, 0x0A	; 10
 258:	98 2e       	mov	r9, r24
 25a:	8e 01       	movw	r16, r28
 25c:	0f 5d       	subi	r16, 0xDF	; 223
 25e:	1f 4f       	sbci	r17, 0xFF	; 255
 260:	49 2c       	mov	r4, r9
 262:	51 2c       	mov	r5, r1
 264:	61 2c       	mov	r6, r1
 266:	71 2c       	mov	r7, r1
 268:	c7 01       	movw	r24, r14
 26a:	b6 01       	movw	r22, r12
 26c:	a3 01       	movw	r20, r6
 26e:	92 01       	movw	r18, r4
 270:	0e 94 00 00 	call	0	; 0x0 <_ZN5Print5writeEPKhj>
 274:	8c 2d       	mov	r24, r12
 276:	92 9e       	mul	r9, r18
 278:	80 19       	sub	r24, r0
 27a:	11 24       	eor	r1, r1
 27c:	01 50       	subi	r16, 0x01	; 1
 27e:	11 09       	sbc	r17, r1
 280:	8a 30       	cpi	r24, 0x0A	; 10
 282:	00 f4       	brcc	.+0      	; 0x284 <_ZN5Print11printNumberEmh+0x6c>
 284:	80 5d       	subi	r24, 0xD0	; 208
 286:	00 c0       	rjmp	.+0      	; 0x288 <_ZN5Print11printNumberEmh+0x70>
 288:	89 5c       	subi	r24, 0xC9	; 201
 28a:	f8 01       	movw	r30, r16
 28c:	80 83       	st	Z, r24
 28e:	69 01       	movw	r12, r18
 290:	7a 01       	movw	r14, r20
 292:	c1 14       	cp	r12, r1
 294:	d1 04       	cpc	r13, r1
 296:	e1 04       	cpc	r14, r1
 298:	f1 04       	cpc	r15, r1
 29a:	01 f4       	brne	.+0      	; 0x29c <_ZN5Print11printNumberEmh+0x84>
 29c:	b8 01       	movw	r22, r16
 29e:	c5 01       	movw	r24, r10
 2a0:	0e 94 00 00 	call	0	; 0x0 <_ZN5Print5writeEPKhj>
 2a4:	a1 96       	adiw	r28, 0x21	; 33
 2a6:	0f b6       	in	r0, 0x3f	; 63
 2a8:	f8 94       	cli
 2aa:	de bf       	out	0x3e, r29	; 62
 2ac:	0f be       	out	0x3f, r0	; 63
 2ae:	cd bf       	out	0x3d, r28	; 61
 2b0:	df 91       	pop	r29
 2b2:	cf 91       	pop	r28
 2b4:	1f 91       	pop	r17
 2b6:	0f 91       	pop	r16
 2b8:	ff 90       	pop	r15
 2ba:	ef 90       	pop	r14
 2bc:	df 90       	pop	r13
 2be:	cf 90       	pop	r12
 2c0:	bf 90       	pop	r11
 2c2:	af 90       	pop	r10
 2c4:	9f 90       	pop	r9
 2c6:	7f 90       	pop	r7
 2c8:	6f 90       	pop	r6
 2ca:	5f 90       	pop	r5
 2cc:	4f 90       	pop	r4
 2ce:	08 95       	ret

000002d0 <_ZN5Print5printEmi>:
 2d0:	21 15       	cp	r18, r1
 2d2:	31 05       	cpc	r19, r1
 2d4:	01 f4       	brne	.+0      	; 0x2d6 <_ZN5Print5printEmi+0x6>
 2d6:	dc 01       	movw	r26, r24
 2d8:	ed 91       	ld	r30, X+
 2da:	fc 91       	ld	r31, X
 2dc:	01 90       	ld	r0, Z+
 2de:	f0 81       	ld	r31, Z
 2e0:	e0 2d       	mov	r30, r0
 2e2:	64 2f       	mov	r22, r20
 2e4:	09 94       	ijmp
 2e6:	0c 94 00 00 	jmp	0	; 0x0 <_ZN5Print5writeEPKhj>

000002ea <_ZN5Print7printlnEmi>:
 2ea:	0f 93       	push	r16
 2ec:	1f 93       	push	r17
 2ee:	cf 93       	push	r28
 2f0:	df 93       	push	r29
 2f2:	ec 01       	movw	r28, r24
 2f4:	0e 94 00 00 	call	0	; 0x0 <_ZN5Print5writeEPKhj>
 2f8:	8c 01       	movw	r16, r24
 2fa:	ce 01       	movw	r24, r28
 2fc:	0e 94 00 00 	call	0	; 0x0 <_ZN5Print5writeEPKhj>
 300:	9c 01       	movw	r18, r24
 302:	20 0f       	add	r18, r16
 304:	31 1f       	adc	r19, r17
 306:	c9 01       	movw	r24, r18
 308:	df 91       	pop	r29
 30a:	cf 91       	pop	r28
 30c:	1f 91       	pop	r17
 30e:	0f 91       	pop	r16
 310:	08 95       	ret

00000312 <_ZN5Print5printEji>:
 312:	9a 01       	movw	r18, r20
 314:	ab 01       	movw	r20, r22
 316:	60 e0       	ldi	r22, 0x00	; 0
 318:	70 e0       	ldi	r23, 0x00	; 0
 31a:	0c 94 00 00 	jmp	0	; 0x0 <_ZN5Print5writeEPKhj>

0000031e <_ZN5Print7printlnEji>:
 31e:	0f 93       	push	r16
 320:	1f 93       	push	r17
 322:	cf 93       	push	r28
 324:	df 93       	push	r29
 326:	ec 01       	movw	r28, r24
 328:	9a 01       	movw	r18, r20
 32a:	ab 01       	movw	r20, r22
 32c:	60 e0       	ldi	r22, 0x00	; 0
 32e:	70 e0       	ldi	r23, 0x00	; 0
 330:	0e 94 00 00 	call	0	; 0x0 <_ZN5Print5writeEPKhj>
 334:	8c 01       	movw	r16, r24
 336:	ce 01       	movw	r24, r28
 338:	0e 94 00 00 	call	0	; 0x0 <_ZN5Print5writeEPKhj>
 33c:	98 01       	movw	r18, r16
 33e:	28 0f       	add	r18, r24
 340:	39 1f       	adc	r19, r25
 342:	c9 01       	movw	r24, r18
 344:	df 91       	pop	r29
 346:	cf 91       	pop	r28
 348:	1f 91       	pop	r17
 34a:	0f 91       	pop	r16
 34c:	08 95       	ret

0000034e <_ZN5Print5printEhi>:
 34e:	9a 01       	movw	r18, r20
 350:	46 2f       	mov	r20, r22
 352:	50 e0       	ldi	r21, 0x00	; 0
 354:	60 e0       	ldi	r22, 0x00	; 0
 356:	70 e0       	ldi	r23, 0x00	; 0
 358:	0c 94 00 00 	jmp	0	; 0x0 <_ZN5Print5writeEPKhj>

0000035c <_ZN5Print7printlnEhi>:
 35c:	0f 93       	push	r16
 35e:	1f 93       	push	r17
 360:	cf 93       	push	r28
 362:	df 93       	push	r29
 364:	ec 01       	movw	r28, r24
 366:	9a 01       	movw	r18, r20
 368:	46 2f       	mov	r20, r22
 36a:	50 e0       	ldi	r21, 0x00	; 0
 36c:	60 e0       	ldi	r22, 0x00	; 0
 36e:	70 e0       	ldi	r23, 0x00	; 0
 370:	0e 94 00 00 	call	0	; 0x0 <_ZN5Print5writeEPKhj>
 374:	8c 01       	movw	r16, r24
 376:	ce 01       	movw	r24, r28
 378:	0e 94 00 00 	call	0	; 0x0 <_ZN5Print5writeEPKhj>
 37c:	98 01       	movw	r18, r16
 37e:	28 0f       	add	r18, r24
 380:	39 1f       	adc	r19, r25
 382:	c9 01       	movw	r24, r18
 384:	df 91       	pop	r29
 386:	cf 91       	pop	r28
 388:	1f 91       	pop	r17
 38a:	0f 91       	pop	r16
 38c:	08 95       	ret

0000038e <_ZN5Print5printEli>:
 38e:	cf 92       	push	r12
 390:	df 92       	push	r13
 392:	ef 92       	push	r14
 394:	ff 92       	push	r15
 396:	0f 93       	push	r16
 398:	1f 93       	push	r17
 39a:	cf 93       	push	r28
 39c:	df 93       	push	r29
 39e:	ec 01       	movw	r28, r24
 3a0:	6a 01       	movw	r12, r20
 3a2:	7b 01       	movw	r14, r22
 3a4:	21 15       	cp	r18, r1
 3a6:	31 05       	cpc	r19, r1
 3a8:	01 f4       	brne	.+0      	; 0x3aa <_ZN5Print5printEli+0x1c>
 3aa:	e8 81       	ld	r30, Y
 3ac:	f9 81       	ldd	r31, Y+1	; 0x01
 3ae:	01 90       	ld	r0, Z+
 3b0:	f0 81       	ld	r31, Z
 3b2:	e0 2d       	mov	r30, r0
 3b4:	64 2f       	mov	r22, r20
 3b6:	df 91       	pop	r29
 3b8:	cf 91       	pop	r28
 3ba:	1f 91       	pop	r17
 3bc:	0f 91       	pop	r16
 3be:	ff 90       	pop	r15
 3c0:	ef 90       	pop	r14
 3c2:	df 90       	pop	r13
 3c4:	cf 90       	pop	r12
 3c6:	09 94       	ijmp
 3c8:	2a 30       	cpi	r18, 0x0A	; 10
 3ca:	31 05       	cpc	r19, r1
 3cc:	01 f4       	brne	.+0      	; 0x3ce <_ZN5Print5printEli+0x40>
 3ce:	77 fd       	sbrc	r23, 7
 3d0:	00 c0       	rjmp	.+0      	; 0x3d2 <_ZN5Print5printEli+0x44>
 3d2:	2a e0       	ldi	r18, 0x0A	; 10
 3d4:	b7 01       	movw	r22, r14
 3d6:	a6 01       	movw	r20, r12
 3d8:	ce 01       	movw	r24, r28
 3da:	df 91       	pop	r29
 3dc:	cf 91       	pop	r28
 3de:	1f 91       	pop	r17
 3e0:	0f 91       	pop	r16
 3e2:	ff 90       	pop	r15
 3e4:	ef 90       	pop	r14
 3e6:	df 90       	pop	r13
 3e8:	cf 90       	pop	r12
 3ea:	0c 94 00 00 	jmp	0	; 0x0 <_ZN5Print5writeEPKhj>
 3ee:	6d e2       	ldi	r22, 0x2D	; 45
 3f0:	0e 94 00 00 	call	0	; 0x0 <_ZN5Print5writeEPKhj>
 3f4:	8c 01       	movw	r16, r24
 3f6:	44 27       	eor	r20, r20
 3f8:	55 27       	eor	r21, r21
 3fa:	ba 01       	movw	r22, r20
 3fc:	4c 19       	sub	r20, r12
 3fe:	5d 09       	sbc	r21, r13
 400:	6e 09       	sbc	r22, r14
 402:	7f 09       	sbc	r23, r15
 404:	2a e0       	ldi	r18, 0x0A	; 10
 406:	ce 01       	movw	r24, r28
 408:	0e 94 00 00 	call	0	; 0x0 <_ZN5Print5writeEPKhj>
 40c:	08 0f       	add	r16, r24
 40e:	19 1f       	adc	r17, r25
 410:	c8 01       	movw	r24, r16
 412:	df 91       	pop	r29
 414:	cf 91       	pop	r28
 416:	1f 91       	pop	r17
 418:	0f 91       	pop	r16
 41a:	ff 90       	pop	r15
 41c:	ef 90       	pop	r14
 41e:	df 90       	pop	r13
 420:	cf 90       	pop	r12
 422:	08 95       	ret

00000424 <_ZN5Print7printlnEli>:
 424:	0f 93       	push	r16
 426:	1f 93       	push	r17
 428:	cf 93       	push	r28
 42a:	df 93       	push	r29
 42c:	ec 01       	movw	r28, r24
 42e:	0e 94 00 00 	call	0	; 0x0 <_ZN5Print5writeEPKhj>
 432:	8c 01       	movw	r16, r24
 434:	ce 01       	movw	r24, r28
 436:	0e 94 00 00 	call	0	; 0x0 <_ZN5Print5writeEPKhj>
 43a:	9c 01       	movw	r18, r24
 43c:	20 0f       	add	r18, r16
 43e:	31 1f       	adc	r19, r17
 440:	c9 01       	movw	r24, r18
 442:	df 91       	pop	r29
 444:	cf 91       	pop	r28
 446:	1f 91       	pop	r17
 448:	0f 91       	pop	r16
 44a:	08 95       	ret

0000044c <_ZN5Print5printEii>:
 44c:	9a 01       	movw	r18, r20
 44e:	ab 01       	movw	r20, r22
 450:	66 27       	eor	r22, r22
 452:	57 fd       	sbrc	r21, 7
 454:	60 95       	com	r22
 456:	76 2f       	mov	r23, r22
 458:	0c 94 00 00 	jmp	0	; 0x0 <_ZN5Print5writeEPKhj>

0000045c <_ZN5Print7printlnEii>:
 45c:	0f 93       	push	r16
 45e:	1f 93       	push	r17
 460:	cf 93       	push	r28
 462:	df 93       	push	r29
 464:	ec 01       	movw	r28, r24
 466:	9a 01       	movw	r18, r20
 468:	ab 01       	movw	r20, r22
 46a:	66 27       	eor	r22, r22
 46c:	57 fd       	sbrc	r21, 7
 46e:	60 95       	com	r22
 470:	76 2f       	mov	r23, r22
 472:	0e 94 00 00 	call	0	; 0x0 <_ZN5Print5writeEPKhj>
 476:	8c 01       	movw	r16, r24
 478:	ce 01       	movw	r24, r28
 47a:	0e 94 00 00 	call	0	; 0x0 <_ZN5Print5writeEPKhj>
 47e:	98 01       	movw	r18, r16
 480:	28 0f       	add	r18, r24
 482:	39 1f       	adc	r19, r25
 484:	c9 01       	movw	r24, r18
 486:	df 91       	pop	r29
 488:	cf 91       	pop	r28
 48a:	1f 91       	pop	r17
 48c:	0f 91       	pop	r16
 48e:	08 95       	ret

00000490 <_ZN5Print10printFloatEdh>:
 490:	7f 92       	push	r7
 492:	8f 92       	push	r8
 494:	9f 92       	push	r9
 496:	af 92       	push	r10
 498:	bf 92       	push	r11
 49a:	cf 92       	push	r12
 49c:	df 92       	push	r13
 49e:	ef 92       	push	r14
 4a0:	ff 92       	push	r15
 4a2:	0f 93       	push	r16
 4a4:	1f 93       	push	r17
 4a6:	cf 93       	push	r28
 4a8:	df 93       	push	r29
 4aa:	8c 01       	movw	r16, r24
 4ac:	4a 01       	movw	r8, r20
 4ae:	5b 01       	movw	r10, r22
 4b0:	f2 2e       	mov	r15, r18
 4b2:	20 e0       	ldi	r18, 0x00	; 0
 4b4:	30 e0       	ldi	r19, 0x00	; 0
 4b6:	a9 01       	movw	r20, r18
 4b8:	c5 01       	movw	r24, r10
 4ba:	b4 01       	movw	r22, r8
 4bc:	0e 94 00 00 	call	0	; 0x0 <_ZN5Print5writeEPKhj>
 4c0:	87 ff       	sbrs	r24, 7
 4c2:	00 c0       	rjmp	.+0      	; 0x4c4 <_ZN5Print10printFloatEdh+0x34>
 4c4:	6d e2       	ldi	r22, 0x2D	; 45
 4c6:	c8 01       	movw	r24, r16
 4c8:	0e 94 00 00 	call	0	; 0x0 <_ZN5Print5writeEPKhj>
 4cc:	ec 01       	movw	r28, r24
 4ce:	b7 fa       	bst	r11, 7
 4d0:	b0 94       	com	r11
 4d2:	b7 f8       	bld	r11, 7
 4d4:	b0 94       	com	r11
 4d6:	00 c0       	rjmp	.+0      	; 0x4d8 <_ZN5Print10printFloatEdh+0x48>
 4d8:	c0 e0       	ldi	r28, 0x00	; 0
 4da:	d0 e0       	ldi	r29, 0x00	; 0
 4dc:	e1 2c       	mov	r14, r1
 4de:	60 e0       	ldi	r22, 0x00	; 0
 4e0:	70 e0       	ldi	r23, 0x00	; 0
 4e2:	80 e0       	ldi	r24, 0x00	; 0
 4e4:	9f e3       	ldi	r25, 0x3F	; 63
 4e6:	00 c0       	rjmp	.+0      	; 0x4e8 <_ZN5Print10printFloatEdh+0x58>
 4e8:	20 e0       	ldi	r18, 0x00	; 0
 4ea:	30 e0       	ldi	r19, 0x00	; 0
 4ec:	40 e2       	ldi	r20, 0x20	; 32
 4ee:	51 e4       	ldi	r21, 0x41	; 65
 4f0:	0e 94 00 00 	call	0	; 0x0 <_ZN5Print5writeEPKhj>
 4f4:	e3 94       	inc	r14
 4f6:	ef 10       	cpse	r14, r15
 4f8:	00 c0       	rjmp	.+0      	; 0x4fa <_ZN5Print10printFloatEdh+0x6a>
 4fa:	26 2f       	mov	r18, r22
 4fc:	37 2f       	mov	r19, r23
 4fe:	48 2f       	mov	r20, r24
 500:	59 2f       	mov	r21, r25
 502:	c5 01       	movw	r24, r10
 504:	b4 01       	movw	r22, r8
 506:	0e 94 00 00 	call	0	; 0x0 <_ZN5Print5writeEPKhj>
 50a:	76 2e       	mov	r7, r22
 50c:	87 2e       	mov	r8, r23
 50e:	98 2e       	mov	r9, r24
 510:	a9 2e       	mov	r10, r25
 512:	0e 94 00 00 	call	0	; 0x0 <_ZN5Print5writeEPKhj>
 516:	b6 2e       	mov	r11, r22
 518:	c7 2e       	mov	r12, r23
 51a:	d8 2e       	mov	r13, r24
 51c:	e9 2e       	mov	r14, r25
 51e:	0e 94 00 00 	call	0	; 0x0 <_ZN5Print5writeEPKhj>
 522:	9b 01       	movw	r18, r22
 524:	ac 01       	movw	r20, r24
 526:	67 2d       	mov	r22, r7
 528:	78 2d       	mov	r23, r8
 52a:	89 2d       	mov	r24, r9
 52c:	9a 2d       	mov	r25, r10
 52e:	0e 94 00 00 	call	0	; 0x0 <_ZN5Print5writeEPKhj>
 532:	a6 2e       	mov	r10, r22
 534:	97 2e       	mov	r9, r23
 536:	88 2e       	mov	r8, r24
 538:	79 2e       	mov	r7, r25
 53a:	2a e0       	ldi	r18, 0x0A	; 10
 53c:	4b 2d       	mov	r20, r11
 53e:	5c 2d       	mov	r21, r12
 540:	6d 2d       	mov	r22, r13
 542:	7e 2d       	mov	r23, r14
 544:	c8 01       	movw	r24, r16
 546:	0e 94 00 00 	call	0	; 0x0 <_ZN5Print5writeEPKhj>
 54a:	c8 0f       	add	r28, r24
 54c:	d9 1f       	adc	r29, r25
 54e:	ff 20       	and	r15, r15
 550:	01 f0       	breq	.+0      	; 0x552 <_ZN5Print10printFloatEdh+0xc2>
 552:	60 e0       	ldi	r22, 0x00	; 0
 554:	70 e0       	ldi	r23, 0x00	; 0
 556:	c8 01       	movw	r24, r16
 558:	0e 94 00 00 	call	0	; 0x0 <_ZN5Print5writeEPKhj>
 55c:	c8 0f       	add	r28, r24
 55e:	d9 1f       	adc	r29, r25
 560:	00 c0       	rjmp	.+0      	; 0x562 <_ZN5Print10printFloatEdh+0xd2>
 562:	20 e0       	ldi	r18, 0x00	; 0
 564:	30 e0       	ldi	r19, 0x00	; 0
 566:	40 e2       	ldi	r20, 0x20	; 32
 568:	51 e4       	ldi	r21, 0x41	; 65
 56a:	6a 2d       	mov	r22, r10
 56c:	79 2d       	mov	r23, r9
 56e:	88 2d       	mov	r24, r8
 570:	97 2d       	mov	r25, r7
 572:	0e 94 00 00 	call	0	; 0x0 <_ZN5Print5writeEPKhj>
 576:	76 2e       	mov	r7, r22
 578:	c7 2e       	mov	r12, r23
 57a:	d8 2e       	mov	r13, r24
 57c:	e9 2e       	mov	r14, r25
 57e:	0e 94 00 00 	call	0	; 0x0 <_ZN5Print5writeEPKhj>
 582:	4b 01       	movw	r8, r22
 584:	aa 24       	eor	r10, r10
 586:	97 fc       	sbrc	r9, 7
 588:	a0 94       	com	r10
 58a:	ba 2c       	mov	r11, r10
 58c:	2a e0       	ldi	r18, 0x0A	; 10
 58e:	30 e0       	ldi	r19, 0x00	; 0
 590:	b5 01       	movw	r22, r10
 592:	a4 01       	movw	r20, r8
 594:	c8 01       	movw	r24, r16
 596:	0e 94 00 00 	call	0	; 0x0 <_ZN5Print5writeEPKhj>
 59a:	c8 0f       	add	r28, r24
 59c:	d9 1f       	adc	r29, r25
 59e:	c5 01       	movw	r24, r10
 5a0:	b4 01       	movw	r22, r8
 5a2:	0e 94 00 00 	call	0	; 0x0 <_ZN5Print5writeEPKhj>
 5a6:	9b 01       	movw	r18, r22
 5a8:	ac 01       	movw	r20, r24
 5aa:	67 2d       	mov	r22, r7
 5ac:	7c 2d       	mov	r23, r12
 5ae:	8d 2d       	mov	r24, r13
 5b0:	9e 2d       	mov	r25, r14
 5b2:	0e 94 00 00 	call	0	; 0x0 <_ZN5Print5writeEPKhj>
 5b6:	a6 2e       	mov	r10, r22
 5b8:	97 2e       	mov	r9, r23
 5ba:	88 2e       	mov	r8, r24
 5bc:	79 2e       	mov	r7, r25
 5be:	fa 94       	dec	r15
 5c0:	f1 10       	cpse	r15, r1
 5c2:	00 c0       	rjmp	.+0      	; 0x5c4 <_ZN5Print10printFloatEdh+0x134>
 5c4:	ce 01       	movw	r24, r28
 5c6:	df 91       	pop	r29
 5c8:	cf 91       	pop	r28
 5ca:	1f 91       	pop	r17
 5cc:	0f 91       	pop	r16
 5ce:	ff 90       	pop	r15
 5d0:	ef 90       	pop	r14
 5d2:	df 90       	pop	r13
 5d4:	cf 90       	pop	r12
 5d6:	bf 90       	pop	r11
 5d8:	af 90       	pop	r10
 5da:	9f 90       	pop	r9
 5dc:	8f 90       	pop	r8
 5de:	7f 90       	pop	r7
 5e0:	08 95       	ret

000005e2 <_ZN5Print5printEdi>:
 5e2:	0c 94 00 00 	jmp	0	; 0x0 <_ZN5Print5writeEPKhj>

000005e6 <_ZN5Print7printlnEdi>:
 5e6:	0f 93       	push	r16
 5e8:	1f 93       	push	r17
 5ea:	cf 93       	push	r28
 5ec:	df 93       	push	r29
 5ee:	ec 01       	movw	r28, r24
 5f0:	0e 94 00 00 	call	0	; 0x0 <_ZN5Print5writeEPKhj>
 5f4:	8c 01       	movw	r16, r24
 5f6:	ce 01       	movw	r24, r28
 5f8:	0e 94 00 00 	call	0	; 0x0 <_ZN5Print5writeEPKhj>
 5fc:	98 01       	movw	r18, r16
 5fe:	28 0f       	add	r18, r24
 600:	39 1f       	adc	r19, r25
 602:	c9 01       	movw	r24, r18
 604:	df 91       	pop	r29
 606:	cf 91       	pop	r28
 608:	1f 91       	pop	r17
 60a:	0f 91       	pop	r16
 60c:	08 95       	ret

Disassembly of section .text._ZN5Print5writeEPKc:

00000000 <_ZN5Print5writeEPKc>:
   0:	db 01       	movw	r26, r22
   2:	0d 90       	ld	r0, X+
   4:	00 20       	and	r0, r0
   6:	01 f4       	brne	.+0      	; 0x8 <_ZN5Print5writeEPKc+0x8>
   8:	ad 01       	movw	r20, r26
   a:	41 50       	subi	r20, 0x01	; 1
   c:	51 09       	sbc	r21, r1
   e:	46 1b       	sub	r20, r22
  10:	57 0b       	sbc	r21, r23
  12:	dc 01       	movw	r26, r24
  14:	ed 91       	ld	r30, X+
  16:	fc 91       	ld	r31, X
  18:	02 80       	ldd	r0, Z+2	; 0x02
  1a:	f3 81       	ldd	r31, Z+3	; 0x03
  1c:	e0 2d       	mov	r30, r0
  1e:	09 94       	ijmp

Stream.o:     file format elf32-avr

Sections:
Idx Name          Size      VMA       LMA       File off  Algn
  0 .text         0000051c  00000000  00000000  00000034  2**0
                  CONTENTS, ALLOC, LOAD, RELOC, READONLY, CODE
  1 .data         00000000  00000000  00000000  00000550  2**0
                  CONTENTS, ALLOC, LOAD, DATA
  2 .bss          00000000  00000000  00000000  00000550  2**0
                  ALLOC
  3 .rodata.str1.1 00000001  00000000  00000000  00000550  2**0
                  CONTENTS, ALLOC, LOAD, READONLY, DATA
  4 .comment      00000012  00000000  00000000  00000551  2**0
                  CONTENTS, READONLY

Disassembly of section .text:

00000000 <_ZN6Stream9timedReadEv>:
   0:	0f 93       	push	r16
   2:	1f 93       	push	r17
   4:	cf 93       	push	r28
   6:	df 93       	push	r29
   8:	ec 01       	movw	r28, r24
   a:	0e 94 00 00 	call	0	; 0x0 <_ZN6Stream9timedReadEv>
   e:	68 87       	std	Y+8, r22	; 0x08
  10:	79 87       	std	Y+9, r23	; 0x09
  12:	8a 87       	std	Y+10, r24	; 0x0a
  14:	9b 87       	std	Y+11, r25	; 0x0b
  16:	e8 81       	ld	r30, Y
  18:	f9 81       	ldd	r31, Y+1	; 0x01
  1a:	06 80       	ldd	r0, Z+6	; 0x06
  1c:	f7 81       	ldd	r31, Z+7	; 0x07
  1e:	e0 2d       	mov	r30, r0
  20:	ce 01       	movw	r24, r28
  22:	09 95       	icall
  24:	9c 01       	movw	r18, r24
  26:	97 ff       	sbrs	r25, 7
  28:	00 c0       	rjmp	.+0      	; 0x2a <_ZN6Stream9timedReadEv+0x2a>
  2a:	0e 94 00 00 	call	0	; 0x0 <_ZN6Stream9timedReadEv>
  2e:	08 85       	ldd	r16, Y+8	; 0x08
  30:	19 85       	ldd	r17, Y+9	; 0x09
  32:	2a 85       	ldd	r18, Y+10	; 0x0a
  34:	3b 85       	ldd	r19, Y+11	; 0x0b
  36:	60 1b       	sub	r22, r16
  38:	71 0b       	sbc	r23, r17
  3a:	82 0b       	sbc	r24, r18
  3c:	93 0b       	sbc	r25, r19
  3e:	0c 81       	ldd	r16, Y+4	; 0x04
  40:	1d 81       	ldd	r17, Y+5	; 0x05
  42:	2e 81       	ldd	r18, Y+6	; 0x06
  44:	3f 81       	ldd	r19, Y+7	; 0x07
  46:	60 17       	cp	r22, r16
  48:	71 07       	cpc	r23, r17
  4a:	82 07       	cpc	r24, r18
  4c:	93 07       	cpc	r25, r19
  4e:	00 f0       	brcs	.+0      	; 0x50 <_ZN6Stream9timedReadEv+0x50>
  50:	2f ef       	ldi	r18, 0xFF	; 255
  52:	3f ef       	ldi	r19, 0xFF	; 255
  54:	c9 01       	movw	r24, r18
  56:	df 91       	pop	r29
  58:	cf 91       	pop	r28
  5a:	1f 91       	pop	r17
  5c:	0f 91       	pop	r16
  5e:	08 95       	ret

00000060 <_ZN6Stream9timedPeekEv>:
  60:	0f 93       	push	r16
  62:	1f 93       	push	r17
  64:	cf 93       	push	r28
  66:	df 93       	push	r29
  68:	ec 01       	movw	r28, r24
  6a:	0e 94 00 00 	call	0	; 0x0 <_ZN6Stream9timedReadEv>
  6e:	68 87       	std	Y+8, r22	; 0x08
  70:	79 87       	std	Y+9, r23	; 0x09
  72:	8a 87       	std	Y+10, r24	; 0x0a
  74:	9b 87       	std	Y+11, r25	; 0x0b
  76:	e8 81       	ld	r30, Y
  78:	f9 81       	ldd	r31, Y+1	; 0x01
  7a:	00 84       	ldd	r0, Z+8	; 0x08
  7c:	f1 85       	ldd	r31, Z+9	; 0x09
  7e:	e0 2d       	mov	r30, r0
  80:	ce 01       	movw	r24, r28
  82:	09 95       	icall
  84:	9c 01       	movw	r18, r24
  86:	97 ff       	sbrs	r25, 7
  88:	00 c0       	rjmp	.+0      	; 0x8a <_ZN6Stream9timedPeekEv+0x2a>
  8a:	0e 94 00 00 	call	0	; 0x0 <_ZN6Stream9timedReadEv>
  8e:	08 85       	ldd	r16, Y+8	; 0x08
  90:	19 85       	ldd	r17, Y+9	; 0x09
  92:	2a 85       	ldd	r18, Y+10	; 0x0a
  94:	3b 85       	ldd	r19, Y+11	; 0x0b
  96:	60 1b       	sub	r22, r16
  98:	71 0b       	sbc	r23, r17
  9a:	82 0b       	sbc	r24, r18
  9c:	93 0b       	sbc	r25, r19
  9e:	0c 81       	ldd	r16, Y+4	; 0x04
  a0:	1d 81       	ldd	r17, Y+5	; 0x05
  a2:	2e 81       	ldd	r18, Y+6	; 0x06
  a4:	3f 81       	ldd	r19, Y+7	; 0x07
  a6:	60 17       	cp	r22, r16
  a8:	71 07       	cpc	r23, r17
  aa:	82 07       	cpc	r24, r18
  ac:	93 07       	cpc	r25, r19
  ae:	00 f0       	brcs	.+0      	; 0xb0 <_ZN6Stream9timedPeekEv+0x50>
  b0:	2f ef       	ldi	r18, 0xFF	; 255
  b2:	3f ef       	ldi	r19, 0xFF	; 255
  b4:	c9 01       	movw	r24, r18
  b6:	df 91       	pop	r29
  b8:	cf 91       	pop	r28
  ba:	1f 91       	pop	r17
  bc:	0f 91       	pop	r16
  be:	08 95       	ret

000000c0 <_ZN6Stream13peekNextDigitEv>:
  c0:	cf 93       	push	r28
  c2:	df 93       	push	r29
  c4:	ec 01       	movw	r28, r24
  c6:	ce 01       	movw	r24, r28
  c8:	0e 94 00 00 	call	0	; 0x0 <_ZN6Stream9timedReadEv>
  cc:	9c 01       	movw	r18, r24
  ce:	97 fd       	sbrc	r25, 7
  d0:	00 c0       	rjmp	.+0      	; 0xd2 <_ZN6Stream13peekNextDigitEv+0x12>
  d2:	8d 32       	cpi	r24, 0x2D	; 45
  d4:	91 05       	cpc	r25, r1
  d6:	01 f0       	breq	.+0      	; 0xd8 <_ZN6Stream13peekNextDigitEv+0x18>
  d8:	c0 97       	sbiw	r24, 0x30	; 48
  da:	0a 97       	sbiw	r24, 0x0a	; 10
  dc:	00 f0       	brcs	.+0      	; 0xde <_ZN6Stream13peekNextDigitEv+0x1e>
  de:	e8 81       	ld	r30, Y
  e0:	f9 81       	ldd	r31, Y+1	; 0x01
  e2:	06 80       	ldd	r0, Z+6	; 0x06
  e4:	f7 81       	ldd	r31, Z+7	; 0x07
  e6:	e0 2d       	mov	r30, r0
  e8:	ce 01       	movw	r24, r28
  ea:	09 95       	icall
  ec:	00 c0       	rjmp	.+0      	; 0xee <_ZN6Stream13peekNextDigitEv+0x2e>
  ee:	c9 01       	movw	r24, r18
  f0:	df 91       	pop	r29
  f2:	cf 91       	pop	r28
  f4:	08 95       	ret

000000f6 <_ZN6Stream10setTimeoutEm>:
  f6:	fc 01       	movw	r30, r24
  f8:	44 83       	std	Z+4, r20	; 0x04
  fa:	55 83       	std	Z+5, r21	; 0x05
  fc:	66 83       	std	Z+6, r22	; 0x06
  fe:	77 83       	std	Z+7, r23	; 0x07
 100:	08 95       	ret

00000102 <_ZN6Stream9findUntilEPcjS0_j>:
 102:	6f 92       	push	r6
 104:	7f 92       	push	r7
 106:	8f 92       	push	r8
 108:	9f 92       	push	r9
 10a:	af 92       	push	r10
 10c:	bf 92       	push	r11
 10e:	cf 92       	push	r12
 110:	df 92       	push	r13
 112:	ef 92       	push	r14
 114:	ff 92       	push	r15
 116:	0f 93       	push	r16
 118:	1f 93       	push	r17
 11a:	cf 93       	push	r28
 11c:	df 93       	push	r29
 11e:	5c 01       	movw	r10, r24
 120:	6b 01       	movw	r12, r22
 122:	4a 01       	movw	r8, r20
 124:	39 01       	movw	r6, r18
 126:	fb 01       	movw	r30, r22
 128:	80 81       	ld	r24, Z
 12a:	88 23       	and	r24, r24
 12c:	01 f0       	breq	.+0      	; 0x12e <_ZN6Stream9findUntilEPcjS0_j+0x2c>
 12e:	e1 2c       	mov	r14, r1
 130:	f1 2c       	mov	r15, r1
 132:	c0 e0       	ldi	r28, 0x00	; 0
 134:	d0 e0       	ldi	r29, 0x00	; 0
 136:	00 c0       	rjmp	.+0      	; 0x138 <_ZN6Stream9findUntilEPcjS0_j+0x36>
 138:	f6 01       	movw	r30, r12
 13a:	ec 0f       	add	r30, r28
 13c:	fd 1f       	adc	r31, r29
 13e:	20 81       	ld	r18, Z
 140:	30 e0       	ldi	r19, 0x00	; 0
 142:	82 17       	cp	r24, r18
 144:	93 07       	cpc	r25, r19
 146:	01 f0       	breq	.+0      	; 0x148 <_ZN6Stream9findUntilEPcjS0_j+0x46>
 148:	c0 e0       	ldi	r28, 0x00	; 0
 14a:	d0 e0       	ldi	r29, 0x00	; 0
 14c:	f6 01       	movw	r30, r12
 14e:	ec 0f       	add	r30, r28
 150:	fd 1f       	adc	r31, r29
 152:	20 81       	ld	r18, Z
 154:	30 e0       	ldi	r19, 0x00	; 0
 156:	82 17       	cp	r24, r18
 158:	93 07       	cpc	r25, r19
 15a:	01 f4       	brne	.+0      	; 0x15c <_ZN6Stream9findUntilEPcjS0_j+0x5a>
 15c:	21 96       	adiw	r28, 0x01	; 1
 15e:	c8 15       	cp	r28, r8
 160:	d9 05       	cpc	r29, r9
 162:	00 f4       	brcc	.+0      	; 0x164 <_ZN6Stream9findUntilEPcjS0_j+0x62>
 164:	01 15       	cp	r16, r1
 166:	11 05       	cpc	r17, r1
 168:	01 f0       	breq	.+0      	; 0x16a <_ZN6Stream9findUntilEPcjS0_j+0x68>
 16a:	f3 01       	movw	r30, r6
 16c:	ee 0d       	add	r30, r14
 16e:	ff 1d       	adc	r31, r15
 170:	20 81       	ld	r18, Z
 172:	30 e0       	ldi	r19, 0x00	; 0
 174:	82 17       	cp	r24, r18
 176:	93 07       	cpc	r25, r19
 178:	01 f4       	brne	.+0      	; 0x17a <_ZN6Stream9findUntilEPcjS0_j+0x78>
 17a:	ff ef       	ldi	r31, 0xFF	; 255
 17c:	ef 1a       	sub	r14, r31
 17e:	ff 0a       	sbc	r15, r31
 180:	e0 16       	cp	r14, r16
 182:	f1 06       	cpc	r15, r17
 184:	00 f0       	brcs	.+0      	; 0x186 <_ZN6Stream9findUntilEPcjS0_j+0x84>
 186:	00 c0       	rjmp	.+0      	; 0x188 <_ZN6Stream9findUntilEPcjS0_j+0x86>
 188:	e1 2c       	mov	r14, r1
 18a:	f1 2c       	mov	r15, r1
 18c:	c5 01       	movw	r24, r10
 18e:	0e 94 00 00 	call	0	; 0x0 <_ZN6Stream9timedReadEv>
 192:	18 16       	cp	r1, r24
 194:	19 06       	cpc	r1, r25
 196:	04 f0       	brlt	.+0      	; 0x198 <_ZN6Stream9findUntilEPcjS0_j+0x96>
 198:	80 e0       	ldi	r24, 0x00	; 0
 19a:	00 c0       	rjmp	.+0      	; 0x19c <_ZN6Stream9findUntilEPcjS0_j+0x9a>
 19c:	81 e0       	ldi	r24, 0x01	; 1
 19e:	df 91       	pop	r29
 1a0:	cf 91       	pop	r28
 1a2:	1f 91       	pop	r17
 1a4:	0f 91       	pop	r16
 1a6:	ff 90       	pop	r15
 1a8:	ef 90       	pop	r14
 1aa:	df 90       	pop	r13
 1ac:	cf 90       	pop	r12
 1ae:	bf 90       	pop	r11
 1b0:	af 90       	pop	r10
 1b2:	9f 90       	pop	r9
 1b4:	8f 90       	pop	r8
 1b6:	7f 90       	pop	r7
 1b8:	6f 90       	pop	r6
 1ba:	08 95       	ret

000001bc <_ZN6Stream9findUntilEPcS0_>:
 1bc:	0f 93       	push	r16
 1be:	1f 93       	push	r17
 1c0:	9a 01       	movw	r18, r20
 1c2:	da 01       	movw	r26, r20
 1c4:	0d 90       	ld	r0, X+
 1c6:	00 20       	and	r0, r0
 1c8:	01 f4       	brne	.+0      	; 0x1ca <_ZN6Stream9findUntilEPcS0_+0xe>
 1ca:	8d 01       	movw	r16, r26
 1cc:	01 50       	subi	r16, 0x01	; 1
 1ce:	11 09       	sbc	r17, r1
 1d0:	04 1b       	sub	r16, r20
 1d2:	15 0b       	sbc	r17, r21
 1d4:	fb 01       	movw	r30, r22
 1d6:	01 90       	ld	r0, Z+
 1d8:	00 20       	and	r0, r0
 1da:	01 f4       	brne	.+0      	; 0x1dc <_ZN6Stream9findUntilEPcS0_+0x20>
 1dc:	af 01       	movw	r20, r30
 1de:	41 50       	subi	r20, 0x01	; 1
 1e0:	51 09       	sbc	r21, r1
 1e2:	46 1b       	sub	r20, r22
 1e4:	57 0b       	sbc	r21, r23
 1e6:	0e 94 00 00 	call	0	; 0x0 <_ZN6Stream9timedReadEv>
 1ea:	1f 91       	pop	r17
 1ec:	0f 91       	pop	r16
 1ee:	08 95       	ret

000001f0 <_ZN6Stream4findEPc>:
 1f0:	40 e0       	ldi	r20, 0x00	; 0
 1f2:	50 e0       	ldi	r21, 0x00	; 0
 1f4:	0c 94 00 00 	jmp	0	; 0x0 <_ZN6Stream9timedReadEv>

000001f8 <_ZN6Stream4findEPcj>:
 1f8:	0f 93       	push	r16
 1fa:	1f 93       	push	r17
 1fc:	00 e0       	ldi	r16, 0x00	; 0
 1fe:	10 e0       	ldi	r17, 0x00	; 0
 200:	20 e0       	ldi	r18, 0x00	; 0
 202:	30 e0       	ldi	r19, 0x00	; 0
 204:	0e 94 00 00 	call	0	; 0x0 <_ZN6Stream9timedReadEv>
 208:	1f 91       	pop	r17
 20a:	0f 91       	pop	r16
 20c:	08 95       	ret

0000020e <_ZN6Stream8parseIntEc>:
 20e:	cf 92       	push	r12
 210:	df 92       	push	r13
 212:	ff 92       	push	r15
 214:	0f 93       	push	r16
 216:	1f 93       	push	r17
 218:	cf 93       	push	r28
 21a:	df 93       	push	r29
 21c:	00 d0       	rcall	.+0      	; 0x21e <_ZN6Stream8parseIntEc+0x10>
 21e:	00 d0       	rcall	.+0      	; 0x220 <_ZN6Stream8parseIntEc+0x12>
 220:	cd b7       	in	r28, 0x3d	; 61
 222:	de b7       	in	r29, 0x3e	; 62
 224:	6c 01       	movw	r12, r24
 226:	06 2f       	mov	r16, r22
 228:	0e 94 00 00 	call	0	; 0x0 <_ZN6Stream9timedReadEv>
 22c:	fc 01       	movw	r30, r24
 22e:	20 e0       	ldi	r18, 0x00	; 0
 230:	30 e0       	ldi	r19, 0x00	; 0
 232:	a9 01       	movw	r20, r18
 234:	97 fd       	sbrc	r25, 7
 236:	00 c0       	rjmp	.+0      	; 0x238 <_ZN6Stream8parseIntEc+0x2a>
 238:	f1 2c       	mov	r15, r1
 23a:	10 e0       	ldi	r17, 0x00	; 0
 23c:	e0 17       	cp	r30, r16
 23e:	f1 07       	cpc	r31, r17
 240:	01 f0       	breq	.+0      	; 0x242 <_ZN6Stream8parseIntEc+0x34>
 242:	ed 32       	cpi	r30, 0x2D	; 45
 244:	f1 05       	cpc	r31, r1
 246:	01 f0       	breq	.+0      	; 0x248 <_ZN6Stream8parseIntEc+0x3a>
 248:	cf 01       	movw	r24, r30
 24a:	c0 97       	sbiw	r24, 0x30	; 48
 24c:	0a 97       	sbiw	r24, 0x0a	; 10
 24e:	00 f4       	brcc	.+0      	; 0x250 <_ZN6Stream8parseIntEc+0x42>
 250:	aa e0       	ldi	r26, 0x0A	; 10
 252:	b0 e0       	ldi	r27, 0x00	; 0
 254:	0e 94 00 00 	call	0	; 0x0 <_ZN6Stream9timedReadEv>
 258:	9b 01       	movw	r18, r22
 25a:	ac 01       	movw	r20, r24
 25c:	cf 01       	movw	r24, r30
 25e:	aa 27       	eor	r26, r26
 260:	97 fd       	sbrc	r25, 7
 262:	a0 95       	com	r26
 264:	ba 2f       	mov	r27, r26
 266:	28 0f       	add	r18, r24
 268:	39 1f       	adc	r19, r25
 26a:	4a 1f       	adc	r20, r26
 26c:	5b 1f       	adc	r21, r27
 26e:	20 53       	subi	r18, 0x30	; 48
 270:	31 09       	sbc	r19, r1
 272:	41 09       	sbc	r20, r1
 274:	51 09       	sbc	r21, r1
 276:	00 c0       	rjmp	.+0      	; 0x278 <_ZN6Stream8parseIntEc+0x6a>
 278:	ff 24       	eor	r15, r15
 27a:	f3 94       	inc	r15
 27c:	d6 01       	movw	r26, r12
 27e:	ed 91       	ld	r30, X+
 280:	fc 91       	ld	r31, X
 282:	06 80       	ldd	r0, Z+6	; 0x06
 284:	f7 81       	ldd	r31, Z+7	; 0x07
 286:	e0 2d       	mov	r30, r0
 288:	c6 01       	movw	r24, r12
 28a:	29 83       	std	Y+1, r18	; 0x01
 28c:	3a 83       	std	Y+2, r19	; 0x02
 28e:	4b 83       	std	Y+3, r20	; 0x03
 290:	5c 83       	std	Y+4, r21	; 0x04
 292:	09 95       	icall
 294:	c6 01       	movw	r24, r12
 296:	0e 94 00 00 	call	0	; 0x0 <_ZN6Stream9timedReadEv>
 29a:	fc 01       	movw	r30, r24
 29c:	c0 97       	sbiw	r24, 0x30	; 48
 29e:	29 81       	ldd	r18, Y+1	; 0x01
 2a0:	3a 81       	ldd	r19, Y+2	; 0x02
 2a2:	4b 81       	ldd	r20, Y+3	; 0x03
 2a4:	5c 81       	ldd	r21, Y+4	; 0x04
 2a6:	0a 97       	sbiw	r24, 0x0a	; 10
 2a8:	00 f0       	brcs	.+0      	; 0x2aa <_ZN6Stream8parseIntEc+0x9c>
 2aa:	e0 17       	cp	r30, r16
 2ac:	f1 07       	cpc	r31, r17
 2ae:	01 f0       	breq	.+0      	; 0x2b0 <_ZN6Stream8parseIntEc+0xa2>
 2b0:	ff 20       	and	r15, r15
 2b2:	01 f0       	breq	.+0      	; 0x2b4 <_ZN6Stream8parseIntEc+0xa6>
 2b4:	50 95       	com	r21
 2b6:	40 95       	com	r20
 2b8:	30 95       	com	r19
 2ba:	21 95       	neg	r18
 2bc:	3f 4f       	sbci	r19, 0xFF	; 255
 2be:	4f 4f       	sbci	r20, 0xFF	; 255
 2c0:	5f 4f       	sbci	r21, 0xFF	; 255
 2c2:	b9 01       	movw	r22, r18
 2c4:	ca 01       	movw	r24, r20
 2c6:	0f 90       	pop	r0
 2c8:	0f 90       	pop	r0
 2ca:	0f 90       	pop	r0
 2cc:	0f 90       	pop	r0
 2ce:	df 91       	pop	r29
 2d0:	cf 91       	pop	r28
 2d2:	1f 91       	pop	r17
 2d4:	0f 91       	pop	r16
 2d6:	ff 90       	pop	r15
 2d8:	df 90       	pop	r13
 2da:	cf 90       	pop	r12
 2dc:	08 95       	ret

000002de <_ZN6Stream8parseIntEv>:
 2de:	61 e0       	ldi	r22, 0x01	; 1
 2e0:	0c 94 00 00 	jmp	0	; 0x0 <_ZN6Stream9timedReadEv>

000002e4 <_ZN6Stream10parseFloatEc>:
 2e4:	7f 92       	push	r7
 2e6:	8f 92       	push	r8
 2e8:	9f 92       	push	r9
 2ea:	af 92       	push	r10
 2ec:	bf 92       	push	r11
 2ee:	cf 92       	push	r12
 2f0:	df 92       	push	r13
 2f2:	ef 92       	push	r14
 2f4:	ff 92       	push	r15
 2f6:	0f 93       	push	r16
 2f8:	1f 93       	push	r17
 2fa:	cf 93       	push	r28
 2fc:	df 93       	push	r29
 2fe:	ec 01       	movw	r28, r24
 300:	86 2e       	mov	r8, r22
 302:	0e 94 00 00 	call	0	; 0x0 <_ZN6Stream9timedReadEv>
 306:	e8 2f       	mov	r30, r24
 308:	a1 2c       	mov	r10, r1
 30a:	b1 2c       	mov	r11, r1
 30c:	00 e8       	ldi	r16, 0x80	; 128
 30e:	1f e3       	ldi	r17, 0x3F	; 63
 310:	c1 2c       	mov	r12, r1
 312:	d1 2c       	mov	r13, r1
 314:	76 01       	movw	r14, r12
 316:	71 2c       	mov	r7, r1
 318:	91 2c       	mov	r9, r1
 31a:	e8 15       	cp	r30, r8
 31c:	01 f0       	breq	.+0      	; 0x31e <_ZN6Stream10parseFloatEc+0x3a>
 31e:	ed 32       	cpi	r30, 0x2D	; 45
 320:	01 f0       	breq	.+0      	; 0x322 <_ZN6Stream10parseFloatEc+0x3e>
 322:	ee 32       	cpi	r30, 0x2E	; 46
 324:	01 f0       	breq	.+0      	; 0x326 <_ZN6Stream10parseFloatEc+0x42>
 326:	8e 2f       	mov	r24, r30
 328:	80 53       	subi	r24, 0x30	; 48
 32a:	8a 30       	cpi	r24, 0x0A	; 10
 32c:	00 f4       	brcc	.+0      	; 0x32e <_ZN6Stream10parseFloatEc+0x4a>
 32e:	aa e0       	ldi	r26, 0x0A	; 10
 330:	b0 e0       	ldi	r27, 0x00	; 0
 332:	a7 01       	movw	r20, r14
 334:	96 01       	movw	r18, r12
 336:	0e 94 00 00 	call	0	; 0x0 <_ZN6Stream9timedReadEv>
 33a:	6b 01       	movw	r12, r22
 33c:	7c 01       	movw	r14, r24
 33e:	ce 0e       	add	r12, r30
 340:	d1 1c       	adc	r13, r1
 342:	e1 1c       	adc	r14, r1
 344:	f1 1c       	adc	r15, r1
 346:	80 e3       	ldi	r24, 0x30	; 48
 348:	c8 1a       	sub	r12, r24
 34a:	d1 08       	sbc	r13, r1
 34c:	e1 08       	sbc	r14, r1
 34e:	f1 08       	sbc	r15, r1
 350:	77 20       	and	r7, r7
 352:	01 f0       	breq	.+0      	; 0x354 <_ZN6Stream10parseFloatEc+0x70>
 354:	2d ec       	ldi	r18, 0xCD	; 205
 356:	3c ec       	ldi	r19, 0xCC	; 204
 358:	4c ec       	ldi	r20, 0xCC	; 204
 35a:	5d e3       	ldi	r21, 0x3D	; 61
 35c:	6a 2d       	mov	r22, r10
 35e:	7b 2d       	mov	r23, r11
 360:	80 2f       	mov	r24, r16
 362:	91 2f       	mov	r25, r17
 364:	0e 94 00 00 	call	0	; 0x0 <_ZN6Stream9timedReadEv>
 368:	5b 01       	movw	r10, r22
 36a:	8c 01       	movw	r16, r24
 36c:	00 c0       	rjmp	.+0      	; 0x36e <_ZN6Stream10parseFloatEc+0x8a>
 36e:	99 24       	eor	r9, r9
 370:	93 94       	inc	r9
 372:	00 c0       	rjmp	.+0      	; 0x374 <_ZN6Stream10parseFloatEc+0x90>
 374:	77 24       	eor	r7, r7
 376:	73 94       	inc	r7
 378:	e8 81       	ld	r30, Y
 37a:	f9 81       	ldd	r31, Y+1	; 0x01
 37c:	06 80       	ldd	r0, Z+6	; 0x06
 37e:	f7 81       	ldd	r31, Z+7	; 0x07
 380:	e0 2d       	mov	r30, r0
 382:	ce 01       	movw	r24, r28
 384:	09 95       	icall
 386:	ce 01       	movw	r24, r28
 388:	0e 94 00 00 	call	0	; 0x0 <_ZN6Stream9timedReadEv>
 38c:	e8 2f       	mov	r30, r24
 38e:	98 2f       	mov	r25, r24
 390:	90 53       	subi	r25, 0x30	; 48
 392:	9a 30       	cpi	r25, 0x0A	; 10
 394:	00 f0       	brcs	.+0      	; 0x396 <_ZN6Stream10parseFloatEc+0xb2>
 396:	8e 32       	cpi	r24, 0x2E	; 46
 398:	01 f4       	brne	.+0      	; 0x39a <_ZN6Stream10parseFloatEc+0xb6>
 39a:	00 c0       	rjmp	.+0      	; 0x39c <_ZN6Stream10parseFloatEc+0xb8>
 39c:	88 15       	cp	r24, r8
 39e:	01 f4       	brne	.+0      	; 0x3a0 <_ZN6Stream10parseFloatEc+0xbc>
 3a0:	00 c0       	rjmp	.+0      	; 0x3a2 <_ZN6Stream10parseFloatEc+0xbe>
 3a2:	99 20       	and	r9, r9
 3a4:	01 f0       	breq	.+0      	; 0x3a6 <_ZN6Stream10parseFloatEc+0xc2>
 3a6:	f0 94       	com	r15
 3a8:	e0 94       	com	r14
 3aa:	d0 94       	com	r13
 3ac:	c0 94       	com	r12
 3ae:	c1 1c       	adc	r12, r1
 3b0:	d1 1c       	adc	r13, r1
 3b2:	e1 1c       	adc	r14, r1
 3b4:	f1 1c       	adc	r15, r1
 3b6:	c7 01       	movw	r24, r14
 3b8:	b6 01       	movw	r22, r12
 3ba:	77 20       	and	r7, r7
 3bc:	01 f0       	breq	.+0      	; 0x3be <_ZN6Stream10parseFloatEc+0xda>
 3be:	0e 94 00 00 	call	0	; 0x0 <_ZN6Stream9timedReadEv>
 3c2:	2a 2d       	mov	r18, r10
 3c4:	3b 2d       	mov	r19, r11
 3c6:	40 2f       	mov	r20, r16
 3c8:	51 2f       	mov	r21, r17
 3ca:	0e 94 00 00 	call	0	; 0x0 <_ZN6Stream9timedReadEv>
 3ce:	00 c0       	rjmp	.+0      	; 0x3d0 <_ZN6Stream10parseFloatEc+0xec>
 3d0:	0e 94 00 00 	call	0	; 0x0 <_ZN6Stream9timedReadEv>
 3d4:	df 91       	pop	r29
 3d6:	cf 91       	pop	r28
 3d8:	1f 91       	pop	r17
 3da:	0f 91       	pop	r16
 3dc:	ff 90       	pop	r15
 3de:	ef 90       	pop	r14
 3e0:	df 90       	pop	r13
 3e2:	cf 90       	pop	r12
 3e4:	bf 90       	pop	r11
 3e6:	af 90       	pop	r10
 3e8:	9f 90       	pop	r9
 3ea:	8f 90       	pop	r8
 3ec:	7f 90       	pop	r7
 3ee:	08 95       	ret

000003f0 <_ZN6Stream10parseFloatEv>:
 3f0:	61 e0       	ldi	r22, 0x01	; 1
 3f2:	0c 94 00 00 	jmp	0	; 0x0 <_ZN6Stream9timedReadEv>

000003f6 <_ZN6Stream9readBytesEPcj>:
 3f6:	cf 92       	push	r12
 3f8:	df 92       	push	r13
 3fa:	ef 92       	push	r14
 3fc:	ff 92       	push	r15
 3fe:	0f 93       	push	r16
 400:	1f 93       	push	r17
 402:	cf 93       	push	r28
 404:	df 93       	push	r29
 406:	7c 01       	movw	r14, r24
 408:	8b 01       	movw	r16, r22
 40a:	6a 01       	movw	r12, r20
 40c:	c0 e0       	ldi	r28, 0x00	; 0
 40e:	d0 e0       	ldi	r29, 0x00	; 0
 410:	00 c0       	rjmp	.+0      	; 0x412 <_ZN6Stream9readBytesEPcj+0x1c>
 412:	c7 01       	movw	r24, r14
 414:	0e 94 00 00 	call	0	; 0x0 <_ZN6Stream9timedReadEv>
 418:	97 fd       	sbrc	r25, 7
 41a:	00 c0       	rjmp	.+0      	; 0x41c <_ZN6Stream9readBytesEPcj+0x26>
 41c:	f8 01       	movw	r30, r16
 41e:	81 93       	st	Z+, r24
 420:	8f 01       	movw	r16, r30
 422:	21 96       	adiw	r28, 0x01	; 1
 424:	cc 15       	cp	r28, r12
 426:	dd 05       	cpc	r29, r13
 428:	01 f4       	brne	.+0      	; 0x42a <_ZN6Stream9readBytesEPcj+0x34>
 42a:	ce 01       	movw	r24, r28
 42c:	df 91       	pop	r29
 42e:	cf 91       	pop	r28
 430:	1f 91       	pop	r17
 432:	0f 91       	pop	r16
 434:	ff 90       	pop	r15
 436:	ef 90       	pop	r14
 438:	df 90       	pop	r13
 43a:	cf 90       	pop	r12
 43c:	08 95       	ret

0000043e <_ZN6Stream14readBytesUntilEcPcj>:
 43e:	af 92       	push	r10
 440:	bf 92       	push	r11
 442:	cf 92       	push	r12
 444:	df 92       	push	r13
 446:	ef 92       	push	r14
 448:	ff 92       	push	r15
 44a:	0f 93       	push	r16
 44c:	1f 93       	push	r17
 44e:	cf 93       	push	r28
 450:	df 93       	push	r29
 452:	6c 01       	movw	r12, r24
 454:	8a 01       	movw	r16, r20
 456:	79 01       	movw	r14, r18
 458:	c0 e0       	ldi	r28, 0x00	; 0
 45a:	d0 e0       	ldi	r29, 0x00	; 0
 45c:	21 15       	cp	r18, r1
 45e:	31 05       	cpc	r19, r1
 460:	01 f0       	breq	.+0      	; 0x462 <_ZN6Stream14readBytesUntilEcPcj+0x24>
 462:	a6 2e       	mov	r10, r22
 464:	b1 2c       	mov	r11, r1
 466:	c6 01       	movw	r24, r12
 468:	0e 94 00 00 	call	0	; 0x0 <_ZN6Stream9timedReadEv>
 46c:	97 fd       	sbrc	r25, 7
 46e:	00 c0       	rjmp	.+0      	; 0x470 <_ZN6Stream14readBytesUntilEcPcj+0x32>
 470:	8a 15       	cp	r24, r10
 472:	9b 05       	cpc	r25, r11
 474:	01 f0       	breq	.+0      	; 0x476 <_ZN6Stream14readBytesUntilEcPcj+0x38>
 476:	f8 01       	movw	r30, r16
 478:	81 93       	st	Z+, r24
 47a:	8f 01       	movw	r16, r30
 47c:	21 96       	adiw	r28, 0x01	; 1
 47e:	ce 15       	cp	r28, r14
 480:	df 05       	cpc	r29, r15
 482:	01 f4       	brne	.+0      	; 0x484 <_ZN6Stream14readBytesUntilEcPcj+0x46>
 484:	ce 01       	movw	r24, r28
 486:	df 91       	pop	r29
 488:	cf 91       	pop	r28
 48a:	1f 91       	pop	r17
 48c:	0f 91       	pop	r16
 48e:	ff 90       	pop	r15
 490:	ef 90       	pop	r14
 492:	df 90       	pop	r13
 494:	cf 90       	pop	r12
 496:	bf 90       	pop	r11
 498:	af 90       	pop	r10
 49a:	08 95       	ret

0000049c <_ZN6Stream10readStringEv>:
 49c:	0f 93       	push	r16
 49e:	1f 93       	push	r17
 4a0:	cf 93       	push	r28
 4a2:	df 93       	push	r29
 4a4:	ec 01       	movw	r28, r24
 4a6:	8b 01       	movw	r16, r22
 4a8:	60 e0       	ldi	r22, 0x00	; 0
 4aa:	70 e0       	ldi	r23, 0x00	; 0
 4ac:	0e 94 00 00 	call	0	; 0x0 <_ZN6Stream9timedReadEv>
 4b0:	00 c0       	rjmp	.+0      	; 0x4b2 <_ZN6Stream10readStringEv+0x16>
 4b2:	68 2f       	mov	r22, r24
 4b4:	ce 01       	movw	r24, r28
 4b6:	0e 94 00 00 	call	0	; 0x0 <_ZN6Stream9timedReadEv>
 4ba:	c8 01       	movw	r24, r16
 4bc:	0e 94 00 00 	call	0	; 0x0 <_ZN6Stream9timedReadEv>
 4c0:	97 ff       	sbrs	r25, 7
 4c2:	00 c0       	rjmp	.+0      	; 0x4c4 <_ZN6Stream10readStringEv+0x28>
 4c4:	ce 01       	movw	r24, r28
 4c6:	df 91       	pop	r29
 4c8:	cf 91       	pop	r28
 4ca:	1f 91       	pop	r17
 4cc:	0f 91       	pop	r16
 4ce:	08 95       	ret

000004d0 <_ZN6Stream15readStringUntilEc>:
 4d0:	ef 92       	push	r14
 4d2:	ff 92       	push	r15
 4d4:	0f 93       	push	r16
 4d6:	1f 93       	push	r17
 4d8:	cf 93       	push	r28
 4da:	df 93       	push	r29
 4dc:	ec 01       	movw	r28, r24
 4de:	8b 01       	movw	r16, r22
 4e0:	e4 2e       	mov	r14, r20
 4e2:	60 e0       	ldi	r22, 0x00	; 0
 4e4:	70 e0       	ldi	r23, 0x00	; 0
 4e6:	0e 94 00 00 	call	0	; 0x0 <_ZN6Stream9timedReadEv>
 4ea:	c8 01       	movw	r24, r16
 4ec:	0e 94 00 00 	call	0	; 0x0 <_ZN6Stream9timedReadEv>
 4f0:	f1 2c       	mov	r15, r1
 4f2:	97 fd       	sbrc	r25, 7
 4f4:	00 c0       	rjmp	.+0      	; 0x4f6 <_ZN6Stream15readStringUntilEc+0x26>
 4f6:	8e 15       	cp	r24, r14
 4f8:	9f 05       	cpc	r25, r15
 4fa:	01 f0       	breq	.+0      	; 0x4fc <_ZN6Stream15readStringUntilEc+0x2c>
 4fc:	68 2f       	mov	r22, r24
 4fe:	ce 01       	movw	r24, r28
 500:	0e 94 00 00 	call	0	; 0x0 <_ZN6Stream9timedReadEv>
 504:	c8 01       	movw	r24, r16
 506:	0e 94 00 00 	call	0	; 0x0 <_ZN6Stream9timedReadEv>
 50a:	00 c0       	rjmp	.+0      	; 0x50c <_ZN6Stream15readStringUntilEc+0x3c>
 50c:	ce 01       	movw	r24, r28
 50e:	df 91       	pop	r29
 510:	cf 91       	pop	r28
 512:	1f 91       	pop	r17
 514:	0f 91       	pop	r16
 516:	ff 90       	pop	r15
 518:	ef 90       	pop	r14
 51a:	08 95       	ret

Tone.o:     file format elf32-avr

Sections:
Idx Name          Size      VMA       LMA       File off  Algn
  0 .text         00000520  00000000  00000000  00000034  2**0
                  CONTENTS, ALLOC, LOAD, RELOC, READONLY, CODE
  1 .data         00000001  00000000  00000000  00000554  2**0
                  CONTENTS, ALLOC, LOAD, DATA
  2 .bss          00000015  00000000  00000000  00000555  2**0
                  ALLOC
  3 .progmem.data 00000001  00000000  00000000  00000555  2**0
                  CONTENTS, ALLOC, LOAD, READONLY, DATA
  4 .comment      00000012  00000000  00000000  00000556  2**0
                  CONTENTS, READONLY

Disassembly of section .text:

00000000 <_Z4tonehjm>:
   0:	3f 92       	push	r3
   2:	4f 92       	push	r4
   4:	5f 92       	push	r5
   6:	6f 92       	push	r6
   8:	7f 92       	push	r7
   a:	8f 92       	push	r8
   c:	9f 92       	push	r9
   e:	af 92       	push	r10
  10:	bf 92       	push	r11
  12:	cf 92       	push	r12
  14:	df 92       	push	r13
  16:	ef 92       	push	r14
  18:	ff 92       	push	r15
  1a:	0f 93       	push	r16
  1c:	1f 93       	push	r17
  1e:	cf 93       	push	r28
  20:	df 93       	push	r29
  22:	00 d0       	rcall	.+0      	; 0x24 <_Z4tonehjm+0x24>
  24:	00 d0       	rcall	.+0      	; 0x26 <_Z4tonehjm+0x26>
  26:	cd b7       	in	r28, 0x3d	; 61
  28:	de b7       	in	r29, 0x3e	; 62
  2a:	8b 01       	movw	r16, r22
  2c:	29 01       	movw	r4, r18
  2e:	3a 01       	movw	r6, r20
  30:	90 91 00 00 	lds	r25, 0x0000
  34:	98 17       	cp	r25, r24
  36:	01 f0       	breq	.+0      	; 0x38 <_Z4tonehjm+0x38>
  38:	9f 3f       	cpi	r25, 0xFF	; 255
  3a:	01 f0       	breq	.+0      	; 0x3c <_Z4tonehjm+0x3c>
  3c:	00 c0       	rjmp	.+0      	; 0x3e <_Z4tonehjm+0x3e>
  3e:	00 c0       	rjmp	.+0      	; 0x40 <_Z4tonehjm+0x40>
  40:	e0 e0       	ldi	r30, 0x00	; 0
  42:	f0 e0       	ldi	r31, 0x00	; 0
  44:	34 90       	lpm	r3, Z
  46:	00 c0       	rjmp	.+0      	; 0x48 <_Z4tonehjm+0x48>
  48:	80 93 00 00 	sts	0x0000, r24
  4c:	e0 e0       	ldi	r30, 0x00	; 0
  4e:	f0 e0       	ldi	r31, 0x00	; 0
  50:	34 90       	lpm	r3, Z
  52:	9f ef       	ldi	r25, 0xFF	; 255
  54:	39 16       	cp	r3, r25
  56:	01 f4       	brne	.+0      	; 0x58 <_Z4tonehjm+0x58>
  58:	00 c0       	rjmp	.+0      	; 0x5a <_Z4tonehjm+0x5a>
  5a:	e1 e0       	ldi	r30, 0x01	; 1
  5c:	3e 16       	cp	r3, r30
  5e:	01 f0       	breq	.+0      	; 0x60 <_Z4tonehjm+0x60>
  60:	f2 e0       	ldi	r31, 0x02	; 2
  62:	3f 16       	cp	r3, r31
  64:	01 f4       	brne	.+0      	; 0x66 <_Z4tonehjm+0x66>
  66:	00 c0       	rjmp	.+0      	; 0x68 <_Z4tonehjm+0x68>
  68:	31 10       	cpse	r3, r1
  6a:	00 c0       	rjmp	.+0      	; 0x6c <_Z4tonehjm+0x6c>
  6c:	14 bc       	out	0x24, r1	; 36
  6e:	15 bc       	out	0x25, r1	; 37
  70:	94 b5       	in	r25, 0x24	; 36
  72:	92 60       	ori	r25, 0x02	; 2
  74:	94 bd       	out	0x24, r25	; 36
  76:	95 b5       	in	r25, 0x25	; 37
  78:	91 60       	ori	r25, 0x01	; 1
  7a:	95 bd       	out	0x25, r25	; 37
  7c:	28 2f       	mov	r18, r24
  7e:	30 e0       	ldi	r19, 0x00	; 0
  80:	f9 01       	movw	r30, r18
  82:	e0 50       	subi	r30, 0x00	; 0
  84:	f0 40       	sbci	r31, 0x00	; 0
  86:	e4 91       	lpm	r30, Z
  88:	f0 e0       	ldi	r31, 0x00	; 0
  8a:	ee 0f       	add	r30, r30
  8c:	ff 1f       	adc	r31, r31
  8e:	e0 50       	subi	r30, 0x00	; 0
  90:	f0 40       	sbci	r31, 0x00	; 0
  92:	45 91       	lpm	r20, Z+
  94:	54 91       	lpm	r21, Z
  96:	40 93 00 00 	sts	0x0000, r20
  9a:	50 93 00 00 	sts	0x0000, r21
  9e:	f9 01       	movw	r30, r18
  a0:	e0 50       	subi	r30, 0x00	; 0
  a2:	f0 40       	sbci	r31, 0x00	; 0
  a4:	24 91       	lpm	r18, Z
  a6:	20 93 00 00 	sts	0x0000, r18
  aa:	00 c0       	rjmp	.+0      	; 0xac <_Z4tonehjm+0xac>
  ac:	10 92 80 00 	sts	0x0080, r1
  b0:	10 92 81 00 	sts	0x0081, r1
  b4:	90 91 81 00 	lds	r25, 0x0081
  b8:	98 60       	ori	r25, 0x08	; 8
  ba:	90 93 81 00 	sts	0x0081, r25
  be:	90 91 81 00 	lds	r25, 0x0081
  c2:	91 60       	ori	r25, 0x01	; 1
  c4:	90 93 81 00 	sts	0x0081, r25
  c8:	28 2f       	mov	r18, r24
  ca:	30 e0       	ldi	r19, 0x00	; 0
  cc:	f9 01       	movw	r30, r18
  ce:	e0 50       	subi	r30, 0x00	; 0
  d0:	f0 40       	sbci	r31, 0x00	; 0
  d2:	e4 91       	lpm	r30, Z
  d4:	f0 e0       	ldi	r31, 0x00	; 0
  d6:	ee 0f       	add	r30, r30
  d8:	ff 1f       	adc	r31, r31
  da:	e0 50       	subi	r30, 0x00	; 0
  dc:	f0 40       	sbci	r31, 0x00	; 0
  de:	45 91       	lpm	r20, Z+
  e0:	54 91       	lpm	r21, Z
  e2:	40 93 00 00 	sts	0x0000, r20
  e6:	50 93 00 00 	sts	0x0000, r21
  ea:	f9 01       	movw	r30, r18
  ec:	e0 50       	subi	r30, 0x00	; 0
  ee:	f0 40       	sbci	r31, 0x00	; 0
  f0:	24 91       	lpm	r18, Z
  f2:	20 93 00 00 	sts	0x0000, r18
  f6:	00 c0       	rjmp	.+0      	; 0xf8 <_Z4tonehjm+0xf8>
  f8:	10 92 b0 00 	sts	0x00B0, r1
  fc:	10 92 b1 00 	sts	0x00B1, r1
 100:	90 91 b0 00 	lds	r25, 0x00B0
 104:	92 60       	ori	r25, 0x02	; 2
 106:	90 93 b0 00 	sts	0x00B0, r25
 10a:	90 91 b1 00 	lds	r25, 0x00B1
 10e:	91 60       	ori	r25, 0x01	; 1
 110:	90 93 b1 00 	sts	0x00B1, r25
 114:	28 2f       	mov	r18, r24
 116:	30 e0       	ldi	r19, 0x00	; 0
 118:	f9 01       	movw	r30, r18
 11a:	e0 50       	subi	r30, 0x00	; 0
 11c:	f0 40       	sbci	r31, 0x00	; 0
 11e:	e4 91       	lpm	r30, Z
 120:	f0 e0       	ldi	r31, 0x00	; 0
 122:	ee 0f       	add	r30, r30
 124:	ff 1f       	adc	r31, r31
 126:	e0 50       	subi	r30, 0x00	; 0
 128:	f0 40       	sbci	r31, 0x00	; 0
 12a:	45 91       	lpm	r20, Z+
 12c:	54 91       	lpm	r21, Z
 12e:	40 93 00 00 	sts	0x0000, r20
 132:	50 93 00 00 	sts	0x0000, r21
 136:	f9 01       	movw	r30, r18
 138:	e0 50       	subi	r30, 0x00	; 0
 13a:	f0 40       	sbci	r31, 0x00	; 0
 13c:	24 91       	lpm	r18, Z
 13e:	20 93 00 00 	sts	0x0000, r18
 142:	00 c0       	rjmp	.+0      	; 0x144 <_Z4tonehjm+0x144>
 144:	37 fc       	sbrc	r3, 7
 146:	00 c0       	rjmp	.+0      	; 0x148 <_Z4tonehjm+0x148>
 148:	61 e0       	ldi	r22, 0x01	; 1
 14a:	0e 94 00 00 	call	0	; 0x0 <_Z4tonehjm>
 14e:	48 01       	movw	r8, r16
 150:	a1 2c       	mov	r10, r1
 152:	b1 2c       	mov	r11, r1
 154:	60 e0       	ldi	r22, 0x00	; 0
 156:	72 e1       	ldi	r23, 0x12	; 18
 158:	8a e7       	ldi	r24, 0x7A	; 122
 15a:	90 e0       	ldi	r25, 0x00	; 0
 15c:	a5 01       	movw	r20, r10
 15e:	94 01       	movw	r18, r8
 160:	0e 94 00 00 	call	0	; 0x0 <_Z4tonehjm>
 164:	33 20       	and	r3, r3
 166:	01 f0       	breq	.+0      	; 0x168 <_Z4tonehjm+0x168>
 168:	82 e0       	ldi	r24, 0x02	; 2
 16a:	38 12       	cpse	r3, r24
 16c:	00 c0       	rjmp	.+0      	; 0x16e <_Z4tonehjm+0x16e>
 16e:	29 83       	std	Y+1, r18	; 0x01
 170:	3a 83       	std	Y+2, r19	; 0x02
 172:	4b 83       	std	Y+3, r20	; 0x03
 174:	5c 83       	std	Y+4, r21	; 0x04
 176:	69 01       	movw	r12, r18
 178:	7a 01       	movw	r14, r20
 17a:	91 e0       	ldi	r25, 0x01	; 1
 17c:	c9 1a       	sub	r12, r25
 17e:	d1 08       	sbc	r13, r1
 180:	e1 08       	sbc	r14, r1
 182:	f1 08       	sbc	r15, r1
 184:	ef ef       	ldi	r30, 0xFF	; 255
 186:	ce 16       	cp	r12, r30
 188:	d1 04       	cpc	r13, r1
 18a:	e1 04       	cpc	r14, r1
 18c:	f1 04       	cpc	r15, r1
 18e:	01 f0       	breq	.+0      	; 0x190 <_Z4tonehjm+0x190>
 190:	00 f4       	brcc	.+0      	; 0x192 <_Z4tonehjm+0x192>
 192:	00 c0       	rjmp	.+0      	; 0x194 <_Z4tonehjm+0x194>
 194:	60 e4       	ldi	r22, 0x40	; 64
 196:	72 e4       	ldi	r23, 0x42	; 66
 198:	8f e0       	ldi	r24, 0x0F	; 15
 19a:	90 e0       	ldi	r25, 0x00	; 0
 19c:	a5 01       	movw	r20, r10
 19e:	94 01       	movw	r18, r8
 1a0:	0e 94 00 00 	call	0	; 0x0 <_Z4tonehjm>
 1a4:	69 01       	movw	r12, r18
 1a6:	7a 01       	movw	r14, r20
 1a8:	f1 e0       	ldi	r31, 0x01	; 1
 1aa:	cf 1a       	sub	r12, r31
 1ac:	d1 08       	sbc	r13, r1
 1ae:	e1 08       	sbc	r14, r1
 1b0:	f1 08       	sbc	r15, r1
 1b2:	82 e0       	ldi	r24, 0x02	; 2
 1b4:	38 12       	cpse	r3, r24
 1b6:	00 c0       	rjmp	.+0      	; 0x1b8 <_Z4tonehjm+0x1b8>
 1b8:	9f ef       	ldi	r25, 0xFF	; 255
 1ba:	c9 16       	cp	r12, r25
 1bc:	d1 04       	cpc	r13, r1
 1be:	e1 04       	cpc	r14, r1
 1c0:	f1 04       	cpc	r15, r1
 1c2:	01 f0       	breq	.+0      	; 0x1c4 <_Z4tonehjm+0x1c4>
 1c4:	00 f4       	brcc	.+0      	; 0x1c6 <_Z4tonehjm+0x1c6>
 1c6:	00 c0       	rjmp	.+0      	; 0x1c8 <_Z4tonehjm+0x1c8>
 1c8:	60 e9       	ldi	r22, 0x90	; 144
 1ca:	70 ed       	ldi	r23, 0xD0	; 208
 1cc:	83 e0       	ldi	r24, 0x03	; 3
 1ce:	90 e0       	ldi	r25, 0x00	; 0
 1d0:	a5 01       	movw	r20, r10
 1d2:	94 01       	movw	r18, r8
 1d4:	0e 94 00 00 	call	0	; 0x0 <_Z4tonehjm>
 1d8:	69 01       	movw	r12, r18
 1da:	7a 01       	movw	r14, r20
 1dc:	e1 e0       	ldi	r30, 0x01	; 1
 1de:	ce 1a       	sub	r12, r30
 1e0:	d1 08       	sbc	r13, r1
 1e2:	e1 08       	sbc	r14, r1
 1e4:	f1 08       	sbc	r15, r1
 1e6:	83 e0       	ldi	r24, 0x03	; 3
 1e8:	00 c0       	rjmp	.+0      	; 0x1ea <_Z4tonehjm+0x1ea>
 1ea:	82 e0       	ldi	r24, 0x02	; 2
 1ec:	ff ef       	ldi	r31, 0xFF	; 255
 1ee:	cf 16       	cp	r12, r31
 1f0:	d1 04       	cpc	r13, r1
 1f2:	e1 04       	cpc	r14, r1
 1f4:	f1 04       	cpc	r15, r1
 1f6:	01 f0       	breq	.+0      	; 0x1f8 <_Z4tonehjm+0x1f8>
 1f8:	00 f4       	brcc	.+0      	; 0x1fa <_Z4tonehjm+0x1fa>
 1fa:	00 c0       	rjmp	.+0      	; 0x1fc <_Z4tonehjm+0x1fc>
 1fc:	68 e4       	ldi	r22, 0x48	; 72
 1fe:	78 ee       	ldi	r23, 0xE8	; 232
 200:	81 e0       	ldi	r24, 0x01	; 1
 202:	90 e0       	ldi	r25, 0x00	; 0
 204:	a5 01       	movw	r20, r10
 206:	94 01       	movw	r18, r8
 208:	0e 94 00 00 	call	0	; 0x0 <_Z4tonehjm>
 20c:	69 01       	movw	r12, r18
 20e:	7a 01       	movw	r14, r20
 210:	81 e0       	ldi	r24, 0x01	; 1
 212:	c8 1a       	sub	r12, r24
 214:	d1 08       	sbc	r13, r1
 216:	e1 08       	sbc	r14, r1
 218:	f1 08       	sbc	r15, r1
 21a:	33 20       	and	r3, r3
 21c:	01 f0       	breq	.+0      	; 0x21e <_Z4tonehjm+0x21e>
 21e:	92 e0       	ldi	r25, 0x02	; 2
 220:	39 12       	cpse	r3, r25
 222:	00 c0       	rjmp	.+0      	; 0x224 <_Z4tonehjm+0x224>
 224:	ef ef       	ldi	r30, 0xFF	; 255
 226:	ce 16       	cp	r12, r30
 228:	d1 04       	cpc	r13, r1
 22a:	e1 04       	cpc	r14, r1
 22c:	f1 04       	cpc	r15, r1
 22e:	01 f0       	breq	.+0      	; 0x230 <_Z4tonehjm+0x230>
 230:	00 f4       	brcc	.+0      	; 0x232 <_Z4tonehjm+0x232>
 232:	00 c0       	rjmp	.+0      	; 0x234 <_Z4tonehjm+0x234>
 234:	64 e2       	ldi	r22, 0x24	; 36
 236:	74 ef       	ldi	r23, 0xF4	; 244
 238:	80 e0       	ldi	r24, 0x00	; 0
 23a:	90 e0       	ldi	r25, 0x00	; 0
 23c:	a5 01       	movw	r20, r10
 23e:	94 01       	movw	r18, r8
 240:	0e 94 00 00 	call	0	; 0x0 <_Z4tonehjm>
 244:	69 01       	movw	r12, r18
 246:	7a 01       	movw	r14, r20
 248:	f1 e0       	ldi	r31, 0x01	; 1
 24a:	cf 1a       	sub	r12, r31
 24c:	d1 08       	sbc	r13, r1
 24e:	e1 08       	sbc	r14, r1
 250:	f1 08       	sbc	r15, r1
 252:	85 e0       	ldi	r24, 0x05	; 5
 254:	00 c0       	rjmp	.+0      	; 0x256 <_Z4tonehjm+0x256>
 256:	83 e0       	ldi	r24, 0x03	; 3
 258:	00 c0       	rjmp	.+0      	; 0x25a <_Z4tonehjm+0x25a>
 25a:	84 e0       	ldi	r24, 0x04	; 4
 25c:	9f ef       	ldi	r25, 0xFF	; 255
 25e:	c9 16       	cp	r12, r25
 260:	d1 04       	cpc	r13, r1
 262:	e1 04       	cpc	r14, r1
 264:	f1 04       	cpc	r15, r1
 266:	01 f0       	breq	.+0      	; 0x268 <_Z4tonehjm+0x268>
 268:	00 f0       	brcs	.+0      	; 0x26a <_Z4tonehjm+0x26a>
 26a:	62 e1       	ldi	r22, 0x12	; 18
 26c:	7a e7       	ldi	r23, 0x7A	; 122
 26e:	80 e0       	ldi	r24, 0x00	; 0
 270:	90 e0       	ldi	r25, 0x00	; 0
 272:	a5 01       	movw	r20, r10
 274:	94 01       	movw	r18, r8
 276:	0e 94 00 00 	call	0	; 0x0 <_Z4tonehjm>
 27a:	69 01       	movw	r12, r18
 27c:	7a 01       	movw	r14, r20
 27e:	e1 e0       	ldi	r30, 0x01	; 1
 280:	ce 1a       	sub	r12, r30
 282:	d1 08       	sbc	r13, r1
 284:	e1 08       	sbc	r14, r1
 286:	f1 08       	sbc	r15, r1
 288:	31 10       	cpse	r3, r1
 28a:	00 c0       	rjmp	.+0      	; 0x28c <_Z4tonehjm+0x28c>
 28c:	84 e0       	ldi	r24, 0x04	; 4
 28e:	00 c0       	rjmp	.+0      	; 0x290 <_Z4tonehjm+0x290>
 290:	86 e0       	ldi	r24, 0x06	; 6
 292:	ff ef       	ldi	r31, 0xFF	; 255
 294:	cf 16       	cp	r12, r31
 296:	d1 04       	cpc	r13, r1
 298:	e1 04       	cpc	r14, r1
 29a:	f1 04       	cpc	r15, r1
 29c:	01 f0       	breq	.+0      	; 0x29e <_Z4tonehjm+0x29e>
 29e:	00 f0       	brcs	.+0      	; 0x2a0 <_Z4tonehjm+0x2a0>
 2a0:	c9 80       	ldd	r12, Y+1	; 0x01
 2a2:	da 80       	ldd	r13, Y+2	; 0x02
 2a4:	eb 80       	ldd	r14, Y+3	; 0x03
 2a6:	fc 80       	ldd	r15, Y+4	; 0x04
 2a8:	9a e0       	ldi	r25, 0x0A	; 10
 2aa:	f6 94       	lsr	r15
 2ac:	e7 94       	ror	r14
 2ae:	d7 94       	ror	r13
 2b0:	c7 94       	ror	r12
 2b2:	9a 95       	dec	r25
 2b4:	01 f4       	brne	.+0      	; 0x2b6 <_Z4tonehjm+0x2b6>
 2b6:	81 e0       	ldi	r24, 0x01	; 1
 2b8:	c8 1a       	sub	r12, r24
 2ba:	d1 08       	sbc	r13, r1
 2bc:	e1 08       	sbc	r14, r1
 2be:	f1 08       	sbc	r15, r1
 2c0:	33 20       	and	r3, r3
 2c2:	01 f0       	breq	.+0      	; 0x2c4 <_Z4tonehjm+0x2c4>
 2c4:	87 e0       	ldi	r24, 0x07	; 7
 2c6:	00 c0       	rjmp	.+0      	; 0x2c8 <_Z4tonehjm+0x2c8>
 2c8:	81 e0       	ldi	r24, 0x01	; 1
 2ca:	33 20       	and	r3, r3
 2cc:	01 f0       	breq	.+0      	; 0x2ce <_Z4tonehjm+0x2ce>
 2ce:	00 c0       	rjmp	.+0      	; 0x2d0 <_Z4tonehjm+0x2d0>
 2d0:	85 e0       	ldi	r24, 0x05	; 5
 2d2:	85 bd       	out	0x25, r24	; 37
 2d4:	00 c0       	rjmp	.+0      	; 0x2d6 <_Z4tonehjm+0x2d6>
 2d6:	80 93 b1 00 	sts	0x00B1, r24
 2da:	00 c0       	rjmp	.+0      	; 0x2dc <_Z4tonehjm+0x2dc>
 2dc:	69 01       	movw	r12, r18
 2de:	7a 01       	movw	r14, r20
 2e0:	91 e0       	ldi	r25, 0x01	; 1
 2e2:	c9 1a       	sub	r12, r25
 2e4:	d1 08       	sbc	r13, r1
 2e6:	e1 08       	sbc	r14, r1
 2e8:	f1 08       	sbc	r15, r1
 2ea:	c1 14       	cp	r12, r1
 2ec:	d1 04       	cpc	r13, r1
 2ee:	e1 e0       	ldi	r30, 0x01	; 1
 2f0:	ee 06       	cpc	r14, r30
 2f2:	f1 04       	cpc	r15, r1
 2f4:	00 f0       	brcs	.+0      	; 0x2f6 <_Z4tonehjm+0x2f6>
 2f6:	68 e4       	ldi	r22, 0x48	; 72
 2f8:	78 ee       	ldi	r23, 0xE8	; 232
 2fa:	81 e0       	ldi	r24, 0x01	; 1
 2fc:	90 e0       	ldi	r25, 0x00	; 0
 2fe:	a5 01       	movw	r20, r10
 300:	94 01       	movw	r18, r8
 302:	0e 94 00 00 	call	0	; 0x0 <_Z4tonehjm>
 306:	69 01       	movw	r12, r18
 308:	7a 01       	movw	r14, r20
 30a:	f1 e0       	ldi	r31, 0x01	; 1
 30c:	cf 1a       	sub	r12, r31
 30e:	d1 08       	sbc	r13, r1
 310:	e1 08       	sbc	r14, r1
 312:	f1 08       	sbc	r15, r1
 314:	93 e0       	ldi	r25, 0x03	; 3
 316:	00 c0       	rjmp	.+0      	; 0x318 <_Z4tonehjm+0x318>
 318:	91 e0       	ldi	r25, 0x01	; 1
 31a:	81 e0       	ldi	r24, 0x01	; 1
 31c:	38 12       	cpse	r3, r24
 31e:	00 c0       	rjmp	.+0      	; 0x320 <_Z4tonehjm+0x320>
 320:	80 91 81 00 	lds	r24, 0x0081
 324:	88 7f       	andi	r24, 0xF8	; 248
 326:	89 2b       	or	r24, r25
 328:	80 93 81 00 	sts	0x0081, r24
 32c:	41 14       	cp	r4, r1
 32e:	51 04       	cpc	r5, r1
 330:	61 04       	cpc	r6, r1
 332:	71 04       	cpc	r7, r1
 334:	01 f0       	breq	.+0      	; 0x336 <_Z4tonehjm+0x336>
 336:	d8 01       	movw	r26, r16
 338:	aa 0f       	add	r26, r26
 33a:	bb 1f       	adc	r27, r27
 33c:	a3 01       	movw	r20, r6
 33e:	92 01       	movw	r18, r4
 340:	0e 94 00 00 	call	0	; 0x0 <_Z4tonehjm>
 344:	28 ee       	ldi	r18, 0xE8	; 232
 346:	33 e0       	ldi	r19, 0x03	; 3
 348:	40 e0       	ldi	r20, 0x00	; 0
 34a:	50 e0       	ldi	r21, 0x00	; 0
 34c:	0e 94 00 00 	call	0	; 0x0 <_Z4tonehjm>
 350:	00 c0       	rjmp	.+0      	; 0x352 <_Z4tonehjm+0x352>
 352:	2f ef       	ldi	r18, 0xFF	; 255
 354:	3f ef       	ldi	r19, 0xFF	; 255
 356:	a9 01       	movw	r20, r18
 358:	91 e0       	ldi	r25, 0x01	; 1
 35a:	39 16       	cp	r3, r25
 35c:	01 f0       	breq	.+0      	; 0x35e <_Z4tonehjm+0x35e>
 35e:	e2 e0       	ldi	r30, 0x02	; 2
 360:	3e 16       	cp	r3, r30
 362:	01 f0       	breq	.+0      	; 0x364 <_Z4tonehjm+0x364>
 364:	31 10       	cpse	r3, r1
 366:	00 c0       	rjmp	.+0      	; 0x368 <_Z4tonehjm+0x368>
 368:	c7 bc       	out	0x27, r12	; 39
 36a:	20 93 00 00 	sts	0x0000, r18
 36e:	30 93 00 00 	sts	0x0000, r19
 372:	40 93 00 00 	sts	0x0000, r20
 376:	50 93 00 00 	sts	0x0000, r21
 37a:	80 91 6e 00 	lds	r24, 0x006E
 37e:	82 60       	ori	r24, 0x02	; 2
 380:	80 93 6e 00 	sts	0x006E, r24
 384:	00 c0       	rjmp	.+0      	; 0x386 <_Z4tonehjm+0x386>
 386:	d0 92 89 00 	sts	0x0089, r13
 38a:	c0 92 88 00 	sts	0x0088, r12
 38e:	20 93 00 00 	sts	0x0000, r18
 392:	30 93 00 00 	sts	0x0000, r19
 396:	40 93 00 00 	sts	0x0000, r20
 39a:	50 93 00 00 	sts	0x0000, r21
 39e:	80 91 6f 00 	lds	r24, 0x006F
 3a2:	82 60       	ori	r24, 0x02	; 2
 3a4:	80 93 6f 00 	sts	0x006F, r24
 3a8:	00 c0       	rjmp	.+0      	; 0x3aa <_Z4tonehjm+0x3aa>
 3aa:	c0 92 b3 00 	sts	0x00B3, r12
 3ae:	20 93 00 00 	sts	0x0000, r18
 3b2:	30 93 00 00 	sts	0x0000, r19
 3b6:	40 93 00 00 	sts	0x0000, r20
 3ba:	50 93 00 00 	sts	0x0000, r21
 3be:	80 91 70 00 	lds	r24, 0x0070
 3c2:	82 60       	ori	r24, 0x02	; 2
 3c4:	80 93 70 00 	sts	0x0070, r24
 3c8:	00 c0       	rjmp	.+0      	; 0x3ca <_Z4tonehjm+0x3ca>
 3ca:	82 e0       	ldi	r24, 0x02	; 2
 3cc:	00 c0       	rjmp	.+0      	; 0x3ce <_Z4tonehjm+0x3ce>
 3ce:	84 e0       	ldi	r24, 0x04	; 4
 3d0:	00 c0       	rjmp	.+0      	; 0x3d2 <_Z4tonehjm+0x3d2>
 3d2:	0f 90       	pop	r0
 3d4:	0f 90       	pop	r0
 3d6:	0f 90       	pop	r0
 3d8:	0f 90       	pop	r0
 3da:	df 91       	pop	r29
 3dc:	cf 91       	pop	r28
 3de:	1f 91       	pop	r17
 3e0:	0f 91       	pop	r16
 3e2:	ff 90       	pop	r15
 3e4:	ef 90       	pop	r14
 3e6:	df 90       	pop	r13
 3e8:	cf 90       	pop	r12
 3ea:	bf 90       	pop	r11
 3ec:	af 90       	pop	r10
 3ee:	9f 90       	pop	r9
 3f0:	8f 90       	pop	r8
 3f2:	7f 90       	pop	r7
 3f4:	6f 90       	pop	r6
 3f6:	5f 90       	pop	r5
 3f8:	4f 90       	pop	r4
 3fa:	3f 90       	pop	r3
 3fc:	08 95       	ret

000003fe <_Z12disableTimerh>:
 3fe:	81 30       	cpi	r24, 0x01	; 1
 400:	01 f0       	breq	.+0      	; 0x402 <_Z12disableTimerh+0x4>
 402:	00 f0       	brcs	.+0      	; 0x404 <_Z12disableTimerh+0x6>
 404:	82 30       	cpi	r24, 0x02	; 2
 406:	01 f4       	brne	.+0      	; 0x408 <_Z12disableTimerh+0xa>
 408:	00 c0       	rjmp	.+0      	; 0x40a <_Z12disableTimerh+0xc>
 40a:	10 92 6e 00 	sts	0x006E, r1
 40e:	08 95       	ret
 410:	80 91 6f 00 	lds	r24, 0x006F
 414:	8d 7f       	andi	r24, 0xFD	; 253
 416:	80 93 6f 00 	sts	0x006F, r24
 41a:	08 95       	ret
 41c:	80 91 70 00 	lds	r24, 0x0070
 420:	8d 7f       	andi	r24, 0xFD	; 253
 422:	80 93 70 00 	sts	0x0070, r24
 426:	81 e0       	ldi	r24, 0x01	; 1
 428:	80 93 b0 00 	sts	0x00B0, r24
 42c:	80 91 b1 00 	lds	r24, 0x00B1
 430:	88 7f       	andi	r24, 0xF8	; 248
 432:	84 60       	ori	r24, 0x04	; 4
 434:	80 93 b1 00 	sts	0x00B1, r24
 438:	10 92 b3 00 	sts	0x00B3, r1
 43c:	08 95       	ret

0000043e <_Z6noToneh>:
 43e:	cf 93       	push	r28
 440:	c8 2f       	mov	r28, r24
 442:	80 91 00 00 	lds	r24, 0x0000
 446:	8c 13       	cpse	r24, r28
 448:	00 c0       	rjmp	.+0      	; 0x44a <_Z6noToneh+0xc>
 44a:	e0 e0       	ldi	r30, 0x00	; 0
 44c:	f0 e0       	ldi	r31, 0x00	; 0
 44e:	84 91       	lpm	r24, Z
 450:	9f ef       	ldi	r25, 0xFF	; 255
 452:	90 93 00 00 	sts	0x0000, r25
 456:	00 c0       	rjmp	.+0      	; 0x458 <_Z6noToneh+0x1a>
 458:	8f ef       	ldi	r24, 0xFF	; 255
 45a:	0e 94 00 00 	call	0	; 0x0 <_Z4tonehjm>
 45e:	60 e0       	ldi	r22, 0x00	; 0
 460:	8c 2f       	mov	r24, r28
 462:	cf 91       	pop	r28
 464:	0c 94 00 00 	jmp	0	; 0x0 <_Z4tonehjm>

00000468 <__vector_7>:
 468:	1f 92       	push	r1
 46a:	0f 92       	push	r0
 46c:	0f b6       	in	r0, 0x3f	; 63
 46e:	0f 92       	push	r0
 470:	11 24       	eor	r1, r1
 472:	2f 93       	push	r18
 474:	3f 93       	push	r19
 476:	4f 93       	push	r20
 478:	5f 93       	push	r21
 47a:	6f 93       	push	r22
 47c:	7f 93       	push	r23
 47e:	8f 93       	push	r24
 480:	9f 93       	push	r25
 482:	af 93       	push	r26
 484:	bf 93       	push	r27
 486:	ef 93       	push	r30
 488:	ff 93       	push	r31
 48a:	80 91 00 00 	lds	r24, 0x0000
 48e:	90 91 00 00 	lds	r25, 0x0000
 492:	a0 91 00 00 	lds	r26, 0x0000
 496:	b0 91 00 00 	lds	r27, 0x0000
 49a:	89 2b       	or	r24, r25
 49c:	8a 2b       	or	r24, r26
 49e:	8b 2b       	or	r24, r27
 4a0:	01 f0       	breq	.+0      	; 0x4a2 <__vector_7+0x3a>
 4a2:	90 91 00 00 	lds	r25, 0x0000
 4a6:	e0 91 00 00 	lds	r30, 0x0000
 4aa:	f0 91 00 00 	lds	r31, 0x0000
 4ae:	80 81       	ld	r24, Z
 4b0:	89 27       	eor	r24, r25
 4b2:	80 83       	st	Z, r24
 4b4:	80 91 00 00 	lds	r24, 0x0000
 4b8:	90 91 00 00 	lds	r25, 0x0000
 4bc:	a0 91 00 00 	lds	r26, 0x0000
 4c0:	b0 91 00 00 	lds	r27, 0x0000
 4c4:	18 16       	cp	r1, r24
 4c6:	19 06       	cpc	r1, r25
 4c8:	1a 06       	cpc	r1, r26
 4ca:	1b 06       	cpc	r1, r27
 4cc:	04 f4       	brge	.+0      	; 0x4ce <__vector_7+0x66>
 4ce:	80 91 00 00 	lds	r24, 0x0000
 4d2:	90 91 00 00 	lds	r25, 0x0000
 4d6:	a0 91 00 00 	lds	r26, 0x0000
 4da:	b0 91 00 00 	lds	r27, 0x0000
 4de:	01 97       	sbiw	r24, 0x01	; 1
 4e0:	a1 09       	sbc	r26, r1
 4e2:	b1 09       	sbc	r27, r1
 4e4:	80 93 00 00 	sts	0x0000, r24
 4e8:	90 93 00 00 	sts	0x0000, r25
 4ec:	a0 93 00 00 	sts	0x0000, r26
 4f0:	b0 93 00 00 	sts	0x0000, r27
 4f4:	00 c0       	rjmp	.+0      	; 0x4f6 <__vector_7+0x8e>
 4f6:	80 91 00 00 	lds	r24, 0x0000
 4fa:	0e 94 00 00 	call	0	; 0x0 <_Z4tonehjm>
 4fe:	ff 91       	pop	r31
 500:	ef 91       	pop	r30
 502:	bf 91       	pop	r27
 504:	af 91       	pop	r26
 506:	9f 91       	pop	r25
 508:	8f 91       	pop	r24
 50a:	7f 91       	pop	r23
 50c:	6f 91       	pop	r22
 50e:	5f 91       	pop	r21
 510:	4f 91       	pop	r20
 512:	3f 91       	pop	r19
 514:	2f 91       	pop	r18
 516:	0f 90       	pop	r0
 518:	0f be       	out	0x3f, r0	; 63
 51a:	0f 90       	pop	r0
 51c:	1f 90       	pop	r1
 51e:	18 95       	reti

USBCore.o:     file format elf32-avr

Sections:
Idx Name          Size      VMA       LMA       File off  Algn
  0 .text         00000000  00000000  00000000  00000034  2**0
                  CONTENTS, ALLOC, LOAD, READONLY, CODE
  1 .data         00000000  00000000  00000000  00000034  2**0
                  CONTENTS, ALLOC, LOAD, DATA
  2 .bss          00000000  00000000  00000000  00000034  2**0
                  ALLOC
  3 .comment      00000012  00000000  00000000  00000034  2**0
                  CONTENTS, READONLY

WInterrupts.o:     file format elf32-avr

Sections:
Idx Name          Size      VMA       LMA       File off  Algn
  0 .text         00000114  00000000  00000000  00000034  2**0
                  CONTENTS, ALLOC, LOAD, RELOC, READONLY, CODE
  1 .data         00000000  00000000  00000000  00000148  2**0
                  CONTENTS, ALLOC, LOAD, DATA
  2 .bss          00000004  00000000  00000000  00000148  2**0
                  ALLOC
  3 .comment      00000012  00000000  00000000  00000148  2**0
                  CONTENTS, READONLY

Disassembly of section .text:

00000000 <attachInterrupt>:
   0:	82 30       	cpi	r24, 0x02	; 2
   2:	00 f4       	brcc	.+0      	; 0x4 <attachInterrupt+0x4>
   4:	e8 2f       	mov	r30, r24
   6:	f0 e0       	ldi	r31, 0x00	; 0
   8:	ee 0f       	add	r30, r30
   a:	ff 1f       	adc	r31, r31
   c:	e0 50       	subi	r30, 0x00	; 0
   e:	f0 40       	sbci	r31, 0x00	; 0
  10:	71 83       	std	Z+1, r23	; 0x01
  12:	60 83       	st	Z, r22
  14:	81 30       	cpi	r24, 0x01	; 1
  16:	01 f0       	breq	.+0      	; 0x18 <attachInterrupt+0x18>
  18:	80 91 69 00 	lds	r24, 0x0069
  1c:	8c 7f       	andi	r24, 0xFC	; 252
  1e:	84 2b       	or	r24, r20
  20:	80 93 69 00 	sts	0x0069, r24
  24:	e8 9a       	sbi	0x1d, 0	; 29
  26:	08 95       	ret
  28:	80 91 69 00 	lds	r24, 0x0069
  2c:	44 0f       	add	r20, r20
  2e:	55 1f       	adc	r21, r21
  30:	44 0f       	add	r20, r20
  32:	55 1f       	adc	r21, r21
  34:	83 7f       	andi	r24, 0xF3	; 243
  36:	84 2b       	or	r24, r20
  38:	80 93 69 00 	sts	0x0069, r24
  3c:	e9 9a       	sbi	0x1d, 1	; 29
  3e:	08 95       	ret

00000040 <detachInterrupt>:
  40:	82 30       	cpi	r24, 0x02	; 2
  42:	00 f4       	brcc	.+0      	; 0x44 <detachInterrupt+0x4>
  44:	81 30       	cpi	r24, 0x01	; 1
  46:	01 f0       	breq	.+0      	; 0x48 <detachInterrupt+0x8>
  48:	e8 98       	cbi	0x1d, 0	; 29
  4a:	00 c0       	rjmp	.+0      	; 0x4c <detachInterrupt+0xc>
  4c:	e9 98       	cbi	0x1d, 1	; 29
  4e:	e8 2f       	mov	r30, r24
  50:	f0 e0       	ldi	r31, 0x00	; 0
  52:	ee 0f       	add	r30, r30
  54:	ff 1f       	adc	r31, r31
  56:	e0 50       	subi	r30, 0x00	; 0
  58:	f0 40       	sbci	r31, 0x00	; 0
  5a:	11 82       	std	Z+1, r1	; 0x01
  5c:	10 82       	st	Z, r1
  5e:	08 95       	ret

00000060 <__vector_1>:
  60:	1f 92       	push	r1
  62:	0f 92       	push	r0
  64:	0f b6       	in	r0, 0x3f	; 63
  66:	0f 92       	push	r0
  68:	11 24       	eor	r1, r1
  6a:	2f 93       	push	r18
  6c:	3f 93       	push	r19
  6e:	4f 93       	push	r20
  70:	5f 93       	push	r21
  72:	6f 93       	push	r22
  74:	7f 93       	push	r23
  76:	8f 93       	push	r24
  78:	9f 93       	push	r25
  7a:	af 93       	push	r26
  7c:	bf 93       	push	r27
  7e:	ef 93       	push	r30
  80:	ff 93       	push	r31
  82:	80 91 00 00 	lds	r24, 0x0000
  86:	90 91 00 00 	lds	r25, 0x0000
  8a:	89 2b       	or	r24, r25
  8c:	01 f0       	breq	.+0      	; 0x8e <__vector_1+0x2e>
  8e:	e0 91 00 00 	lds	r30, 0x0000
  92:	f0 91 00 00 	lds	r31, 0x0000
  96:	09 95       	icall
  98:	ff 91       	pop	r31
  9a:	ef 91       	pop	r30
  9c:	bf 91       	pop	r27
  9e:	af 91       	pop	r26
  a0:	9f 91       	pop	r25
  a2:	8f 91       	pop	r24
  a4:	7f 91       	pop	r23
  a6:	6f 91       	pop	r22
  a8:	5f 91       	pop	r21
  aa:	4f 91       	pop	r20
  ac:	3f 91       	pop	r19
  ae:	2f 91       	pop	r18
  b0:	0f 90       	pop	r0
  b2:	0f be       	out	0x3f, r0	; 63
  b4:	0f 90       	pop	r0
  b6:	1f 90       	pop	r1
  b8:	18 95       	reti

000000ba <__vector_2>:
  ba:	1f 92       	push	r1
  bc:	0f 92       	push	r0
  be:	0f b6       	in	r0, 0x3f	; 63
  c0:	0f 92       	push	r0
  c2:	11 24       	eor	r1, r1
  c4:	2f 93       	push	r18
  c6:	3f 93       	push	r19
  c8:	4f 93       	push	r20
  ca:	5f 93       	push	r21
  cc:	6f 93       	push	r22
  ce:	7f 93       	push	r23
  d0:	8f 93       	push	r24
  d2:	9f 93       	push	r25
  d4:	af 93       	push	r26
  d6:	bf 93       	push	r27
  d8:	ef 93       	push	r30
  da:	ff 93       	push	r31
  dc:	80 91 00 00 	lds	r24, 0x0000
  e0:	90 91 00 00 	lds	r25, 0x0000
  e4:	89 2b       	or	r24, r25
  e6:	01 f0       	breq	.+0      	; 0xe8 <__vector_2+0x2e>
  e8:	e0 91 00 00 	lds	r30, 0x0000
  ec:	f0 91 00 00 	lds	r31, 0x0000
  f0:	09 95       	icall
  f2:	ff 91       	pop	r31
  f4:	ef 91       	pop	r30
  f6:	bf 91       	pop	r27
  f8:	af 91       	pop	r26
  fa:	9f 91       	pop	r25
  fc:	8f 91       	pop	r24
  fe:	7f 91       	pop	r23
 100:	6f 91       	pop	r22
 102:	5f 91       	pop	r21
 104:	4f 91       	pop	r20
 106:	3f 91       	pop	r19
 108:	2f 91       	pop	r18
 10a:	0f 90       	pop	r0
 10c:	0f be       	out	0x3f, r0	; 63
 10e:	0f 90       	pop	r0
 110:	1f 90       	pop	r1
 112:	18 95       	reti

WMath.o:     file format elf32-avr

Sections:
Idx Name          Size      VMA       LMA       File off  Algn
  0 .text         0000013e  00000000  00000000  00000034  2**0
                  CONTENTS, ALLOC, LOAD, RELOC, READONLY, CODE
  1 .data         00000000  00000000  00000000  00000172  2**0
                  CONTENTS, ALLOC, LOAD, DATA
  2 .bss          00000000  00000000  00000000  00000172  2**0
                  ALLOC
  3 .comment      00000012  00000000  00000000  00000172  2**0
                  CONTENTS, READONLY

Disassembly of section .text:

00000000 <_Z10randomSeedj>:
   0:	00 97       	sbiw	r24, 0x00	; 0
   2:	01 f0       	breq	.+0      	; 0x4 <_Z10randomSeedj+0x4>
   4:	bc 01       	movw	r22, r24
   6:	80 e0       	ldi	r24, 0x00	; 0
   8:	90 e0       	ldi	r25, 0x00	; 0
   a:	0c 94 00 00 	jmp	0	; 0x0 <_Z10randomSeedj>
   e:	08 95       	ret

00000010 <_Z6randoml>:
  10:	0f 93       	push	r16
  12:	1f 93       	push	r17
  14:	cf 93       	push	r28
  16:	df 93       	push	r29
  18:	00 d0       	rcall	.+0      	; 0x1a <_Z6randoml+0xa>
  1a:	00 d0       	rcall	.+0      	; 0x1c <_Z6randoml+0xc>
  1c:	cd b7       	in	r28, 0x3d	; 61
  1e:	de b7       	in	r29, 0x3e	; 62
  20:	9b 01       	movw	r18, r22
  22:	ac 01       	movw	r20, r24
  24:	61 15       	cp	r22, r1
  26:	71 05       	cpc	r23, r1
  28:	81 05       	cpc	r24, r1
  2a:	91 05       	cpc	r25, r1
  2c:	01 f0       	breq	.+0      	; 0x2e <_Z6randoml+0x1e>
  2e:	69 83       	std	Y+1, r22	; 0x01
  30:	3a 83       	std	Y+2, r19	; 0x02
  32:	4b 83       	std	Y+3, r20	; 0x03
  34:	5c 83       	std	Y+4, r21	; 0x04
  36:	0e 94 00 00 	call	0	; 0x0 <_Z10randomSeedj>
  3a:	29 81       	ldd	r18, Y+1	; 0x01
  3c:	3a 81       	ldd	r19, Y+2	; 0x02
  3e:	4b 81       	ldd	r20, Y+3	; 0x03
  40:	5c 81       	ldd	r21, Y+4	; 0x04
  42:	0e 94 00 00 	call	0	; 0x0 <_Z10randomSeedj>
  46:	8b 01       	movw	r16, r22
  48:	9c 01       	movw	r18, r24
  4a:	00 c0       	rjmp	.+0      	; 0x4c <_Z6randoml+0x3c>
  4c:	00 e0       	ldi	r16, 0x00	; 0
  4e:	10 e0       	ldi	r17, 0x00	; 0
  50:	98 01       	movw	r18, r16
  52:	b8 01       	movw	r22, r16
  54:	c9 01       	movw	r24, r18
  56:	0f 90       	pop	r0
  58:	0f 90       	pop	r0
  5a:	0f 90       	pop	r0
  5c:	0f 90       	pop	r0
  5e:	df 91       	pop	r29
  60:	cf 91       	pop	r28
  62:	1f 91       	pop	r17
  64:	0f 91       	pop	r16
  66:	08 95       	ret

00000068 <_Z6randomll>:
  68:	cf 92       	push	r12
  6a:	df 92       	push	r13
  6c:	ef 92       	push	r14
  6e:	ff 92       	push	r15
  70:	6b 01       	movw	r12, r22
  72:	7c 01       	movw	r14, r24
  74:	62 17       	cp	r22, r18
  76:	73 07       	cpc	r23, r19
  78:	84 07       	cpc	r24, r20
  7a:	95 07       	cpc	r25, r21
  7c:	04 f4       	brge	.+0      	; 0x7e <_Z6randomll+0x16>
  7e:	ca 01       	movw	r24, r20
  80:	b9 01       	movw	r22, r18
  82:	6c 19       	sub	r22, r12
  84:	7d 09       	sbc	r23, r13
  86:	8e 09       	sbc	r24, r14
  88:	9f 09       	sbc	r25, r15
  8a:	0e 94 00 00 	call	0	; 0x0 <_Z10randomSeedj>
  8e:	c6 0e       	add	r12, r22
  90:	d7 1e       	adc	r13, r23
  92:	e8 1e       	adc	r14, r24
  94:	f9 1e       	adc	r15, r25
  96:	b6 01       	movw	r22, r12
  98:	c7 01       	movw	r24, r14
  9a:	ff 90       	pop	r15
  9c:	ef 90       	pop	r14
  9e:	df 90       	pop	r13
  a0:	cf 90       	pop	r12
  a2:	08 95       	ret

000000a4 <_Z3maplllll>:
  a4:	4f 92       	push	r4
  a6:	5f 92       	push	r5
  a8:	6f 92       	push	r6
  aa:	7f 92       	push	r7
  ac:	af 92       	push	r10
  ae:	bf 92       	push	r11
  b0:	cf 92       	push	r12
  b2:	df 92       	push	r13
  b4:	ef 92       	push	r14
  b6:	ff 92       	push	r15
  b8:	0f 93       	push	r16
  ba:	1f 93       	push	r17
  bc:	cf 93       	push	r28
  be:	df 93       	push	r29
  c0:	cd b7       	in	r28, 0x3d	; 61
  c2:	de b7       	in	r29, 0x3e	; 62
  c4:	29 01       	movw	r4, r18
  c6:	3a 01       	movw	r6, r20
  c8:	62 1b       	sub	r22, r18
  ca:	73 0b       	sbc	r23, r19
  cc:	84 0b       	sbc	r24, r20
  ce:	95 0b       	sbc	r25, r21
  d0:	29 89       	ldd	r18, Y+17	; 0x11
  d2:	3a 89       	ldd	r19, Y+18	; 0x12
  d4:	4b 89       	ldd	r20, Y+19	; 0x13
  d6:	5c 89       	ldd	r21, Y+20	; 0x14
  d8:	2a 19       	sub	r18, r10
  da:	3b 09       	sbc	r19, r11
  dc:	4c 09       	sbc	r20, r12
  de:	5d 09       	sbc	r21, r13
  e0:	29 8b       	std	Y+17, r18	; 0x11
  e2:	3a 8b       	std	Y+18, r19	; 0x12
  e4:	4b 8b       	std	Y+19, r20	; 0x13
  e6:	5c 8b       	std	Y+20, r21	; 0x14
  e8:	9b 01       	movw	r18, r22
  ea:	ac 01       	movw	r20, r24
  ec:	69 89       	ldd	r22, Y+17	; 0x11
  ee:	7a 89       	ldd	r23, Y+18	; 0x12
  f0:	8b 89       	ldd	r24, Y+19	; 0x13
  f2:	9c 89       	ldd	r25, Y+20	; 0x14
  f4:	0e 94 00 00 	call	0	; 0x0 <_Z10randomSeedj>
  f8:	e4 18       	sub	r14, r4
  fa:	f5 08       	sbc	r15, r5
  fc:	06 09       	sbc	r16, r6
  fe:	17 09       	sbc	r17, r7
 100:	a8 01       	movw	r20, r16
 102:	97 01       	movw	r18, r14
 104:	0e 94 00 00 	call	0	; 0x0 <_Z10randomSeedj>
 108:	2a 0d       	add	r18, r10
 10a:	3b 1d       	adc	r19, r11
 10c:	4c 1d       	adc	r20, r12
 10e:	5d 1d       	adc	r21, r13
 110:	b9 01       	movw	r22, r18
 112:	ca 01       	movw	r24, r20
 114:	df 91       	pop	r29
 116:	cf 91       	pop	r28
 118:	1f 91       	pop	r17
 11a:	0f 91       	pop	r16
 11c:	ff 90       	pop	r15
 11e:	ef 90       	pop	r14
 120:	df 90       	pop	r13
 122:	cf 90       	pop	r12
 124:	bf 90       	pop	r11
 126:	af 90       	pop	r10
 128:	7f 90       	pop	r7
 12a:	6f 90       	pop	r6
 12c:	5f 90       	pop	r5
 12e:	4f 90       	pop	r4
 130:	08 95       	ret

00000132 <_Z8makeWordj>:
 132:	08 95       	ret

00000134 <_Z8makeWordhh>:
 134:	38 2f       	mov	r19, r24
 136:	20 e0       	ldi	r18, 0x00	; 0
 138:	26 2b       	or	r18, r22
 13a:	c9 01       	movw	r24, r18
 13c:	08 95       	ret

WString.o:     file format elf32-avr

Sections:
Idx Name          Size      VMA       LMA       File off  Algn
  0 .text         00000fd2  00000000  00000000  00000034  2**0
                  CONTENTS, ALLOC, LOAD, RELOC, READONLY, CODE
  1 .data         00000000  00000000  00000000  00001006  2**0
                  CONTENTS, ALLOC, LOAD, DATA
  2 .bss          00000001  00000000  00000000  00001006  2**0
                  ALLOC
  3 .rodata.str1.1 00000001  00000000  00000000  00001006  2**0
                  CONTENTS, ALLOC, LOAD, READONLY, DATA
  4 .comment      00000012  00000000  00000000  00001007  2**0
                  CONTENTS, READONLY

Disassembly of section .text:

00000000 <_ZN6StringD1Ev>:
   0:	fc 01       	movw	r30, r24
   2:	80 81       	ld	r24, Z
   4:	91 81       	ldd	r25, Z+1	; 0x01
   6:	0c 94 00 00 	jmp	0	; 0x0 <_ZN6StringD1Ev>

0000000a <_ZN6String10invalidateEv>:
   a:	cf 93       	push	r28
   c:	df 93       	push	r29
   e:	ec 01       	movw	r28, r24
  10:	88 81       	ld	r24, Y
  12:	99 81       	ldd	r25, Y+1	; 0x01
  14:	00 97       	sbiw	r24, 0x00	; 0
  16:	01 f0       	breq	.+0      	; 0x18 <_ZN6String10invalidateEv+0xe>
  18:	0e 94 00 00 	call	0	; 0x0 <_ZN6StringD1Ev>
  1c:	19 82       	std	Y+1, r1	; 0x01
  1e:	18 82       	st	Y, r1
  20:	1d 82       	std	Y+5, r1	; 0x05
  22:	1c 82       	std	Y+4, r1	; 0x04
  24:	1b 82       	std	Y+3, r1	; 0x03
  26:	1a 82       	std	Y+2, r1	; 0x02
  28:	df 91       	pop	r29
  2a:	cf 91       	pop	r28
  2c:	08 95       	ret

0000002e <_ZN6String12changeBufferEj>:
  2e:	0f 93       	push	r16
  30:	1f 93       	push	r17
  32:	cf 93       	push	r28
  34:	df 93       	push	r29
  36:	ec 01       	movw	r28, r24
  38:	8b 01       	movw	r16, r22
  3a:	6f 5f       	subi	r22, 0xFF	; 255
  3c:	7f 4f       	sbci	r23, 0xFF	; 255
  3e:	88 81       	ld	r24, Y
  40:	99 81       	ldd	r25, Y+1	; 0x01
  42:	0e 94 00 00 	call	0	; 0x0 <_ZN6StringD1Ev>
  46:	00 97       	sbiw	r24, 0x00	; 0
  48:	01 f0       	breq	.+0      	; 0x4a <_ZN6String12changeBufferEj+0x1c>
  4a:	99 83       	std	Y+1, r25	; 0x01
  4c:	88 83       	st	Y, r24
  4e:	1b 83       	std	Y+3, r17	; 0x03
  50:	0a 83       	std	Y+2, r16	; 0x02
  52:	81 e0       	ldi	r24, 0x01	; 1
  54:	00 c0       	rjmp	.+0      	; 0x56 <_ZN6String12changeBufferEj+0x28>
  56:	80 e0       	ldi	r24, 0x00	; 0
  58:	df 91       	pop	r29
  5a:	cf 91       	pop	r28
  5c:	1f 91       	pop	r17
  5e:	0f 91       	pop	r16
  60:	08 95       	ret

00000062 <_ZN6String7reserveEj>:
  62:	cf 93       	push	r28
  64:	df 93       	push	r29
  66:	ec 01       	movw	r28, r24
  68:	88 81       	ld	r24, Y
  6a:	99 81       	ldd	r25, Y+1	; 0x01
  6c:	89 2b       	or	r24, r25
  6e:	01 f0       	breq	.+0      	; 0x70 <_ZN6String7reserveEj+0xe>
  70:	8a 81       	ldd	r24, Y+2	; 0x02
  72:	9b 81       	ldd	r25, Y+3	; 0x03
  74:	86 17       	cp	r24, r22
  76:	97 07       	cpc	r25, r23
  78:	00 f0       	brcs	.+0      	; 0x7a <_ZN6String7reserveEj+0x18>
  7a:	00 c0       	rjmp	.+0      	; 0x7c <_ZN6String7reserveEj+0x1a>
  7c:	ce 01       	movw	r24, r28
  7e:	0e 94 00 00 	call	0	; 0x0 <_ZN6StringD1Ev>
  82:	88 23       	and	r24, r24
  84:	01 f0       	breq	.+0      	; 0x86 <_ZN6String7reserveEj+0x24>
  86:	8c 81       	ldd	r24, Y+4	; 0x04
  88:	9d 81       	ldd	r25, Y+5	; 0x05
  8a:	89 2b       	or	r24, r25
  8c:	01 f4       	brne	.+0      	; 0x8e <_ZN6String7reserveEj+0x2c>
  8e:	e8 81       	ld	r30, Y
  90:	f9 81       	ldd	r31, Y+1	; 0x01
  92:	10 82       	st	Z, r1
  94:	81 e0       	ldi	r24, 0x01	; 1
  96:	00 c0       	rjmp	.+0      	; 0x98 <_ZN6String7reserveEj+0x36>
  98:	80 e0       	ldi	r24, 0x00	; 0
  9a:	df 91       	pop	r29
  9c:	cf 91       	pop	r28
  9e:	08 95       	ret

000000a0 <_ZN6String4copyEPKcj>:
  a0:	ef 92       	push	r14
  a2:	ff 92       	push	r15
  a4:	0f 93       	push	r16
  a6:	1f 93       	push	r17
  a8:	cf 93       	push	r28
  aa:	df 93       	push	r29
  ac:	ec 01       	movw	r28, r24
  ae:	7b 01       	movw	r14, r22
  b0:	8a 01       	movw	r16, r20
  b2:	ba 01       	movw	r22, r20
  b4:	0e 94 00 00 	call	0	; 0x0 <_ZN6StringD1Ev>
  b8:	81 11       	cpse	r24, r1
  ba:	00 c0       	rjmp	.+0      	; 0xbc <_ZN6String4copyEPKcj+0x1c>
  bc:	ce 01       	movw	r24, r28
  be:	0e 94 00 00 	call	0	; 0x0 <_ZN6StringD1Ev>
  c2:	00 c0       	rjmp	.+0      	; 0xc4 <_ZN6String4copyEPKcj+0x24>
  c4:	1d 83       	std	Y+5, r17	; 0x05
  c6:	0c 83       	std	Y+4, r16	; 0x04
  c8:	b7 01       	movw	r22, r14
  ca:	88 81       	ld	r24, Y
  cc:	99 81       	ldd	r25, Y+1	; 0x01
  ce:	0e 94 00 00 	call	0	; 0x0 <_ZN6StringD1Ev>
  d2:	ce 01       	movw	r24, r28
  d4:	df 91       	pop	r29
  d6:	cf 91       	pop	r28
  d8:	1f 91       	pop	r17
  da:	0f 91       	pop	r16
  dc:	ff 90       	pop	r15
  de:	ef 90       	pop	r14
  e0:	08 95       	ret

000000e2 <_ZN6StringC1EPKc>:
  e2:	dc 01       	movw	r26, r24
  e4:	11 96       	adiw	r26, 0x01	; 1
  e6:	1c 92       	st	X, r1
  e8:	1e 92       	st	-X, r1
  ea:	13 96       	adiw	r26, 0x03	; 3
  ec:	1c 92       	st	X, r1
  ee:	1e 92       	st	-X, r1
  f0:	12 97       	sbiw	r26, 0x02	; 2
  f2:	15 96       	adiw	r26, 0x05	; 5
  f4:	1c 92       	st	X, r1
  f6:	1e 92       	st	-X, r1
  f8:	14 97       	sbiw	r26, 0x04	; 4
  fa:	16 96       	adiw	r26, 0x06	; 6
  fc:	1c 92       	st	X, r1
  fe:	61 15       	cp	r22, r1
 100:	71 05       	cpc	r23, r1
 102:	01 f0       	breq	.+0      	; 0x104 <_ZN6StringC1EPKc+0x22>
 104:	db 01       	movw	r26, r22
 106:	0d 90       	ld	r0, X+
 108:	00 20       	and	r0, r0
 10a:	01 f4       	brne	.+0      	; 0x10c <_ZN6StringC1EPKc+0x2a>
 10c:	ad 01       	movw	r20, r26
 10e:	41 50       	subi	r20, 0x01	; 1
 110:	51 09       	sbc	r21, r1
 112:	46 1b       	sub	r20, r22
 114:	57 0b       	sbc	r21, r23
 116:	0c 94 00 00 	jmp	0	; 0x0 <_ZN6StringD1Ev>
 11a:	08 95       	ret

0000011c <_ZN6StringaSERKS_>:
 11c:	cf 93       	push	r28
 11e:	df 93       	push	r29
 120:	ec 01       	movw	r28, r24
 122:	fb 01       	movw	r30, r22
 124:	86 17       	cp	r24, r22
 126:	97 07       	cpc	r25, r23
 128:	01 f0       	breq	.+0      	; 0x12a <_ZN6StringaSERKS_+0xe>
 12a:	60 81       	ld	r22, Z
 12c:	71 81       	ldd	r23, Z+1	; 0x01
 12e:	61 15       	cp	r22, r1
 130:	71 05       	cpc	r23, r1
 132:	01 f0       	breq	.+0      	; 0x134 <_ZN6StringaSERKS_+0x18>
 134:	44 81       	ldd	r20, Z+4	; 0x04
 136:	55 81       	ldd	r21, Z+5	; 0x05
 138:	0e 94 00 00 	call	0	; 0x0 <_ZN6StringD1Ev>
 13c:	00 c0       	rjmp	.+0      	; 0x13e <_ZN6StringaSERKS_+0x22>
 13e:	0e 94 00 00 	call	0	; 0x0 <_ZN6StringD1Ev>
 142:	ce 01       	movw	r24, r28
 144:	df 91       	pop	r29
 146:	cf 91       	pop	r28
 148:	08 95       	ret

0000014a <_ZN6StringC1ERKS_>:
 14a:	fc 01       	movw	r30, r24
 14c:	11 82       	std	Z+1, r1	; 0x01
 14e:	10 82       	st	Z, r1
 150:	13 82       	std	Z+3, r1	; 0x03
 152:	12 82       	std	Z+2, r1	; 0x02
 154:	15 82       	std	Z+5, r1	; 0x05
 156:	14 82       	std	Z+4, r1	; 0x04
 158:	16 82       	std	Z+6, r1	; 0x06
 15a:	0c 94 00 00 	jmp	0	; 0x0 <_ZN6StringD1Ev>

0000015e <_ZN6StringaSEPKc>:
 15e:	cf 93       	push	r28
 160:	df 93       	push	r29
 162:	d8 2f       	mov	r29, r24
 164:	c9 2f       	mov	r28, r25
 166:	61 15       	cp	r22, r1
 168:	71 05       	cpc	r23, r1
 16a:	01 f0       	breq	.+0      	; 0x16c <_ZN6StringaSEPKc+0xe>
 16c:	db 01       	movw	r26, r22
 16e:	0d 90       	ld	r0, X+
 170:	00 20       	and	r0, r0
 172:	01 f4       	brne	.+0      	; 0x174 <_ZN6StringaSEPKc+0x16>
 174:	ad 01       	movw	r20, r26
 176:	41 50       	subi	r20, 0x01	; 1
 178:	51 09       	sbc	r21, r1
 17a:	46 1b       	sub	r20, r22
 17c:	57 0b       	sbc	r21, r23
 17e:	0e 94 00 00 	call	0	; 0x0 <_ZN6StringD1Ev>
 182:	00 c0       	rjmp	.+0      	; 0x184 <_ZN6StringaSEPKc+0x26>
 184:	0e 94 00 00 	call	0	; 0x0 <_ZN6StringD1Ev>
 188:	8d 2f       	mov	r24, r29
 18a:	9c 2f       	mov	r25, r28
 18c:	df 91       	pop	r29
 18e:	cf 91       	pop	r28
 190:	08 95       	ret

00000192 <_ZN6StringC1Emh>:
 192:	0f 93       	push	r16
 194:	1f 93       	push	r17
 196:	cf 93       	push	r28
 198:	df 93       	push	r29
 19a:	cd b7       	in	r28, 0x3d	; 61
 19c:	de b7       	in	r29, 0x3e	; 62
 19e:	a1 97       	sbiw	r28, 0x21	; 33
 1a0:	0f b6       	in	r0, 0x3f	; 63
 1a2:	f8 94       	cli
 1a4:	de bf       	out	0x3e, r29	; 62
 1a6:	0f be       	out	0x3f, r0	; 63
 1a8:	cd bf       	out	0x3d, r28	; 61
 1aa:	8c 01       	movw	r16, r24
 1ac:	cb 01       	movw	r24, r22
 1ae:	ba 01       	movw	r22, r20
 1b0:	f8 01       	movw	r30, r16
 1b2:	11 82       	std	Z+1, r1	; 0x01
 1b4:	10 82       	st	Z, r1
 1b6:	13 82       	std	Z+3, r1	; 0x03
 1b8:	12 82       	std	Z+2, r1	; 0x02
 1ba:	15 82       	std	Z+5, r1	; 0x05
 1bc:	14 82       	std	Z+4, r1	; 0x04
 1be:	16 82       	std	Z+6, r1	; 0x06
 1c0:	30 e0       	ldi	r19, 0x00	; 0
 1c2:	ae 01       	movw	r20, r28
 1c4:	4f 5f       	subi	r20, 0xFF	; 255
 1c6:	5f 4f       	sbci	r21, 0xFF	; 255
 1c8:	0e 94 00 00 	call	0	; 0x0 <_ZN6StringD1Ev>
 1cc:	be 01       	movw	r22, r28
 1ce:	6f 5f       	subi	r22, 0xFF	; 255
 1d0:	7f 4f       	sbci	r23, 0xFF	; 255
 1d2:	c8 01       	movw	r24, r16
 1d4:	0e 94 00 00 	call	0	; 0x0 <_ZN6StringD1Ev>
 1d8:	a1 96       	adiw	r28, 0x21	; 33
 1da:	0f b6       	in	r0, 0x3f	; 63
 1dc:	f8 94       	cli
 1de:	de bf       	out	0x3e, r29	; 62
 1e0:	0f be       	out	0x3f, r0	; 63
 1e2:	cd bf       	out	0x3d, r28	; 61
 1e4:	df 91       	pop	r29
 1e6:	cf 91       	pop	r28
 1e8:	1f 91       	pop	r17
 1ea:	0f 91       	pop	r16
 1ec:	08 95       	ret

000001ee <_ZN6StringC1Elh>:
 1ee:	0f 93       	push	r16
 1f0:	1f 93       	push	r17
 1f2:	cf 93       	push	r28
 1f4:	df 93       	push	r29
 1f6:	cd b7       	in	r28, 0x3d	; 61
 1f8:	de b7       	in	r29, 0x3e	; 62
 1fa:	a2 97       	sbiw	r28, 0x22	; 34
 1fc:	0f b6       	in	r0, 0x3f	; 63
 1fe:	f8 94       	cli
 200:	de bf       	out	0x3e, r29	; 62
 202:	0f be       	out	0x3f, r0	; 63
 204:	cd bf       	out	0x3d, r28	; 61
 206:	8c 01       	movw	r16, r24
 208:	cb 01       	movw	r24, r22
 20a:	ba 01       	movw	r22, r20
 20c:	f8 01       	movw	r30, r16
 20e:	11 82       	std	Z+1, r1	; 0x01
 210:	10 82       	st	Z, r1
 212:	13 82       	std	Z+3, r1	; 0x03
 214:	12 82       	std	Z+2, r1	; 0x02
 216:	15 82       	std	Z+5, r1	; 0x05
 218:	14 82       	std	Z+4, r1	; 0x04
 21a:	16 82       	std	Z+6, r1	; 0x06
 21c:	30 e0       	ldi	r19, 0x00	; 0
 21e:	ae 01       	movw	r20, r28
 220:	4f 5f       	subi	r20, 0xFF	; 255
 222:	5f 4f       	sbci	r21, 0xFF	; 255
 224:	0e 94 00 00 	call	0	; 0x0 <_ZN6StringD1Ev>
 228:	be 01       	movw	r22, r28
 22a:	6f 5f       	subi	r22, 0xFF	; 255
 22c:	7f 4f       	sbci	r23, 0xFF	; 255
 22e:	c8 01       	movw	r24, r16
 230:	0e 94 00 00 	call	0	; 0x0 <_ZN6StringD1Ev>
 234:	a2 96       	adiw	r28, 0x22	; 34
 236:	0f b6       	in	r0, 0x3f	; 63
 238:	f8 94       	cli
 23a:	de bf       	out	0x3e, r29	; 62
 23c:	0f be       	out	0x3f, r0	; 63
 23e:	cd bf       	out	0x3d, r28	; 61
 240:	df 91       	pop	r29
 242:	cf 91       	pop	r28
 244:	1f 91       	pop	r17
 246:	0f 91       	pop	r16
 248:	08 95       	ret

0000024a <_ZN6StringC1Ejh>:
 24a:	0f 93       	push	r16
 24c:	1f 93       	push	r17
 24e:	cf 93       	push	r28
 250:	df 93       	push	r29
 252:	cd b7       	in	r28, 0x3d	; 61
 254:	de b7       	in	r29, 0x3e	; 62
 256:	61 97       	sbiw	r28, 0x11	; 17
 258:	0f b6       	in	r0, 0x3f	; 63
 25a:	f8 94       	cli
 25c:	de bf       	out	0x3e, r29	; 62
 25e:	0f be       	out	0x3f, r0	; 63
 260:	cd bf       	out	0x3d, r28	; 61
 262:	8c 01       	movw	r16, r24
 264:	cb 01       	movw	r24, r22
 266:	f8 01       	movw	r30, r16
 268:	11 82       	std	Z+1, r1	; 0x01
 26a:	10 82       	st	Z, r1
 26c:	13 82       	std	Z+3, r1	; 0x03
 26e:	12 82       	std	Z+2, r1	; 0x02
 270:	15 82       	std	Z+5, r1	; 0x05
 272:	14 82       	std	Z+4, r1	; 0x04
 274:	16 82       	std	Z+6, r1	; 0x06
 276:	50 e0       	ldi	r21, 0x00	; 0
 278:	be 01       	movw	r22, r28
 27a:	6f 5f       	subi	r22, 0xFF	; 255
 27c:	7f 4f       	sbci	r23, 0xFF	; 255
 27e:	0e 94 00 00 	call	0	; 0x0 <_ZN6StringD1Ev>
 282:	be 01       	movw	r22, r28
 284:	6f 5f       	subi	r22, 0xFF	; 255
 286:	7f 4f       	sbci	r23, 0xFF	; 255
 288:	c8 01       	movw	r24, r16
 28a:	0e 94 00 00 	call	0	; 0x0 <_ZN6StringD1Ev>
 28e:	61 96       	adiw	r28, 0x11	; 17
 290:	0f b6       	in	r0, 0x3f	; 63
 292:	f8 94       	cli
 294:	de bf       	out	0x3e, r29	; 62
 296:	0f be       	out	0x3f, r0	; 63
 298:	cd bf       	out	0x3d, r28	; 61
 29a:	df 91       	pop	r29
 29c:	cf 91       	pop	r28
 29e:	1f 91       	pop	r17
 2a0:	0f 91       	pop	r16
 2a2:	08 95       	ret

000002a4 <_ZN6StringC1Eih>:
 2a4:	0f 93       	push	r16
 2a6:	1f 93       	push	r17
 2a8:	cf 93       	push	r28
 2aa:	df 93       	push	r29
 2ac:	cd b7       	in	r28, 0x3d	; 61
 2ae:	de b7       	in	r29, 0x3e	; 62
 2b0:	62 97       	sbiw	r28, 0x12	; 18
 2b2:	0f b6       	in	r0, 0x3f	; 63
 2b4:	f8 94       	cli
 2b6:	de bf       	out	0x3e, r29	; 62
 2b8:	0f be       	out	0x3f, r0	; 63
 2ba:	cd bf       	out	0x3d, r28	; 61
 2bc:	8c 01       	movw	r16, r24
 2be:	cb 01       	movw	r24, r22
 2c0:	f8 01       	movw	r30, r16
 2c2:	11 82       	std	Z+1, r1	; 0x01
 2c4:	10 82       	st	Z, r1
 2c6:	13 82       	std	Z+3, r1	; 0x03
 2c8:	12 82       	std	Z+2, r1	; 0x02
 2ca:	15 82       	std	Z+5, r1	; 0x05
 2cc:	14 82       	std	Z+4, r1	; 0x04
 2ce:	16 82       	std	Z+6, r1	; 0x06
 2d0:	50 e0       	ldi	r21, 0x00	; 0
 2d2:	be 01       	movw	r22, r28
 2d4:	6f 5f       	subi	r22, 0xFF	; 255
 2d6:	7f 4f       	sbci	r23, 0xFF	; 255
 2d8:	0e 94 00 00 	call	0	; 0x0 <_ZN6StringD1Ev>
 2dc:	be 01       	movw	r22, r28
 2de:	6f 5f       	subi	r22, 0xFF	; 255
 2e0:	7f 4f       	sbci	r23, 0xFF	; 255
 2e2:	c8 01       	movw	r24, r16
 2e4:	0e 94 00 00 	call	0	; 0x0 <_ZN6StringD1Ev>
 2e8:	62 96       	adiw	r28, 0x12	; 18
 2ea:	0f b6       	in	r0, 0x3f	; 63
 2ec:	f8 94       	cli
 2ee:	de bf       	out	0x3e, r29	; 62
 2f0:	0f be       	out	0x3f, r0	; 63
 2f2:	cd bf       	out	0x3d, r28	; 61
 2f4:	df 91       	pop	r29
 2f6:	cf 91       	pop	r28
 2f8:	1f 91       	pop	r17
 2fa:	0f 91       	pop	r16
 2fc:	08 95       	ret

000002fe <_ZN6StringC1Ehh>:
 2fe:	0f 93       	push	r16
 300:	1f 93       	push	r17
 302:	cf 93       	push	r28
 304:	df 93       	push	r29
 306:	cd b7       	in	r28, 0x3d	; 61
 308:	de b7       	in	r29, 0x3e	; 62
 30a:	29 97       	sbiw	r28, 0x09	; 9
 30c:	0f b6       	in	r0, 0x3f	; 63
 30e:	f8 94       	cli
 310:	de bf       	out	0x3e, r29	; 62
 312:	0f be       	out	0x3f, r0	; 63
 314:	cd bf       	out	0x3d, r28	; 61
 316:	8c 01       	movw	r16, r24
 318:	86 2f       	mov	r24, r22
 31a:	f8 01       	movw	r30, r16
 31c:	11 82       	std	Z+1, r1	; 0x01
 31e:	10 82       	st	Z, r1
 320:	13 82       	std	Z+3, r1	; 0x03
 322:	12 82       	std	Z+2, r1	; 0x02
 324:	15 82       	std	Z+5, r1	; 0x05
 326:	14 82       	std	Z+4, r1	; 0x04
 328:	16 82       	std	Z+6, r1	; 0x06
 32a:	50 e0       	ldi	r21, 0x00	; 0
 32c:	be 01       	movw	r22, r28
 32e:	6f 5f       	subi	r22, 0xFF	; 255
 330:	7f 4f       	sbci	r23, 0xFF	; 255
 332:	90 e0       	ldi	r25, 0x00	; 0
 334:	0e 94 00 00 	call	0	; 0x0 <_ZN6StringD1Ev>
 338:	be 01       	movw	r22, r28
 33a:	6f 5f       	subi	r22, 0xFF	; 255
 33c:	7f 4f       	sbci	r23, 0xFF	; 255
 33e:	c8 01       	movw	r24, r16
 340:	0e 94 00 00 	call	0	; 0x0 <_ZN6StringD1Ev>
 344:	29 96       	adiw	r28, 0x09	; 9
 346:	0f b6       	in	r0, 0x3f	; 63
 348:	f8 94       	cli
 34a:	de bf       	out	0x3e, r29	; 62
 34c:	0f be       	out	0x3f, r0	; 63
 34e:	cd bf       	out	0x3d, r28	; 61
 350:	df 91       	pop	r29
 352:	cf 91       	pop	r28
 354:	1f 91       	pop	r17
 356:	0f 91       	pop	r16
 358:	08 95       	ret

0000035a <_ZN6StringC1Ec>:
 35a:	cf 93       	push	r28
 35c:	df 93       	push	r29
 35e:	00 d0       	rcall	.+0      	; 0x360 <_ZN6StringC1Ec+0x6>
 360:	cd b7       	in	r28, 0x3d	; 61
 362:	de b7       	in	r29, 0x3e	; 62
 364:	fc 01       	movw	r30, r24
 366:	11 82       	std	Z+1, r1	; 0x01
 368:	10 82       	st	Z, r1
 36a:	13 82       	std	Z+3, r1	; 0x03
 36c:	12 82       	std	Z+2, r1	; 0x02
 36e:	15 82       	std	Z+5, r1	; 0x05
 370:	14 82       	std	Z+4, r1	; 0x04
 372:	16 82       	std	Z+6, r1	; 0x06
 374:	69 83       	std	Y+1, r22	; 0x01
 376:	1a 82       	std	Y+2, r1	; 0x02
 378:	be 01       	movw	r22, r28
 37a:	6f 5f       	subi	r22, 0xFF	; 255
 37c:	7f 4f       	sbci	r23, 0xFF	; 255
 37e:	0e 94 00 00 	call	0	; 0x0 <_ZN6StringD1Ev>
 382:	0f 90       	pop	r0
 384:	0f 90       	pop	r0
 386:	df 91       	pop	r29
 388:	cf 91       	pop	r28
 38a:	08 95       	ret

0000038c <_ZN6String6concatEPKcj>:
 38c:	ef 92       	push	r14
 38e:	ff 92       	push	r15
 390:	0f 93       	push	r16
 392:	1f 93       	push	r17
 394:	cf 93       	push	r28
 396:	df 93       	push	r29
 398:	ec 01       	movw	r28, r24
 39a:	7b 01       	movw	r14, r22
 39c:	0c 81       	ldd	r16, Y+4	; 0x04
 39e:	1d 81       	ldd	r17, Y+5	; 0x05
 3a0:	61 15       	cp	r22, r1
 3a2:	71 05       	cpc	r23, r1
 3a4:	01 f4       	brne	.+0      	; 0x3a6 <_ZN6String6concatEPKcj+0x1a>
 3a6:	80 e0       	ldi	r24, 0x00	; 0
 3a8:	00 c0       	rjmp	.+0      	; 0x3aa <_ZN6String6concatEPKcj+0x1e>
 3aa:	41 15       	cp	r20, r1
 3ac:	51 05       	cpc	r21, r1
 3ae:	01 f0       	breq	.+0      	; 0x3b0 <_ZN6String6concatEPKcj+0x24>
 3b0:	04 0f       	add	r16, r20
 3b2:	15 1f       	adc	r17, r21
 3b4:	b8 01       	movw	r22, r16
 3b6:	0e 94 00 00 	call	0	; 0x0 <_ZN6StringD1Ev>
 3ba:	88 23       	and	r24, r24
 3bc:	01 f0       	breq	.+0      	; 0x3be <_ZN6String6concatEPKcj+0x32>
 3be:	28 81       	ld	r18, Y
 3c0:	39 81       	ldd	r19, Y+1	; 0x01
 3c2:	8c 81       	ldd	r24, Y+4	; 0x04
 3c4:	9d 81       	ldd	r25, Y+5	; 0x05
 3c6:	b7 01       	movw	r22, r14
 3c8:	82 0f       	add	r24, r18
 3ca:	93 1f       	adc	r25, r19
 3cc:	0e 94 00 00 	call	0	; 0x0 <_ZN6StringD1Ev>
 3d0:	1d 83       	std	Y+5, r17	; 0x05
 3d2:	0c 83       	std	Y+4, r16	; 0x04
 3d4:	81 e0       	ldi	r24, 0x01	; 1
 3d6:	df 91       	pop	r29
 3d8:	cf 91       	pop	r28
 3da:	1f 91       	pop	r17
 3dc:	0f 91       	pop	r16
 3de:	ff 90       	pop	r15
 3e0:	ef 90       	pop	r14
 3e2:	08 95       	ret

000003e4 <_ZN6String6concatERKS_>:
 3e4:	fb 01       	movw	r30, r22
 3e6:	44 81       	ldd	r20, Z+4	; 0x04
 3e8:	55 81       	ldd	r21, Z+5	; 0x05
 3ea:	60 81       	ld	r22, Z
 3ec:	71 81       	ldd	r23, Z+1	; 0x01
 3ee:	0c 94 00 00 	jmp	0	; 0x0 <_ZN6StringD1Ev>

000003f2 <_ZN6String6concatEPKc>:
 3f2:	61 15       	cp	r22, r1
 3f4:	71 05       	cpc	r23, r1
 3f6:	01 f0       	breq	.+0      	; 0x3f8 <_ZN6String6concatEPKc+0x6>
 3f8:	db 01       	movw	r26, r22
 3fa:	0d 90       	ld	r0, X+
 3fc:	00 20       	and	r0, r0
 3fe:	01 f4       	brne	.+0      	; 0x400 <_ZN6String6concatEPKc+0xe>
 400:	ad 01       	movw	r20, r26
 402:	41 50       	subi	r20, 0x01	; 1
 404:	51 09       	sbc	r21, r1
 406:	46 1b       	sub	r20, r22
 408:	57 0b       	sbc	r21, r23
 40a:	0c 94 00 00 	jmp	0	; 0x0 <_ZN6StringD1Ev>
 40e:	80 e0       	ldi	r24, 0x00	; 0
 410:	08 95       	ret

00000412 <_ZN6String6concatEc>:
 412:	cf 93       	push	r28
 414:	df 93       	push	r29
 416:	00 d0       	rcall	.+0      	; 0x418 <_ZN6String6concatEc+0x6>
 418:	cd b7       	in	r28, 0x3d	; 61
 41a:	de b7       	in	r29, 0x3e	; 62
 41c:	69 83       	std	Y+1, r22	; 0x01
 41e:	1a 82       	std	Y+2, r1	; 0x02
 420:	41 e0       	ldi	r20, 0x01	; 1
 422:	50 e0       	ldi	r21, 0x00	; 0
 424:	be 01       	movw	r22, r28
 426:	6f 5f       	subi	r22, 0xFF	; 255
 428:	7f 4f       	sbci	r23, 0xFF	; 255
 42a:	0e 94 00 00 	call	0	; 0x0 <_ZN6StringD1Ev>
 42e:	0f 90       	pop	r0
 430:	0f 90       	pop	r0
 432:	df 91       	pop	r29
 434:	cf 91       	pop	r28
 436:	08 95       	ret

00000438 <_ZN6String6concatEh>:
 438:	ef 92       	push	r14
 43a:	ff 92       	push	r15
 43c:	0f 93       	push	r16
 43e:	1f 93       	push	r17
 440:	cf 93       	push	r28
 442:	df 93       	push	r29
 444:	00 d0       	rcall	.+0      	; 0x446 <_ZN6String6concatEh+0xe>
 446:	00 d0       	rcall	.+0      	; 0x448 <_ZN6String6concatEh+0x10>
 448:	cd b7       	in	r28, 0x3d	; 61
 44a:	de b7       	in	r29, 0x3e	; 62
 44c:	7c 01       	movw	r14, r24
 44e:	86 2f       	mov	r24, r22
 450:	4a e0       	ldi	r20, 0x0A	; 10
 452:	50 e0       	ldi	r21, 0x00	; 0
 454:	8e 01       	movw	r16, r28
 456:	0f 5f       	subi	r16, 0xFF	; 255
 458:	1f 4f       	sbci	r17, 0xFF	; 255
 45a:	b8 01       	movw	r22, r16
 45c:	90 e0       	ldi	r25, 0x00	; 0
 45e:	0e 94 00 00 	call	0	; 0x0 <_ZN6StringD1Ev>
 462:	f8 01       	movw	r30, r16
 464:	01 90       	ld	r0, Z+
 466:	00 20       	and	r0, r0
 468:	01 f4       	brne	.+0      	; 0x46a <_ZN6String6concatEh+0x32>
 46a:	af 01       	movw	r20, r30
 46c:	41 50       	subi	r20, 0x01	; 1
 46e:	51 09       	sbc	r21, r1
 470:	40 1b       	sub	r20, r16
 472:	51 0b       	sbc	r21, r17
 474:	b8 01       	movw	r22, r16
 476:	c7 01       	movw	r24, r14
 478:	0e 94 00 00 	call	0	; 0x0 <_ZN6StringD1Ev>
 47c:	0f 90       	pop	r0
 47e:	0f 90       	pop	r0
 480:	0f 90       	pop	r0
 482:	0f 90       	pop	r0
 484:	df 91       	pop	r29
 486:	cf 91       	pop	r28
 488:	1f 91       	pop	r17
 48a:	0f 91       	pop	r16
 48c:	ff 90       	pop	r15
 48e:	ef 90       	pop	r14
 490:	08 95       	ret

00000492 <_ZN6String6concatEi>:
 492:	ef 92       	push	r14
 494:	ff 92       	push	r15
 496:	0f 93       	push	r16
 498:	1f 93       	push	r17
 49a:	cf 93       	push	r28
 49c:	df 93       	push	r29
 49e:	cd b7       	in	r28, 0x3d	; 61
 4a0:	de b7       	in	r29, 0x3e	; 62
 4a2:	27 97       	sbiw	r28, 0x07	; 7
 4a4:	0f b6       	in	r0, 0x3f	; 63
 4a6:	f8 94       	cli
 4a8:	de bf       	out	0x3e, r29	; 62
 4aa:	0f be       	out	0x3f, r0	; 63
 4ac:	cd bf       	out	0x3d, r28	; 61
 4ae:	7c 01       	movw	r14, r24
 4b0:	cb 01       	movw	r24, r22
 4b2:	4a e0       	ldi	r20, 0x0A	; 10
 4b4:	50 e0       	ldi	r21, 0x00	; 0
 4b6:	8e 01       	movw	r16, r28
 4b8:	0f 5f       	subi	r16, 0xFF	; 255
 4ba:	1f 4f       	sbci	r17, 0xFF	; 255
 4bc:	b8 01       	movw	r22, r16
 4be:	0e 94 00 00 	call	0	; 0x0 <_ZN6StringD1Ev>
 4c2:	f8 01       	movw	r30, r16
 4c4:	01 90       	ld	r0, Z+
 4c6:	00 20       	and	r0, r0
 4c8:	01 f4       	brne	.+0      	; 0x4ca <_ZN6String6concatEi+0x38>
 4ca:	af 01       	movw	r20, r30
 4cc:	41 50       	subi	r20, 0x01	; 1
 4ce:	51 09       	sbc	r21, r1
 4d0:	40 1b       	sub	r20, r16
 4d2:	51 0b       	sbc	r21, r17
 4d4:	b8 01       	movw	r22, r16
 4d6:	c7 01       	movw	r24, r14
 4d8:	0e 94 00 00 	call	0	; 0x0 <_ZN6StringD1Ev>
 4dc:	27 96       	adiw	r28, 0x07	; 7
 4de:	0f b6       	in	r0, 0x3f	; 63
 4e0:	f8 94       	cli
 4e2:	de bf       	out	0x3e, r29	; 62
 4e4:	0f be       	out	0x3f, r0	; 63
 4e6:	cd bf       	out	0x3d, r28	; 61
 4e8:	df 91       	pop	r29
 4ea:	cf 91       	pop	r28
 4ec:	1f 91       	pop	r17
 4ee:	0f 91       	pop	r16
 4f0:	ff 90       	pop	r15
 4f2:	ef 90       	pop	r14
 4f4:	08 95       	ret

000004f6 <_ZN6String6concatEj>:
 4f6:	ef 92       	push	r14
 4f8:	ff 92       	push	r15
 4fa:	0f 93       	push	r16
 4fc:	1f 93       	push	r17
 4fe:	cf 93       	push	r28
 500:	df 93       	push	r29
 502:	00 d0       	rcall	.+0      	; 0x504 <_ZN6String6concatEj+0xe>
 504:	00 d0       	rcall	.+0      	; 0x506 <_ZN6String6concatEj+0x10>
 506:	00 d0       	rcall	.+0      	; 0x508 <_ZN6String6concatEj+0x12>
 508:	cd b7       	in	r28, 0x3d	; 61
 50a:	de b7       	in	r29, 0x3e	; 62
 50c:	7c 01       	movw	r14, r24
 50e:	cb 01       	movw	r24, r22
 510:	4a e0       	ldi	r20, 0x0A	; 10
 512:	50 e0       	ldi	r21, 0x00	; 0
 514:	8e 01       	movw	r16, r28
 516:	0f 5f       	subi	r16, 0xFF	; 255
 518:	1f 4f       	sbci	r17, 0xFF	; 255
 51a:	b8 01       	movw	r22, r16
 51c:	0e 94 00 00 	call	0	; 0x0 <_ZN6StringD1Ev>
 520:	f8 01       	movw	r30, r16
 522:	01 90       	ld	r0, Z+
 524:	00 20       	and	r0, r0
 526:	01 f4       	brne	.+0      	; 0x528 <_ZN6String6concatEj+0x32>
 528:	af 01       	movw	r20, r30
 52a:	41 50       	subi	r20, 0x01	; 1
 52c:	51 09       	sbc	r21, r1
 52e:	40 1b       	sub	r20, r16
 530:	51 0b       	sbc	r21, r17
 532:	b8 01       	movw	r22, r16
 534:	c7 01       	movw	r24, r14
 536:	0e 94 00 00 	call	0	; 0x0 <_ZN6StringD1Ev>
 53a:	26 96       	adiw	r28, 0x06	; 6
 53c:	0f b6       	in	r0, 0x3f	; 63
 53e:	f8 94       	cli
 540:	de bf       	out	0x3e, r29	; 62
 542:	0f be       	out	0x3f, r0	; 63
 544:	cd bf       	out	0x3d, r28	; 61
 546:	df 91       	pop	r29
 548:	cf 91       	pop	r28
 54a:	1f 91       	pop	r17
 54c:	0f 91       	pop	r16
 54e:	ff 90       	pop	r15
 550:	ef 90       	pop	r14
 552:	08 95       	ret

00000554 <_ZN6String6concatEl>:
 554:	ef 92       	push	r14
 556:	ff 92       	push	r15
 558:	0f 93       	push	r16
 55a:	1f 93       	push	r17
 55c:	cf 93       	push	r28
 55e:	df 93       	push	r29
 560:	cd b7       	in	r28, 0x3d	; 61
 562:	de b7       	in	r29, 0x3e	; 62
 564:	2c 97       	sbiw	r28, 0x0c	; 12
 566:	0f b6       	in	r0, 0x3f	; 63
 568:	f8 94       	cli
 56a:	de bf       	out	0x3e, r29	; 62
 56c:	0f be       	out	0x3f, r0	; 63
 56e:	cd bf       	out	0x3d, r28	; 61
 570:	7c 01       	movw	r14, r24
 572:	cb 01       	movw	r24, r22
 574:	ba 01       	movw	r22, r20
 576:	2a e0       	ldi	r18, 0x0A	; 10
 578:	30 e0       	ldi	r19, 0x00	; 0
 57a:	8e 01       	movw	r16, r28
 57c:	0f 5f       	subi	r16, 0xFF	; 255
 57e:	1f 4f       	sbci	r17, 0xFF	; 255
 580:	a8 01       	movw	r20, r16
 582:	0e 94 00 00 	call	0	; 0x0 <_ZN6StringD1Ev>
 586:	f8 01       	movw	r30, r16
 588:	01 90       	ld	r0, Z+
 58a:	00 20       	and	r0, r0
 58c:	01 f4       	brne	.+0      	; 0x58e <_ZN6String6concatEl+0x3a>
 58e:	af 01       	movw	r20, r30
 590:	41 50       	subi	r20, 0x01	; 1
 592:	51 09       	sbc	r21, r1
 594:	40 1b       	sub	r20, r16
 596:	51 0b       	sbc	r21, r17
 598:	b8 01       	movw	r22, r16
 59a:	c7 01       	movw	r24, r14
 59c:	0e 94 00 00 	call	0	; 0x0 <_ZN6StringD1Ev>
 5a0:	2c 96       	adiw	r28, 0x0c	; 12
 5a2:	0f b6       	in	r0, 0x3f	; 63
 5a4:	f8 94       	cli
 5a6:	de bf       	out	0x3e, r29	; 62
 5a8:	0f be       	out	0x3f, r0	; 63
 5aa:	cd bf       	out	0x3d, r28	; 61
 5ac:	df 91       	pop	r29
 5ae:	cf 91       	pop	r28
 5b0:	1f 91       	pop	r17
 5b2:	0f 91       	pop	r16
 5b4:	ff 90       	pop	r15
 5b6:	ef 90       	pop	r14
 5b8:	08 95       	ret

000005ba <_ZN6String6concatEm>:
 5ba:	ef 92       	push	r14
 5bc:	ff 92       	push	r15
 5be:	0f 93       	push	r16
 5c0:	1f 93       	push	r17
 5c2:	cf 93       	push	r28
 5c4:	df 93       	push	r29
 5c6:	cd b7       	in	r28, 0x3d	; 61
 5c8:	de b7       	in	r29, 0x3e	; 62
 5ca:	2b 97       	sbiw	r28, 0x0b	; 11
 5cc:	0f b6       	in	r0, 0x3f	; 63
 5ce:	f8 94       	cli
 5d0:	de bf       	out	0x3e, r29	; 62
 5d2:	0f be       	out	0x3f, r0	; 63
 5d4:	cd bf       	out	0x3d, r28	; 61
 5d6:	7c 01       	movw	r14, r24
 5d8:	cb 01       	movw	r24, r22
 5da:	ba 01       	movw	r22, r20
 5dc:	2a e0       	ldi	r18, 0x0A	; 10
 5de:	30 e0       	ldi	r19, 0x00	; 0
 5e0:	8e 01       	movw	r16, r28
 5e2:	0f 5f       	subi	r16, 0xFF	; 255
 5e4:	1f 4f       	sbci	r17, 0xFF	; 255
 5e6:	a8 01       	movw	r20, r16
 5e8:	0e 94 00 00 	call	0	; 0x0 <_ZN6StringD1Ev>
 5ec:	f8 01       	movw	r30, r16
 5ee:	01 90       	ld	r0, Z+
 5f0:	00 20       	and	r0, r0
 5f2:	01 f4       	brne	.+0      	; 0x5f4 <_ZN6String6concatEm+0x3a>
 5f4:	af 01       	movw	r20, r30
 5f6:	41 50       	subi	r20, 0x01	; 1
 5f8:	51 09       	sbc	r21, r1
 5fa:	40 1b       	sub	r20, r16
 5fc:	51 0b       	sbc	r21, r17
 5fe:	b8 01       	movw	r22, r16
 600:	c7 01       	movw	r24, r14
 602:	0e 94 00 00 	call	0	; 0x0 <_ZN6StringD1Ev>
 606:	2b 96       	adiw	r28, 0x0b	; 11
 608:	0f b6       	in	r0, 0x3f	; 63
 60a:	f8 94       	cli
 60c:	de bf       	out	0x3e, r29	; 62
 60e:	0f be       	out	0x3f, r0	; 63
 610:	cd bf       	out	0x3d, r28	; 61
 612:	df 91       	pop	r29
 614:	cf 91       	pop	r28
 616:	1f 91       	pop	r17
 618:	0f 91       	pop	r16
 61a:	ff 90       	pop	r15
 61c:	ef 90       	pop	r14
 61e:	08 95       	ret

00000620 <_ZplRK15StringSumHelperRK6String>:
 620:	cf 93       	push	r28
 622:	df 93       	push	r29
 624:	d8 2f       	mov	r29, r24
 626:	c9 2f       	mov	r28, r25
 628:	fb 01       	movw	r30, r22
 62a:	44 81       	ldd	r20, Z+4	; 0x04
 62c:	55 81       	ldd	r21, Z+5	; 0x05
 62e:	60 81       	ld	r22, Z
 630:	71 81       	ldd	r23, Z+1	; 0x01
 632:	0e 94 00 00 	call	0	; 0x0 <_ZN6StringD1Ev>
 636:	81 11       	cpse	r24, r1
 638:	00 c0       	rjmp	.+0      	; 0x63a <_ZplRK15StringSumHelperRK6String+0x1a>
 63a:	8d 2f       	mov	r24, r29
 63c:	9c 2f       	mov	r25, r28
 63e:	0e 94 00 00 	call	0	; 0x0 <_ZN6StringD1Ev>
 642:	8d 2f       	mov	r24, r29
 644:	9c 2f       	mov	r25, r28
 646:	df 91       	pop	r29
 648:	cf 91       	pop	r28
 64a:	08 95       	ret

0000064c <_ZplRK15StringSumHelperPKc>:
 64c:	cf 93       	push	r28
 64e:	df 93       	push	r29
 650:	d8 2f       	mov	r29, r24
 652:	c9 2f       	mov	r28, r25
 654:	61 15       	cp	r22, r1
 656:	71 05       	cpc	r23, r1
 658:	01 f0       	breq	.+0      	; 0x65a <_ZplRK15StringSumHelperPKc+0xe>
 65a:	db 01       	movw	r26, r22
 65c:	0d 90       	ld	r0, X+
 65e:	00 20       	and	r0, r0
 660:	01 f4       	brne	.+0      	; 0x662 <_ZplRK15StringSumHelperPKc+0x16>
 662:	ad 01       	movw	r20, r26
 664:	41 50       	subi	r20, 0x01	; 1
 666:	51 09       	sbc	r21, r1
 668:	46 1b       	sub	r20, r22
 66a:	57 0b       	sbc	r21, r23
 66c:	0e 94 00 00 	call	0	; 0x0 <_ZN6StringD1Ev>
 670:	81 11       	cpse	r24, r1
 672:	00 c0       	rjmp	.+0      	; 0x674 <_ZplRK15StringSumHelperPKc+0x28>
 674:	8d 2f       	mov	r24, r29
 676:	9c 2f       	mov	r25, r28
 678:	0e 94 00 00 	call	0	; 0x0 <_ZN6StringD1Ev>
 67c:	8d 2f       	mov	r24, r29
 67e:	9c 2f       	mov	r25, r28
 680:	df 91       	pop	r29
 682:	cf 91       	pop	r28
 684:	08 95       	ret

00000686 <_ZplRK15StringSumHelperc>:
 686:	cf 93       	push	r28
 688:	df 93       	push	r29
 68a:	d8 2f       	mov	r29, r24
 68c:	c9 2f       	mov	r28, r25
 68e:	0e 94 00 00 	call	0	; 0x0 <_ZN6StringD1Ev>
 692:	81 11       	cpse	r24, r1
 694:	00 c0       	rjmp	.+0      	; 0x696 <_ZplRK15StringSumHelperc+0x10>
 696:	8d 2f       	mov	r24, r29
 698:	9c 2f       	mov	r25, r28
 69a:	0e 94 00 00 	call	0	; 0x0 <_ZN6StringD1Ev>
 69e:	8d 2f       	mov	r24, r29
 6a0:	9c 2f       	mov	r25, r28
 6a2:	df 91       	pop	r29
 6a4:	cf 91       	pop	r28
 6a6:	08 95       	ret

000006a8 <_ZplRK15StringSumHelperh>:
 6a8:	cf 93       	push	r28
 6aa:	df 93       	push	r29
 6ac:	d8 2f       	mov	r29, r24
 6ae:	c9 2f       	mov	r28, r25
 6b0:	0e 94 00 00 	call	0	; 0x0 <_ZN6StringD1Ev>
 6b4:	81 11       	cpse	r24, r1
 6b6:	00 c0       	rjmp	.+0      	; 0x6b8 <_ZplRK15StringSumHelperh+0x10>
 6b8:	8d 2f       	mov	r24, r29
 6ba:	9c 2f       	mov	r25, r28
 6bc:	0e 94 00 00 	call	0	; 0x0 <_ZN6StringD1Ev>
 6c0:	8d 2f       	mov	r24, r29
 6c2:	9c 2f       	mov	r25, r28
 6c4:	df 91       	pop	r29
 6c6:	cf 91       	pop	r28
 6c8:	08 95       	ret

000006ca <_ZplRK15StringSumHelperi>:
 6ca:	cf 93       	push	r28
 6cc:	df 93       	push	r29
 6ce:	d8 2f       	mov	r29, r24
 6d0:	c9 2f       	mov	r28, r25
 6d2:	0e 94 00 00 	call	0	; 0x0 <_ZN6StringD1Ev>
 6d6:	81 11       	cpse	r24, r1
 6d8:	00 c0       	rjmp	.+0      	; 0x6da <_ZplRK15StringSumHelperi+0x10>
 6da:	8d 2f       	mov	r24, r29
 6dc:	9c 2f       	mov	r25, r28
 6de:	0e 94 00 00 	call	0	; 0x0 <_ZN6StringD1Ev>
 6e2:	8d 2f       	mov	r24, r29
 6e4:	9c 2f       	mov	r25, r28
 6e6:	df 91       	pop	r29
 6e8:	cf 91       	pop	r28
 6ea:	08 95       	ret

000006ec <_ZplRK15StringSumHelperj>:
 6ec:	cf 93       	push	r28
 6ee:	df 93       	push	r29
 6f0:	d8 2f       	mov	r29, r24
 6f2:	c9 2f       	mov	r28, r25
 6f4:	0e 94 00 00 	call	0	; 0x0 <_ZN6StringD1Ev>
 6f8:	81 11       	cpse	r24, r1
 6fa:	00 c0       	rjmp	.+0      	; 0x6fc <_ZplRK15StringSumHelperj+0x10>
 6fc:	8d 2f       	mov	r24, r29
 6fe:	9c 2f       	mov	r25, r28
 700:	0e 94 00 00 	call	0	; 0x0 <_ZN6StringD1Ev>
 704:	8d 2f       	mov	r24, r29
 706:	9c 2f       	mov	r25, r28
 708:	df 91       	pop	r29
 70a:	cf 91       	pop	r28
 70c:	08 95       	ret

0000070e <_ZplRK15StringSumHelperl>:
 70e:	cf 93       	push	r28
 710:	df 93       	push	r29
 712:	d8 2f       	mov	r29, r24
 714:	c9 2f       	mov	r28, r25
 716:	0e 94 00 00 	call	0	; 0x0 <_ZN6StringD1Ev>
 71a:	81 11       	cpse	r24, r1
 71c:	00 c0       	rjmp	.+0      	; 0x71e <_ZplRK15StringSumHelperl+0x10>
 71e:	8d 2f       	mov	r24, r29
 720:	9c 2f       	mov	r25, r28
 722:	0e 94 00 00 	call	0	; 0x0 <_ZN6StringD1Ev>
 726:	8d 2f       	mov	r24, r29
 728:	9c 2f       	mov	r25, r28
 72a:	df 91       	pop	r29
 72c:	cf 91       	pop	r28
 72e:	08 95       	ret

00000730 <_ZplRK15StringSumHelperm>:
 730:	cf 93       	push	r28
 732:	df 93       	push	r29
 734:	d8 2f       	mov	r29, r24
 736:	c9 2f       	mov	r28, r25
 738:	0e 94 00 00 	call	0	; 0x0 <_ZN6StringD1Ev>
 73c:	81 11       	cpse	r24, r1
 73e:	00 c0       	rjmp	.+0      	; 0x740 <_ZplRK15StringSumHelperm+0x10>
 740:	8d 2f       	mov	r24, r29
 742:	9c 2f       	mov	r25, r28
 744:	0e 94 00 00 	call	0	; 0x0 <_ZN6StringD1Ev>
 748:	8d 2f       	mov	r24, r29
 74a:	9c 2f       	mov	r25, r28
 74c:	df 91       	pop	r29
 74e:	cf 91       	pop	r28
 750:	08 95       	ret

00000752 <_ZNK6String9compareToERKS_>:
 752:	cf 93       	push	r28
 754:	df 93       	push	r29
 756:	dc 01       	movw	r26, r24
 758:	ed 91       	ld	r30, X+
 75a:	fc 91       	ld	r31, X
 75c:	eb 01       	movw	r28, r22
 75e:	a8 81       	ld	r26, Y
 760:	b9 81       	ldd	r27, Y+1	; 0x01
 762:	30 97       	sbiw	r30, 0x00	; 0
 764:	01 f0       	breq	.+0      	; 0x766 <_ZNK6String9compareToERKS_+0x14>
 766:	10 97       	sbiw	r26, 0x00	; 0
 768:	01 f4       	brne	.+0      	; 0x76a <_ZNK6String9compareToERKS_+0x18>
 76a:	10 97       	sbiw	r26, 0x00	; 0
 76c:	01 f0       	breq	.+0      	; 0x76e <_ZNK6String9compareToERKS_+0x1c>
 76e:	eb 01       	movw	r28, r22
 770:	2c 81       	ldd	r18, Y+4	; 0x04
 772:	3d 81       	ldd	r19, Y+5	; 0x05
 774:	23 2b       	or	r18, r19
 776:	01 f0       	breq	.+0      	; 0x778 <_ZNK6String9compareToERKS_+0x26>
 778:	2c 91       	ld	r18, X
 77a:	30 e0       	ldi	r19, 0x00	; 0
 77c:	31 95       	neg	r19
 77e:	21 95       	neg	r18
 780:	31 09       	sbc	r19, r1
 782:	00 c0       	rjmp	.+0      	; 0x784 <_ZNK6String9compareToERKS_+0x32>
 784:	30 97       	sbiw	r30, 0x00	; 0
 786:	01 f0       	breq	.+0      	; 0x788 <_ZNK6String9compareToERKS_+0x36>
 788:	dc 01       	movw	r26, r24
 78a:	14 96       	adiw	r26, 0x04	; 4
 78c:	8d 91       	ld	r24, X+
 78e:	9c 91       	ld	r25, X
 790:	15 97       	sbiw	r26, 0x05	; 5
 792:	89 2b       	or	r24, r25
 794:	01 f0       	breq	.+0      	; 0x796 <_ZNK6String9compareToERKS_+0x44>
 796:	20 81       	ld	r18, Z
 798:	30 e0       	ldi	r19, 0x00	; 0
 79a:	00 c0       	rjmp	.+0      	; 0x79c <_ZNK6String9compareToERKS_+0x4a>
 79c:	bd 01       	movw	r22, r26
 79e:	cf 01       	movw	r24, r30
 7a0:	df 91       	pop	r29
 7a2:	cf 91       	pop	r28
 7a4:	0c 94 00 00 	jmp	0	; 0x0 <_ZN6StringD1Ev>
 7a8:	20 e0       	ldi	r18, 0x00	; 0
 7aa:	30 e0       	ldi	r19, 0x00	; 0
 7ac:	c9 01       	movw	r24, r18
 7ae:	df 91       	pop	r29
 7b0:	cf 91       	pop	r28
 7b2:	08 95       	ret

000007b4 <_ZNK6String6equalsERKS_>:
 7b4:	fc 01       	movw	r30, r24
 7b6:	44 81       	ldd	r20, Z+4	; 0x04
 7b8:	55 81       	ldd	r21, Z+5	; 0x05
 7ba:	fb 01       	movw	r30, r22
 7bc:	24 81       	ldd	r18, Z+4	; 0x04
 7be:	35 81       	ldd	r19, Z+5	; 0x05
 7c0:	42 17       	cp	r20, r18
 7c2:	53 07       	cpc	r21, r19
 7c4:	01 f4       	brne	.+0      	; 0x7c6 <_ZNK6String6equalsERKS_+0x12>
 7c6:	0e 94 00 00 	call	0	; 0x0 <_ZN6StringD1Ev>
 7ca:	21 e0       	ldi	r18, 0x01	; 1
 7cc:	89 2b       	or	r24, r25
 7ce:	01 f0       	breq	.+0      	; 0x7d0 <_ZNK6String6equalsERKS_+0x1c>
 7d0:	20 e0       	ldi	r18, 0x00	; 0
 7d2:	82 2f       	mov	r24, r18
 7d4:	08 95       	ret

000007d6 <_ZNK6String6equalsEPKc>:
 7d6:	dc 01       	movw	r26, r24
 7d8:	14 96       	adiw	r26, 0x04	; 4
 7da:	2d 91       	ld	r18, X+
 7dc:	3c 91       	ld	r19, X
 7de:	15 97       	sbiw	r26, 0x05	; 5
 7e0:	23 2b       	or	r18, r19
 7e2:	01 f4       	brne	.+0      	; 0x7e4 <_ZNK6String6equalsEPKc+0xe>
 7e4:	81 e0       	ldi	r24, 0x01	; 1
 7e6:	61 15       	cp	r22, r1
 7e8:	71 05       	cpc	r23, r1
 7ea:	01 f0       	breq	.+0      	; 0x7ec <_ZNK6String6equalsEPKc+0x16>
 7ec:	fb 01       	movw	r30, r22
 7ee:	00 c0       	rjmp	.+0      	; 0x7f0 <_ZNK6String6equalsEPKc+0x1a>
 7f0:	08 95       	ret
 7f2:	dc 01       	movw	r26, r24
 7f4:	ed 91       	ld	r30, X+
 7f6:	fc 91       	ld	r31, X
 7f8:	61 15       	cp	r22, r1
 7fa:	71 05       	cpc	r23, r1
 7fc:	01 f4       	brne	.+0      	; 0x7fe <_ZNK6String6equalsEPKc+0x28>
 7fe:	81 e0       	ldi	r24, 0x01	; 1
 800:	90 81       	ld	r25, Z
 802:	99 23       	and	r25, r25
 804:	01 f0       	breq	.+0      	; 0x806 <_ZNK6String6equalsEPKc+0x30>
 806:	00 c0       	rjmp	.+0      	; 0x808 <_ZNK6String6equalsEPKc+0x32>
 808:	cf 01       	movw	r24, r30
 80a:	0e 94 00 00 	call	0	; 0x0 <_ZN6StringD1Ev>
 80e:	9c 01       	movw	r18, r24
 810:	81 e0       	ldi	r24, 0x01	; 1
 812:	23 2b       	or	r18, r19
 814:	01 f0       	breq	.+0      	; 0x816 <_ZNK6String6equalsEPKc+0x40>
 816:	80 e0       	ldi	r24, 0x00	; 0
 818:	08 95       	ret

0000081a <_ZNK6StringltERKS_>:
 81a:	0e 94 00 00 	call	0	; 0x0 <_ZN6StringD1Ev>
 81e:	89 2f       	mov	r24, r25
 820:	88 1f       	adc	r24, r24
 822:	88 27       	eor	r24, r24
 824:	88 1f       	adc	r24, r24
 826:	08 95       	ret

00000828 <_ZNK6StringgtERKS_>:
 828:	0e 94 00 00 	call	0	; 0x0 <_ZN6StringD1Ev>
 82c:	21 e0       	ldi	r18, 0x01	; 1
 82e:	18 16       	cp	r1, r24
 830:	19 06       	cpc	r1, r25
 832:	04 f0       	brlt	.+0      	; 0x834 <_ZNK6StringgtERKS_+0xc>
 834:	20 e0       	ldi	r18, 0x00	; 0
 836:	82 2f       	mov	r24, r18
 838:	08 95       	ret

0000083a <_ZNK6StringleERKS_>:
 83a:	0e 94 00 00 	call	0	; 0x0 <_ZN6StringD1Ev>
 83e:	21 e0       	ldi	r18, 0x01	; 1
 840:	18 16       	cp	r1, r24
 842:	19 06       	cpc	r1, r25
 844:	04 f4       	brge	.+0      	; 0x846 <_ZNK6StringleERKS_+0xc>
 846:	20 e0       	ldi	r18, 0x00	; 0
 848:	82 2f       	mov	r24, r18
 84a:	08 95       	ret

0000084c <_ZNK6StringgeERKS_>:
 84c:	0e 94 00 00 	call	0	; 0x0 <_ZN6StringD1Ev>
 850:	89 2f       	mov	r24, r25
 852:	80 95       	com	r24
 854:	88 1f       	adc	r24, r24
 856:	88 27       	eor	r24, r24
 858:	88 1f       	adc	r24, r24
 85a:	08 95       	ret

0000085c <_ZNK6String16equalsIgnoreCaseERKS_>:
 85c:	ef 92       	push	r14
 85e:	ff 92       	push	r15
 860:	0f 93       	push	r16
 862:	1f 93       	push	r17
 864:	cf 93       	push	r28
 866:	df 93       	push	r29
 868:	86 17       	cp	r24, r22
 86a:	97 07       	cpc	r25, r23
 86c:	01 f0       	breq	.+0      	; 0x86e <_ZNK6String16equalsIgnoreCaseERKS_+0x12>
 86e:	fc 01       	movw	r30, r24
 870:	24 81       	ldd	r18, Z+4	; 0x04
 872:	35 81       	ldd	r19, Z+5	; 0x05
 874:	fb 01       	movw	r30, r22
 876:	44 81       	ldd	r20, Z+4	; 0x04
 878:	55 81       	ldd	r21, Z+5	; 0x05
 87a:	24 17       	cp	r18, r20
 87c:	35 07       	cpc	r19, r21
 87e:	01 f4       	brne	.+0      	; 0x880 <_ZNK6String16equalsIgnoreCaseERKS_+0x24>
 880:	23 2b       	or	r18, r19
 882:	01 f0       	breq	.+0      	; 0x884 <_ZNK6String16equalsIgnoreCaseERKS_+0x28>
 884:	c0 81       	ld	r28, Z
 886:	d1 81       	ldd	r29, Z+1	; 0x01
 888:	fc 01       	movw	r30, r24
 88a:	00 81       	ld	r16, Z
 88c:	11 81       	ldd	r17, Z+1	; 0x01
 88e:	00 c0       	rjmp	.+0      	; 0x890 <_ZNK6String16equalsIgnoreCaseERKS_+0x34>
 890:	90 e0       	ldi	r25, 0x00	; 0
 892:	0e 94 00 00 	call	0	; 0x0 <_ZN6StringD1Ev>
 896:	7c 01       	movw	r14, r24
 898:	89 91       	ld	r24, Y+
 89a:	90 e0       	ldi	r25, 0x00	; 0
 89c:	0e 94 00 00 	call	0	; 0x0 <_ZN6StringD1Ev>
 8a0:	e8 16       	cp	r14, r24
 8a2:	f9 06       	cpc	r15, r25
 8a4:	01 f4       	brne	.+0      	; 0x8a6 <_ZNK6String16equalsIgnoreCaseERKS_+0x4a>
 8a6:	f8 01       	movw	r30, r16
 8a8:	81 91       	ld	r24, Z+
 8aa:	8f 01       	movw	r16, r30
 8ac:	81 11       	cpse	r24, r1
 8ae:	00 c0       	rjmp	.+0      	; 0x8b0 <_ZNK6String16equalsIgnoreCaseERKS_+0x54>
 8b0:	81 e0       	ldi	r24, 0x01	; 1
 8b2:	00 c0       	rjmp	.+0      	; 0x8b4 <_ZNK6String16equalsIgnoreCaseERKS_+0x58>
 8b4:	80 e0       	ldi	r24, 0x00	; 0
 8b6:	df 91       	pop	r29
 8b8:	cf 91       	pop	r28
 8ba:	1f 91       	pop	r17
 8bc:	0f 91       	pop	r16
 8be:	ff 90       	pop	r15
 8c0:	ef 90       	pop	r14
 8c2:	08 95       	ret

000008c4 <_ZNK6String10startsWithERKS_j>:
 8c4:	fa 01       	movw	r30, r20
 8c6:	db 01       	movw	r26, r22
 8c8:	14 96       	adiw	r26, 0x04	; 4
 8ca:	4d 91       	ld	r20, X+
 8cc:	5c 91       	ld	r21, X
 8ce:	15 97       	sbiw	r26, 0x05	; 5
 8d0:	dc 01       	movw	r26, r24
 8d2:	14 96       	adiw	r26, 0x04	; 4
 8d4:	2d 91       	ld	r18, X+
 8d6:	3c 91       	ld	r19, X
 8d8:	15 97       	sbiw	r26, 0x05	; 5
 8da:	24 1b       	sub	r18, r20
 8dc:	35 0b       	sbc	r19, r21
 8de:	2e 17       	cp	r18, r30
 8e0:	3f 07       	cpc	r19, r31
 8e2:	00 f0       	brcs	.+0      	; 0x8e4 <_ZNK6String10startsWithERKS_j+0x20>
 8e4:	8d 91       	ld	r24, X+
 8e6:	9c 91       	ld	r25, X
 8e8:	00 97       	sbiw	r24, 0x00	; 0
 8ea:	01 f0       	breq	.+0      	; 0x8ec <_ZNK6String10startsWithERKS_j+0x28>
 8ec:	db 01       	movw	r26, r22
 8ee:	6d 91       	ld	r22, X+
 8f0:	7c 91       	ld	r23, X
 8f2:	61 15       	cp	r22, r1
 8f4:	71 05       	cpc	r23, r1
 8f6:	01 f0       	breq	.+0      	; 0x8f8 <_ZNK6String10startsWithERKS_j+0x34>
 8f8:	8e 0f       	add	r24, r30
 8fa:	9f 1f       	adc	r25, r31
 8fc:	0e 94 00 00 	call	0	; 0x0 <_ZN6StringD1Ev>
 900:	9c 01       	movw	r18, r24
 902:	81 e0       	ldi	r24, 0x01	; 1
 904:	23 2b       	or	r18, r19
 906:	01 f0       	breq	.+0      	; 0x908 <_ZNK6String10startsWithERKS_j+0x44>
 908:	80 e0       	ldi	r24, 0x00	; 0
 90a:	08 95       	ret

0000090c <_ZNK6String10startsWithERKS_>:
 90c:	fc 01       	movw	r30, r24
 90e:	44 81       	ldd	r20, Z+4	; 0x04
 910:	55 81       	ldd	r21, Z+5	; 0x05
 912:	fb 01       	movw	r30, r22
 914:	24 81       	ldd	r18, Z+4	; 0x04
 916:	35 81       	ldd	r19, Z+5	; 0x05
 918:	42 17       	cp	r20, r18
 91a:	53 07       	cpc	r21, r19
 91c:	00 f0       	brcs	.+0      	; 0x91e <_ZNK6String10startsWithERKS_+0x12>
 91e:	40 e0       	ldi	r20, 0x00	; 0
 920:	50 e0       	ldi	r21, 0x00	; 0
 922:	0c 94 00 00 	jmp	0	; 0x0 <_ZN6StringD1Ev>
 926:	80 e0       	ldi	r24, 0x00	; 0
 928:	08 95       	ret

0000092a <_ZNK6String8endsWithERKS_>:
 92a:	fc 01       	movw	r30, r24
 92c:	84 81       	ldd	r24, Z+4	; 0x04
 92e:	95 81       	ldd	r25, Z+5	; 0x05
 930:	db 01       	movw	r26, r22
 932:	14 96       	adiw	r26, 0x04	; 4
 934:	4d 91       	ld	r20, X+
 936:	5c 91       	ld	r21, X
 938:	15 97       	sbiw	r26, 0x05	; 5
 93a:	84 17       	cp	r24, r20
 93c:	95 07       	cpc	r25, r21
 93e:	00 f0       	brcs	.+0      	; 0x940 <_ZNK6String8endsWithERKS_+0x16>
 940:	20 81       	ld	r18, Z
 942:	31 81       	ldd	r19, Z+1	; 0x01
 944:	21 15       	cp	r18, r1
 946:	31 05       	cpc	r19, r1
 948:	01 f0       	breq	.+0      	; 0x94a <_ZNK6String8endsWithERKS_+0x20>
 94a:	6d 91       	ld	r22, X+
 94c:	7c 91       	ld	r23, X
 94e:	61 15       	cp	r22, r1
 950:	71 05       	cpc	r23, r1
 952:	01 f0       	breq	.+0      	; 0x954 <_ZNK6String8endsWithERKS_+0x2a>
 954:	84 1b       	sub	r24, r20
 956:	95 0b       	sbc	r25, r21
 958:	82 0f       	add	r24, r18
 95a:	93 1f       	adc	r25, r19
 95c:	0e 94 00 00 	call	0	; 0x0 <_ZN6StringD1Ev>
 960:	9c 01       	movw	r18, r24
 962:	81 e0       	ldi	r24, 0x01	; 1
 964:	23 2b       	or	r18, r19
 966:	01 f0       	breq	.+0      	; 0x968 <_ZNK6String8endsWithERKS_+0x3e>
 968:	80 e0       	ldi	r24, 0x00	; 0
 96a:	08 95       	ret

0000096c <_ZN6String9setCharAtEjc>:
 96c:	dc 01       	movw	r26, r24
 96e:	14 96       	adiw	r26, 0x04	; 4
 970:	2d 91       	ld	r18, X+
 972:	3c 91       	ld	r19, X
 974:	15 97       	sbiw	r26, 0x05	; 5
 976:	62 17       	cp	r22, r18
 978:	73 07       	cpc	r23, r19
 97a:	00 f4       	brcc	.+0      	; 0x97c <_ZN6String9setCharAtEjc+0x10>
 97c:	ed 91       	ld	r30, X+
 97e:	fc 91       	ld	r31, X
 980:	e6 0f       	add	r30, r22
 982:	f7 1f       	adc	r31, r23
 984:	40 83       	st	Z, r20
 986:	08 95       	ret

00000988 <_ZN6StringixEj>:
 988:	fc 01       	movw	r30, r24
 98a:	24 81       	ldd	r18, Z+4	; 0x04
 98c:	35 81       	ldd	r19, Z+5	; 0x05
 98e:	62 17       	cp	r22, r18
 990:	73 07       	cpc	r23, r19
 992:	00 f4       	brcc	.+0      	; 0x994 <_ZN6StringixEj+0xc>
 994:	80 81       	ld	r24, Z
 996:	91 81       	ldd	r25, Z+1	; 0x01
 998:	00 97       	sbiw	r24, 0x00	; 0
 99a:	01 f4       	brne	.+0      	; 0x99c <_ZN6StringixEj+0x14>
 99c:	10 92 00 00 	sts	0x0000, r1
 9a0:	60 e0       	ldi	r22, 0x00	; 0
 9a2:	70 e0       	ldi	r23, 0x00	; 0
 9a4:	00 c0       	rjmp	.+0      	; 0x9a6 <_ZN6StringixEj+0x1e>
 9a6:	68 0f       	add	r22, r24
 9a8:	79 1f       	adc	r23, r25
 9aa:	cb 01       	movw	r24, r22
 9ac:	08 95       	ret

000009ae <_ZNK6StringixEj>:
 9ae:	fc 01       	movw	r30, r24
 9b0:	24 81       	ldd	r18, Z+4	; 0x04
 9b2:	35 81       	ldd	r19, Z+5	; 0x05
 9b4:	62 17       	cp	r22, r18
 9b6:	73 07       	cpc	r23, r19
 9b8:	00 f4       	brcc	.+0      	; 0x9ba <_ZNK6StringixEj+0xc>
 9ba:	80 81       	ld	r24, Z
 9bc:	91 81       	ldd	r25, Z+1	; 0x01
 9be:	00 97       	sbiw	r24, 0x00	; 0
 9c0:	01 f0       	breq	.+0      	; 0x9c2 <_ZNK6StringixEj+0x14>
 9c2:	fc 01       	movw	r30, r24
 9c4:	e6 0f       	add	r30, r22
 9c6:	f7 1f       	adc	r31, r23
 9c8:	80 81       	ld	r24, Z
 9ca:	08 95       	ret
 9cc:	80 e0       	ldi	r24, 0x00	; 0
 9ce:	08 95       	ret

000009d0 <_ZNK6String6charAtEj>:
 9d0:	0c 94 00 00 	jmp	0	; 0x0 <_ZN6StringD1Ev>

000009d4 <_ZNK6String8getBytesEPhjj>:
 9d4:	0f 93       	push	r16
 9d6:	1f 93       	push	r17
 9d8:	cf 93       	push	r28
 9da:	df 93       	push	r29
 9dc:	eb 01       	movw	r28, r22
 9de:	41 15       	cp	r20, r1
 9e0:	51 05       	cpc	r21, r1
 9e2:	01 f0       	breq	.+0      	; 0x9e4 <_ZNK6String8getBytesEPhjj+0x10>
 9e4:	20 97       	sbiw	r28, 0x00	; 0
 9e6:	01 f0       	breq	.+0      	; 0x9e8 <_ZNK6String8getBytesEPhjj+0x14>
 9e8:	fc 01       	movw	r30, r24
 9ea:	04 81       	ldd	r16, Z+4	; 0x04
 9ec:	15 81       	ldd	r17, Z+5	; 0x05
 9ee:	20 17       	cp	r18, r16
 9f0:	31 07       	cpc	r19, r17
 9f2:	00 f0       	brcs	.+0      	; 0x9f4 <_ZNK6String8getBytesEPhjj+0x20>
 9f4:	00 c0       	rjmp	.+0      	; 0x9f6 <_ZNK6String8getBytesEPhjj+0x22>
 9f6:	41 50       	subi	r20, 0x01	; 1
 9f8:	51 09       	sbc	r21, r1
 9fa:	02 1b       	sub	r16, r18
 9fc:	13 0b       	sbc	r17, r19
 9fe:	40 17       	cp	r20, r16
 a00:	51 07       	cpc	r21, r17
 a02:	00 f4       	brcc	.+0      	; 0xa04 <_ZNK6String8getBytesEPhjj+0x30>
 a04:	8a 01       	movw	r16, r20
 a06:	fc 01       	movw	r30, r24
 a08:	60 81       	ld	r22, Z
 a0a:	71 81       	ldd	r23, Z+1	; 0x01
 a0c:	62 0f       	add	r22, r18
 a0e:	73 1f       	adc	r23, r19
 a10:	a8 01       	movw	r20, r16
 a12:	ce 01       	movw	r24, r28
 a14:	0e 94 00 00 	call	0	; 0x0 <_ZN6StringD1Ev>
 a18:	c0 0f       	add	r28, r16
 a1a:	d1 1f       	adc	r29, r17
 a1c:	18 82       	st	Y, r1
 a1e:	df 91       	pop	r29
 a20:	cf 91       	pop	r28
 a22:	1f 91       	pop	r17
 a24:	0f 91       	pop	r16
 a26:	08 95       	ret

00000a28 <_ZNK6String7indexOfEcj>:
 a28:	cf 93       	push	r28
 a2a:	df 93       	push	r29
 a2c:	fc 01       	movw	r30, r24
 a2e:	84 81       	ldd	r24, Z+4	; 0x04
 a30:	95 81       	ldd	r25, Z+5	; 0x05
 a32:	48 17       	cp	r20, r24
 a34:	59 07       	cpc	r21, r25
 a36:	00 f4       	brcc	.+0      	; 0xa38 <_ZNK6String7indexOfEcj+0x10>
 a38:	c0 81       	ld	r28, Z
 a3a:	d1 81       	ldd	r29, Z+1	; 0x01
 a3c:	70 e0       	ldi	r23, 0x00	; 0
 a3e:	ce 01       	movw	r24, r28
 a40:	84 0f       	add	r24, r20
 a42:	95 1f       	adc	r25, r21
 a44:	0e 94 00 00 	call	0	; 0x0 <_ZN6StringD1Ev>
 a48:	00 97       	sbiw	r24, 0x00	; 0
 a4a:	01 f0       	breq	.+0      	; 0xa4c <_ZNK6String7indexOfEcj+0x24>
 a4c:	9c 01       	movw	r18, r24
 a4e:	2c 1b       	sub	r18, r28
 a50:	3d 0b       	sbc	r19, r29
 a52:	00 c0       	rjmp	.+0      	; 0xa54 <_ZNK6String7indexOfEcj+0x2c>
 a54:	2f ef       	ldi	r18, 0xFF	; 255
 a56:	3f ef       	ldi	r19, 0xFF	; 255
 a58:	c9 01       	movw	r24, r18
 a5a:	df 91       	pop	r29
 a5c:	cf 91       	pop	r28
 a5e:	08 95       	ret

00000a60 <_ZNK6String7indexOfEc>:
 a60:	40 e0       	ldi	r20, 0x00	; 0
 a62:	50 e0       	ldi	r21, 0x00	; 0
 a64:	0c 94 00 00 	jmp	0	; 0x0 <_ZN6StringD1Ev>

00000a68 <_ZNK6String7indexOfERKS_j>:
 a68:	cf 93       	push	r28
 a6a:	df 93       	push	r29
 a6c:	fc 01       	movw	r30, r24
 a6e:	84 81       	ldd	r24, Z+4	; 0x04
 a70:	95 81       	ldd	r25, Z+5	; 0x05
 a72:	48 17       	cp	r20, r24
 a74:	59 07       	cpc	r21, r25
 a76:	00 f4       	brcc	.+0      	; 0xa78 <_ZNK6String7indexOfERKS_j+0x10>
 a78:	c0 81       	ld	r28, Z
 a7a:	d1 81       	ldd	r29, Z+1	; 0x01
 a7c:	fb 01       	movw	r30, r22
 a7e:	60 81       	ld	r22, Z
 a80:	71 81       	ldd	r23, Z+1	; 0x01
 a82:	ce 01       	movw	r24, r28
 a84:	84 0f       	add	r24, r20
 a86:	95 1f       	adc	r25, r21
 a88:	0e 94 00 00 	call	0	; 0x0 <_ZN6StringD1Ev>
 a8c:	00 97       	sbiw	r24, 0x00	; 0
 a8e:	01 f0       	breq	.+0      	; 0xa90 <_ZNK6String7indexOfERKS_j+0x28>
 a90:	9c 01       	movw	r18, r24
 a92:	2c 1b       	sub	r18, r28
 a94:	3d 0b       	sbc	r19, r29
 a96:	00 c0       	rjmp	.+0      	; 0xa98 <_ZNK6String7indexOfERKS_j+0x30>
 a98:	2f ef       	ldi	r18, 0xFF	; 255
 a9a:	3f ef       	ldi	r19, 0xFF	; 255
 a9c:	c9 01       	movw	r24, r18
 a9e:	df 91       	pop	r29
 aa0:	cf 91       	pop	r28
 aa2:	08 95       	ret

00000aa4 <_ZNK6String7indexOfERKS_>:
 aa4:	40 e0       	ldi	r20, 0x00	; 0
 aa6:	50 e0       	ldi	r21, 0x00	; 0
 aa8:	0c 94 00 00 	jmp	0	; 0x0 <_ZN6StringD1Ev>

00000aac <_ZNK6String11lastIndexOfEcj>:
 aac:	df 92       	push	r13
 aae:	ef 92       	push	r14
 ab0:	ff 92       	push	r15
 ab2:	0f 93       	push	r16
 ab4:	1f 93       	push	r17
 ab6:	cf 93       	push	r28
 ab8:	df 93       	push	r29
 aba:	ec 01       	movw	r28, r24
 abc:	8c 81       	ldd	r24, Y+4	; 0x04
 abe:	9d 81       	ldd	r25, Y+5	; 0x05
 ac0:	48 17       	cp	r20, r24
 ac2:	59 07       	cpc	r21, r25
 ac4:	00 f0       	brcs	.+0      	; 0xac6 <_ZNK6String11lastIndexOfEcj+0x1a>
 ac6:	2f ef       	ldi	r18, 0xFF	; 255
 ac8:	3f ef       	ldi	r19, 0xFF	; 255
 aca:	00 c0       	rjmp	.+0      	; 0xacc <_ZNK6String11lastIndexOfEcj+0x20>
 acc:	8a 01       	movw	r16, r20
 ace:	0f 5f       	subi	r16, 0xFF	; 255
 ad0:	1f 4f       	sbci	r17, 0xFF	; 255
 ad2:	e8 81       	ld	r30, Y
 ad4:	f9 81       	ldd	r31, Y+1	; 0x01
 ad6:	e0 0f       	add	r30, r16
 ad8:	f1 1f       	adc	r31, r17
 ada:	d0 80       	ld	r13, Z
 adc:	10 82       	st	Z, r1
 ade:	e8 80       	ld	r14, Y
 ae0:	f9 80       	ldd	r15, Y+1	; 0x01
 ae2:	70 e0       	ldi	r23, 0x00	; 0
 ae4:	c7 01       	movw	r24, r14
 ae6:	0e 94 00 00 	call	0	; 0x0 <_ZN6StringD1Ev>
 aea:	f7 01       	movw	r30, r14
 aec:	e0 0f       	add	r30, r16
 aee:	f1 1f       	adc	r31, r17
 af0:	d0 82       	st	Z, r13
 af2:	00 97       	sbiw	r24, 0x00	; 0
 af4:	01 f0       	breq	.+0      	; 0xaf6 <_ZNK6String11lastIndexOfEcj+0x4a>
 af6:	28 81       	ld	r18, Y
 af8:	39 81       	ldd	r19, Y+1	; 0x01
 afa:	ac 01       	movw	r20, r24
 afc:	42 1b       	sub	r20, r18
 afe:	53 0b       	sbc	r21, r19
 b00:	9a 01       	movw	r18, r20
 b02:	c9 01       	movw	r24, r18
 b04:	df 91       	pop	r29
 b06:	cf 91       	pop	r28
 b08:	1f 91       	pop	r17
 b0a:	0f 91       	pop	r16
 b0c:	ff 90       	pop	r15
 b0e:	ef 90       	pop	r14
 b10:	df 90       	pop	r13
 b12:	08 95       	ret

00000b14 <_ZNK6String11lastIndexOfEc>:
 b14:	fc 01       	movw	r30, r24
 b16:	44 81       	ldd	r20, Z+4	; 0x04
 b18:	55 81       	ldd	r21, Z+5	; 0x05
 b1a:	41 50       	subi	r20, 0x01	; 1
 b1c:	51 09       	sbc	r21, r1
 b1e:	0c 94 00 00 	jmp	0	; 0x0 <_ZN6StringD1Ev>

00000b22 <_ZNK6String11lastIndexOfERKS_j>:
 b22:	af 92       	push	r10
 b24:	bf 92       	push	r11
 b26:	cf 92       	push	r12
 b28:	df 92       	push	r13
 b2a:	ef 92       	push	r14
 b2c:	ff 92       	push	r15
 b2e:	0f 93       	push	r16
 b30:	1f 93       	push	r17
 b32:	cf 93       	push	r28
 b34:	df 93       	push	r29
 b36:	6b 01       	movw	r12, r22
 b38:	8a 01       	movw	r16, r20
 b3a:	fb 01       	movw	r30, r22
 b3c:	44 81       	ldd	r20, Z+4	; 0x04
 b3e:	55 81       	ldd	r21, Z+5	; 0x05
 b40:	41 15       	cp	r20, r1
 b42:	51 05       	cpc	r21, r1
 b44:	01 f0       	breq	.+0      	; 0xb46 <_ZNK6String11lastIndexOfERKS_j+0x24>
 b46:	fc 01       	movw	r30, r24
 b48:	24 81       	ldd	r18, Z+4	; 0x04
 b4a:	35 81       	ldd	r19, Z+5	; 0x05
 b4c:	21 15       	cp	r18, r1
 b4e:	31 05       	cpc	r19, r1
 b50:	01 f0       	breq	.+0      	; 0xb52 <_ZNK6String11lastIndexOfERKS_j+0x30>
 b52:	24 17       	cp	r18, r20
 b54:	35 07       	cpc	r19, r21
 b56:	00 f0       	brcs	.+0      	; 0xb58 <_ZNK6String11lastIndexOfERKS_j+0x36>
 b58:	02 17       	cp	r16, r18
 b5a:	13 07       	cpc	r17, r19
 b5c:	00 f0       	brcs	.+0      	; 0xb5e <_ZNK6String11lastIndexOfERKS_j+0x3c>
 b5e:	89 01       	movw	r16, r18
 b60:	01 50       	subi	r16, 0x01	; 1
 b62:	11 09       	sbc	r17, r1
 b64:	fc 01       	movw	r30, r24
 b66:	e0 80       	ld	r14, Z
 b68:	f1 80       	ldd	r15, Z+1	; 0x01
 b6a:	c7 01       	movw	r24, r14
 b6c:	cf ef       	ldi	r28, 0xFF	; 255
 b6e:	df ef       	ldi	r29, 0xFF	; 255
 b70:	57 01       	movw	r10, r14
 b72:	a0 0e       	add	r10, r16
 b74:	b1 1e       	adc	r11, r17
 b76:	00 c0       	rjmp	.+0      	; 0xb78 <_ZNK6String11lastIndexOfERKS_j+0x56>
 b78:	f6 01       	movw	r30, r12
 b7a:	60 81       	ld	r22, Z
 b7c:	71 81       	ldd	r23, Z+1	; 0x01
 b7e:	0e 94 00 00 	call	0	; 0x0 <_ZN6StringD1Ev>
 b82:	00 97       	sbiw	r24, 0x00	; 0
 b84:	01 f0       	breq	.+0      	; 0xb86 <_ZNK6String11lastIndexOfERKS_j+0x64>
 b86:	9c 01       	movw	r18, r24
 b88:	2e 19       	sub	r18, r14
 b8a:	3f 09       	sbc	r19, r15
 b8c:	02 17       	cp	r16, r18
 b8e:	13 07       	cpc	r17, r19
 b90:	00 f4       	brcc	.+0      	; 0xb92 <_ZNK6String11lastIndexOfERKS_j+0x70>
 b92:	9e 01       	movw	r18, r28
 b94:	01 96       	adiw	r24, 0x01	; 1
 b96:	e9 01       	movw	r28, r18
 b98:	a8 16       	cp	r10, r24
 b9a:	b9 06       	cpc	r11, r25
 b9c:	00 f4       	brcc	.+0      	; 0xb9e <_ZNK6String11lastIndexOfERKS_j+0x7c>
 b9e:	00 c0       	rjmp	.+0      	; 0xba0 <_ZNK6String11lastIndexOfERKS_j+0x7e>
 ba0:	cf ef       	ldi	r28, 0xFF	; 255
 ba2:	df ef       	ldi	r29, 0xFF	; 255
 ba4:	ce 01       	movw	r24, r28
 ba6:	df 91       	pop	r29
 ba8:	cf 91       	pop	r28
 baa:	1f 91       	pop	r17
 bac:	0f 91       	pop	r16
 bae:	ff 90       	pop	r15
 bb0:	ef 90       	pop	r14
 bb2:	df 90       	pop	r13
 bb4:	cf 90       	pop	r12
 bb6:	bf 90       	pop	r11
 bb8:	af 90       	pop	r10
 bba:	08 95       	ret

00000bbc <_ZNK6String11lastIndexOfERKS_>:
 bbc:	fc 01       	movw	r30, r24
 bbe:	44 81       	ldd	r20, Z+4	; 0x04
 bc0:	55 81       	ldd	r21, Z+5	; 0x05
 bc2:	fb 01       	movw	r30, r22
 bc4:	24 81       	ldd	r18, Z+4	; 0x04
 bc6:	35 81       	ldd	r19, Z+5	; 0x05
 bc8:	42 1b       	sub	r20, r18
 bca:	53 0b       	sbc	r21, r19
 bcc:	0c 94 00 00 	jmp	0	; 0x0 <_ZN6StringD1Ev>

00000bd0 <_ZNK6String9substringEjj>:
 bd0:	bf 92       	push	r11
 bd2:	cf 92       	push	r12
 bd4:	df 92       	push	r13
 bd6:	ef 92       	push	r14
 bd8:	ff 92       	push	r15
 bda:	0f 93       	push	r16
 bdc:	1f 93       	push	r17
 bde:	cf 93       	push	r28
 be0:	df 93       	push	r29
 be2:	6c 01       	movw	r12, r24
 be4:	7b 01       	movw	r14, r22
 be6:	ea 01       	movw	r28, r20
 be8:	89 01       	movw	r16, r18
 bea:	24 17       	cp	r18, r20
 bec:	35 07       	cpc	r19, r21
 bee:	00 f4       	brcc	.+0      	; 0xbf0 <_ZNK6String9substringEjj+0x20>
 bf0:	8d 2f       	mov	r24, r29
 bf2:	e9 01       	movw	r28, r18
 bf4:	04 2f       	mov	r16, r20
 bf6:	18 2f       	mov	r17, r24
 bf8:	60 e0       	ldi	r22, 0x00	; 0
 bfa:	70 e0       	ldi	r23, 0x00	; 0
 bfc:	c6 01       	movw	r24, r12
 bfe:	0e 94 00 00 	call	0	; 0x0 <_ZN6StringD1Ev>
 c02:	d7 01       	movw	r26, r14
 c04:	14 96       	adiw	r26, 0x04	; 4
 c06:	8d 91       	ld	r24, X+
 c08:	9c 91       	ld	r25, X
 c0a:	15 97       	sbiw	r26, 0x05	; 5
 c0c:	8c 17       	cp	r24, r28
 c0e:	9d 07       	cpc	r25, r29
 c10:	00 f0       	brcs	.+0      	; 0xc12 <_ZNK6String9substringEjj+0x42>
 c12:	80 17       	cp	r24, r16
 c14:	91 07       	cpc	r25, r17
 c16:	00 f4       	brcc	.+0      	; 0xc18 <_ZNK6String9substringEjj+0x48>
 c18:	8c 01       	movw	r16, r24
 c1a:	d7 01       	movw	r26, r14
 c1c:	ed 91       	ld	r30, X+
 c1e:	fc 91       	ld	r31, X
 c20:	11 97       	sbiw	r26, 0x01	; 1
 c22:	e0 0f       	add	r30, r16
 c24:	f1 1f       	adc	r31, r17
 c26:	b0 80       	ld	r11, Z
 c28:	10 82       	st	Z, r1
 c2a:	6d 91       	ld	r22, X+
 c2c:	7c 91       	ld	r23, X
 c2e:	6c 0f       	add	r22, r28
 c30:	7d 1f       	adc	r23, r29
 c32:	c6 01       	movw	r24, r12
 c34:	0e 94 00 00 	call	0	; 0x0 <_ZN6StringD1Ev>
 c38:	d7 01       	movw	r26, r14
 c3a:	ed 91       	ld	r30, X+
 c3c:	fc 91       	ld	r31, X
 c3e:	e0 0f       	add	r30, r16
 c40:	f1 1f       	adc	r31, r17
 c42:	b0 82       	st	Z, r11
 c44:	c6 01       	movw	r24, r12
 c46:	df 91       	pop	r29
 c48:	cf 91       	pop	r28
 c4a:	1f 91       	pop	r17
 c4c:	0f 91       	pop	r16
 c4e:	ff 90       	pop	r15
 c50:	ef 90       	pop	r14
 c52:	df 90       	pop	r13
 c54:	cf 90       	pop	r12
 c56:	bf 90       	pop	r11
 c58:	08 95       	ret

00000c5a <_ZNK6String9substringEj>:
 c5a:	cf 93       	push	r28
 c5c:	df 93       	push	r29
 c5e:	ec 01       	movw	r28, r24
 c60:	fb 01       	movw	r30, r22
 c62:	24 81       	ldd	r18, Z+4	; 0x04
 c64:	35 81       	ldd	r19, Z+5	; 0x05
 c66:	0e 94 00 00 	call	0	; 0x0 <_ZN6StringD1Ev>
 c6a:	ce 01       	movw	r24, r28
 c6c:	df 91       	pop	r29
 c6e:	cf 91       	pop	r28
 c70:	08 95       	ret

00000c72 <_ZN6String7replaceEcc>:
 c72:	dc 01       	movw	r26, r24
 c74:	ed 91       	ld	r30, X+
 c76:	fc 91       	ld	r31, X
 c78:	30 97       	sbiw	r30, 0x00	; 0
 c7a:	01 f4       	brne	.+0      	; 0xc7c <_ZN6String7replaceEcc+0xa>
 c7c:	08 95       	ret
 c7e:	86 13       	cpse	r24, r22
 c80:	00 c0       	rjmp	.+0      	; 0xc82 <_ZN6String7replaceEcc+0x10>
 c82:	40 83       	st	Z, r20
 c84:	31 96       	adiw	r30, 0x01	; 1
 c86:	80 81       	ld	r24, Z
 c88:	81 11       	cpse	r24, r1
 c8a:	00 c0       	rjmp	.+0      	; 0xc8c <_ZN6String7replaceEcc+0x1a>
 c8c:	08 95       	ret

00000c8e <_ZN6String7replaceERKS_S1_>:
 c8e:	2f 92       	push	r2
 c90:	3f 92       	push	r3
 c92:	4f 92       	push	r4
 c94:	5f 92       	push	r5
 c96:	6f 92       	push	r6
 c98:	7f 92       	push	r7
 c9a:	8f 92       	push	r8
 c9c:	9f 92       	push	r9
 c9e:	af 92       	push	r10
 ca0:	bf 92       	push	r11
 ca2:	cf 92       	push	r12
 ca4:	df 92       	push	r13
 ca6:	ef 92       	push	r14
 ca8:	ff 92       	push	r15
 caa:	0f 93       	push	r16
 cac:	1f 93       	push	r17
 cae:	cf 93       	push	r28
 cb0:	df 93       	push	r29
 cb2:	8c 01       	movw	r16, r24
 cb4:	5b 01       	movw	r10, r22
 cb6:	7a 01       	movw	r14, r20
 cb8:	dc 01       	movw	r26, r24
 cba:	14 96       	adiw	r26, 0x04	; 4
 cbc:	4d 90       	ld	r4, X+
 cbe:	5c 90       	ld	r5, X
 cc0:	15 97       	sbiw	r26, 0x05	; 5
 cc2:	41 14       	cp	r4, r1
 cc4:	51 04       	cpc	r5, r1
 cc6:	01 f4       	brne	.+0      	; 0xcc8 <_ZN6String7replaceERKS_S1_+0x3a>
 cc8:	00 c0       	rjmp	.+0      	; 0xcca <_ZN6String7replaceERKS_S1_+0x3c>
 cca:	fb 01       	movw	r30, r22
 ccc:	64 80       	ldd	r6, Z+4	; 0x04
 cce:	75 80       	ldd	r7, Z+5	; 0x05
 cd0:	61 14       	cp	r6, r1
 cd2:	71 04       	cpc	r7, r1
 cd4:	01 f4       	brne	.+0      	; 0xcd6 <_ZN6String7replaceERKS_S1_+0x48>
 cd6:	00 c0       	rjmp	.+0      	; 0xcd8 <_ZN6String7replaceERKS_S1_+0x4a>
 cd8:	da 01       	movw	r26, r20
 cda:	14 96       	adiw	r26, 0x04	; 4
 cdc:	cd 90       	ld	r12, X+
 cde:	dc 90       	ld	r13, X
 ce0:	15 97       	sbiw	r26, 0x05	; 5
 ce2:	c6 18       	sub	r12, r6
 ce4:	d7 08       	sbc	r13, r7
 ce6:	fc 01       	movw	r30, r24
 ce8:	c0 81       	ld	r28, Z
 cea:	d1 81       	ldd	r29, Z+1	; 0x01
 cec:	c1 14       	cp	r12, r1
 cee:	d1 04       	cpc	r13, r1
 cf0:	01 f4       	brne	.+0      	; 0xcf2 <_ZN6String7replaceERKS_S1_+0x64>
 cf2:	00 c0       	rjmp	.+0      	; 0xcf4 <_ZN6String7replaceERKS_S1_+0x66>
 cf4:	d7 01       	movw	r26, r14
 cf6:	6c 91       	ld	r22, X
 cf8:	11 96       	adiw	r26, 0x01	; 1
 cfa:	7c 91       	ld	r23, X
 cfc:	11 97       	sbiw	r26, 0x01	; 1
 cfe:	14 96       	adiw	r26, 0x04	; 4
 d00:	4d 91       	ld	r20, X+
 d02:	5c 91       	ld	r21, X
 d04:	15 97       	sbiw	r26, 0x05	; 5
 d06:	c8 01       	movw	r24, r16
 d08:	0e 94 00 00 	call	0	; 0x0 <_ZN6StringD1Ev>
 d0c:	f7 01       	movw	r30, r14
 d0e:	c4 81       	ldd	r28, Z+4	; 0x04
 d10:	d5 81       	ldd	r29, Z+5	; 0x05
 d12:	c0 0f       	add	r28, r16
 d14:	d1 1f       	adc	r29, r17
 d16:	d5 01       	movw	r26, r10
 d18:	6d 91       	ld	r22, X+
 d1a:	7c 91       	ld	r23, X
 d1c:	ce 01       	movw	r24, r28
 d1e:	0e 94 00 00 	call	0	; 0x0 <_ZN6StringD1Ev>
 d22:	8c 01       	movw	r16, r24
 d24:	00 97       	sbiw	r24, 0x00	; 0
 d26:	01 f4       	brne	.+0      	; 0xd28 <_ZN6String7replaceERKS_S1_+0x9a>
 d28:	00 c0       	rjmp	.+0      	; 0xd2a <_ZN6String7replaceERKS_S1_+0x9c>
 d2a:	d7 fe       	sbrs	r13, 7
 d2c:	00 c0       	rjmp	.+0      	; 0xd2e <_ZN6String7replaceERKS_S1_+0xa0>
 d2e:	4e 01       	movw	r8, r28
 d30:	00 c0       	rjmp	.+0      	; 0xd32 <_ZN6String7replaceERKS_S1_+0xa4>
 d32:	fb 01       	movw	r30, r22
 d34:	20 80       	ld	r2, Z
 d36:	31 80       	ldd	r3, Z+1	; 0x01
 d38:	42 01       	movw	r8, r4
 d3a:	00 c0       	rjmp	.+0      	; 0xd3c <_ZN6String7replaceERKS_S1_+0xae>
 d3c:	32 01       	movw	r6, r4
 d3e:	6c 1a       	sub	r6, r28
 d40:	7d 0a       	sbc	r7, r29
 d42:	a3 01       	movw	r20, r6
 d44:	be 01       	movw	r22, r28
 d46:	c4 01       	movw	r24, r8
 d48:	0e 94 00 00 	call	0	; 0x0 <_ZN6StringD1Ev>
 d4c:	68 0c       	add	r6, r8
 d4e:	79 1c       	adc	r7, r9
 d50:	d7 01       	movw	r26, r14
 d52:	6c 91       	ld	r22, X
 d54:	11 96       	adiw	r26, 0x01	; 1
 d56:	7c 91       	ld	r23, X
 d58:	11 97       	sbiw	r26, 0x01	; 1
 d5a:	14 96       	adiw	r26, 0x04	; 4
 d5c:	4d 91       	ld	r20, X+
 d5e:	5c 91       	ld	r21, X
 d60:	15 97       	sbiw	r26, 0x05	; 5
 d62:	c3 01       	movw	r24, r6
 d64:	0e 94 00 00 	call	0	; 0x0 <_ZN6StringD1Ev>
 d68:	f7 01       	movw	r30, r14
 d6a:	84 80       	ldd	r8, Z+4	; 0x04
 d6c:	95 80       	ldd	r9, Z+5	; 0x05
 d6e:	86 0c       	add	r8, r6
 d70:	97 1c       	adc	r9, r7
 d72:	d5 01       	movw	r26, r10
 d74:	14 96       	adiw	r26, 0x04	; 4
 d76:	cd 91       	ld	r28, X+
 d78:	dc 91       	ld	r29, X
 d7a:	15 97       	sbiw	r26, 0x05	; 5
 d7c:	c4 0d       	add	r28, r4
 d7e:	d5 1d       	adc	r29, r5
 d80:	f8 01       	movw	r30, r16
 d82:	84 81       	ldd	r24, Z+4	; 0x04
 d84:	95 81       	ldd	r25, Z+5	; 0x05
 d86:	8c 0d       	add	r24, r12
 d88:	9d 1d       	adc	r25, r13
 d8a:	95 83       	std	Z+5, r25	; 0x05
 d8c:	84 83       	std	Z+4, r24	; 0x04
 d8e:	d5 01       	movw	r26, r10
 d90:	6d 91       	ld	r22, X+
 d92:	7c 91       	ld	r23, X
 d94:	ce 01       	movw	r24, r28
 d96:	0e 94 00 00 	call	0	; 0x0 <_ZN6StringD1Ev>
 d9a:	2c 01       	movw	r4, r24
 d9c:	00 97       	sbiw	r24, 0x00	; 0
 d9e:	01 f4       	brne	.+0      	; 0xda0 <_ZN6String7replaceERKS_S1_+0x112>
 da0:	be 01       	movw	r22, r28
 da2:	c4 01       	movw	r24, r8
 da4:	df 91       	pop	r29
 da6:	cf 91       	pop	r28
 da8:	1f 91       	pop	r17
 daa:	0f 91       	pop	r16
 dac:	ff 90       	pop	r15
 dae:	ef 90       	pop	r14
 db0:	df 90       	pop	r13
 db2:	cf 90       	pop	r12
 db4:	bf 90       	pop	r11
 db6:	af 90       	pop	r10
 db8:	9f 90       	pop	r9
 dba:	8f 90       	pop	r8
 dbc:	7f 90       	pop	r7
 dbe:	6f 90       	pop	r6
 dc0:	5f 90       	pop	r5
 dc2:	4f 90       	pop	r4
 dc4:	3f 90       	pop	r3
 dc6:	2f 90       	pop	r2
 dc8:	0c 94 00 00 	jmp	0	; 0x0 <_ZN6StringD1Ev>
 dcc:	ec 01       	movw	r28, r24
 dce:	c6 0d       	add	r28, r6
 dd0:	d7 1d       	adc	r29, r7
 dd2:	8c 0c       	add	r8, r12
 dd4:	9d 1c       	adc	r9, r13
 dd6:	b1 01       	movw	r22, r2
 dd8:	ce 01       	movw	r24, r28
 dda:	0e 94 00 00 	call	0	; 0x0 <_ZN6StringD1Ev>
 dde:	00 97       	sbiw	r24, 0x00	; 0
 de0:	01 f4       	brne	.+0      	; 0xde2 <_ZN6String7replaceERKS_S1_+0x154>
 de2:	84 14       	cp	r8, r4
 de4:	95 04       	cpc	r9, r5
 de6:	01 f4       	brne	.+0      	; 0xde8 <_ZN6String7replaceERKS_S1_+0x15a>
 de8:	00 c0       	rjmp	.+0      	; 0xdea <_ZN6String7replaceERKS_S1_+0x15c>
 dea:	f8 01       	movw	r30, r16
 dec:	82 81       	ldd	r24, Z+2	; 0x02
 dee:	93 81       	ldd	r25, Z+3	; 0x03
 df0:	88 15       	cp	r24, r8
 df2:	99 05       	cpc	r25, r9
 df4:	00 f4       	brcc	.+0      	; 0xdf6 <_ZN6String7replaceERKS_S1_+0x168>
 df6:	b4 01       	movw	r22, r8
 df8:	c8 01       	movw	r24, r16
 dfa:	0e 94 00 00 	call	0	; 0x0 <_ZN6StringD1Ev>
 dfe:	88 23       	and	r24, r24
 e00:	01 f4       	brne	.+0      	; 0xe02 <_ZN6String7replaceERKS_S1_+0x174>
 e02:	00 c0       	rjmp	.+0      	; 0xe04 <_ZN6String7replaceERKS_S1_+0x176>
 e04:	00 c0       	rjmp	.+0      	; 0xe06 <_ZN6String7replaceERKS_S1_+0x178>
 e06:	97 fd       	sbrc	r25, 7
 e08:	00 c0       	rjmp	.+0      	; 0xe0a <_ZN6String7replaceERKS_S1_+0x17c>
 e0a:	ac 01       	movw	r20, r24
 e0c:	b5 01       	movw	r22, r10
 e0e:	c8 01       	movw	r24, r16
 e10:	0e 94 00 00 	call	0	; 0x0 <_ZN6StringD1Ev>
 e14:	ec 01       	movw	r28, r24
 e16:	97 ff       	sbrs	r25, 7
 e18:	00 c0       	rjmp	.+0      	; 0xe1a <_ZN6String7replaceERKS_S1_+0x18c>
 e1a:	00 c0       	rjmp	.+0      	; 0xe1c <_ZN6String7replaceERKS_S1_+0x18e>
 e1c:	d8 01       	movw	r26, r16
 e1e:	14 96       	adiw	r26, 0x04	; 4
 e20:	8d 91       	ld	r24, X+
 e22:	9c 91       	ld	r25, X
 e24:	15 97       	sbiw	r26, 0x05	; 5
 e26:	00 c0       	rjmp	.+0      	; 0xe28 <_ZN6String7replaceERKS_S1_+0x19a>
 e28:	f8 01       	movw	r30, r16
 e2a:	80 81       	ld	r24, Z
 e2c:	91 81       	ldd	r25, Z+1	; 0x01
 e2e:	d5 01       	movw	r26, r10
 e30:	14 96       	adiw	r26, 0x04	; 4
 e32:	2d 91       	ld	r18, X+
 e34:	3c 91       	ld	r19, X
 e36:	15 97       	sbiw	r26, 0x05	; 5
 e38:	2c 0f       	add	r18, r28
 e3a:	3d 1f       	adc	r19, r29
 e3c:	82 0f       	add	r24, r18
 e3e:	93 1f       	adc	r25, r19
 e40:	44 81       	ldd	r20, Z+4	; 0x04
 e42:	55 81       	ldd	r21, Z+5	; 0x05
 e44:	42 1b       	sub	r20, r18
 e46:	53 0b       	sbc	r21, r19
 e48:	bc 01       	movw	r22, r24
 e4a:	8c 0d       	add	r24, r12
 e4c:	9d 1d       	adc	r25, r13
 e4e:	0e 94 00 00 	call	0	; 0x0 <_ZN6StringD1Ev>
 e52:	f8 01       	movw	r30, r16
 e54:	84 81       	ldd	r24, Z+4	; 0x04
 e56:	95 81       	ldd	r25, Z+5	; 0x05
 e58:	8c 0d       	add	r24, r12
 e5a:	9d 1d       	adc	r25, r13
 e5c:	95 83       	std	Z+5, r25	; 0x05
 e5e:	84 83       	std	Z+4, r24	; 0x04
 e60:	01 90       	ld	r0, Z+
 e62:	f0 81       	ld	r31, Z
 e64:	e0 2d       	mov	r30, r0
 e66:	e8 0f       	add	r30, r24
 e68:	f9 1f       	adc	r31, r25
 e6a:	10 82       	st	Z, r1
 e6c:	d8 01       	movw	r26, r16
 e6e:	2d 91       	ld	r18, X+
 e70:	3c 91       	ld	r19, X
 e72:	2c 0f       	add	r18, r28
 e74:	3d 1f       	adc	r19, r29
 e76:	f7 01       	movw	r30, r14
 e78:	60 81       	ld	r22, Z
 e7a:	71 81       	ldd	r23, Z+1	; 0x01
 e7c:	44 81       	ldd	r20, Z+4	; 0x04
 e7e:	55 81       	ldd	r21, Z+5	; 0x05
 e80:	c9 01       	movw	r24, r18
 e82:	0e 94 00 00 	call	0	; 0x0 <_ZN6StringD1Ev>
 e86:	ce 01       	movw	r24, r28
 e88:	01 97       	sbiw	r24, 0x01	; 1
 e8a:	00 c0       	rjmp	.+0      	; 0xe8c <_ZN6String7replaceERKS_S1_+0x1fe>
 e8c:	df 91       	pop	r29
 e8e:	cf 91       	pop	r28
 e90:	1f 91       	pop	r17
 e92:	0f 91       	pop	r16
 e94:	ff 90       	pop	r15
 e96:	ef 90       	pop	r14
 e98:	df 90       	pop	r13
 e9a:	cf 90       	pop	r12
 e9c:	bf 90       	pop	r11
 e9e:	af 90       	pop	r10
 ea0:	9f 90       	pop	r9
 ea2:	8f 90       	pop	r8
 ea4:	7f 90       	pop	r7
 ea6:	6f 90       	pop	r6
 ea8:	5f 90       	pop	r5
 eaa:	4f 90       	pop	r4
 eac:	3f 90       	pop	r3
 eae:	2f 90       	pop	r2
 eb0:	08 95       	ret

00000eb2 <_ZN6String11toLowerCaseEv>:
 eb2:	cf 93       	push	r28
 eb4:	df 93       	push	r29
 eb6:	fc 01       	movw	r30, r24
 eb8:	c0 81       	ld	r28, Z
 eba:	d1 81       	ldd	r29, Z+1	; 0x01
 ebc:	20 97       	sbiw	r28, 0x00	; 0
 ebe:	01 f4       	brne	.+0      	; 0xec0 <_ZN6String11toLowerCaseEv+0xe>
 ec0:	00 c0       	rjmp	.+0      	; 0xec2 <_ZN6String11toLowerCaseEv+0x10>
 ec2:	90 e0       	ldi	r25, 0x00	; 0
 ec4:	0e 94 00 00 	call	0	; 0x0 <_ZN6StringD1Ev>
 ec8:	89 93       	st	Y+, r24
 eca:	88 81       	ld	r24, Y
 ecc:	81 11       	cpse	r24, r1
 ece:	00 c0       	rjmp	.+0      	; 0xed0 <_ZN6String11toLowerCaseEv+0x1e>
 ed0:	df 91       	pop	r29
 ed2:	cf 91       	pop	r28
 ed4:	08 95       	ret

00000ed6 <_ZN6String11toUpperCaseEv>:
 ed6:	cf 93       	push	r28
 ed8:	df 93       	push	r29
 eda:	fc 01       	movw	r30, r24
 edc:	c0 81       	ld	r28, Z
 ede:	d1 81       	ldd	r29, Z+1	; 0x01
 ee0:	20 97       	sbiw	r28, 0x00	; 0
 ee2:	01 f4       	brne	.+0      	; 0xee4 <_ZN6String11toUpperCaseEv+0xe>
 ee4:	00 c0       	rjmp	.+0      	; 0xee6 <_ZN6String11toUpperCaseEv+0x10>
 ee6:	90 e0       	ldi	r25, 0x00	; 0
 ee8:	0e 94 00 00 	call	0	; 0x0 <_ZN6StringD1Ev>
 eec:	89 93       	st	Y+, r24
 eee:	88 81       	ld	r24, Y
 ef0:	81 11       	cpse	r24, r1
 ef2:	00 c0       	rjmp	.+0      	; 0xef4 <_ZN6String11toUpperCaseEv+0x1e>
 ef4:	df 91       	pop	r29
 ef6:	cf 91       	pop	r28
 ef8:	08 95       	ret

00000efa <_ZN6String4trimEv>:
 efa:	af 92       	push	r10
 efc:	bf 92       	push	r11
 efe:	cf 92       	push	r12
 f00:	df 92       	push	r13
 f02:	ef 92       	push	r14
 f04:	ff 92       	push	r15
 f06:	0f 93       	push	r16
 f08:	1f 93       	push	r17
 f0a:	cf 93       	push	r28
 f0c:	df 93       	push	r29
 f0e:	6c 01       	movw	r12, r24
 f10:	dc 01       	movw	r26, r24
 f12:	ed 90       	ld	r14, X+
 f14:	fc 90       	ld	r15, X
 f16:	11 97       	sbiw	r26, 0x01	; 1
 f18:	e1 14       	cp	r14, r1
 f1a:	f1 04       	cpc	r15, r1
 f1c:	01 f4       	brne	.+0      	; 0xf1e <_ZN6String4trimEv+0x24>
 f1e:	00 c0       	rjmp	.+0      	; 0xf20 <_ZN6String4trimEv+0x26>
 f20:	14 96       	adiw	r26, 0x04	; 4
 f22:	0d 91       	ld	r16, X+
 f24:	1c 91       	ld	r17, X
 f26:	15 97       	sbiw	r26, 0x05	; 5
 f28:	01 15       	cp	r16, r1
 f2a:	11 05       	cpc	r17, r1
 f2c:	01 f0       	breq	.+0      	; 0xf2e <_ZN6String4trimEv+0x34>
 f2e:	57 01       	movw	r10, r14
 f30:	e5 01       	movw	r28, r10
 f32:	bf ef       	ldi	r27, 0xFF	; 255
 f34:	ab 1a       	sub	r10, r27
 f36:	bb 0a       	sbc	r11, r27
 f38:	88 81       	ld	r24, Y
 f3a:	90 e0       	ldi	r25, 0x00	; 0
 f3c:	0e 94 00 00 	call	0	; 0x0 <_ZN6StringD1Ev>
 f40:	89 2b       	or	r24, r25
 f42:	01 f4       	brne	.+0      	; 0xf44 <_ZN6String4trimEv+0x4a>
 f44:	01 50       	subi	r16, 0x01	; 1
 f46:	11 09       	sbc	r17, r1
 f48:	0e 0d       	add	r16, r14
 f4a:	1f 1d       	adc	r17, r15
 f4c:	f8 01       	movw	r30, r16
 f4e:	80 81       	ld	r24, Z
 f50:	90 e0       	ldi	r25, 0x00	; 0
 f52:	0e 94 00 00 	call	0	; 0x0 <_ZN6StringD1Ev>
 f56:	89 2b       	or	r24, r25
 f58:	01 f4       	brne	.+0      	; 0xf5a <_ZN6String4trimEv+0x60>
 f5a:	0f 5f       	subi	r16, 0xFF	; 255
 f5c:	1f 4f       	sbci	r17, 0xFF	; 255
 f5e:	0c 1b       	sub	r16, r28
 f60:	1d 0b       	sbc	r17, r29
 f62:	d6 01       	movw	r26, r12
 f64:	15 96       	adiw	r26, 0x05	; 5
 f66:	1c 93       	st	X, r17
 f68:	0e 93       	st	-X, r16
 f6a:	14 97       	sbiw	r26, 0x04	; 4
 f6c:	ec 16       	cp	r14, r28
 f6e:	fd 06       	cpc	r15, r29
 f70:	00 f4       	brcc	.+0      	; 0xf72 <_ZN6String4trimEv+0x78>
 f72:	00 c0       	rjmp	.+0      	; 0xf74 <_ZN6String4trimEv+0x7a>
 f74:	0c 17       	cp	r16, r28
 f76:	1d 07       	cpc	r17, r29
 f78:	00 f4       	brcc	.+0      	; 0xf7a <_ZN6String4trimEv+0x80>
 f7a:	00 c0       	rjmp	.+0      	; 0xf7c <_ZN6String4trimEv+0x82>
 f7c:	a8 01       	movw	r20, r16
 f7e:	be 01       	movw	r22, r28
 f80:	c7 01       	movw	r24, r14
 f82:	0e 94 00 00 	call	0	; 0x0 <_ZN6StringD1Ev>
 f86:	d6 01       	movw	r26, r12
 f88:	ed 91       	ld	r30, X+
 f8a:	fc 91       	ld	r31, X
 f8c:	11 97       	sbiw	r26, 0x01	; 1
 f8e:	14 96       	adiw	r26, 0x04	; 4
 f90:	8d 91       	ld	r24, X+
 f92:	9c 91       	ld	r25, X
 f94:	15 97       	sbiw	r26, 0x05	; 5
 f96:	e8 0f       	add	r30, r24
 f98:	f9 1f       	adc	r31, r25
 f9a:	10 82       	st	Z, r1
 f9c:	00 c0       	rjmp	.+0      	; 0xf9e <_ZN6String4trimEv+0xa4>
 f9e:	01 50       	subi	r16, 0x01	; 1
 fa0:	11 09       	sbc	r17, r1
 fa2:	00 c0       	rjmp	.+0      	; 0xfa4 <_ZN6String4trimEv+0xaa>
 fa4:	df 91       	pop	r29
 fa6:	cf 91       	pop	r28
 fa8:	1f 91       	pop	r17
 faa:	0f 91       	pop	r16
 fac:	ff 90       	pop	r15
 fae:	ef 90       	pop	r14
 fb0:	df 90       	pop	r13
 fb2:	cf 90       	pop	r12
 fb4:	bf 90       	pop	r11
 fb6:	af 90       	pop	r10
 fb8:	08 95       	ret

00000fba <_ZNK6String5toIntEv>:
 fba:	fc 01       	movw	r30, r24
 fbc:	80 81       	ld	r24, Z
 fbe:	91 81       	ldd	r25, Z+1	; 0x01
 fc0:	00 97       	sbiw	r24, 0x00	; 0
 fc2:	01 f0       	breq	.+0      	; 0xfc4 <_ZNK6String5toIntEv+0xa>
 fc4:	0c 94 00 00 	jmp	0	; 0x0 <_ZN6StringD1Ev>
 fc8:	60 e0       	ldi	r22, 0x00	; 0
 fca:	70 e0       	ldi	r23, 0x00	; 0
 fcc:	80 e0       	ldi	r24, 0x00	; 0
 fce:	90 e0       	ldi	r25, 0x00	; 0
 fd0:	08 95       	ret

new.o:     file format elf32-avr

Sections:
Idx Name          Size      VMA       LMA       File off  Algn
  0 .text         00000028  00000000  00000000  00000034  2**0
                  CONTENTS, ALLOC, LOAD, RELOC, READONLY, CODE
  1 .data         00000000  00000000  00000000  0000005c  2**0
                  CONTENTS, ALLOC, LOAD, DATA
  2 .bss          00000000  00000000  00000000  0000005c  2**0
                  ALLOC
  3 .comment      00000012  00000000  00000000  0000005c  2**0
                  CONTENTS, READONLY

Disassembly of section .text:

00000000 <_Znwj>:
   0:	0c 94 00 00 	jmp	0	; 0x0 <_Znwj>

00000004 <_ZdlPv>:
   4:	0c 94 00 00 	jmp	0	; 0x0 <_Znwj>

00000008 <__cxa_guard_acquire>:
   8:	21 e0       	ldi	r18, 0x01	; 1
   a:	30 e0       	ldi	r19, 0x00	; 0
   c:	fc 01       	movw	r30, r24
   e:	80 81       	ld	r24, Z
  10:	88 23       	and	r24, r24
  12:	01 f0       	breq	.+0      	; 0x14 <__cxa_guard_acquire+0xc>
  14:	20 e0       	ldi	r18, 0x00	; 0
  16:	30 e0       	ldi	r19, 0x00	; 0
  18:	c9 01       	movw	r24, r18
  1a:	08 95       	ret

0000001c <__cxa_guard_release>:
  1c:	21 e0       	ldi	r18, 0x01	; 1
  1e:	fc 01       	movw	r30, r24
  20:	20 83       	st	Z, r18
  22:	08 95       	ret

00000024 <__cxa_guard_abort>:
  24:	08 95       	ret

00000026 <__cxa_pure_virtual>:
  26:	08 95       	ret

wiring.o:     file format elf32-avr

Sections:
Idx Name          Size      VMA       LMA       File off  Algn
  0 .text         000001e2  00000000  00000000  00000034  2**0
                  CONTENTS, ALLOC, LOAD, RELOC, READONLY, CODE
  1 .data         00000000  00000000  00000000  00000216  2**0
                  CONTENTS, ALLOC, LOAD, DATA
  2 .bss          00000009  00000000  00000000  00000216  2**0
                  ALLOC
  3 .comment      00000012  00000000  00000000  00000216  2**0
                  CONTENTS, READONLY

Disassembly of section .text:

00000000 <__vector_16>:
   0:	1f 92       	push	r1
   2:	0f 92       	push	r0
   4:	0f b6       	in	r0, 0x3f	; 63
   6:	0f 92       	push	r0
   8:	11 24       	eor	r1, r1
   a:	2f 93       	push	r18
   c:	3f 93       	push	r19
   e:	8f 93       	push	r24
  10:	9f 93       	push	r25
  12:	af 93       	push	r26
  14:	bf 93       	push	r27
  16:	80 91 00 00 	lds	r24, 0x0000
  1a:	90 91 00 00 	lds	r25, 0x0000
  1e:	a0 91 00 00 	lds	r26, 0x0000
  22:	b0 91 00 00 	lds	r27, 0x0000
  26:	30 91 00 00 	lds	r19, 0x0000
  2a:	23 2f       	mov	r18, r19
  2c:	2d 5f       	subi	r18, 0xFD	; 253
  2e:	2d 37       	cpi	r18, 0x7D	; 125
  30:	00 f4       	brcc	.+0      	; 0x32 <__vector_16+0x32>
  32:	01 96       	adiw	r24, 0x01	; 1
  34:	a1 1d       	adc	r26, r1
  36:	b1 1d       	adc	r27, r1
  38:	00 c0       	rjmp	.+0      	; 0x3a <__vector_16+0x3a>
  3a:	23 2f       	mov	r18, r19
  3c:	2a 57       	subi	r18, 0x7A	; 122
  3e:	02 96       	adiw	r24, 0x02	; 2
  40:	a1 1d       	adc	r26, r1
  42:	b1 1d       	adc	r27, r1
  44:	20 93 00 00 	sts	0x0000, r18
  48:	80 93 00 00 	sts	0x0000, r24
  4c:	90 93 00 00 	sts	0x0000, r25
  50:	a0 93 00 00 	sts	0x0000, r26
  54:	b0 93 00 00 	sts	0x0000, r27
  58:	80 91 00 00 	lds	r24, 0x0000
  5c:	90 91 00 00 	lds	r25, 0x0000
  60:	a0 91 00 00 	lds	r26, 0x0000
  64:	b0 91 00 00 	lds	r27, 0x0000
  68:	01 96       	adiw	r24, 0x01	; 1
  6a:	a1 1d       	adc	r26, r1
  6c:	b1 1d       	adc	r27, r1
  6e:	80 93 00 00 	sts	0x0000, r24
  72:	90 93 00 00 	sts	0x0000, r25
  76:	a0 93 00 00 	sts	0x0000, r26
  7a:	b0 93 00 00 	sts	0x0000, r27
  7e:	bf 91       	pop	r27
  80:	af 91       	pop	r26
  82:	9f 91       	pop	r25
  84:	8f 91       	pop	r24
  86:	3f 91       	pop	r19
  88:	2f 91       	pop	r18
  8a:	0f 90       	pop	r0
  8c:	0f be       	out	0x3f, r0	; 63
  8e:	0f 90       	pop	r0
  90:	1f 90       	pop	r1
  92:	18 95       	reti

00000094 <millis>:
  94:	0f 93       	push	r16
  96:	1f 93       	push	r17
  98:	8f b7       	in	r24, 0x3f	; 63
  9a:	f8 94       	cli
  9c:	00 91 00 00 	lds	r16, 0x0000
  a0:	10 91 00 00 	lds	r17, 0x0000
  a4:	20 91 00 00 	lds	r18, 0x0000
  a8:	30 91 00 00 	lds	r19, 0x0000
  ac:	8f bf       	out	0x3f, r24	; 63
  ae:	b8 01       	movw	r22, r16
  b0:	c9 01       	movw	r24, r18
  b2:	1f 91       	pop	r17
  b4:	0f 91       	pop	r16
  b6:	08 95       	ret

000000b8 <micros>:
  b8:	0f 93       	push	r16
  ba:	1f 93       	push	r17
  bc:	9f b7       	in	r25, 0x3f	; 63
  be:	f8 94       	cli
  c0:	00 91 00 00 	lds	r16, 0x0000
  c4:	10 91 00 00 	lds	r17, 0x0000
  c8:	20 91 00 00 	lds	r18, 0x0000
  cc:	30 91 00 00 	lds	r19, 0x0000
  d0:	86 b5       	in	r24, 0x26	; 38
  d2:	a8 9b       	sbis	0x15, 0	; 21
  d4:	00 c0       	rjmp	.+0      	; 0xd6 <micros+0x1e>
  d6:	8f 3f       	cpi	r24, 0xFF	; 255
  d8:	01 f0       	breq	.+0      	; 0xda <micros+0x22>
  da:	0f 5f       	subi	r16, 0xFF	; 255
  dc:	1f 4f       	sbci	r17, 0xFF	; 255
  de:	2f 4f       	sbci	r18, 0xFF	; 255
  e0:	3f 4f       	sbci	r19, 0xFF	; 255
  e2:	9f bf       	out	0x3f, r25	; 63
  e4:	32 2f       	mov	r19, r18
  e6:	21 2f       	mov	r18, r17
  e8:	10 2f       	mov	r17, r16
  ea:	00 27       	eor	r16, r16
  ec:	08 0f       	add	r16, r24
  ee:	11 1d       	adc	r17, r1
  f0:	21 1d       	adc	r18, r1
  f2:	31 1d       	adc	r19, r1
  f4:	42 e0       	ldi	r20, 0x02	; 2
  f6:	00 0f       	add	r16, r16
  f8:	11 1f       	adc	r17, r17
  fa:	22 1f       	adc	r18, r18
  fc:	33 1f       	adc	r19, r19
  fe:	4a 95       	dec	r20
 100:	01 f4       	brne	.+0      	; 0x102 <micros+0x4a>
 102:	b8 01       	movw	r22, r16
 104:	c9 01       	movw	r24, r18
 106:	1f 91       	pop	r17
 108:	0f 91       	pop	r16
 10a:	08 95       	ret

0000010c <delay>:
 10c:	cf 92       	push	r12
 10e:	df 92       	push	r13
 110:	ef 92       	push	r14
 112:	ff 92       	push	r15
 114:	cf 93       	push	r28
 116:	df 93       	push	r29
 118:	6b 01       	movw	r12, r22
 11a:	7c 01       	movw	r14, r24
 11c:	0e 94 00 00 	call	0	; 0x0 <__vector_16>
 120:	eb 01       	movw	r28, r22
 122:	00 c0       	rjmp	.+0      	; 0x124 <delay+0x18>
 124:	0e 94 00 00 	call	0	; 0x0 <__vector_16>
 128:	6c 1b       	sub	r22, r28
 12a:	7d 0b       	sbc	r23, r29
 12c:	68 3e       	cpi	r22, 0xE8	; 232
 12e:	73 40       	sbci	r23, 0x03	; 3
 130:	00 f0       	brcs	.+0      	; 0x132 <delay+0x26>
 132:	81 e0       	ldi	r24, 0x01	; 1
 134:	c8 1a       	sub	r12, r24
 136:	d1 08       	sbc	r13, r1
 138:	e1 08       	sbc	r14, r1
 13a:	f1 08       	sbc	r15, r1
 13c:	c8 51       	subi	r28, 0x18	; 24
 13e:	dc 4f       	sbci	r29, 0xFC	; 252
 140:	c1 14       	cp	r12, r1
 142:	d1 04       	cpc	r13, r1
 144:	e1 04       	cpc	r14, r1
 146:	f1 04       	cpc	r15, r1
 148:	01 f4       	brne	.+0      	; 0x14a <delay+0x3e>
 14a:	df 91       	pop	r29
 14c:	cf 91       	pop	r28
 14e:	ff 90       	pop	r15
 150:	ef 90       	pop	r14
 152:	df 90       	pop	r13
 154:	cf 90       	pop	r12
 156:	08 95       	ret

00000158 <delayMicroseconds>:
 158:	01 97       	sbiw	r24, 0x01	; 1
 15a:	01 f0       	breq	.+0      	; 0x15c <delayMicroseconds+0x4>
 15c:	88 0f       	add	r24, r24
 15e:	99 1f       	adc	r25, r25
 160:	88 0f       	add	r24, r24
 162:	99 1f       	adc	r25, r25
 164:	02 97       	sbiw	r24, 0x02	; 2
 166:	01 97       	sbiw	r24, 0x01	; 1
 168:	01 f4       	brne	.+0      	; 0x16a <delayMicroseconds+0x12>
 16a:	08 95       	ret

0000016c <init>:
 16c:	78 94       	sei
 16e:	84 b5       	in	r24, 0x24	; 36
 170:	82 60       	ori	r24, 0x02	; 2
 172:	84 bd       	out	0x24, r24	; 36
 174:	84 b5       	in	r24, 0x24	; 36
 176:	81 60       	ori	r24, 0x01	; 1
 178:	84 bd       	out	0x24, r24	; 36
 17a:	85 b5       	in	r24, 0x25	; 37
 17c:	82 60       	ori	r24, 0x02	; 2
 17e:	85 bd       	out	0x25, r24	; 37
 180:	85 b5       	in	r24, 0x25	; 37
 182:	81 60       	ori	r24, 0x01	; 1
 184:	85 bd       	out	0x25, r24	; 37
 186:	ee e6       	ldi	r30, 0x6E	; 110
 188:	f0 e0       	ldi	r31, 0x00	; 0
 18a:	80 81       	ld	r24, Z
 18c:	81 60       	ori	r24, 0x01	; 1
 18e:	80 83       	st	Z, r24
 190:	e1 e8       	ldi	r30, 0x81	; 129
 192:	f0 e0       	ldi	r31, 0x00	; 0
 194:	10 82       	st	Z, r1
 196:	80 81       	ld	r24, Z
 198:	82 60       	ori	r24, 0x02	; 2
 19a:	80 83       	st	Z, r24
 19c:	80 81       	ld	r24, Z
 19e:	81 60       	ori	r24, 0x01	; 1
 1a0:	80 83       	st	Z, r24
 1a2:	e0 e8       	ldi	r30, 0x80	; 128
 1a4:	f0 e0       	ldi	r31, 0x00	; 0
 1a6:	80 81       	ld	r24, Z
 1a8:	81 60       	ori	r24, 0x01	; 1
 1aa:	80 83       	st	Z, r24
 1ac:	e1 eb       	ldi	r30, 0xB1	; 177
 1ae:	f0 e0       	ldi	r31, 0x00	; 0
 1b0:	80 81       	ld	r24, Z
 1b2:	84 60       	ori	r24, 0x04	; 4
 1b4:	80 83       	st	Z, r24
 1b6:	e0 eb       	ldi	r30, 0xB0	; 176
 1b8:	f0 e0       	ldi	r31, 0x00	; 0
 1ba:	80 81       	ld	r24, Z
 1bc:	81 60       	ori	r24, 0x01	; 1
 1be:	80 83       	st	Z, r24
 1c0:	ea e7       	ldi	r30, 0x7A	; 122
 1c2:	f0 e0       	ldi	r31, 0x00	; 0
 1c4:	80 81       	ld	r24, Z
 1c6:	84 60       	ori	r24, 0x04	; 4
 1c8:	80 83       	st	Z, r24
 1ca:	80 81       	ld	r24, Z
 1cc:	82 60       	ori	r24, 0x02	; 2
 1ce:	80 83       	st	Z, r24
 1d0:	80 81       	ld	r24, Z
 1d2:	81 60       	ori	r24, 0x01	; 1
 1d4:	80 83       	st	Z, r24
 1d6:	80 81       	ld	r24, Z
 1d8:	80 68       	ori	r24, 0x80	; 128
 1da:	80 83       	st	Z, r24
 1dc:	10 92 c1 00 	sts	0x00C1, r1
 1e0:	08 95       	ret

wiring_analog.o:     file format elf32-avr

Sections:
Idx Name          Size      VMA       LMA       File off  Algn
  0 .text         0000010a  00000000  00000000  00000034  2**0
                  CONTENTS, ALLOC, LOAD, RELOC, READONLY, CODE
  1 .data         00000001  00000000  00000000  0000013e  2**0
                  CONTENTS, ALLOC, LOAD, DATA
  2 .bss          00000000  00000000  00000000  0000013f  2**0
                  ALLOC
  3 .comment      00000012  00000000  00000000  0000013f  2**0
                  CONTENTS, READONLY

Disassembly of section .text:

00000000 <analogReference>:
   0:	80 93 00 00 	sts	0x0000, r24
   4:	08 95       	ret

00000006 <analogRead>:
   6:	8e 30       	cpi	r24, 0x0E	; 14
   8:	00 f0       	brcs	.+0      	; 0xa <analogRead+0x4>
   a:	8e 50       	subi	r24, 0x0E	; 14
   c:	87 70       	andi	r24, 0x07	; 7
   e:	20 91 00 00 	lds	r18, 0x0000
  12:	40 e4       	ldi	r20, 0x40	; 64
  14:	24 9f       	mul	r18, r20
  16:	90 01       	movw	r18, r0
  18:	11 24       	eor	r1, r1
  1a:	82 2b       	or	r24, r18
  1c:	80 93 7c 00 	sts	0x007C, r24
  20:	80 91 7a 00 	lds	r24, 0x007A
  24:	80 64       	ori	r24, 0x40	; 64
  26:	80 93 7a 00 	sts	0x007A, r24
  2a:	80 91 7a 00 	lds	r24, 0x007A
  2e:	86 fd       	sbrc	r24, 6
  30:	00 c0       	rjmp	.+0      	; 0x32 <analogRead+0x2c>
  32:	20 91 78 00 	lds	r18, 0x0078
  36:	30 91 79 00 	lds	r19, 0x0079
  3a:	93 2f       	mov	r25, r19
  3c:	80 e0       	ldi	r24, 0x00	; 0
  3e:	ac 01       	movw	r20, r24
  40:	42 2b       	or	r20, r18
  42:	9a 01       	movw	r18, r20
  44:	c9 01       	movw	r24, r18
  46:	08 95       	ret

00000048 <analogWrite>:
  48:	1f 93       	push	r17
  4a:	cf 93       	push	r28
  4c:	df 93       	push	r29
  4e:	18 2f       	mov	r17, r24
  50:	eb 01       	movw	r28, r22
  52:	61 e0       	ldi	r22, 0x01	; 1
  54:	0e 94 00 00 	call	0	; 0x0 <analogReference>
  58:	20 97       	sbiw	r28, 0x00	; 0
  5a:	01 f4       	brne	.+0      	; 0x5c <analogWrite+0x14>
  5c:	60 e0       	ldi	r22, 0x00	; 0
  5e:	00 c0       	rjmp	.+0      	; 0x60 <analogWrite+0x18>
  60:	cf 3f       	cpi	r28, 0xFF	; 255
  62:	d1 05       	cpc	r29, r1
  64:	01 f4       	brne	.+0      	; 0x66 <analogWrite+0x1e>
  66:	61 e0       	ldi	r22, 0x01	; 1
  68:	81 2f       	mov	r24, r17
  6a:	df 91       	pop	r29
  6c:	cf 91       	pop	r28
  6e:	1f 91       	pop	r17
  70:	0c 94 00 00 	jmp	0	; 0x0 <analogReference>
  74:	e1 2f       	mov	r30, r17
  76:	f0 e0       	ldi	r31, 0x00	; 0
  78:	e0 50       	subi	r30, 0x00	; 0
  7a:	f0 40       	sbci	r31, 0x00	; 0
  7c:	e4 91       	lpm	r30, Z
  7e:	e3 30       	cpi	r30, 0x03	; 3
  80:	01 f0       	breq	.+0      	; 0x82 <analogWrite+0x3a>
  82:	00 f4       	brcc	.+0      	; 0x84 <analogWrite+0x3c>
  84:	e1 30       	cpi	r30, 0x01	; 1
  86:	01 f0       	breq	.+0      	; 0x88 <analogWrite+0x40>
  88:	e2 30       	cpi	r30, 0x02	; 2
  8a:	01 f4       	brne	.+0      	; 0x8c <analogWrite+0x44>
  8c:	00 c0       	rjmp	.+0      	; 0x8e <analogWrite+0x46>
  8e:	e6 30       	cpi	r30, 0x06	; 6
  90:	01 f0       	breq	.+0      	; 0x92 <analogWrite+0x4a>
  92:	e7 30       	cpi	r30, 0x07	; 7
  94:	01 f0       	breq	.+0      	; 0x96 <analogWrite+0x4e>
  96:	e4 30       	cpi	r30, 0x04	; 4
  98:	01 f4       	brne	.+0      	; 0x9a <analogWrite+0x52>
  9a:	00 c0       	rjmp	.+0      	; 0x9c <analogWrite+0x54>
  9c:	84 b5       	in	r24, 0x24	; 36
  9e:	80 68       	ori	r24, 0x80	; 128
  a0:	84 bd       	out	0x24, r24	; 36
  a2:	c7 bd       	out	0x27, r28	; 39
  a4:	00 c0       	rjmp	.+0      	; 0xa6 <analogWrite+0x5e>
  a6:	84 b5       	in	r24, 0x24	; 36
  a8:	80 62       	ori	r24, 0x20	; 32
  aa:	84 bd       	out	0x24, r24	; 36
  ac:	c8 bd       	out	0x28, r28	; 40
  ae:	00 c0       	rjmp	.+0      	; 0xb0 <analogWrite+0x68>
  b0:	80 91 80 00 	lds	r24, 0x0080
  b4:	80 68       	ori	r24, 0x80	; 128
  b6:	80 93 80 00 	sts	0x0080, r24
  ba:	d0 93 89 00 	sts	0x0089, r29
  be:	c0 93 88 00 	sts	0x0088, r28
  c2:	00 c0       	rjmp	.+0      	; 0xc4 <analogWrite+0x7c>
  c4:	80 91 80 00 	lds	r24, 0x0080
  c8:	80 62       	ori	r24, 0x20	; 32
  ca:	80 93 80 00 	sts	0x0080, r24
  ce:	d0 93 8b 00 	sts	0x008B, r29
  d2:	c0 93 8a 00 	sts	0x008A, r28
  d6:	00 c0       	rjmp	.+0      	; 0xd8 <analogWrite+0x90>
  d8:	80 91 b0 00 	lds	r24, 0x00B0
  dc:	80 68       	ori	r24, 0x80	; 128
  de:	80 93 b0 00 	sts	0x00B0, r24
  e2:	c0 93 b3 00 	sts	0x00B3, r28
  e6:	00 c0       	rjmp	.+0      	; 0xe8 <analogWrite+0xa0>
  e8:	80 91 b0 00 	lds	r24, 0x00B0
  ec:	80 62       	ori	r24, 0x20	; 32
  ee:	80 93 b0 00 	sts	0x00B0, r24
  f2:	c0 93 b4 00 	sts	0x00B4, r28
  f6:	00 c0       	rjmp	.+0      	; 0xf8 <analogWrite+0xb0>
  f8:	c0 38       	cpi	r28, 0x80	; 128
  fa:	d1 05       	cpc	r29, r1
  fc:	04 f0       	brlt	.+0      	; 0xfe <analogWrite+0xb6>
  fe:	00 c0       	rjmp	.+0      	; 0x100 <analogWrite+0xb8>
 100:	00 c0       	rjmp	.+0      	; 0x102 <analogWrite+0xba>
 102:	df 91       	pop	r29
 104:	cf 91       	pop	r28
 106:	1f 91       	pop	r17
 108:	08 95       	ret

wiring_digital.o:     file format elf32-avr

Sections:
Idx Name          Size      VMA       LMA       File off  Algn
  0 .text         00000184  00000000  00000000  00000034  2**0
                  CONTENTS, ALLOC, LOAD, RELOC, READONLY, CODE
  1 .data         00000000  00000000  00000000  000001b8  2**0
                  CONTENTS, ALLOC, LOAD, DATA
  2 .bss          00000000  00000000  00000000  000001b8  2**0
                  ALLOC
  3 .progmem.data 0000005a  00000000  00000000  000001b8  2**0
                  CONTENTS, ALLOC, LOAD, READONLY, DATA
  4 .comment      00000012  00000000  00000000  00000212  2**0
                  CONTENTS, READONLY

Disassembly of section .text:

00000000 <turnOffPWM>:
   0:	83 30       	cpi	r24, 0x03	; 3
   2:	01 f0       	breq	.+0      	; 0x4 <turnOffPWM+0x4>
   4:	00 f4       	brcc	.+0      	; 0x6 <turnOffPWM+0x6>
   6:	81 30       	cpi	r24, 0x01	; 1
   8:	01 f0       	breq	.+0      	; 0xa <turnOffPWM+0xa>
   a:	82 30       	cpi	r24, 0x02	; 2
   c:	01 f4       	brne	.+0      	; 0xe <turnOffPWM+0xe>
   e:	00 c0       	rjmp	.+0      	; 0x10 <turnOffPWM+0x10>
  10:	86 30       	cpi	r24, 0x06	; 6
  12:	01 f0       	breq	.+0      	; 0x14 <turnOffPWM+0x14>
  14:	87 30       	cpi	r24, 0x07	; 7
  16:	01 f0       	breq	.+0      	; 0x18 <turnOffPWM+0x18>
  18:	84 30       	cpi	r24, 0x04	; 4
  1a:	01 f4       	brne	.+0      	; 0x1c <turnOffPWM+0x1c>
  1c:	00 c0       	rjmp	.+0      	; 0x1e <turnOffPWM+0x1e>
  1e:	80 91 80 00 	lds	r24, 0x0080
  22:	8f 77       	andi	r24, 0x7F	; 127
  24:	00 c0       	rjmp	.+0      	; 0x26 <turnOffPWM+0x26>
  26:	80 91 80 00 	lds	r24, 0x0080
  2a:	8f 7d       	andi	r24, 0xDF	; 223
  2c:	80 93 80 00 	sts	0x0080, r24
  30:	08 95       	ret
  32:	84 b5       	in	r24, 0x24	; 36
  34:	8f 77       	andi	r24, 0x7F	; 127
  36:	00 c0       	rjmp	.+0      	; 0x38 <turnOffPWM+0x38>
  38:	84 b5       	in	r24, 0x24	; 36
  3a:	8f 7d       	andi	r24, 0xDF	; 223
  3c:	84 bd       	out	0x24, r24	; 36
  3e:	08 95       	ret
  40:	80 91 b0 00 	lds	r24, 0x00B0
  44:	8f 77       	andi	r24, 0x7F	; 127
  46:	00 c0       	rjmp	.+0      	; 0x48 <turnOffPWM+0x48>
  48:	80 91 b0 00 	lds	r24, 0x00B0
  4c:	8f 7d       	andi	r24, 0xDF	; 223
  4e:	80 93 b0 00 	sts	0x00B0, r24
  52:	08 95       	ret

00000054 <pinMode>:
  54:	cf 93       	push	r28
  56:	df 93       	push	r29
  58:	90 e0       	ldi	r25, 0x00	; 0
  5a:	fc 01       	movw	r30, r24
  5c:	e0 50       	subi	r30, 0x00	; 0
  5e:	f0 40       	sbci	r31, 0x00	; 0
  60:	44 91       	lpm	r20, Z
  62:	fc 01       	movw	r30, r24
  64:	e0 50       	subi	r30, 0x00	; 0
  66:	f0 40       	sbci	r31, 0x00	; 0
  68:	84 91       	lpm	r24, Z
  6a:	88 23       	and	r24, r24
  6c:	01 f0       	breq	.+0      	; 0x6e <pinMode+0x1a>
  6e:	90 e0       	ldi	r25, 0x00	; 0
  70:	88 0f       	add	r24, r24
  72:	99 1f       	adc	r25, r25
  74:	fc 01       	movw	r30, r24
  76:	e0 50       	subi	r30, 0x00	; 0
  78:	f0 40       	sbci	r31, 0x00	; 0
  7a:	25 91       	lpm	r18, Z+
  7c:	34 91       	lpm	r19, Z
  7e:	d9 01       	movw	r26, r18
  80:	80 50       	subi	r24, 0x00	; 0
  82:	90 40       	sbci	r25, 0x00	; 0
  84:	fc 01       	movw	r30, r24
  86:	85 91       	lpm	r24, Z+
  88:	94 91       	lpm	r25, Z
  8a:	c8 2f       	mov	r28, r24
  8c:	d9 2f       	mov	r29, r25
  8e:	9f b7       	in	r25, 0x3f	; 63
  90:	f8 94       	cli
  92:	8c 91       	ld	r24, X
  94:	61 11       	cpse	r22, r1
  96:	00 c0       	rjmp	.+0      	; 0x98 <pinMode+0x44>
  98:	40 95       	com	r20
  9a:	84 23       	and	r24, r20
  9c:	8c 93       	st	X, r24
  9e:	88 81       	ld	r24, Y
  a0:	84 23       	and	r24, r20
  a2:	00 c0       	rjmp	.+0      	; 0xa4 <pinMode+0x50>
  a4:	62 30       	cpi	r22, 0x02	; 2
  a6:	01 f4       	brne	.+0      	; 0xa8 <pinMode+0x54>
  a8:	24 2f       	mov	r18, r20
  aa:	20 95       	com	r18
  ac:	82 23       	and	r24, r18
  ae:	8c 93       	st	X, r24
  b0:	88 81       	ld	r24, Y
  b2:	84 2b       	or	r24, r20
  b4:	88 83       	st	Y, r24
  b6:	00 c0       	rjmp	.+0      	; 0xb8 <pinMode+0x64>
  b8:	84 2b       	or	r24, r20
  ba:	8c 93       	st	X, r24
  bc:	9f bf       	out	0x3f, r25	; 63
  be:	df 91       	pop	r29
  c0:	cf 91       	pop	r28
  c2:	08 95       	ret

000000c4 <digitalWrite>:
  c4:	0f 93       	push	r16
  c6:	1f 93       	push	r17
  c8:	cf 93       	push	r28
  ca:	df 93       	push	r29
  cc:	1f 92       	push	r1
  ce:	cd b7       	in	r28, 0x3d	; 61
  d0:	de b7       	in	r29, 0x3e	; 62
  d2:	28 2f       	mov	r18, r24
  d4:	30 e0       	ldi	r19, 0x00	; 0
  d6:	f9 01       	movw	r30, r18
  d8:	e0 50       	subi	r30, 0x00	; 0
  da:	f0 40       	sbci	r31, 0x00	; 0
  dc:	84 91       	lpm	r24, Z
  de:	f9 01       	movw	r30, r18
  e0:	e0 50       	subi	r30, 0x00	; 0
  e2:	f0 40       	sbci	r31, 0x00	; 0
  e4:	14 91       	lpm	r17, Z
  e6:	f9 01       	movw	r30, r18
  e8:	e0 50       	subi	r30, 0x00	; 0
  ea:	f0 40       	sbci	r31, 0x00	; 0
  ec:	04 91       	lpm	r16, Z
  ee:	00 23       	and	r16, r16
  f0:	01 f0       	breq	.+0      	; 0xf2 <digitalWrite+0x2e>
  f2:	88 23       	and	r24, r24
  f4:	01 f0       	breq	.+0      	; 0xf6 <digitalWrite+0x32>
  f6:	69 83       	std	Y+1, r22	; 0x01
  f8:	0e 94 00 00 	call	0	; 0x0 <turnOffPWM>
  fc:	69 81       	ldd	r22, Y+1	; 0x01
  fe:	e0 2f       	mov	r30, r16
 100:	f0 e0       	ldi	r31, 0x00	; 0
 102:	ee 0f       	add	r30, r30
 104:	ff 1f       	adc	r31, r31
 106:	e0 50       	subi	r30, 0x00	; 0
 108:	f0 40       	sbci	r31, 0x00	; 0
 10a:	85 91       	lpm	r24, Z+
 10c:	94 91       	lpm	r25, Z
 10e:	dc 01       	movw	r26, r24
 110:	9f b7       	in	r25, 0x3f	; 63
 112:	f8 94       	cli
 114:	8c 91       	ld	r24, X
 116:	61 11       	cpse	r22, r1
 118:	00 c0       	rjmp	.+0      	; 0x11a <digitalWrite+0x56>
 11a:	10 95       	com	r17
 11c:	81 23       	and	r24, r17
 11e:	00 c0       	rjmp	.+0      	; 0x120 <digitalWrite+0x5c>
 120:	81 2b       	or	r24, r17
 122:	8c 93       	st	X, r24
 124:	9f bf       	out	0x3f, r25	; 63
 126:	0f 90       	pop	r0
 128:	df 91       	pop	r29
 12a:	cf 91       	pop	r28
 12c:	1f 91       	pop	r17
 12e:	0f 91       	pop	r16
 130:	08 95       	ret

00000132 <digitalRead>:
 132:	cf 93       	push	r28
 134:	df 93       	push	r29
 136:	28 2f       	mov	r18, r24
 138:	30 e0       	ldi	r19, 0x00	; 0
 13a:	f9 01       	movw	r30, r18
 13c:	e0 50       	subi	r30, 0x00	; 0
 13e:	f0 40       	sbci	r31, 0x00	; 0
 140:	84 91       	lpm	r24, Z
 142:	f9 01       	movw	r30, r18
 144:	e0 50       	subi	r30, 0x00	; 0
 146:	f0 40       	sbci	r31, 0x00	; 0
 148:	d4 91       	lpm	r29, Z
 14a:	f9 01       	movw	r30, r18
 14c:	e0 50       	subi	r30, 0x00	; 0
 14e:	f0 40       	sbci	r31, 0x00	; 0
 150:	c4 91       	lpm	r28, Z
 152:	cc 23       	and	r28, r28
 154:	01 f0       	breq	.+0      	; 0x156 <digitalRead+0x24>
 156:	81 11       	cpse	r24, r1
 158:	0e 94 00 00 	call	0	; 0x0 <turnOffPWM>
 15c:	ec 2f       	mov	r30, r28
 15e:	f0 e0       	ldi	r31, 0x00	; 0
 160:	ee 0f       	add	r30, r30
 162:	ff 1f       	adc	r31, r31
 164:	e0 50       	subi	r30, 0x00	; 0
 166:	f0 40       	sbci	r31, 0x00	; 0
 168:	85 91       	lpm	r24, Z+
 16a:	94 91       	lpm	r25, Z
 16c:	dc 01       	movw	r26, r24
 16e:	8c 91       	ld	r24, X
 170:	8d 23       	and	r24, r29
 172:	21 e0       	ldi	r18, 0x01	; 1
 174:	30 e0       	ldi	r19, 0x00	; 0
 176:	01 f4       	brne	.+0      	; 0x178 <digitalRead+0x46>
 178:	20 e0       	ldi	r18, 0x00	; 0
 17a:	30 e0       	ldi	r19, 0x00	; 0
 17c:	c9 01       	movw	r24, r18
 17e:	df 91       	pop	r29
 180:	cf 91       	pop	r28
 182:	08 95       	ret

wiring_pulse.o:     file format elf32-avr

Sections:
Idx Name          Size      VMA       LMA       File off  Algn
  0 .text         0000012a  00000000  00000000  00000034  2**0
                  CONTENTS, ALLOC, LOAD, RELOC, READONLY, CODE
  1 .data         00000000  00000000  00000000  0000015e  2**0
                  CONTENTS, ALLOC, LOAD, DATA
  2 .bss          00000000  00000000  00000000  0000015e  2**0
                  ALLOC
  3 .comment      00000012  00000000  00000000  0000015e  2**0
                  CONTENTS, READONLY

Disassembly of section .text:

00000000 <pulseIn>:
   0:	8f 92       	push	r8
   2:	9f 92       	push	r9
   4:	af 92       	push	r10
   6:	bf 92       	push	r11
   8:	cf 92       	push	r12
   a:	df 92       	push	r13
   c:	ef 92       	push	r14
   e:	ff 92       	push	r15
  10:	0f 93       	push	r16
  12:	1f 93       	push	r17
  14:	cf 93       	push	r28
  16:	df 93       	push	r29
  18:	90 e0       	ldi	r25, 0x00	; 0
  1a:	fc 01       	movw	r30, r24
  1c:	e0 50       	subi	r30, 0x00	; 0
  1e:	f0 40       	sbci	r31, 0x00	; 0
  20:	d4 91       	lpm	r29, Z
  22:	fc 01       	movw	r30, r24
  24:	e0 50       	subi	r30, 0x00	; 0
  26:	f0 40       	sbci	r31, 0x00	; 0
  28:	74 91       	lpm	r23, Z
  2a:	61 11       	cpse	r22, r1
  2c:	00 c0       	rjmp	.+0      	; 0x2e <pulseIn+0x2e>
  2e:	c0 e0       	ldi	r28, 0x00	; 0
  30:	00 c0       	rjmp	.+0      	; 0x32 <pulseIn+0x32>
  32:	cd 2f       	mov	r28, r29
  34:	da 01       	movw	r26, r20
  36:	c9 01       	movw	r24, r18
  38:	bf 70       	andi	r27, 0x0F	; 15
  3a:	67 2f       	mov	r22, r23
  3c:	70 e0       	ldi	r23, 0x00	; 0
  3e:	66 0f       	add	r22, r22
  40:	77 1f       	adc	r23, r23
  42:	60 50       	subi	r22, 0x00	; 0
  44:	70 40       	sbci	r23, 0x00	; 0
  46:	81 2c       	mov	r8, r1
  48:	91 2c       	mov	r9, r1
  4a:	54 01       	movw	r10, r8
  4c:	fb 01       	movw	r30, r22
  4e:	05 91       	lpm	r16, Z+
  50:	14 91       	lpm	r17, Z
  52:	00 c0       	rjmp	.+0      	; 0x54 <pulseIn+0x54>
  54:	c1 2c       	mov	r12, r1
  56:	d1 2c       	mov	r13, r1
  58:	76 01       	movw	r14, r12
  5a:	c3 94       	inc	r12
  5c:	c8 0c       	add	r12, r8
  5e:	d9 1c       	adc	r13, r9
  60:	ea 1c       	adc	r14, r10
  62:	fb 1c       	adc	r15, r11
  64:	88 16       	cp	r8, r24
  66:	99 06       	cpc	r9, r25
  68:	aa 06       	cpc	r10, r26
  6a:	bb 06       	cpc	r11, r27
  6c:	01 f4       	brne	.+0      	; 0x6e <pulseIn+0x6e>
  6e:	00 c0       	rjmp	.+0      	; 0x70 <pulseIn+0x70>
  70:	46 01       	movw	r8, r12
  72:	57 01       	movw	r10, r14
  74:	f8 01       	movw	r30, r16
  76:	e0 81       	ld	r30, Z
  78:	ed 23       	and	r30, r29
  7a:	ec 17       	cp	r30, r28
  7c:	01 f0       	breq	.+0      	; 0x7e <pulseIn+0x7e>
  7e:	00 c0       	rjmp	.+0      	; 0x80 <pulseIn+0x80>
  80:	c1 2c       	mov	r12, r1
  82:	d1 2c       	mov	r13, r1
  84:	76 01       	movw	r14, r12
  86:	c3 94       	inc	r12
  88:	c8 0c       	add	r12, r8
  8a:	d9 1c       	adc	r13, r9
  8c:	ea 1c       	adc	r14, r10
  8e:	fb 1c       	adc	r15, r11
  90:	88 16       	cp	r8, r24
  92:	99 06       	cpc	r9, r25
  94:	aa 06       	cpc	r10, r26
  96:	bb 06       	cpc	r11, r27
  98:	01 f0       	breq	.+0      	; 0x9a <pulseIn+0x9a>
  9a:	46 01       	movw	r8, r12
  9c:	57 01       	movw	r10, r14
  9e:	00 c0       	rjmp	.+0      	; 0xa0 <pulseIn+0xa0>
  a0:	fb 01       	movw	r30, r22
  a2:	05 91       	lpm	r16, Z+
  a4:	14 91       	lpm	r17, Z
  a6:	f8 01       	movw	r30, r16
  a8:	e0 81       	ld	r30, Z
  aa:	ed 23       	and	r30, r29
  ac:	ec 13       	cpse	r30, r28
  ae:	00 c0       	rjmp	.+0      	; 0xb0 <pulseIn+0xb0>
  b0:	88 19       	sub	r24, r8
  b2:	99 09       	sbc	r25, r9
  b4:	aa 09       	sbc	r26, r10
  b6:	bb 09       	sbc	r27, r11
  b8:	20 e0       	ldi	r18, 0x00	; 0
  ba:	30 e0       	ldi	r19, 0x00	; 0
  bc:	a9 01       	movw	r20, r18
  be:	fb 01       	movw	r30, r22
  c0:	65 91       	lpm	r22, Z+
  c2:	74 91       	lpm	r23, Z
  c4:	00 c0       	rjmp	.+0      	; 0xc6 <pulseIn+0xc6>
  c6:	28 17       	cp	r18, r24
  c8:	39 07       	cpc	r19, r25
  ca:	4a 07       	cpc	r20, r26
  cc:	5b 07       	cpc	r21, r27
  ce:	01 f0       	breq	.+0      	; 0xd0 <pulseIn+0xd0>
  d0:	2f 5f       	subi	r18, 0xFF	; 255
  d2:	3f 4f       	sbci	r19, 0xFF	; 255
  d4:	4f 4f       	sbci	r20, 0xFF	; 255
  d6:	5f 4f       	sbci	r21, 0xFF	; 255
  d8:	fb 01       	movw	r30, r22
  da:	e0 81       	ld	r30, Z
  dc:	ed 23       	and	r30, r29
  de:	ec 17       	cp	r30, r28
  e0:	01 f0       	breq	.+0      	; 0xe2 <pulseIn+0xe2>
  e2:	a5 e1       	ldi	r26, 0x15	; 21
  e4:	b0 e0       	ldi	r27, 0x00	; 0
  e6:	0e 94 00 00 	call	0	; 0x0 <pulseIn>
  ea:	8b 01       	movw	r16, r22
  ec:	9c 01       	movw	r18, r24
  ee:	00 5f       	subi	r16, 0xF0	; 240
  f0:	1f 4f       	sbci	r17, 0xFF	; 255
  f2:	2f 4f       	sbci	r18, 0xFF	; 255
  f4:	3f 4f       	sbci	r19, 0xFF	; 255
  f6:	84 e0       	ldi	r24, 0x04	; 4
  f8:	36 95       	lsr	r19
  fa:	27 95       	ror	r18
  fc:	17 95       	ror	r17
  fe:	07 95       	ror	r16
 100:	8a 95       	dec	r24
 102:	01 f4       	brne	.+0      	; 0x104 <pulseIn+0x104>
 104:	00 c0       	rjmp	.+0      	; 0x106 <pulseIn+0x106>
 106:	00 e0       	ldi	r16, 0x00	; 0
 108:	10 e0       	ldi	r17, 0x00	; 0
 10a:	98 01       	movw	r18, r16
 10c:	b8 01       	movw	r22, r16
 10e:	c9 01       	movw	r24, r18
 110:	df 91       	pop	r29
 112:	cf 91       	pop	r28
 114:	1f 91       	pop	r17
 116:	0f 91       	pop	r16
 118:	ff 90       	pop	r15
 11a:	ef 90       	pop	r14
 11c:	df 90       	pop	r13
 11e:	cf 90       	pop	r12
 120:	bf 90       	pop	r11
 122:	af 90       	pop	r10
 124:	9f 90       	pop	r9
 126:	8f 90       	pop	r8
 128:	08 95       	ret

wiring_shift.o:     file format elf32-avr

Sections:
Idx Name          Size      VMA       LMA       File off  Algn
  0 .text         000000e8  00000000  00000000  00000034  2**0
                  CONTENTS, ALLOC, LOAD, RELOC, READONLY, CODE
  1 .data         00000000  00000000  00000000  0000011c  2**0
                  CONTENTS, ALLOC, LOAD, DATA
  2 .bss          00000000  00000000  00000000  0000011c  2**0
                  ALLOC
  3 .comment      00000012  00000000  00000000  0000011c  2**0
                  CONTENTS, READONLY

Disassembly of section .text:

00000000 <shiftIn>:
   0:	cf 92       	push	r12
   2:	df 92       	push	r13
   4:	ef 92       	push	r14
   6:	ff 92       	push	r15
   8:	0f 93       	push	r16
   a:	1f 93       	push	r17
   c:	cf 93       	push	r28
   e:	df 93       	push	r29
  10:	d8 2e       	mov	r13, r24
  12:	e6 2e       	mov	r14, r22
  14:	c4 2e       	mov	r12, r20
  16:	c7 e0       	ldi	r28, 0x07	; 7
  18:	d0 e0       	ldi	r29, 0x00	; 0
  1a:	f1 2c       	mov	r15, r1
  1c:	07 e0       	ldi	r16, 0x07	; 7
  1e:	10 e0       	ldi	r17, 0x00	; 0
  20:	61 e0       	ldi	r22, 0x01	; 1
  22:	8e 2d       	mov	r24, r14
  24:	0e 94 00 00 	call	0	; 0x0 <shiftIn>
  28:	8d 2d       	mov	r24, r13
  2a:	c1 10       	cpse	r12, r1
  2c:	00 c0       	rjmp	.+0      	; 0x2e <shiftIn+0x2e>
  2e:	0e 94 00 00 	call	0	; 0x0 <shiftIn>
  32:	98 01       	movw	r18, r16
  34:	2c 1b       	sub	r18, r28
  36:	3d 0b       	sbc	r19, r29
  38:	00 c0       	rjmp	.+0      	; 0x3a <shiftIn+0x3a>
  3a:	0e 94 00 00 	call	0	; 0x0 <shiftIn>
  3e:	2c 2f       	mov	r18, r28
  40:	00 c0       	rjmp	.+0      	; 0x42 <shiftIn+0x42>
  42:	88 0f       	add	r24, r24
  44:	2a 95       	dec	r18
  46:	02 f4       	brpl	.+0      	; 0x48 <shiftIn+0x48>
  48:	f8 2a       	or	r15, r24
  4a:	60 e0       	ldi	r22, 0x00	; 0
  4c:	8e 2d       	mov	r24, r14
  4e:	0e 94 00 00 	call	0	; 0x0 <shiftIn>
  52:	21 97       	sbiw	r28, 0x01	; 1
  54:	00 f4       	brcc	.+0      	; 0x56 <shiftIn+0x56>
  56:	8f 2d       	mov	r24, r15
  58:	df 91       	pop	r29
  5a:	cf 91       	pop	r28
  5c:	1f 91       	pop	r17
  5e:	0f 91       	pop	r16
  60:	ff 90       	pop	r15
  62:	ef 90       	pop	r14
  64:	df 90       	pop	r13
  66:	cf 90       	pop	r12
  68:	08 95       	ret

0000006a <shiftOut>:
  6a:	bf 92       	push	r11
  6c:	cf 92       	push	r12
  6e:	df 92       	push	r13
  70:	ef 92       	push	r14
  72:	ff 92       	push	r15
  74:	0f 93       	push	r16
  76:	1f 93       	push	r17
  78:	cf 93       	push	r28
  7a:	df 93       	push	r29
  7c:	c8 2e       	mov	r12, r24
  7e:	d6 2e       	mov	r13, r22
  80:	b4 2e       	mov	r11, r20
  82:	c7 e0       	ldi	r28, 0x07	; 7
  84:	d0 e0       	ldi	r29, 0x00	; 0
  86:	02 2f       	mov	r16, r18
  88:	10 e0       	ldi	r17, 0x00	; 0
  8a:	87 e0       	ldi	r24, 0x07	; 7
  8c:	e8 2e       	mov	r14, r24
  8e:	f1 2c       	mov	r15, r1
  90:	b1 10       	cpse	r11, r1
  92:	00 c0       	rjmp	.+0      	; 0x94 <shiftOut+0x2a>
  94:	f7 01       	movw	r30, r14
  96:	ec 1b       	sub	r30, r28
  98:	fd 0b       	sbc	r31, r29
  9a:	b8 01       	movw	r22, r16
  9c:	00 c0       	rjmp	.+0      	; 0x9e <shiftOut+0x34>
  9e:	75 95       	asr	r23
  a0:	67 95       	ror	r22
  a2:	ea 95       	dec	r30
  a4:	02 f4       	brpl	.+0      	; 0xa6 <shiftOut+0x3c>
  a6:	00 c0       	rjmp	.+0      	; 0xa8 <shiftOut+0x3e>
  a8:	b8 01       	movw	r22, r16
  aa:	0c 2e       	mov	r0, r28
  ac:	00 c0       	rjmp	.+0      	; 0xae <shiftOut+0x44>
  ae:	75 95       	asr	r23
  b0:	67 95       	ror	r22
  b2:	0a 94       	dec	r0
  b4:	02 f4       	brpl	.+0      	; 0xb6 <shiftOut+0x4c>
  b6:	61 70       	andi	r22, 0x01	; 1
  b8:	77 27       	eor	r23, r23
  ba:	8c 2d       	mov	r24, r12
  bc:	0e 94 00 00 	call	0	; 0x0 <shiftIn>
  c0:	61 e0       	ldi	r22, 0x01	; 1
  c2:	8d 2d       	mov	r24, r13
  c4:	0e 94 00 00 	call	0	; 0x0 <shiftIn>
  c8:	60 e0       	ldi	r22, 0x00	; 0
  ca:	8d 2d       	mov	r24, r13
  cc:	0e 94 00 00 	call	0	; 0x0 <shiftIn>
  d0:	21 97       	sbiw	r28, 0x01	; 1
  d2:	00 f4       	brcc	.+0      	; 0xd4 <shiftOut+0x6a>
  d4:	df 91       	pop	r29
  d6:	cf 91       	pop	r28
  d8:	1f 91       	pop	r17
  da:	0f 91       	pop	r16
  dc:	ff 90       	pop	r15
  de:	ef 90       	pop	r14
  e0:	df 90       	pop	r13
  e2:	cf 90       	pop	r12
  e4:	bf 90       	pop	r11
  e6:	08 95       	ret
