In archive libArduino_cores.a:

CDC.o:     file format elf32-avr

Sections:
Idx Name          Size      VMA       LMA       File off  Algn
  0 .text         00000000  00000000  00000000  00000034  2**0
                  CONTENTS, ALLOC, LOAD, READONLY, CODE
  1 .data         00000000  00000000  00000000  00000034  2**0
                  CONTENTS, ALLOC, LOAD, DATA
  2 .bss          00000000  00000000  00000000  00000034  2**0
                  ALLOC

HID.o:     file format elf32-avr

Sections:
Idx Name          Size      VMA       LMA       File off  Algn
  0 .text         00000000  00000000  00000000  00000034  2**0
                  CONTENTS, ALLOC, LOAD, READONLY, CODE
  1 .data         00000000  00000000  00000000  00000034  2**0
                  CONTENTS, ALLOC, LOAD, DATA
  2 .bss          00000000  00000000  00000000  00000034  2**0
                  ALLOC

HardwareSerial.o:     file format elf32-avr

Sections:
Idx Name          Size      VMA       LMA       File off  Algn
  0 .text         00000460  00000000  00000000  00000034  2**0
                  CONTENTS, ALLOC, LOAD, RELOC, READONLY, CODE
  1 .data         00000020  00000000  00000000  00000494  2**0
                  CONTENTS, ALLOC, LOAD, RELOC, DATA
  2 .bss          000000a7  00000000  00000000  000004b4  2**0
                  ALLOC
  3 .text.startup 0000007a  00000000  00000000  000004b4  2**0
                  CONTENTS, ALLOC, LOAD, RELOC, READONLY, CODE
  4 .ctors        00000002  00000000  00000000  0000052e  2**0
                  CONTENTS, ALLOC, LOAD, RELOC, READONLY, DATA

Disassembly of section .text:

00000000 <_ZN14HardwareSerial9availableEv>:
   0:	fc 01       	movw	r30, r24
   2:	24 85       	ldd	r18, Z+12	; 0x0c
   4:	35 85       	ldd	r19, Z+13	; 0x0d
   6:	f9 01       	movw	r30, r18
   8:	e0 5c       	subi	r30, 0xC0	; 192
   a:	ff 4f       	sbci	r31, 0xFF	; 255
   c:	80 81       	ld	r24, Z
   e:	91 81       	ldd	r25, Z+1	; 0x01
  10:	2e 5b       	subi	r18, 0xBE	; 190
  12:	3f 4f       	sbci	r19, 0xFF	; 255
  14:	f9 01       	movw	r30, r18
  16:	20 81       	ld	r18, Z
  18:	31 81       	ldd	r19, Z+1	; 0x01
  1a:	82 1b       	sub	r24, r18
  1c:	93 0b       	sbc	r25, r19
  1e:	8f 73       	andi	r24, 0x3F	; 63
  20:	90 70       	andi	r25, 0x00	; 0
  22:	08 95       	ret

00000024 <_ZN14HardwareSerial4peekEv>:
  24:	fc 01       	movw	r30, r24
  26:	44 85       	ldd	r20, Z+12	; 0x0c
  28:	55 85       	ldd	r21, Z+13	; 0x0d
  2a:	fa 01       	movw	r30, r20
  2c:	e0 5c       	subi	r30, 0xC0	; 192
  2e:	ff 4f       	sbci	r31, 0xFF	; 255
  30:	80 81       	ld	r24, Z
  32:	91 81       	ldd	r25, Z+1	; 0x01
  34:	fa 01       	movw	r30, r20
  36:	ee 5b       	subi	r30, 0xBE	; 190
  38:	ff 4f       	sbci	r31, 0xFF	; 255
  3a:	20 81       	ld	r18, Z
  3c:	31 81       	ldd	r19, Z+1	; 0x01
  3e:	82 17       	cp	r24, r18
  40:	93 07       	cpc	r25, r19
  42:	01 f0       	breq	.+0      	; 0x44 <_ZN14HardwareSerial4peekEv+0x20>
  44:	01 90       	ld	r0, Z+
  46:	f0 81       	ld	r31, Z
  48:	e0 2d       	mov	r30, r0
  4a:	e4 0f       	add	r30, r20
  4c:	f5 1f       	adc	r31, r21
  4e:	80 81       	ld	r24, Z
  50:	90 e0       	ldi	r25, 0x00	; 0
  52:	08 95       	ret
  54:	8f ef       	ldi	r24, 0xFF	; 255
  56:	9f ef       	ldi	r25, 0xFF	; 255
  58:	08 95       	ret

0000005a <_ZN14HardwareSerial4readEv>:
  5a:	fc 01       	movw	r30, r24
  5c:	44 85       	ldd	r20, Z+12	; 0x0c
  5e:	55 85       	ldd	r21, Z+13	; 0x0d
  60:	fa 01       	movw	r30, r20
  62:	e0 5c       	subi	r30, 0xC0	; 192
  64:	ff 4f       	sbci	r31, 0xFF	; 255
  66:	20 81       	ld	r18, Z
  68:	31 81       	ldd	r19, Z+1	; 0x01
  6a:	fa 01       	movw	r30, r20
  6c:	ee 5b       	subi	r30, 0xBE	; 190
  6e:	ff 4f       	sbci	r31, 0xFF	; 255
  70:	80 81       	ld	r24, Z
  72:	91 81       	ldd	r25, Z+1	; 0x01
  74:	28 17       	cp	r18, r24
  76:	39 07       	cpc	r19, r25
  78:	01 f0       	breq	.+0      	; 0x7a <_ZN14HardwareSerial4readEv+0x20>
  7a:	a0 81       	ld	r26, Z
  7c:	b1 81       	ldd	r27, Z+1	; 0x01
  7e:	a4 0f       	add	r26, r20
  80:	b5 1f       	adc	r27, r21
  82:	8c 91       	ld	r24, X
  84:	20 81       	ld	r18, Z
  86:	31 81       	ldd	r19, Z+1	; 0x01
  88:	2f 5f       	subi	r18, 0xFF	; 255
  8a:	3f 4f       	sbci	r19, 0xFF	; 255
  8c:	2f 73       	andi	r18, 0x3F	; 63
  8e:	30 70       	andi	r19, 0x00	; 0
  90:	31 83       	std	Z+1, r19	; 0x01
  92:	20 83       	st	Z, r18
  94:	90 e0       	ldi	r25, 0x00	; 0
  96:	08 95       	ret
  98:	8f ef       	ldi	r24, 0xFF	; 255
  9a:	9f ef       	ldi	r25, 0xFF	; 255
  9c:	08 95       	ret

0000009e <_ZN14HardwareSerial5flushEv>:
  9e:	dc 01       	movw	r26, r24
  a0:	1e 96       	adiw	r26, 0x0e	; 14
  a2:	ed 91       	ld	r30, X+
  a4:	fc 91       	ld	r31, X
  a6:	1f 97       	sbiw	r26, 0x0f	; 15
  a8:	df 01       	movw	r26, r30
  aa:	a0 5c       	subi	r26, 0xC0	; 192
  ac:	bf 4f       	sbci	r27, 0xFF	; 255
  ae:	ee 5b       	subi	r30, 0xBE	; 190
  b0:	ff 4f       	sbci	r31, 0xFF	; 255
  b2:	2d 91       	ld	r18, X+
  b4:	3c 91       	ld	r19, X
  b6:	11 97       	sbiw	r26, 0x01	; 1
  b8:	80 81       	ld	r24, Z
  ba:	91 81       	ldd	r25, Z+1	; 0x01
  bc:	28 17       	cp	r18, r24
  be:	39 07       	cpc	r19, r25
  c0:	01 f4       	brne	.+0      	; 0xc2 <_ZN14HardwareSerial5flushEv+0x24>
  c2:	08 95       	ret

000000c4 <_ZN14HardwareSerial5writeEh>:
  c4:	cf 93       	push	r28
  c6:	df 93       	push	r29
  c8:	dc 01       	movw	r26, r24
  ca:	1e 96       	adiw	r26, 0x0e	; 14
  cc:	4d 91       	ld	r20, X+
  ce:	5c 91       	ld	r21, X
  d0:	1f 97       	sbiw	r26, 0x0f	; 15
  d2:	ea 01       	movw	r28, r20
  d4:	c0 5c       	subi	r28, 0xC0	; 192
  d6:	df 4f       	sbci	r29, 0xFF	; 255
  d8:	28 81       	ld	r18, Y
  da:	39 81       	ldd	r19, Y+1	; 0x01
  dc:	2f 5f       	subi	r18, 0xFF	; 255
  de:	3f 4f       	sbci	r19, 0xFF	; 255
  e0:	2f 73       	andi	r18, 0x3F	; 63
  e2:	30 70       	andi	r19, 0x00	; 0
  e4:	fa 01       	movw	r30, r20
  e6:	ee 5b       	subi	r30, 0xBE	; 190
  e8:	ff 4f       	sbci	r31, 0xFF	; 255
  ea:	80 81       	ld	r24, Z
  ec:	91 81       	ldd	r25, Z+1	; 0x01
  ee:	28 17       	cp	r18, r24
  f0:	39 07       	cpc	r19, r25
  f2:	01 f0       	breq	.+0      	; 0xf4 <_ZN14HardwareSerial5writeEh+0x30>
  f4:	e8 81       	ld	r30, Y
  f6:	f9 81       	ldd	r31, Y+1	; 0x01
  f8:	e4 0f       	add	r30, r20
  fa:	f5 1f       	adc	r31, r21
  fc:	60 83       	st	Z, r22
  fe:	1e 96       	adiw	r26, 0x0e	; 14
 100:	ed 91       	ld	r30, X+
 102:	fc 91       	ld	r31, X
 104:	1f 97       	sbiw	r26, 0x0f	; 15
 106:	e0 5c       	subi	r30, 0xC0	; 192
 108:	ff 4f       	sbci	r31, 0xFF	; 255
 10a:	31 83       	std	Z+1, r19	; 0x01
 10c:	20 83       	st	Z, r18
 10e:	56 96       	adiw	r26, 0x16	; 22
 110:	ed 91       	ld	r30, X+
 112:	fc 91       	ld	r31, X
 114:	57 97       	sbiw	r26, 0x17	; 23
 116:	20 81       	ld	r18, Z
 118:	81 e0       	ldi	r24, 0x01	; 1
 11a:	90 e0       	ldi	r25, 0x00	; 0
 11c:	5d 96       	adiw	r26, 0x1d	; 29
 11e:	0c 90       	ld	r0, X
 120:	5d 97       	sbiw	r26, 0x1d	; 29
 122:	00 c0       	rjmp	.+0      	; 0x124 <_ZN14HardwareSerial5writeEh+0x60>
 124:	88 0f       	add	r24, r24
 126:	99 1f       	adc	r25, r25
 128:	0a 94       	dec	r0
 12a:	02 f4       	brpl	.+0      	; 0x12c <_ZN14HardwareSerial5writeEh+0x68>
 12c:	28 2b       	or	r18, r24
 12e:	20 83       	st	Z, r18
 130:	81 e0       	ldi	r24, 0x01	; 1
 132:	90 e0       	ldi	r25, 0x00	; 0
 134:	df 91       	pop	r29
 136:	cf 91       	pop	r28
 138:	08 95       	ret

0000013a <_Z11serialEventv>:
 13a:	08 95       	ret

0000013c <__vector_18>:
 13c:	1f 92       	push	r1
 13e:	0f 92       	push	r0
 140:	0f b6       	in	r0, 0x3f	; 63
 142:	0f 92       	push	r0
 144:	11 24       	eor	r1, r1
 146:	2f 93       	push	r18
 148:	3f 93       	push	r19
 14a:	4f 93       	push	r20
 14c:	8f 93       	push	r24
 14e:	9f 93       	push	r25
 150:	ef 93       	push	r30
 152:	ff 93       	push	r31
 154:	40 91 c6 00 	lds	r20, 0x00C6
 158:	80 91 00 00 	lds	r24, 0x0000
 15c:	90 91 00 00 	lds	r25, 0x0000
 160:	01 96       	adiw	r24, 0x01	; 1
 162:	8f 73       	andi	r24, 0x3F	; 63
 164:	90 70       	andi	r25, 0x00	; 0
 166:	20 91 00 00 	lds	r18, 0x0000
 16a:	30 91 00 00 	lds	r19, 0x0000
 16e:	82 17       	cp	r24, r18
 170:	93 07       	cpc	r25, r19
 172:	01 f0       	breq	.+0      	; 0x174 <__vector_18+0x38>
 174:	e0 91 00 00 	lds	r30, 0x0000
 178:	f0 91 00 00 	lds	r31, 0x0000
 17c:	e0 50       	subi	r30, 0x00	; 0
 17e:	f0 40       	sbci	r31, 0x00	; 0
 180:	40 83       	st	Z, r20
 182:	90 93 00 00 	sts	0x0000, r25
 186:	80 93 00 00 	sts	0x0000, r24
 18a:	ff 91       	pop	r31
 18c:	ef 91       	pop	r30
 18e:	9f 91       	pop	r25
 190:	8f 91       	pop	r24
 192:	4f 91       	pop	r20
 194:	3f 91       	pop	r19
 196:	2f 91       	pop	r18
 198:	0f 90       	pop	r0
 19a:	0f be       	out	0x3f, r0	; 63
 19c:	0f 90       	pop	r0
 19e:	1f 90       	pop	r1
 1a0:	18 95       	reti

000001a2 <_Z14serialEventRunv>:
 1a2:	80 e0       	ldi	r24, 0x00	; 0
 1a4:	90 e0       	ldi	r25, 0x00	; 0
 1a6:	0e 94 00 00 	call	0	; 0x0 <_ZN14HardwareSerial9availableEv>
 1aa:	00 97       	sbiw	r24, 0x00	; 0
 1ac:	01 f0       	breq	.+0      	; 0x1ae <_Z14serialEventRunv+0xc>
 1ae:	0e 94 00 00 	call	0	; 0x0 <_ZN14HardwareSerial9availableEv>
 1b2:	08 95       	ret

000001b4 <__vector_19>:
 1b4:	1f 92       	push	r1
 1b6:	0f 92       	push	r0
 1b8:	0f b6       	in	r0, 0x3f	; 63
 1ba:	0f 92       	push	r0
 1bc:	11 24       	eor	r1, r1
 1be:	2f 93       	push	r18
 1c0:	3f 93       	push	r19
 1c2:	8f 93       	push	r24
 1c4:	9f 93       	push	r25
 1c6:	ef 93       	push	r30
 1c8:	ff 93       	push	r31
 1ca:	20 91 00 00 	lds	r18, 0x0000
 1ce:	30 91 00 00 	lds	r19, 0x0000
 1d2:	80 91 00 00 	lds	r24, 0x0000
 1d6:	90 91 00 00 	lds	r25, 0x0000
 1da:	28 17       	cp	r18, r24
 1dc:	39 07       	cpc	r19, r25
 1de:	01 f4       	brne	.+0      	; 0x1e0 <__vector_19+0x2c>
 1e0:	80 91 c1 00 	lds	r24, 0x00C1
 1e4:	8f 7d       	andi	r24, 0xDF	; 223
 1e6:	80 93 c1 00 	sts	0x00C1, r24
 1ea:	00 c0       	rjmp	.+0      	; 0x1ec <__vector_19+0x38>
 1ec:	e0 91 00 00 	lds	r30, 0x0000
 1f0:	f0 91 00 00 	lds	r31, 0x0000
 1f4:	e0 50       	subi	r30, 0x00	; 0
 1f6:	f0 40       	sbci	r31, 0x00	; 0
 1f8:	20 81       	ld	r18, Z
 1fa:	80 91 00 00 	lds	r24, 0x0000
 1fe:	90 91 00 00 	lds	r25, 0x0000
 202:	01 96       	adiw	r24, 0x01	; 1
 204:	8f 73       	andi	r24, 0x3F	; 63
 206:	90 70       	andi	r25, 0x00	; 0
 208:	90 93 00 00 	sts	0x0000, r25
 20c:	80 93 00 00 	sts	0x0000, r24
 210:	20 93 c6 00 	sts	0x00C6, r18
 214:	ff 91       	pop	r31
 216:	ef 91       	pop	r30
 218:	9f 91       	pop	r25
 21a:	8f 91       	pop	r24
 21c:	3f 91       	pop	r19
 21e:	2f 91       	pop	r18
 220:	0f 90       	pop	r0
 222:	0f be       	out	0x3f, r0	; 63
 224:	0f 90       	pop	r0
 226:	1f 90       	pop	r1
 228:	18 95       	reti

0000022a <_ZN14HardwareSerialC1EP11ring_bufferS1_PVhS3_S3_S3_S3_hhhhh>:
 22a:	8f 92       	push	r8
 22c:	af 92       	push	r10
 22e:	bf 92       	push	r11
 230:	cf 92       	push	r12
 232:	df 92       	push	r13
 234:	ef 92       	push	r14
 236:	ff 92       	push	r15
 238:	0f 93       	push	r16
 23a:	1f 93       	push	r17
 23c:	cf 93       	push	r28
 23e:	df 93       	push	r29
 240:	cd b7       	in	r28, 0x3d	; 61
 242:	de b7       	in	r29, 0x3e	; 62
 244:	fc 01       	movw	r30, r24
 246:	13 82       	std	Z+3, r1	; 0x03
 248:	12 82       	std	Z+2, r1	; 0x02
 24a:	88 ee       	ldi	r24, 0xE8	; 232
 24c:	93 e0       	ldi	r25, 0x03	; 3
 24e:	a0 e0       	ldi	r26, 0x00	; 0
 250:	b0 e0       	ldi	r27, 0x00	; 0
 252:	84 83       	std	Z+4, r24	; 0x04
 254:	95 83       	std	Z+5, r25	; 0x05
 256:	a6 83       	std	Z+6, r26	; 0x06
 258:	b7 83       	std	Z+7, r27	; 0x07
 25a:	80 e0       	ldi	r24, 0x00	; 0
 25c:	90 e0       	ldi	r25, 0x00	; 0
 25e:	91 83       	std	Z+1, r25	; 0x01
 260:	80 83       	st	Z, r24
 262:	75 87       	std	Z+13, r23	; 0x0d
 264:	64 87       	std	Z+12, r22	; 0x0c
 266:	57 87       	std	Z+15, r21	; 0x0f
 268:	46 87       	std	Z+14, r20	; 0x0e
 26a:	31 8b       	std	Z+17, r19	; 0x11
 26c:	20 8b       	std	Z+16, r18	; 0x10
 26e:	13 8b       	std	Z+19, r17	; 0x13
 270:	02 8b       	std	Z+18, r16	; 0x12
 272:	f5 8a       	std	Z+21, r15	; 0x15
 274:	e4 8a       	std	Z+20, r14	; 0x14
 276:	d7 8a       	std	Z+23, r13	; 0x17
 278:	c6 8a       	std	Z+22, r12	; 0x16
 27a:	b1 8e       	std	Z+25, r11	; 0x19
 27c:	a0 8e       	std	Z+24, r10	; 0x18
 27e:	82 8e       	std	Z+26, r8	; 0x1a
 280:	8e 85       	ldd	r24, Y+14	; 0x0e
 282:	83 8f       	std	Z+27, r24	; 0x1b
 284:	8f 85       	ldd	r24, Y+15	; 0x0f
 286:	84 8f       	std	Z+28, r24	; 0x1c
 288:	88 89       	ldd	r24, Y+16	; 0x10
 28a:	85 8f       	std	Z+29, r24	; 0x1d
 28c:	89 89       	ldd	r24, Y+17	; 0x11
 28e:	86 8f       	std	Z+30, r24	; 0x1e
 290:	df 91       	pop	r29
 292:	cf 91       	pop	r28
 294:	1f 91       	pop	r17
 296:	0f 91       	pop	r16
 298:	ff 90       	pop	r15
 29a:	ef 90       	pop	r14
 29c:	df 90       	pop	r13
 29e:	cf 90       	pop	r12
 2a0:	bf 90       	pop	r11
 2a2:	af 90       	pop	r10
 2a4:	8f 90       	pop	r8
 2a6:	08 95       	ret

000002a8 <_ZN14HardwareSerial5beginEm>:
 2a8:	bf 92       	push	r11
 2aa:	cf 92       	push	r12
 2ac:	df 92       	push	r13
 2ae:	ef 92       	push	r14
 2b0:	ff 92       	push	r15
 2b2:	0f 93       	push	r16
 2b4:	1f 93       	push	r17
 2b6:	cf 93       	push	r28
 2b8:	df 93       	push	r29
 2ba:	ec 01       	movw	r28, r24
 2bc:	6a 01       	movw	r12, r20
 2be:	7b 01       	movw	r14, r22
 2c0:	bb 24       	eor	r11, r11
 2c2:	b3 94       	inc	r11
 2c4:	40 30       	cpi	r20, 0x00	; 0
 2c6:	81 ee       	ldi	r24, 0xE1	; 225
 2c8:	58 07       	cpc	r21, r24
 2ca:	80 e0       	ldi	r24, 0x00	; 0
 2cc:	68 07       	cpc	r22, r24
 2ce:	80 e0       	ldi	r24, 0x00	; 0
 2d0:	78 07       	cpc	r23, r24
 2d2:	01 f4       	brne	.+0      	; 0x2d4 <_ZN14HardwareSerial5beginEm+0x2c>
 2d4:	bb 24       	eor	r11, r11
 2d6:	ec 89       	ldd	r30, Y+20	; 0x14
 2d8:	fd 89       	ldd	r31, Y+21	; 0x15
 2da:	10 82       	st	Z, r1
 2dc:	60 e8       	ldi	r22, 0x80	; 128
 2de:	74 e8       	ldi	r23, 0x84	; 132
 2e0:	8e e1       	ldi	r24, 0x1E	; 30
 2e2:	90 e0       	ldi	r25, 0x00	; 0
 2e4:	00 c0       	rjmp	.+0      	; 0x2e6 <_ZN14HardwareSerial5beginEm+0x3e>
 2e6:	ec 89       	ldd	r30, Y+20	; 0x14
 2e8:	fd 89       	ldd	r31, Y+21	; 0x15
 2ea:	81 e0       	ldi	r24, 0x01	; 1
 2ec:	90 e0       	ldi	r25, 0x00	; 0
 2ee:	0e 8c       	ldd	r0, Y+30	; 0x1e
 2f0:	00 c0       	rjmp	.+0      	; 0x2f2 <_ZN14HardwareSerial5beginEm+0x4a>
 2f2:	88 0f       	add	r24, r24
 2f4:	99 1f       	adc	r25, r25
 2f6:	0a 94       	dec	r0
 2f8:	02 f4       	brpl	.+0      	; 0x2fa <_ZN14HardwareSerial5beginEm+0x52>
 2fa:	80 83       	st	Z, r24
 2fc:	60 e0       	ldi	r22, 0x00	; 0
 2fe:	79 e0       	ldi	r23, 0x09	; 9
 300:	8d e3       	ldi	r24, 0x3D	; 61
 302:	90 e0       	ldi	r25, 0x00	; 0
 304:	a7 01       	movw	r20, r14
 306:	96 01       	movw	r18, r12
 308:	0e 94 00 00 	call	0	; 0x0 <_ZN14HardwareSerial9availableEv>
 30c:	89 01       	movw	r16, r18
 30e:	9a 01       	movw	r18, r20
 310:	01 50       	subi	r16, 0x01	; 1
 312:	10 40       	sbci	r17, 0x00	; 0
 314:	20 40       	sbci	r18, 0x00	; 0
 316:	30 40       	sbci	r19, 0x00	; 0
 318:	36 95       	lsr	r19
 31a:	27 95       	ror	r18
 31c:	17 95       	ror	r17
 31e:	07 95       	ror	r16
 320:	80 e1       	ldi	r24, 0x10	; 16
 322:	00 30       	cpi	r16, 0x00	; 0
 324:	18 07       	cpc	r17, r24
 326:	00 f0       	brcs	.+0      	; 0x328 <_ZN14HardwareSerial5beginEm+0x80>
 328:	bb 20       	and	r11, r11
 32a:	01 f4       	brne	.+0      	; 0x32c <_ZN14HardwareSerial5beginEm+0x84>
 32c:	e8 89       	ldd	r30, Y+16	; 0x10
 32e:	f9 89       	ldd	r31, Y+17	; 0x11
 330:	10 83       	st	Z, r17
 332:	ea 89       	ldd	r30, Y+18	; 0x12
 334:	fb 89       	ldd	r31, Y+19	; 0x13
 336:	00 83       	st	Z, r16
 338:	ee 89       	ldd	r30, Y+22	; 0x16
 33a:	ff 89       	ldd	r31, Y+23	; 0x17
 33c:	40 81       	ld	r20, Z
 33e:	21 e0       	ldi	r18, 0x01	; 1
 340:	30 e0       	ldi	r19, 0x00	; 0
 342:	c9 01       	movw	r24, r18
 344:	0a 8c       	ldd	r0, Y+26	; 0x1a
 346:	00 c0       	rjmp	.+0      	; 0x348 <_ZN14HardwareSerial5beginEm+0xa0>
 348:	88 0f       	add	r24, r24
 34a:	99 1f       	adc	r25, r25
 34c:	0a 94       	dec	r0
 34e:	02 f4       	brpl	.+0      	; 0x350 <_ZN14HardwareSerial5beginEm+0xa8>
 350:	48 2b       	or	r20, r24
 352:	40 83       	st	Z, r20
 354:	ee 89       	ldd	r30, Y+22	; 0x16
 356:	ff 89       	ldd	r31, Y+23	; 0x17
 358:	40 81       	ld	r20, Z
 35a:	c9 01       	movw	r24, r18
 35c:	0b 8c       	ldd	r0, Y+27	; 0x1b
 35e:	00 c0       	rjmp	.+0      	; 0x360 <_ZN14HardwareSerial5beginEm+0xb8>
 360:	88 0f       	add	r24, r24
 362:	99 1f       	adc	r25, r25
 364:	0a 94       	dec	r0
 366:	02 f4       	brpl	.+0      	; 0x368 <_ZN14HardwareSerial5beginEm+0xc0>
 368:	48 2b       	or	r20, r24
 36a:	40 83       	st	Z, r20
 36c:	ee 89       	ldd	r30, Y+22	; 0x16
 36e:	ff 89       	ldd	r31, Y+23	; 0x17
 370:	40 81       	ld	r20, Z
 372:	c9 01       	movw	r24, r18
 374:	0c 8c       	ldd	r0, Y+28	; 0x1c
 376:	00 c0       	rjmp	.+0      	; 0x378 <_ZN14HardwareSerial5beginEm+0xd0>
 378:	88 0f       	add	r24, r24
 37a:	99 1f       	adc	r25, r25
 37c:	0a 94       	dec	r0
 37e:	02 f4       	brpl	.+0      	; 0x380 <_ZN14HardwareSerial5beginEm+0xd8>
 380:	48 2b       	or	r20, r24
 382:	40 83       	st	Z, r20
 384:	ee 89       	ldd	r30, Y+22	; 0x16
 386:	ff 89       	ldd	r31, Y+23	; 0x17
 388:	80 81       	ld	r24, Z
 38a:	0d 8c       	ldd	r0, Y+29	; 0x1d
 38c:	00 c0       	rjmp	.+0      	; 0x38e <_ZN14HardwareSerial5beginEm+0xe6>
 38e:	22 0f       	add	r18, r18
 390:	33 1f       	adc	r19, r19
 392:	0a 94       	dec	r0
 394:	02 f4       	brpl	.+0      	; 0x396 <_ZN14HardwareSerial5beginEm+0xee>
 396:	20 95       	com	r18
 398:	28 23       	and	r18, r24
 39a:	20 83       	st	Z, r18
 39c:	df 91       	pop	r29
 39e:	cf 91       	pop	r28
 3a0:	1f 91       	pop	r17
 3a2:	0f 91       	pop	r16
 3a4:	ff 90       	pop	r15
 3a6:	ef 90       	pop	r14
 3a8:	df 90       	pop	r13
 3aa:	cf 90       	pop	r12
 3ac:	bf 90       	pop	r11
 3ae:	08 95       	ret

000003b0 <_ZN14HardwareSerial3endEv>:
 3b0:	cf 93       	push	r28
 3b2:	df 93       	push	r29
 3b4:	ec 01       	movw	r28, r24
 3b6:	ee 85       	ldd	r30, Y+14	; 0x0e
 3b8:	ff 85       	ldd	r31, Y+15	; 0x0f
 3ba:	df 01       	movw	r26, r30
 3bc:	a0 5c       	subi	r26, 0xC0	; 192
 3be:	bf 4f       	sbci	r27, 0xFF	; 255
 3c0:	ee 5b       	subi	r30, 0xBE	; 190
 3c2:	ff 4f       	sbci	r31, 0xFF	; 255
 3c4:	8d 91       	ld	r24, X+
 3c6:	9c 91       	ld	r25, X
 3c8:	11 97       	sbiw	r26, 0x01	; 1
 3ca:	20 81       	ld	r18, Z
 3cc:	31 81       	ldd	r19, Z+1	; 0x01
 3ce:	82 17       	cp	r24, r18
 3d0:	93 07       	cpc	r25, r19
 3d2:	01 f4       	brne	.+0      	; 0x3d4 <_ZN14HardwareSerial3endEv+0x24>
 3d4:	ee 89       	ldd	r30, Y+22	; 0x16
 3d6:	ff 89       	ldd	r31, Y+23	; 0x17
 3d8:	40 81       	ld	r20, Z
 3da:	21 e0       	ldi	r18, 0x01	; 1
 3dc:	30 e0       	ldi	r19, 0x00	; 0
 3de:	c9 01       	movw	r24, r18
 3e0:	0a 8c       	ldd	r0, Y+26	; 0x1a
 3e2:	00 c0       	rjmp	.+0      	; 0x3e4 <_ZN14HardwareSerial3endEv+0x34>
 3e4:	88 0f       	add	r24, r24
 3e6:	99 1f       	adc	r25, r25
 3e8:	0a 94       	dec	r0
 3ea:	02 f4       	brpl	.+0      	; 0x3ec <_ZN14HardwareSerial3endEv+0x3c>
 3ec:	80 95       	com	r24
 3ee:	84 23       	and	r24, r20
 3f0:	80 83       	st	Z, r24
 3f2:	ee 89       	ldd	r30, Y+22	; 0x16
 3f4:	ff 89       	ldd	r31, Y+23	; 0x17
 3f6:	40 81       	ld	r20, Z
 3f8:	c9 01       	movw	r24, r18
 3fa:	0b 8c       	ldd	r0, Y+27	; 0x1b
 3fc:	00 c0       	rjmp	.+0      	; 0x3fe <_ZN14HardwareSerial3endEv+0x4e>
 3fe:	88 0f       	add	r24, r24
 400:	99 1f       	adc	r25, r25
 402:	0a 94       	dec	r0
 404:	02 f4       	brpl	.+0      	; 0x406 <_ZN14HardwareSerial3endEv+0x56>
 406:	80 95       	com	r24
 408:	84 23       	and	r24, r20
 40a:	80 83       	st	Z, r24
 40c:	ee 89       	ldd	r30, Y+22	; 0x16
 40e:	ff 89       	ldd	r31, Y+23	; 0x17
 410:	40 81       	ld	r20, Z
 412:	c9 01       	movw	r24, r18
 414:	0c 8c       	ldd	r0, Y+28	; 0x1c
 416:	00 c0       	rjmp	.+0      	; 0x418 <_ZN14HardwareSerial3endEv+0x68>
 418:	88 0f       	add	r24, r24
 41a:	99 1f       	adc	r25, r25
 41c:	0a 94       	dec	r0
 41e:	02 f4       	brpl	.+0      	; 0x420 <_ZN14HardwareSerial3endEv+0x70>
 420:	80 95       	com	r24
 422:	84 23       	and	r24, r20
 424:	80 83       	st	Z, r24
 426:	ee 89       	ldd	r30, Y+22	; 0x16
 428:	ff 89       	ldd	r31, Y+23	; 0x17
 42a:	80 81       	ld	r24, Z
 42c:	0d 8c       	ldd	r0, Y+29	; 0x1d
 42e:	00 c0       	rjmp	.+0      	; 0x430 <_ZN14HardwareSerial3endEv+0x80>
 430:	22 0f       	add	r18, r18
 432:	33 1f       	adc	r19, r19
 434:	0a 94       	dec	r0
 436:	02 f4       	brpl	.+0      	; 0x438 <_ZN14HardwareSerial3endEv+0x88>
 438:	20 95       	com	r18
 43a:	28 23       	and	r18, r24
 43c:	20 83       	st	Z, r18
 43e:	8c 85       	ldd	r24, Y+12	; 0x0c
 440:	9d 85       	ldd	r25, Y+13	; 0x0d
 442:	fc 01       	movw	r30, r24
 444:	ee 5b       	subi	r30, 0xBE	; 190
 446:	ff 4f       	sbci	r31, 0xFF	; 255
 448:	20 81       	ld	r18, Z
 44a:	31 81       	ldd	r19, Z+1	; 0x01
 44c:	80 5c       	subi	r24, 0xC0	; 192
 44e:	9f 4f       	sbci	r25, 0xFF	; 255
 450:	fc 01       	movw	r30, r24
 452:	31 83       	std	Z+1, r19	; 0x01
 454:	20 83       	st	Z, r18
 456:	df 91       	pop	r29
 458:	cf 91       	pop	r28
 45a:	08 95       	ret

0000045c <_ZN14HardwareSerialcvbEv>:
 45c:	81 e0       	ldi	r24, 0x01	; 1
 45e:	08 95       	ret

Disassembly of section .text.startup:

00000000 <_GLOBAL__sub_I_rx_buffer>:
   0:	10 92 00 00 	sts	0x0000, r1
   4:	10 92 00 00 	sts	0x0000, r1
   8:	88 ee       	ldi	r24, 0xE8	; 232
   a:	93 e0       	ldi	r25, 0x03	; 3
   c:	a0 e0       	ldi	r26, 0x00	; 0
   e:	b0 e0       	ldi	r27, 0x00	; 0
  10:	80 93 00 00 	sts	0x0000, r24
  14:	90 93 00 00 	sts	0x0000, r25
  18:	a0 93 00 00 	sts	0x0000, r26
  1c:	b0 93 00 00 	sts	0x0000, r27
  20:	e0 e0       	ldi	r30, 0x00	; 0
  22:	f0 e0       	ldi	r31, 0x00	; 0
  24:	80 e0       	ldi	r24, 0x00	; 0
  26:	90 e0       	ldi	r25, 0x00	; 0
  28:	92 93       	st	-Z, r25
  2a:	82 93       	st	-Z, r24
  2c:	80 e0       	ldi	r24, 0x00	; 0
  2e:	90 e0       	ldi	r25, 0x00	; 0
  30:	95 87       	std	Z+13, r25	; 0x0d
  32:	84 87       	std	Z+12, r24	; 0x0c
  34:	80 e0       	ldi	r24, 0x00	; 0
  36:	90 e0       	ldi	r25, 0x00	; 0
  38:	97 87       	std	Z+15, r25	; 0x0f
  3a:	86 87       	std	Z+14, r24	; 0x0e
  3c:	85 ec       	ldi	r24, 0xC5	; 197
  3e:	90 e0       	ldi	r25, 0x00	; 0
  40:	91 8b       	std	Z+17, r25	; 0x11
  42:	80 8b       	std	Z+16, r24	; 0x10
  44:	84 ec       	ldi	r24, 0xC4	; 196
  46:	90 e0       	ldi	r25, 0x00	; 0
  48:	93 8b       	std	Z+19, r25	; 0x13
  4a:	82 8b       	std	Z+18, r24	; 0x12
  4c:	80 ec       	ldi	r24, 0xC0	; 192
  4e:	90 e0       	ldi	r25, 0x00	; 0
  50:	95 8b       	std	Z+21, r25	; 0x15
  52:	84 8b       	std	Z+20, r24	; 0x14
  54:	81 ec       	ldi	r24, 0xC1	; 193
  56:	90 e0       	ldi	r25, 0x00	; 0
  58:	97 8b       	std	Z+23, r25	; 0x17
  5a:	86 8b       	std	Z+22, r24	; 0x16
  5c:	86 ec       	ldi	r24, 0xC6	; 198
  5e:	90 e0       	ldi	r25, 0x00	; 0
  60:	91 8f       	std	Z+25, r25	; 0x19
  62:	80 8f       	std	Z+24, r24	; 0x18
  64:	84 e0       	ldi	r24, 0x04	; 4
  66:	82 8f       	std	Z+26, r24	; 0x1a
  68:	83 e0       	ldi	r24, 0x03	; 3
  6a:	83 8f       	std	Z+27, r24	; 0x1b
  6c:	87 e0       	ldi	r24, 0x07	; 7
  6e:	84 8f       	std	Z+28, r24	; 0x1c
  70:	85 e0       	ldi	r24, 0x05	; 5
  72:	85 8f       	std	Z+29, r24	; 0x1d
  74:	81 e0       	ldi	r24, 0x01	; 1
  76:	86 8f       	std	Z+30, r24	; 0x1e
  78:	08 95       	ret

IPAddress.o:     file format elf32-avr

Sections:
Idx Name          Size      VMA       LMA       File off  Algn
  0 .text         0000011e  00000000  00000000  00000034  2**0
                  CONTENTS, ALLOC, LOAD, RELOC, READONLY, CODE
  1 .data         0000000c  00000000  00000000  00000152  2**0
                  CONTENTS, ALLOC, LOAD, RELOC, DATA
  2 .bss          00000006  00000000  00000000  0000015e  2**0
                  ALLOC
  3 .text.startup 0000001e  00000000  00000000  0000015e  2**0
                  CONTENTS, ALLOC, LOAD, RELOC, READONLY, CODE
  4 .ctors        00000002  00000000  00000000  0000017c  2**0
                  CONTENTS, ALLOC, LOAD, RELOC, READONLY, DATA

Disassembly of section .text:

00000000 <_ZNK9IPAddress7printToER5Print>:
   0:	af 92       	push	r10
   2:	bf 92       	push	r11
   4:	cf 92       	push	r12
   6:	df 92       	push	r13
   8:	ef 92       	push	r14
   a:	ff 92       	push	r15
   c:	0f 93       	push	r16
   e:	1f 93       	push	r17
  10:	cf 93       	push	r28
  12:	df 93       	push	r29
  14:	5c 01       	movw	r10, r24
  16:	7b 01       	movw	r14, r22
  18:	00 e0       	ldi	r16, 0x00	; 0
  1a:	10 e0       	ldi	r17, 0x00	; 0
  1c:	cc 24       	eor	r12, r12
  1e:	dd 24       	eor	r13, r13
  20:	f5 01       	movw	r30, r10
  22:	e0 0f       	add	r30, r16
  24:	f1 1f       	adc	r31, r17
  26:	c7 01       	movw	r24, r14
  28:	62 81       	ldd	r22, Z+2	; 0x02
  2a:	4a e0       	ldi	r20, 0x0A	; 10
  2c:	50 e0       	ldi	r21, 0x00	; 0
  2e:	0e 94 00 00 	call	0	; 0x0 <_ZNK9IPAddress7printToER5Print>
  32:	ec 01       	movw	r28, r24
  34:	c7 01       	movw	r24, r14
  36:	6e e2       	ldi	r22, 0x2E	; 46
  38:	0e 94 00 00 	call	0	; 0x0 <_ZNK9IPAddress7printToER5Print>
  3c:	c8 0f       	add	r28, r24
  3e:	d9 1f       	adc	r29, r25
  40:	cc 0e       	add	r12, r28
  42:	dd 1e       	adc	r13, r29
  44:	0f 5f       	subi	r16, 0xFF	; 255
  46:	1f 4f       	sbci	r17, 0xFF	; 255
  48:	03 30       	cpi	r16, 0x03	; 3
  4a:	11 05       	cpc	r17, r1
  4c:	01 f4       	brne	.+0      	; 0x4e <_ZNK9IPAddress7printToER5Print+0x4e>
  4e:	c7 01       	movw	r24, r14
  50:	f5 01       	movw	r30, r10
  52:	65 81       	ldd	r22, Z+5	; 0x05
  54:	4a e0       	ldi	r20, 0x0A	; 10
  56:	50 e0       	ldi	r21, 0x00	; 0
  58:	0e 94 00 00 	call	0	; 0x0 <_ZNK9IPAddress7printToER5Print>
  5c:	8c 0d       	add	r24, r12
  5e:	9d 1d       	adc	r25, r13
  60:	df 91       	pop	r29
  62:	cf 91       	pop	r28
  64:	1f 91       	pop	r17
  66:	0f 91       	pop	r16
  68:	ff 90       	pop	r15
  6a:	ef 90       	pop	r14
  6c:	df 90       	pop	r13
  6e:	cf 90       	pop	r12
  70:	bf 90       	pop	r11
  72:	af 90       	pop	r10
  74:	08 95       	ret

00000076 <_ZN9IPAddressC1Ev>:
  76:	fc 01       	movw	r30, r24
  78:	80 e0       	ldi	r24, 0x00	; 0
  7a:	90 e0       	ldi	r25, 0x00	; 0
  7c:	91 83       	std	Z+1, r25	; 0x01
  7e:	80 83       	st	Z, r24
  80:	12 82       	std	Z+2, r1	; 0x02
  82:	13 82       	std	Z+3, r1	; 0x03
  84:	14 82       	std	Z+4, r1	; 0x04
  86:	15 82       	std	Z+5, r1	; 0x05
  88:	08 95       	ret

0000008a <_ZN9IPAddressC1Ehhhh>:
  8a:	0f 93       	push	r16
  8c:	fc 01       	movw	r30, r24
  8e:	80 e0       	ldi	r24, 0x00	; 0
  90:	90 e0       	ldi	r25, 0x00	; 0
  92:	91 83       	std	Z+1, r25	; 0x01
  94:	80 83       	st	Z, r24
  96:	62 83       	std	Z+2, r22	; 0x02
  98:	43 83       	std	Z+3, r20	; 0x03
  9a:	24 83       	std	Z+4, r18	; 0x04
  9c:	05 83       	std	Z+5, r16	; 0x05
  9e:	0f 91       	pop	r16
  a0:	08 95       	ret

000000a2 <_ZN9IPAddressC1Em>:
  a2:	fc 01       	movw	r30, r24
  a4:	80 e0       	ldi	r24, 0x00	; 0
  a6:	90 e0       	ldi	r25, 0x00	; 0
  a8:	91 83       	std	Z+1, r25	; 0x01
  aa:	80 83       	st	Z, r24
  ac:	42 83       	std	Z+2, r20	; 0x02
  ae:	53 83       	std	Z+3, r21	; 0x03
  b0:	64 83       	std	Z+4, r22	; 0x04
  b2:	75 83       	std	Z+5, r23	; 0x05
  b4:	08 95       	ret

000000b6 <_ZN9IPAddressC1EPKh>:
  b6:	cf 93       	push	r28
  b8:	df 93       	push	r29
  ba:	fc 01       	movw	r30, r24
  bc:	80 e0       	ldi	r24, 0x00	; 0
  be:	90 e0       	ldi	r25, 0x00	; 0
  c0:	91 83       	std	Z+1, r25	; 0x01
  c2:	80 83       	st	Z, r24
  c4:	eb 01       	movw	r28, r22
  c6:	88 81       	ld	r24, Y
  c8:	99 81       	ldd	r25, Y+1	; 0x01
  ca:	aa 81       	ldd	r26, Y+2	; 0x02
  cc:	bb 81       	ldd	r27, Y+3	; 0x03
  ce:	82 83       	std	Z+2, r24	; 0x02
  d0:	93 83       	std	Z+3, r25	; 0x03
  d2:	a4 83       	std	Z+4, r26	; 0x04
  d4:	b5 83       	std	Z+5, r27	; 0x05
  d6:	df 91       	pop	r29
  d8:	cf 91       	pop	r28
  da:	08 95       	ret

000000dc <_ZN9IPAddressaSEPKh>:
  dc:	fb 01       	movw	r30, r22
  de:	40 81       	ld	r20, Z
  e0:	51 81       	ldd	r21, Z+1	; 0x01
  e2:	62 81       	ldd	r22, Z+2	; 0x02
  e4:	73 81       	ldd	r23, Z+3	; 0x03
  e6:	fc 01       	movw	r30, r24
  e8:	42 83       	std	Z+2, r20	; 0x02
  ea:	53 83       	std	Z+3, r21	; 0x03
  ec:	64 83       	std	Z+4, r22	; 0x04
  ee:	75 83       	std	Z+5, r23	; 0x05
  f0:	08 95       	ret

000000f2 <_ZN9IPAddressaSEm>:
  f2:	fc 01       	movw	r30, r24
  f4:	42 83       	std	Z+2, r20	; 0x02
  f6:	53 83       	std	Z+3, r21	; 0x03
  f8:	64 83       	std	Z+4, r22	; 0x04
  fa:	75 83       	std	Z+5, r23	; 0x05
  fc:	08 95       	ret

000000fe <_ZN9IPAddresseqEPKh>:
  fe:	9c 01       	movw	r18, r24
 100:	2e 5f       	subi	r18, 0xFE	; 254
 102:	3f 4f       	sbci	r19, 0xFF	; 255
 104:	cb 01       	movw	r24, r22
 106:	b9 01       	movw	r22, r18
 108:	44 e0       	ldi	r20, 0x04	; 4
 10a:	50 e0       	ldi	r21, 0x00	; 0
 10c:	0e 94 00 00 	call	0	; 0x0 <_ZNK9IPAddress7printToER5Print>
 110:	9c 01       	movw	r18, r24
 112:	81 e0       	ldi	r24, 0x01	; 1
 114:	21 15       	cp	r18, r1
 116:	31 05       	cpc	r19, r1
 118:	01 f0       	breq	.+0      	; 0x11a <_ZN9IPAddresseqEPKh+0x1c>
 11a:	80 e0       	ldi	r24, 0x00	; 0
 11c:	08 95       	ret

Disassembly of section .text.startup:

00000000 <_GLOBAL__sub_I__ZN9IPAddressC2Ev>:
   0:	80 e0       	ldi	r24, 0x00	; 0
   2:	90 e0       	ldi	r25, 0x00	; 0
   4:	90 93 00 00 	sts	0x0000, r25
   8:	80 93 00 00 	sts	0x0000, r24
   c:	10 92 00 00 	sts	0x0000, r1
  10:	10 92 00 00 	sts	0x0000, r1
  14:	10 92 00 00 	sts	0x0000, r1
  18:	10 92 00 00 	sts	0x0000, r1
  1c:	08 95       	ret

Print.o:     file format elf32-avr

Sections:
Idx Name          Size      VMA       LMA       File off  Algn
  0 .text         00000666  00000000  00000000  00000034  2**0
                  CONTENTS, ALLOC, LOAD, RELOC, READONLY, CODE
  1 .data         0000000a  00000000  00000000  0000069a  2**0
                  CONTENTS, ALLOC, LOAD, RELOC, DATA
  2 .bss          00000000  00000000  00000000  000006a4  2**0
                  ALLOC

Disassembly of section .text:

00000000 <_ZN5Print5writeEPKhj>:
   0:	cf 92       	push	r12
   2:	df 92       	push	r13
   4:	ef 92       	push	r14
   6:	ff 92       	push	r15
   8:	0f 93       	push	r16
   a:	1f 93       	push	r17
   c:	cf 93       	push	r28
   e:	df 93       	push	r29
  10:	6c 01       	movw	r12, r24
  12:	7b 01       	movw	r14, r22
  14:	ea 01       	movw	r28, r20
  16:	00 e0       	ldi	r16, 0x00	; 0
  18:	10 e0       	ldi	r17, 0x00	; 0
  1a:	00 c0       	rjmp	.+0      	; 0x1c <_ZN5Print5writeEPKhj+0x1c>
  1c:	d7 01       	movw	r26, r14
  1e:	6d 91       	ld	r22, X+
  20:	7d 01       	movw	r14, r26
  22:	d6 01       	movw	r26, r12
  24:	ed 91       	ld	r30, X+
  26:	fc 91       	ld	r31, X
  28:	01 90       	ld	r0, Z+
  2a:	f0 81       	ld	r31, Z
  2c:	e0 2d       	mov	r30, r0
  2e:	c6 01       	movw	r24, r12
  30:	09 95       	icall
  32:	08 0f       	add	r16, r24
  34:	19 1f       	adc	r17, r25
  36:	21 97       	sbiw	r28, 0x01	; 1
  38:	20 97       	sbiw	r28, 0x00	; 0
  3a:	01 f4       	brne	.+0      	; 0x3c <_ZN5Print5writeEPKhj+0x3c>
  3c:	c8 01       	movw	r24, r16
  3e:	df 91       	pop	r29
  40:	cf 91       	pop	r28
  42:	1f 91       	pop	r17
  44:	0f 91       	pop	r16
  46:	ff 90       	pop	r15
  48:	ef 90       	pop	r14
  4a:	df 90       	pop	r13
  4c:	cf 90       	pop	r12
  4e:	08 95       	ret

00000050 <_ZN5Print5printEPK19__FlashStringHelper>:
  50:	ef 92       	push	r14
  52:	ff 92       	push	r15
  54:	0f 93       	push	r16
  56:	1f 93       	push	r17
  58:	cf 93       	push	r28
  5a:	df 93       	push	r29
  5c:	7c 01       	movw	r14, r24
  5e:	eb 01       	movw	r28, r22
  60:	00 e0       	ldi	r16, 0x00	; 0
  62:	10 e0       	ldi	r17, 0x00	; 0
  64:	fe 01       	movw	r30, r28
  66:	21 96       	adiw	r28, 0x01	; 1
  68:	64 91       	lpm	r22, Z
  6a:	66 23       	and	r22, r22
  6c:	01 f0       	breq	.+0      	; 0x6e <_ZN5Print5printEPK19__FlashStringHelper+0x1e>
  6e:	f7 01       	movw	r30, r14
  70:	a0 81       	ld	r26, Z
  72:	b1 81       	ldd	r27, Z+1	; 0x01
  74:	ed 91       	ld	r30, X+
  76:	fc 91       	ld	r31, X
  78:	c7 01       	movw	r24, r14
  7a:	09 95       	icall
  7c:	08 0f       	add	r16, r24
  7e:	19 1f       	adc	r17, r25
  80:	00 c0       	rjmp	.+0      	; 0x82 <_ZN5Print5printEPK19__FlashStringHelper+0x32>
  82:	c8 01       	movw	r24, r16
  84:	df 91       	pop	r29
  86:	cf 91       	pop	r28
  88:	1f 91       	pop	r17
  8a:	0f 91       	pop	r16
  8c:	ff 90       	pop	r15
  8e:	ef 90       	pop	r14
  90:	08 95       	ret

00000092 <_ZN5Print5printERK6String>:
  92:	af 92       	push	r10
  94:	bf 92       	push	r11
  96:	cf 92       	push	r12
  98:	df 92       	push	r13
  9a:	ef 92       	push	r14
  9c:	ff 92       	push	r15
  9e:	0f 93       	push	r16
  a0:	1f 93       	push	r17
  a2:	cf 93       	push	r28
  a4:	df 93       	push	r29
  a6:	6c 01       	movw	r12, r24
  a8:	5b 01       	movw	r10, r22
  aa:	00 e0       	ldi	r16, 0x00	; 0
  ac:	10 e0       	ldi	r17, 0x00	; 0
  ae:	ee 24       	eor	r14, r14
  b0:	ff 24       	eor	r15, r15
  b2:	00 c0       	rjmp	.+0      	; 0xb4 <_ZN5Print5printERK6String+0x22>
  b4:	d6 01       	movw	r26, r12
  b6:	ed 91       	ld	r30, X+
  b8:	fc 91       	ld	r31, X
  ba:	c0 81       	ld	r28, Z
  bc:	d1 81       	ldd	r29, Z+1	; 0x01
  be:	c5 01       	movw	r24, r10
  c0:	b8 01       	movw	r22, r16
  c2:	0e 94 00 00 	call	0	; 0x0 <_ZN5Print5writeEPKhj>
  c6:	68 2f       	mov	r22, r24
  c8:	c6 01       	movw	r24, r12
  ca:	fe 01       	movw	r30, r28
  cc:	09 95       	icall
  ce:	e8 0e       	add	r14, r24
  d0:	f9 1e       	adc	r15, r25
  d2:	0f 5f       	subi	r16, 0xFF	; 255
  d4:	1f 4f       	sbci	r17, 0xFF	; 255
  d6:	f5 01       	movw	r30, r10
  d8:	84 81       	ldd	r24, Z+4	; 0x04
  da:	95 81       	ldd	r25, Z+5	; 0x05
  dc:	08 17       	cp	r16, r24
  de:	19 07       	cpc	r17, r25
  e0:	00 f0       	brcs	.+0      	; 0xe2 <_ZN5Print5printERK6String+0x50>
  e2:	c7 01       	movw	r24, r14
  e4:	df 91       	pop	r29
  e6:	cf 91       	pop	r28
  e8:	1f 91       	pop	r17
  ea:	0f 91       	pop	r16
  ec:	ff 90       	pop	r15
  ee:	ef 90       	pop	r14
  f0:	df 90       	pop	r13
  f2:	cf 90       	pop	r12
  f4:	bf 90       	pop	r11
  f6:	af 90       	pop	r10
  f8:	08 95       	ret

000000fa <_ZN5Print5printEPKc>:
  fa:	db 01       	movw	r26, r22
  fc:	0d 90       	ld	r0, X+
  fe:	00 20       	and	r0, r0
 100:	01 f4       	brne	.+0      	; 0x102 <_ZN5Print5printEPKc+0x8>
 102:	ad 01       	movw	r20, r26
 104:	41 50       	subi	r20, 0x01	; 1
 106:	50 40       	sbci	r21, 0x00	; 0
 108:	46 1b       	sub	r20, r22
 10a:	57 0b       	sbc	r21, r23
 10c:	dc 01       	movw	r26, r24
 10e:	ed 91       	ld	r30, X+
 110:	fc 91       	ld	r31, X
 112:	02 80       	ldd	r0, Z+2	; 0x02
 114:	f3 81       	ldd	r31, Z+3	; 0x03
 116:	e0 2d       	mov	r30, r0
 118:	09 95       	icall
 11a:	08 95       	ret

0000011c <_ZN5Print5printEc>:
 11c:	dc 01       	movw	r26, r24
 11e:	ed 91       	ld	r30, X+
 120:	fc 91       	ld	r31, X
 122:	01 90       	ld	r0, Z+
 124:	f0 81       	ld	r31, Z
 126:	e0 2d       	mov	r30, r0
 128:	09 95       	icall
 12a:	08 95       	ret

0000012c <_ZN5Print5printERK9Printable>:
 12c:	9c 01       	movw	r18, r24
 12e:	cb 01       	movw	r24, r22
 130:	db 01       	movw	r26, r22
 132:	ed 91       	ld	r30, X+
 134:	fc 91       	ld	r31, X
 136:	01 90       	ld	r0, Z+
 138:	f0 81       	ld	r31, Z
 13a:	e0 2d       	mov	r30, r0
 13c:	b9 01       	movw	r22, r18
 13e:	09 95       	icall
 140:	08 95       	ret

00000142 <_ZN5Print7printlnEv>:
 142:	0f 93       	push	r16
 144:	1f 93       	push	r17
 146:	cf 93       	push	r28
 148:	df 93       	push	r29
 14a:	8c 01       	movw	r16, r24
 14c:	6d e0       	ldi	r22, 0x0D	; 13
 14e:	0e 94 00 00 	call	0	; 0x0 <_ZN5Print5writeEPKhj>
 152:	ec 01       	movw	r28, r24
 154:	c8 01       	movw	r24, r16
 156:	6a e0       	ldi	r22, 0x0A	; 10
 158:	0e 94 00 00 	call	0	; 0x0 <_ZN5Print5writeEPKhj>
 15c:	8c 0f       	add	r24, r28
 15e:	9d 1f       	adc	r25, r29
 160:	df 91       	pop	r29
 162:	cf 91       	pop	r28
 164:	1f 91       	pop	r17
 166:	0f 91       	pop	r16
 168:	08 95       	ret

0000016a <_ZN5Print7printlnEPK19__FlashStringHelper>:
 16a:	0f 93       	push	r16
 16c:	1f 93       	push	r17
 16e:	cf 93       	push	r28
 170:	df 93       	push	r29
 172:	8c 01       	movw	r16, r24
 174:	0e 94 00 00 	call	0	; 0x0 <_ZN5Print5writeEPKhj>
 178:	ec 01       	movw	r28, r24
 17a:	c8 01       	movw	r24, r16
 17c:	0e 94 00 00 	call	0	; 0x0 <_ZN5Print5writeEPKhj>
 180:	8c 0f       	add	r24, r28
 182:	9d 1f       	adc	r25, r29
 184:	df 91       	pop	r29
 186:	cf 91       	pop	r28
 188:	1f 91       	pop	r17
 18a:	0f 91       	pop	r16
 18c:	08 95       	ret

0000018e <_ZN5Print7printlnERK6String>:
 18e:	0f 93       	push	r16
 190:	1f 93       	push	r17
 192:	cf 93       	push	r28
 194:	df 93       	push	r29
 196:	8c 01       	movw	r16, r24
 198:	0e 94 00 00 	call	0	; 0x0 <_ZN5Print5writeEPKhj>
 19c:	ec 01       	movw	r28, r24
 19e:	c8 01       	movw	r24, r16
 1a0:	0e 94 00 00 	call	0	; 0x0 <_ZN5Print5writeEPKhj>
 1a4:	8c 0f       	add	r24, r28
 1a6:	9d 1f       	adc	r25, r29
 1a8:	df 91       	pop	r29
 1aa:	cf 91       	pop	r28
 1ac:	1f 91       	pop	r17
 1ae:	0f 91       	pop	r16
 1b0:	08 95       	ret

000001b2 <_ZN5Print7printlnEPKc>:
 1b2:	0f 93       	push	r16
 1b4:	1f 93       	push	r17
 1b6:	cf 93       	push	r28
 1b8:	df 93       	push	r29
 1ba:	8c 01       	movw	r16, r24
 1bc:	0e 94 00 00 	call	0	; 0x0 <_ZN5Print5writeEPKhj>
 1c0:	ec 01       	movw	r28, r24
 1c2:	c8 01       	movw	r24, r16
 1c4:	0e 94 00 00 	call	0	; 0x0 <_ZN5Print5writeEPKhj>
 1c8:	8c 0f       	add	r24, r28
 1ca:	9d 1f       	adc	r25, r29
 1cc:	df 91       	pop	r29
 1ce:	cf 91       	pop	r28
 1d0:	1f 91       	pop	r17
 1d2:	0f 91       	pop	r16
 1d4:	08 95       	ret

000001d6 <_ZN5Print7printlnEc>:
 1d6:	0f 93       	push	r16
 1d8:	1f 93       	push	r17
 1da:	cf 93       	push	r28
 1dc:	df 93       	push	r29
 1de:	8c 01       	movw	r16, r24
 1e0:	0e 94 00 00 	call	0	; 0x0 <_ZN5Print5writeEPKhj>
 1e4:	ec 01       	movw	r28, r24
 1e6:	c8 01       	movw	r24, r16
 1e8:	0e 94 00 00 	call	0	; 0x0 <_ZN5Print5writeEPKhj>
 1ec:	8c 0f       	add	r24, r28
 1ee:	9d 1f       	adc	r25, r29
 1f0:	df 91       	pop	r29
 1f2:	cf 91       	pop	r28
 1f4:	1f 91       	pop	r17
 1f6:	0f 91       	pop	r16
 1f8:	08 95       	ret

000001fa <_ZN5Print7printlnERK9Printable>:
 1fa:	0f 93       	push	r16
 1fc:	1f 93       	push	r17
 1fe:	cf 93       	push	r28
 200:	df 93       	push	r29
 202:	8c 01       	movw	r16, r24
 204:	0e 94 00 00 	call	0	; 0x0 <_ZN5Print5writeEPKhj>
 208:	ec 01       	movw	r28, r24
 20a:	c8 01       	movw	r24, r16
 20c:	0e 94 00 00 	call	0	; 0x0 <_ZN5Print5writeEPKhj>
 210:	8c 0f       	add	r24, r28
 212:	9d 1f       	adc	r25, r29
 214:	df 91       	pop	r29
 216:	cf 91       	pop	r28
 218:	1f 91       	pop	r17
 21a:	0f 91       	pop	r16
 21c:	08 95       	ret

0000021e <_ZN5Print11printNumberEmh>:
 21e:	6f 92       	push	r6
 220:	7f 92       	push	r7
 222:	8f 92       	push	r8
 224:	9f 92       	push	r9
 226:	af 92       	push	r10
 228:	bf 92       	push	r11
 22a:	cf 92       	push	r12
 22c:	df 92       	push	r13
 22e:	ef 92       	push	r14
 230:	ff 92       	push	r15
 232:	0f 93       	push	r16
 234:	1f 93       	push	r17
 236:	cf 93       	push	r28
 238:	df 93       	push	r29
 23a:	cd b7       	in	r28, 0x3d	; 61
 23c:	de b7       	in	r29, 0x3e	; 62
 23e:	a1 97       	sbiw	r28, 0x21	; 33
 240:	0f b6       	in	r0, 0x3f	; 63
 242:	f8 94       	cli
 244:	de bf       	out	0x3e, r29	; 62
 246:	0f be       	out	0x3f, r0	; 63
 248:	cd bf       	out	0x3d, r28	; 61
 24a:	3c 01       	movw	r6, r24
 24c:	e4 2e       	mov	r14, r20
 24e:	cb 01       	movw	r24, r22
 250:	f2 2e       	mov	r15, r18
 252:	19 a2       	std	Y+33, r1	; 0x21
 254:	21 e0       	ldi	r18, 0x01	; 1
 256:	2f 15       	cp	r18, r15
 258:	00 f0       	brcs	.+0      	; 0x25a <_ZN5Print11printNumberEmh+0x3c>
 25a:	3a e0       	ldi	r19, 0x0A	; 10
 25c:	f3 2e       	mov	r15, r19
 25e:	21 e2       	ldi	r18, 0x21	; 33
 260:	c2 2e       	mov	r12, r18
 262:	d1 2c       	mov	r13, r1
 264:	cc 0e       	add	r12, r28
 266:	dd 1e       	adc	r13, r29
 268:	8f 2c       	mov	r8, r15
 26a:	99 24       	eor	r9, r9
 26c:	aa 24       	eor	r10, r10
 26e:	bb 24       	eor	r11, r11
 270:	00 c0       	rjmp	.+0      	; 0x272 <_ZN5Print11printNumberEmh+0x54>
 272:	e0 2e       	mov	r14, r16
 274:	51 2f       	mov	r21, r17
 276:	c9 01       	movw	r24, r18
 278:	6e 2d       	mov	r22, r14
 27a:	75 2f       	mov	r23, r21
 27c:	a5 01       	movw	r20, r10
 27e:	94 01       	movw	r18, r8
 280:	0e 94 00 00 	call	0	; 0x0 <_ZN5Print5writeEPKhj>
 284:	89 01       	movw	r16, r18
 286:	9a 01       	movw	r18, r20
 288:	f0 9e       	mul	r15, r16
 28a:	80 2d       	mov	r24, r0
 28c:	11 24       	eor	r1, r1
 28e:	e8 1a       	sub	r14, r24
 290:	8e 2d       	mov	r24, r14
 292:	08 94       	sec
 294:	c1 08       	sbc	r12, r1
 296:	d1 08       	sbc	r13, r1
 298:	8a 30       	cpi	r24, 0x0A	; 10
 29a:	00 f4       	brcc	.+0      	; 0x29c <_ZN5Print11printNumberEmh+0x7e>
 29c:	80 5d       	subi	r24, 0xD0	; 208
 29e:	00 c0       	rjmp	.+0      	; 0x2a0 <_ZN5Print11printNumberEmh+0x82>
 2a0:	89 5c       	subi	r24, 0xC9	; 201
 2a2:	d6 01       	movw	r26, r12
 2a4:	8c 93       	st	X, r24
 2a6:	01 15       	cp	r16, r1
 2a8:	11 05       	cpc	r17, r1
 2aa:	21 05       	cpc	r18, r1
 2ac:	31 05       	cpc	r19, r1
 2ae:	01 f4       	brne	.+0      	; 0x2b0 <_ZN5Print11printNumberEmh+0x92>
 2b0:	d6 01       	movw	r26, r12
 2b2:	0d 90       	ld	r0, X+
 2b4:	00 20       	and	r0, r0
 2b6:	01 f4       	brne	.+0      	; 0x2b8 <_ZN5Print11printNumberEmh+0x9a>
 2b8:	ad 01       	movw	r20, r26
 2ba:	41 50       	subi	r20, 0x01	; 1
 2bc:	50 40       	sbci	r21, 0x00	; 0
 2be:	4c 19       	sub	r20, r12
 2c0:	5d 09       	sbc	r21, r13
 2c2:	d3 01       	movw	r26, r6
 2c4:	ed 91       	ld	r30, X+
 2c6:	fc 91       	ld	r31, X
 2c8:	02 80       	ldd	r0, Z+2	; 0x02
 2ca:	f3 81       	ldd	r31, Z+3	; 0x03
 2cc:	e0 2d       	mov	r30, r0
 2ce:	c3 01       	movw	r24, r6
 2d0:	b6 01       	movw	r22, r12
 2d2:	09 95       	icall
 2d4:	a1 96       	adiw	r28, 0x21	; 33
 2d6:	0f b6       	in	r0, 0x3f	; 63
 2d8:	f8 94       	cli
 2da:	de bf       	out	0x3e, r29	; 62
 2dc:	0f be       	out	0x3f, r0	; 63
 2de:	cd bf       	out	0x3d, r28	; 61
 2e0:	df 91       	pop	r29
 2e2:	cf 91       	pop	r28
 2e4:	1f 91       	pop	r17
 2e6:	0f 91       	pop	r16
 2e8:	ff 90       	pop	r15
 2ea:	ef 90       	pop	r14
 2ec:	df 90       	pop	r13
 2ee:	cf 90       	pop	r12
 2f0:	bf 90       	pop	r11
 2f2:	af 90       	pop	r10
 2f4:	9f 90       	pop	r9
 2f6:	8f 90       	pop	r8
 2f8:	7f 90       	pop	r7
 2fa:	6f 90       	pop	r6
 2fc:	08 95       	ret

000002fe <_ZN5Print5printEmi>:
 2fe:	21 15       	cp	r18, r1
 300:	31 05       	cpc	r19, r1
 302:	01 f4       	brne	.+0      	; 0x304 <_ZN5Print5printEmi+0x6>
 304:	dc 01       	movw	r26, r24
 306:	ed 91       	ld	r30, X+
 308:	fc 91       	ld	r31, X
 30a:	01 90       	ld	r0, Z+
 30c:	f0 81       	ld	r31, Z
 30e:	e0 2d       	mov	r30, r0
 310:	64 2f       	mov	r22, r20
 312:	09 95       	icall
 314:	08 95       	ret
 316:	0e 94 00 00 	call	0	; 0x0 <_ZN5Print5writeEPKhj>
 31a:	08 95       	ret

0000031c <_ZN5Print7printlnEmi>:
 31c:	0f 93       	push	r16
 31e:	1f 93       	push	r17
 320:	cf 93       	push	r28
 322:	df 93       	push	r29
 324:	8c 01       	movw	r16, r24
 326:	0e 94 00 00 	call	0	; 0x0 <_ZN5Print5writeEPKhj>
 32a:	ec 01       	movw	r28, r24
 32c:	c8 01       	movw	r24, r16
 32e:	0e 94 00 00 	call	0	; 0x0 <_ZN5Print5writeEPKhj>
 332:	8c 0f       	add	r24, r28
 334:	9d 1f       	adc	r25, r29
 336:	df 91       	pop	r29
 338:	cf 91       	pop	r28
 33a:	1f 91       	pop	r17
 33c:	0f 91       	pop	r16
 33e:	08 95       	ret

00000340 <_ZN5Print5printEji>:
 340:	9a 01       	movw	r18, r20
 342:	ab 01       	movw	r20, r22
 344:	60 e0       	ldi	r22, 0x00	; 0
 346:	70 e0       	ldi	r23, 0x00	; 0
 348:	0e 94 00 00 	call	0	; 0x0 <_ZN5Print5writeEPKhj>
 34c:	08 95       	ret

0000034e <_ZN5Print7printlnEji>:
 34e:	0f 93       	push	r16
 350:	1f 93       	push	r17
 352:	cf 93       	push	r28
 354:	df 93       	push	r29
 356:	8c 01       	movw	r16, r24
 358:	9a 01       	movw	r18, r20
 35a:	ab 01       	movw	r20, r22
 35c:	60 e0       	ldi	r22, 0x00	; 0
 35e:	70 e0       	ldi	r23, 0x00	; 0
 360:	0e 94 00 00 	call	0	; 0x0 <_ZN5Print5writeEPKhj>
 364:	ec 01       	movw	r28, r24
 366:	c8 01       	movw	r24, r16
 368:	0e 94 00 00 	call	0	; 0x0 <_ZN5Print5writeEPKhj>
 36c:	8c 0f       	add	r24, r28
 36e:	9d 1f       	adc	r25, r29
 370:	df 91       	pop	r29
 372:	cf 91       	pop	r28
 374:	1f 91       	pop	r17
 376:	0f 91       	pop	r16
 378:	08 95       	ret

0000037a <_ZN5Print5printEhi>:
 37a:	9a 01       	movw	r18, r20
 37c:	46 2f       	mov	r20, r22
 37e:	50 e0       	ldi	r21, 0x00	; 0
 380:	60 e0       	ldi	r22, 0x00	; 0
 382:	70 e0       	ldi	r23, 0x00	; 0
 384:	0e 94 00 00 	call	0	; 0x0 <_ZN5Print5writeEPKhj>
 388:	08 95       	ret

0000038a <_ZN5Print7printlnEhi>:
 38a:	0f 93       	push	r16
 38c:	1f 93       	push	r17
 38e:	cf 93       	push	r28
 390:	df 93       	push	r29
 392:	8c 01       	movw	r16, r24
 394:	9a 01       	movw	r18, r20
 396:	46 2f       	mov	r20, r22
 398:	50 e0       	ldi	r21, 0x00	; 0
 39a:	60 e0       	ldi	r22, 0x00	; 0
 39c:	70 e0       	ldi	r23, 0x00	; 0
 39e:	0e 94 00 00 	call	0	; 0x0 <_ZN5Print5writeEPKhj>
 3a2:	ec 01       	movw	r28, r24
 3a4:	c8 01       	movw	r24, r16
 3a6:	0e 94 00 00 	call	0	; 0x0 <_ZN5Print5writeEPKhj>
 3aa:	8c 0f       	add	r24, r28
 3ac:	9d 1f       	adc	r25, r29
 3ae:	df 91       	pop	r29
 3b0:	cf 91       	pop	r28
 3b2:	1f 91       	pop	r17
 3b4:	0f 91       	pop	r16
 3b6:	08 95       	ret

000003b8 <_ZN5Print5printEli>:
 3b8:	cf 92       	push	r12
 3ba:	df 92       	push	r13
 3bc:	ef 92       	push	r14
 3be:	ff 92       	push	r15
 3c0:	0f 93       	push	r16
 3c2:	1f 93       	push	r17
 3c4:	cf 93       	push	r28
 3c6:	df 93       	push	r29
 3c8:	ec 01       	movw	r28, r24
 3ca:	6a 01       	movw	r12, r20
 3cc:	7b 01       	movw	r14, r22
 3ce:	21 15       	cp	r18, r1
 3d0:	31 05       	cpc	r19, r1
 3d2:	01 f4       	brne	.+0      	; 0x3d4 <_ZN5Print5printEli+0x1c>
 3d4:	e8 81       	ld	r30, Y
 3d6:	f9 81       	ldd	r31, Y+1	; 0x01
 3d8:	01 90       	ld	r0, Z+
 3da:	f0 81       	ld	r31, Z
 3dc:	e0 2d       	mov	r30, r0
 3de:	64 2f       	mov	r22, r20
 3e0:	09 95       	icall
 3e2:	00 c0       	rjmp	.+0      	; 0x3e4 <_ZN5Print5printEli+0x2c>
 3e4:	2a 30       	cpi	r18, 0x0A	; 10
 3e6:	31 05       	cpc	r19, r1
 3e8:	01 f4       	brne	.+0      	; 0x3ea <_ZN5Print5printEli+0x32>
 3ea:	77 ff       	sbrs	r23, 7
 3ec:	00 c0       	rjmp	.+0      	; 0x3ee <_ZN5Print5printEli+0x36>
 3ee:	6d e2       	ldi	r22, 0x2D	; 45
 3f0:	0e 94 00 00 	call	0	; 0x0 <_ZN5Print5writeEPKhj>
 3f4:	8c 01       	movw	r16, r24
 3f6:	44 27       	eor	r20, r20
 3f8:	55 27       	eor	r21, r21
 3fa:	ba 01       	movw	r22, r20
 3fc:	4c 19       	sub	r20, r12
 3fe:	5d 09       	sbc	r21, r13
 400:	6e 09       	sbc	r22, r14
 402:	7f 09       	sbc	r23, r15
 404:	ce 01       	movw	r24, r28
 406:	2a e0       	ldi	r18, 0x0A	; 10
 408:	0e 94 00 00 	call	0	; 0x0 <_ZN5Print5writeEPKhj>
 40c:	80 0f       	add	r24, r16
 40e:	91 1f       	adc	r25, r17
 410:	00 c0       	rjmp	.+0      	; 0x412 <_ZN5Print5printEli+0x5a>
 412:	2a e0       	ldi	r18, 0x0A	; 10
 414:	0e 94 00 00 	call	0	; 0x0 <_ZN5Print5writeEPKhj>
 418:	df 91       	pop	r29
 41a:	cf 91       	pop	r28
 41c:	1f 91       	pop	r17
 41e:	0f 91       	pop	r16
 420:	ff 90       	pop	r15
 422:	ef 90       	pop	r14
 424:	df 90       	pop	r13
 426:	cf 90       	pop	r12
 428:	08 95       	ret

0000042a <_ZN5Print7printlnEli>:
 42a:	0f 93       	push	r16
 42c:	1f 93       	push	r17
 42e:	cf 93       	push	r28
 430:	df 93       	push	r29
 432:	8c 01       	movw	r16, r24
 434:	0e 94 00 00 	call	0	; 0x0 <_ZN5Print5writeEPKhj>
 438:	ec 01       	movw	r28, r24
 43a:	c8 01       	movw	r24, r16
 43c:	0e 94 00 00 	call	0	; 0x0 <_ZN5Print5writeEPKhj>
 440:	8c 0f       	add	r24, r28
 442:	9d 1f       	adc	r25, r29
 444:	df 91       	pop	r29
 446:	cf 91       	pop	r28
 448:	1f 91       	pop	r17
 44a:	0f 91       	pop	r16
 44c:	08 95       	ret

0000044e <_ZN5Print5printEii>:
 44e:	9a 01       	movw	r18, r20
 450:	fb 01       	movw	r30, r22
 452:	af 01       	movw	r20, r30
 454:	66 27       	eor	r22, r22
 456:	57 fd       	sbrc	r21, 7
 458:	60 95       	com	r22
 45a:	76 2f       	mov	r23, r22
 45c:	0e 94 00 00 	call	0	; 0x0 <_ZN5Print5writeEPKhj>
 460:	08 95       	ret

00000462 <_ZN5Print7printlnEii>:
 462:	0f 93       	push	r16
 464:	1f 93       	push	r17
 466:	cf 93       	push	r28
 468:	df 93       	push	r29
 46a:	8c 01       	movw	r16, r24
 46c:	9a 01       	movw	r18, r20
 46e:	cb 01       	movw	r24, r22
 470:	ac 01       	movw	r20, r24
 472:	66 27       	eor	r22, r22
 474:	57 fd       	sbrc	r21, 7
 476:	60 95       	com	r22
 478:	76 2f       	mov	r23, r22
 47a:	c8 01       	movw	r24, r16
 47c:	0e 94 00 00 	call	0	; 0x0 <_ZN5Print5writeEPKhj>
 480:	ec 01       	movw	r28, r24
 482:	c8 01       	movw	r24, r16
 484:	0e 94 00 00 	call	0	; 0x0 <_ZN5Print5writeEPKhj>
 488:	8c 0f       	add	r24, r28
 48a:	9d 1f       	adc	r25, r29
 48c:	df 91       	pop	r29
 48e:	cf 91       	pop	r28
 490:	1f 91       	pop	r17
 492:	0f 91       	pop	r16
 494:	08 95       	ret

00000496 <_ZN5Print10printFloatEdh>:
 496:	6f 92       	push	r6
 498:	7f 92       	push	r7
 49a:	9f 92       	push	r9
 49c:	af 92       	push	r10
 49e:	bf 92       	push	r11
 4a0:	cf 92       	push	r12
 4a2:	df 92       	push	r13
 4a4:	ef 92       	push	r14
 4a6:	ff 92       	push	r15
 4a8:	0f 93       	push	r16
 4aa:	1f 93       	push	r17
 4ac:	cf 93       	push	r28
 4ae:	df 93       	push	r29
 4b0:	3c 01       	movw	r6, r24
 4b2:	6a 01       	movw	r12, r20
 4b4:	7b 01       	movw	r14, r22
 4b6:	92 2e       	mov	r9, r18
 4b8:	cb 01       	movw	r24, r22
 4ba:	ba 01       	movw	r22, r20
 4bc:	20 e0       	ldi	r18, 0x00	; 0
 4be:	30 e0       	ldi	r19, 0x00	; 0
 4c0:	40 e0       	ldi	r20, 0x00	; 0
 4c2:	50 e0       	ldi	r21, 0x00	; 0
 4c4:	0e 94 00 00 	call	0	; 0x0 <_ZN5Print5writeEPKhj>
 4c8:	87 ff       	sbrs	r24, 7
 4ca:	00 c0       	rjmp	.+0      	; 0x4cc <_ZN5Print10printFloatEdh+0x36>
 4cc:	c3 01       	movw	r24, r6
 4ce:	6d e2       	ldi	r22, 0x2D	; 45
 4d0:	0e 94 00 00 	call	0	; 0x0 <_ZN5Print5writeEPKhj>
 4d4:	5c 01       	movw	r10, r24
 4d6:	f7 fa       	bst	r15, 7
 4d8:	f0 94       	com	r15
 4da:	f7 f8       	bld	r15, 7
 4dc:	f0 94       	com	r15
 4de:	00 c0       	rjmp	.+0      	; 0x4e0 <_ZN5Print10printFloatEdh+0x4a>
 4e0:	aa 24       	eor	r10, r10
 4e2:	bb 24       	eor	r11, r11
 4e4:	c0 e0       	ldi	r28, 0x00	; 0
 4e6:	50 e0       	ldi	r21, 0x00	; 0
 4e8:	40 e0       	ldi	r20, 0x00	; 0
 4ea:	30 e0       	ldi	r19, 0x00	; 0
 4ec:	2f e3       	ldi	r18, 0x3F	; 63
 4ee:	00 c0       	rjmp	.+0      	; 0x4f0 <_ZN5Print10printFloatEdh+0x5a>
 4f0:	fa 01       	movw	r30, r20
 4f2:	b9 01       	movw	r22, r18
 4f4:	8f 2f       	mov	r24, r31
 4f6:	94 2f       	mov	r25, r20
 4f8:	a7 2f       	mov	r26, r23
 4fa:	b2 2f       	mov	r27, r18
 4fc:	bc 01       	movw	r22, r24
 4fe:	cd 01       	movw	r24, r26
 500:	20 e0       	ldi	r18, 0x00	; 0
 502:	30 e0       	ldi	r19, 0x00	; 0
 504:	40 e2       	ldi	r20, 0x20	; 32
 506:	51 e4       	ldi	r21, 0x41	; 65
 508:	0e 94 00 00 	call	0	; 0x0 <_ZN5Print5writeEPKhj>
 50c:	56 2f       	mov	r21, r22
 50e:	47 2f       	mov	r20, r23
 510:	38 2f       	mov	r19, r24
 512:	29 2f       	mov	r18, r25
 514:	cf 5f       	subi	r28, 0xFF	; 255
 516:	c9 15       	cp	r28, r9
 518:	01 f4       	brne	.+0      	; 0x51a <_ZN5Print10printFloatEdh+0x84>
 51a:	c7 01       	movw	r24, r14
 51c:	b6 01       	movw	r22, r12
 51e:	da 01       	movw	r26, r20
 520:	f9 01       	movw	r30, r18
 522:	0b 2f       	mov	r16, r27
 524:	14 2f       	mov	r17, r20
 526:	2f 2f       	mov	r18, r31
 528:	3e 2f       	mov	r19, r30
 52a:	a9 01       	movw	r20, r18
 52c:	98 01       	movw	r18, r16
 52e:	0e 94 00 00 	call	0	; 0x0 <_ZN5Print5writeEPKhj>
 532:	d6 2e       	mov	r13, r22
 534:	e7 2e       	mov	r14, r23
 536:	f8 2e       	mov	r15, r24
 538:	19 2f       	mov	r17, r25
 53a:	86 2f       	mov	r24, r22
 53c:	9e 2d       	mov	r25, r14
 53e:	af 2d       	mov	r26, r15
 540:	b1 2f       	mov	r27, r17
 542:	bc 01       	movw	r22, r24
 544:	cd 01       	movw	r24, r26
 546:	0e 94 00 00 	call	0	; 0x0 <_ZN5Print5writeEPKhj>
 54a:	c6 2e       	mov	r12, r22
 54c:	07 2f       	mov	r16, r23
 54e:	ec 01       	movw	r28, r24
 550:	0e 94 00 00 	call	0	; 0x0 <_ZN5Print5writeEPKhj>
 554:	9b 01       	movw	r18, r22
 556:	ac 01       	movw	r20, r24
 558:	8d 2d       	mov	r24, r13
 55a:	9e 2d       	mov	r25, r14
 55c:	af 2d       	mov	r26, r15
 55e:	b1 2f       	mov	r27, r17
 560:	bc 01       	movw	r22, r24
 562:	cd 01       	movw	r24, r26
 564:	0e 94 00 00 	call	0	; 0x0 <_ZN5Print5writeEPKhj>
 568:	d6 2e       	mov	r13, r22
 56a:	e7 2e       	mov	r14, r23
 56c:	f8 2e       	mov	r15, r24
 56e:	19 2f       	mov	r17, r25
 570:	c3 01       	movw	r24, r6
 572:	4c 2d       	mov	r20, r12
 574:	50 2f       	mov	r21, r16
 576:	be 01       	movw	r22, r28
 578:	2a e0       	ldi	r18, 0x0A	; 10
 57a:	30 e0       	ldi	r19, 0x00	; 0
 57c:	0e 94 00 00 	call	0	; 0x0 <_ZN5Print5writeEPKhj>
 580:	ec 01       	movw	r28, r24
 582:	ca 0d       	add	r28, r10
 584:	db 1d       	adc	r29, r11
 586:	99 20       	and	r9, r9
 588:	01 f4       	brne	.+0      	; 0x58a <_ZN5Print10printFloatEdh+0xf4>
 58a:	00 c0       	rjmp	.+0      	; 0x58c <_ZN5Print10printFloatEdh+0xf6>
 58c:	c3 01       	movw	r24, r6
 58e:	60 e0       	ldi	r22, 0x00	; 0
 590:	70 e0       	ldi	r23, 0x00	; 0
 592:	0e 94 00 00 	call	0	; 0x0 <_ZN5Print5writeEPKhj>
 596:	c8 0f       	add	r28, r24
 598:	d9 1f       	adc	r29, r25
 59a:	00 c0       	rjmp	.+0      	; 0x59c <_ZN5Print10printFloatEdh+0x106>
 59c:	8d 2d       	mov	r24, r13
 59e:	9e 2d       	mov	r25, r14
 5a0:	af 2d       	mov	r26, r15
 5a2:	b1 2f       	mov	r27, r17
 5a4:	bc 01       	movw	r22, r24
 5a6:	cd 01       	movw	r24, r26
 5a8:	20 e0       	ldi	r18, 0x00	; 0
 5aa:	30 e0       	ldi	r19, 0x00	; 0
 5ac:	40 e2       	ldi	r20, 0x20	; 32
 5ae:	51 e4       	ldi	r21, 0x41	; 65
 5b0:	0e 94 00 00 	call	0	; 0x0 <_ZN5Print5writeEPKhj>
 5b4:	16 2f       	mov	r17, r22
 5b6:	07 2f       	mov	r16, r23
 5b8:	b8 2e       	mov	r11, r24
 5ba:	a9 2e       	mov	r10, r25
 5bc:	a8 01       	movw	r20, r16
 5be:	95 01       	movw	r18, r10
 5c0:	85 2f       	mov	r24, r21
 5c2:	94 2f       	mov	r25, r20
 5c4:	a3 2f       	mov	r26, r19
 5c6:	b2 2f       	mov	r27, r18
 5c8:	bc 01       	movw	r22, r24
 5ca:	cd 01       	movw	r24, r26
 5cc:	0e 94 00 00 	call	0	; 0x0 <_ZN5Print5writeEPKhj>
 5d0:	6b 01       	movw	r12, r22
 5d2:	7c 01       	movw	r14, r24
 5d4:	ee 24       	eor	r14, r14
 5d6:	d7 fc       	sbrc	r13, 7
 5d8:	e0 94       	com	r14
 5da:	fe 2c       	mov	r15, r14
 5dc:	c3 01       	movw	r24, r6
 5de:	b7 01       	movw	r22, r14
 5e0:	a6 01       	movw	r20, r12
 5e2:	2a e0       	ldi	r18, 0x0A	; 10
 5e4:	30 e0       	ldi	r19, 0x00	; 0
 5e6:	0e 94 00 00 	call	0	; 0x0 <_ZN5Print5writeEPKhj>
 5ea:	c8 0f       	add	r28, r24
 5ec:	d9 1f       	adc	r29, r25
 5ee:	c7 01       	movw	r24, r14
 5f0:	b6 01       	movw	r22, r12
 5f2:	0e 94 00 00 	call	0	; 0x0 <_ZN5Print5writeEPKhj>
 5f6:	9b 01       	movw	r18, r22
 5f8:	ac 01       	movw	r20, r24
 5fa:	f8 01       	movw	r30, r16
 5fc:	b5 01       	movw	r22, r10
 5fe:	8f 2f       	mov	r24, r31
 600:	9e 2f       	mov	r25, r30
 602:	a7 2f       	mov	r26, r23
 604:	b6 2f       	mov	r27, r22
 606:	bc 01       	movw	r22, r24
 608:	cd 01       	movw	r24, r26
 60a:	0e 94 00 00 	call	0	; 0x0 <_ZN5Print5writeEPKhj>
 60e:	d6 2e       	mov	r13, r22
 610:	e7 2e       	mov	r14, r23
 612:	f8 2e       	mov	r15, r24
 614:	19 2f       	mov	r17, r25
 616:	9a 94       	dec	r9
 618:	99 20       	and	r9, r9
 61a:	01 f0       	breq	.+0      	; 0x61c <_ZN5Print10printFloatEdh+0x186>
 61c:	00 c0       	rjmp	.+0      	; 0x61e <_ZN5Print10printFloatEdh+0x188>
 61e:	ce 01       	movw	r24, r28
 620:	df 91       	pop	r29
 622:	cf 91       	pop	r28
 624:	1f 91       	pop	r17
 626:	0f 91       	pop	r16
 628:	ff 90       	pop	r15
 62a:	ef 90       	pop	r14
 62c:	df 90       	pop	r13
 62e:	cf 90       	pop	r12
 630:	bf 90       	pop	r11
 632:	af 90       	pop	r10
 634:	9f 90       	pop	r9
 636:	7f 90       	pop	r7
 638:	6f 90       	pop	r6
 63a:	08 95       	ret

0000063c <_ZN5Print5printEdi>:
 63c:	0e 94 00 00 	call	0	; 0x0 <_ZN5Print5writeEPKhj>
 640:	08 95       	ret

00000642 <_ZN5Print7printlnEdi>:
 642:	0f 93       	push	r16
 644:	1f 93       	push	r17
 646:	cf 93       	push	r28
 648:	df 93       	push	r29
 64a:	8c 01       	movw	r16, r24
 64c:	0e 94 00 00 	call	0	; 0x0 <_ZN5Print5writeEPKhj>
 650:	ec 01       	movw	r28, r24
 652:	c8 01       	movw	r24, r16
 654:	0e 94 00 00 	call	0	; 0x0 <_ZN5Print5writeEPKhj>
 658:	8c 0f       	add	r24, r28
 65a:	9d 1f       	adc	r25, r29
 65c:	df 91       	pop	r29
 65e:	cf 91       	pop	r28
 660:	1f 91       	pop	r17
 662:	0f 91       	pop	r16
 664:	08 95       	ret

Stream.o:     file format elf32-avr

Sections:
Idx Name          Size      VMA       LMA       File off  Algn
  0 .text         0000056e  00000000  00000000  00000034  2**0
                  CONTENTS, ALLOC, LOAD, RELOC, READONLY, CODE
  1 .data         00000001  00000000  00000000  000005a2  2**0
                  CONTENTS, ALLOC, LOAD, DATA
  2 .bss          00000000  00000000  00000000  000005a3  2**0
                  ALLOC

Disassembly of section .text:

00000000 <_ZN6Stream9timedReadEv>:
   0:	cf 93       	push	r28
   2:	df 93       	push	r29
   4:	ec 01       	movw	r28, r24
   6:	0e 94 00 00 	call	0	; 0x0 <_ZN6Stream9timedReadEv>
   a:	dc 01       	movw	r26, r24
   c:	cb 01       	movw	r24, r22
   e:	88 87       	std	Y+8, r24	; 0x08
  10:	99 87       	std	Y+9, r25	; 0x09
  12:	aa 87       	std	Y+10, r26	; 0x0a
  14:	bb 87       	std	Y+11, r27	; 0x0b
  16:	e8 81       	ld	r30, Y
  18:	f9 81       	ldd	r31, Y+1	; 0x01
  1a:	06 80       	ldd	r0, Z+6	; 0x06
  1c:	f7 81       	ldd	r31, Z+7	; 0x07
  1e:	e0 2d       	mov	r30, r0
  20:	ce 01       	movw	r24, r28
  22:	09 95       	icall
  24:	97 ff       	sbrs	r25, 7
  26:	00 c0       	rjmp	.+0      	; 0x28 <_ZN6Stream9timedReadEv+0x28>
  28:	0e 94 00 00 	call	0	; 0x0 <_ZN6Stream9timedReadEv>
  2c:	dc 01       	movw	r26, r24
  2e:	cb 01       	movw	r24, r22
  30:	48 85       	ldd	r20, Y+8	; 0x08
  32:	59 85       	ldd	r21, Y+9	; 0x09
  34:	6a 85       	ldd	r22, Y+10	; 0x0a
  36:	7b 85       	ldd	r23, Y+11	; 0x0b
  38:	84 1b       	sub	r24, r20
  3a:	95 0b       	sbc	r25, r21
  3c:	a6 0b       	sbc	r26, r22
  3e:	b7 0b       	sbc	r27, r23
  40:	4c 81       	ldd	r20, Y+4	; 0x04
  42:	5d 81       	ldd	r21, Y+5	; 0x05
  44:	6e 81       	ldd	r22, Y+6	; 0x06
  46:	7f 81       	ldd	r23, Y+7	; 0x07
  48:	84 17       	cp	r24, r20
  4a:	95 07       	cpc	r25, r21
  4c:	a6 07       	cpc	r26, r22
  4e:	b7 07       	cpc	r27, r23
  50:	00 f0       	brcs	.+0      	; 0x52 <_ZN6Stream9timedReadEv+0x52>
  52:	8f ef       	ldi	r24, 0xFF	; 255
  54:	9f ef       	ldi	r25, 0xFF	; 255
  56:	df 91       	pop	r29
  58:	cf 91       	pop	r28
  5a:	08 95       	ret

0000005c <_ZN6Stream9timedPeekEv>:
  5c:	cf 93       	push	r28
  5e:	df 93       	push	r29
  60:	ec 01       	movw	r28, r24
  62:	0e 94 00 00 	call	0	; 0x0 <_ZN6Stream9timedReadEv>
  66:	dc 01       	movw	r26, r24
  68:	cb 01       	movw	r24, r22
  6a:	88 87       	std	Y+8, r24	; 0x08
  6c:	99 87       	std	Y+9, r25	; 0x09
  6e:	aa 87       	std	Y+10, r26	; 0x0a
  70:	bb 87       	std	Y+11, r27	; 0x0b
  72:	e8 81       	ld	r30, Y
  74:	f9 81       	ldd	r31, Y+1	; 0x01
  76:	00 84       	ldd	r0, Z+8	; 0x08
  78:	f1 85       	ldd	r31, Z+9	; 0x09
  7a:	e0 2d       	mov	r30, r0
  7c:	ce 01       	movw	r24, r28
  7e:	09 95       	icall
  80:	97 ff       	sbrs	r25, 7
  82:	00 c0       	rjmp	.+0      	; 0x84 <_ZN6Stream9timedPeekEv+0x28>
  84:	0e 94 00 00 	call	0	; 0x0 <_ZN6Stream9timedReadEv>
  88:	dc 01       	movw	r26, r24
  8a:	cb 01       	movw	r24, r22
  8c:	48 85       	ldd	r20, Y+8	; 0x08
  8e:	59 85       	ldd	r21, Y+9	; 0x09
  90:	6a 85       	ldd	r22, Y+10	; 0x0a
  92:	7b 85       	ldd	r23, Y+11	; 0x0b
  94:	84 1b       	sub	r24, r20
  96:	95 0b       	sbc	r25, r21
  98:	a6 0b       	sbc	r26, r22
  9a:	b7 0b       	sbc	r27, r23
  9c:	4c 81       	ldd	r20, Y+4	; 0x04
  9e:	5d 81       	ldd	r21, Y+5	; 0x05
  a0:	6e 81       	ldd	r22, Y+6	; 0x06
  a2:	7f 81       	ldd	r23, Y+7	; 0x07
  a4:	84 17       	cp	r24, r20
  a6:	95 07       	cpc	r25, r21
  a8:	a6 07       	cpc	r26, r22
  aa:	b7 07       	cpc	r27, r23
  ac:	00 f0       	brcs	.+0      	; 0xae <_ZN6Stream9timedPeekEv+0x52>
  ae:	8f ef       	ldi	r24, 0xFF	; 255
  b0:	9f ef       	ldi	r25, 0xFF	; 255
  b2:	df 91       	pop	r29
  b4:	cf 91       	pop	r28
  b6:	08 95       	ret

000000b8 <_ZN6Stream13peekNextDigitEv>:
  b8:	cf 93       	push	r28
  ba:	df 93       	push	r29
  bc:	ec 01       	movw	r28, r24
  be:	ce 01       	movw	r24, r28
  c0:	0e 94 00 00 	call	0	; 0x0 <_ZN6Stream9timedReadEv>
  c4:	97 fd       	sbrc	r25, 7
  c6:	00 c0       	rjmp	.+0      	; 0xc8 <_ZN6Stream13peekNextDigitEv+0x10>
  c8:	8d 32       	cpi	r24, 0x2D	; 45
  ca:	91 05       	cpc	r25, r1
  cc:	01 f0       	breq	.+0      	; 0xce <_ZN6Stream13peekNextDigitEv+0x16>
  ce:	9c 01       	movw	r18, r24
  d0:	20 53       	subi	r18, 0x30	; 48
  d2:	30 40       	sbci	r19, 0x00	; 0
  d4:	2a 30       	cpi	r18, 0x0A	; 10
  d6:	31 05       	cpc	r19, r1
  d8:	00 f0       	brcs	.+0      	; 0xda <_ZN6Stream13peekNextDigitEv+0x22>
  da:	e8 81       	ld	r30, Y
  dc:	f9 81       	ldd	r31, Y+1	; 0x01
  de:	06 80       	ldd	r0, Z+6	; 0x06
  e0:	f7 81       	ldd	r31, Z+7	; 0x07
  e2:	e0 2d       	mov	r30, r0
  e4:	ce 01       	movw	r24, r28
  e6:	09 95       	icall
  e8:	00 c0       	rjmp	.+0      	; 0xea <_ZN6Stream13peekNextDigitEv+0x32>
  ea:	df 91       	pop	r29
  ec:	cf 91       	pop	r28
  ee:	08 95       	ret

000000f0 <_ZN6Stream10setTimeoutEm>:
  f0:	fc 01       	movw	r30, r24
  f2:	44 83       	std	Z+4, r20	; 0x04
  f4:	55 83       	std	Z+5, r21	; 0x05
  f6:	66 83       	std	Z+6, r22	; 0x06
  f8:	77 83       	std	Z+7, r23	; 0x07
  fa:	08 95       	ret

000000fc <_ZN6Stream9findUntilEPcjS0_j>:
  fc:	6f 92       	push	r6
  fe:	7f 92       	push	r7
 100:	8f 92       	push	r8
 102:	9f 92       	push	r9
 104:	af 92       	push	r10
 106:	bf 92       	push	r11
 108:	cf 92       	push	r12
 10a:	df 92       	push	r13
 10c:	ef 92       	push	r14
 10e:	ff 92       	push	r15
 110:	0f 93       	push	r16
 112:	1f 93       	push	r17
 114:	cf 93       	push	r28
 116:	df 93       	push	r29
 118:	3c 01       	movw	r6, r24
 11a:	7b 01       	movw	r14, r22
 11c:	4a 01       	movw	r8, r20
 11e:	59 01       	movw	r10, r18
 120:	68 01       	movw	r12, r16
 122:	fb 01       	movw	r30, r22
 124:	80 81       	ld	r24, Z
 126:	88 23       	and	r24, r24
 128:	01 f0       	breq	.+0      	; 0x12a <_ZN6Stream9findUntilEPcjS0_j+0x2e>
 12a:	c0 e0       	ldi	r28, 0x00	; 0
 12c:	d0 e0       	ldi	r29, 0x00	; 0
 12e:	00 e0       	ldi	r16, 0x00	; 0
 130:	10 e0       	ldi	r17, 0x00	; 0
 132:	00 c0       	rjmp	.+0      	; 0x134 <_ZN6Stream9findUntilEPcjS0_j+0x38>
 134:	f7 01       	movw	r30, r14
 136:	e0 0f       	add	r30, r16
 138:	f1 1f       	adc	r31, r17
 13a:	80 81       	ld	r24, Z
 13c:	90 e0       	ldi	r25, 0x00	; 0
 13e:	28 17       	cp	r18, r24
 140:	39 07       	cpc	r19, r25
 142:	01 f0       	breq	.+0      	; 0x144 <_ZN6Stream9findUntilEPcjS0_j+0x48>
 144:	00 e0       	ldi	r16, 0x00	; 0
 146:	10 e0       	ldi	r17, 0x00	; 0
 148:	f7 01       	movw	r30, r14
 14a:	e0 0f       	add	r30, r16
 14c:	f1 1f       	adc	r31, r17
 14e:	80 81       	ld	r24, Z
 150:	90 e0       	ldi	r25, 0x00	; 0
 152:	28 17       	cp	r18, r24
 154:	39 07       	cpc	r19, r25
 156:	01 f4       	brne	.+0      	; 0x158 <_ZN6Stream9findUntilEPcjS0_j+0x5c>
 158:	0f 5f       	subi	r16, 0xFF	; 255
 15a:	1f 4f       	sbci	r17, 0xFF	; 255
 15c:	08 15       	cp	r16, r8
 15e:	19 05       	cpc	r17, r9
 160:	00 f4       	brcc	.+0      	; 0x162 <_ZN6Stream9findUntilEPcjS0_j+0x66>
 162:	c1 14       	cp	r12, r1
 164:	d1 04       	cpc	r13, r1
 166:	01 f0       	breq	.+0      	; 0x168 <_ZN6Stream9findUntilEPcjS0_j+0x6c>
 168:	f5 01       	movw	r30, r10
 16a:	ec 0f       	add	r30, r28
 16c:	fd 1f       	adc	r31, r29
 16e:	80 81       	ld	r24, Z
 170:	90 e0       	ldi	r25, 0x00	; 0
 172:	28 17       	cp	r18, r24
 174:	39 07       	cpc	r19, r25
 176:	01 f4       	brne	.+0      	; 0x178 <_ZN6Stream9findUntilEPcjS0_j+0x7c>
 178:	21 96       	adiw	r28, 0x01	; 1
 17a:	cc 15       	cp	r28, r12
 17c:	dd 05       	cpc	r29, r13
 17e:	00 f0       	brcs	.+0      	; 0x180 <_ZN6Stream9findUntilEPcjS0_j+0x84>
 180:	00 c0       	rjmp	.+0      	; 0x182 <_ZN6Stream9findUntilEPcjS0_j+0x86>
 182:	c0 e0       	ldi	r28, 0x00	; 0
 184:	d0 e0       	ldi	r29, 0x00	; 0
 186:	c3 01       	movw	r24, r6
 188:	0e 94 00 00 	call	0	; 0x0 <_ZN6Stream9timedReadEv>
 18c:	9c 01       	movw	r18, r24
 18e:	18 16       	cp	r1, r24
 190:	19 06       	cpc	r1, r25
 192:	04 f0       	brlt	.+0      	; 0x194 <_ZN6Stream9findUntilEPcjS0_j+0x98>
 194:	80 e0       	ldi	r24, 0x00	; 0
 196:	00 c0       	rjmp	.+0      	; 0x198 <_ZN6Stream9findUntilEPcjS0_j+0x9c>
 198:	81 e0       	ldi	r24, 0x01	; 1
 19a:	df 91       	pop	r29
 19c:	cf 91       	pop	r28
 19e:	1f 91       	pop	r17
 1a0:	0f 91       	pop	r16
 1a2:	ff 90       	pop	r15
 1a4:	ef 90       	pop	r14
 1a6:	df 90       	pop	r13
 1a8:	cf 90       	pop	r12
 1aa:	bf 90       	pop	r11
 1ac:	af 90       	pop	r10
 1ae:	9f 90       	pop	r9
 1b0:	8f 90       	pop	r8
 1b2:	7f 90       	pop	r7
 1b4:	6f 90       	pop	r6
 1b6:	08 95       	ret

000001b8 <_ZN6Stream9findUntilEPcS0_>:
 1b8:	0f 93       	push	r16
 1ba:	1f 93       	push	r17
 1bc:	cf 93       	push	r28
 1be:	df 93       	push	r29
 1c0:	9a 01       	movw	r18, r20
 1c2:	db 01       	movw	r26, r22
 1c4:	0d 90       	ld	r0, X+
 1c6:	00 20       	and	r0, r0
 1c8:	01 f4       	brne	.+0      	; 0x1ca <_ZN6Stream9findUntilEPcS0_+0x12>
 1ca:	11 97       	sbiw	r26, 0x01	; 1
 1cc:	a6 1b       	sub	r26, r22
 1ce:	b7 0b       	sbc	r27, r23
 1d0:	ea 01       	movw	r28, r20
 1d2:	09 90       	ld	r0, Y+
 1d4:	00 20       	and	r0, r0
 1d6:	01 f4       	brne	.+0      	; 0x1d8 <_ZN6Stream9findUntilEPcS0_+0x20>
 1d8:	8e 01       	movw	r16, r28
 1da:	01 50       	subi	r16, 0x01	; 1
 1dc:	10 40       	sbci	r17, 0x00	; 0
 1de:	04 1b       	sub	r16, r20
 1e0:	15 0b       	sbc	r17, r21
 1e2:	ad 01       	movw	r20, r26
 1e4:	0e 94 00 00 	call	0	; 0x0 <_ZN6Stream9timedReadEv>
 1e8:	df 91       	pop	r29
 1ea:	cf 91       	pop	r28
 1ec:	1f 91       	pop	r17
 1ee:	0f 91       	pop	r16
 1f0:	08 95       	ret

000001f2 <_ZN6Stream4findEPc>:
 1f2:	40 e0       	ldi	r20, 0x00	; 0
 1f4:	50 e0       	ldi	r21, 0x00	; 0
 1f6:	0e 94 00 00 	call	0	; 0x0 <_ZN6Stream9timedReadEv>
 1fa:	08 95       	ret

000001fc <_ZN6Stream4findEPcj>:
 1fc:	0f 93       	push	r16
 1fe:	1f 93       	push	r17
 200:	20 e0       	ldi	r18, 0x00	; 0
 202:	30 e0       	ldi	r19, 0x00	; 0
 204:	00 e0       	ldi	r16, 0x00	; 0
 206:	10 e0       	ldi	r17, 0x00	; 0
 208:	0e 94 00 00 	call	0	; 0x0 <_ZN6Stream9timedReadEv>
 20c:	1f 91       	pop	r17
 20e:	0f 91       	pop	r16
 210:	08 95       	ret

00000212 <_ZN6Stream8parseIntEc>:
 212:	8f 92       	push	r8
 214:	9f 92       	push	r9
 216:	bf 92       	push	r11
 218:	cf 92       	push	r12
 21a:	df 92       	push	r13
 21c:	ef 92       	push	r14
 21e:	ff 92       	push	r15
 220:	0f 93       	push	r16
 222:	1f 93       	push	r17
 224:	cf 93       	push	r28
 226:	df 93       	push	r29
 228:	8c 01       	movw	r16, r24
 22a:	86 2e       	mov	r8, r22
 22c:	0e 94 00 00 	call	0	; 0x0 <_ZN6Stream9timedReadEv>
 230:	ec 01       	movw	r28, r24
 232:	cc 24       	eor	r12, r12
 234:	dd 24       	eor	r13, r13
 236:	76 01       	movw	r14, r12
 238:	97 fd       	sbrc	r25, 7
 23a:	00 c0       	rjmp	.+0      	; 0x23c <_ZN6Stream8parseIntEc+0x2a>
 23c:	bb 24       	eor	r11, r11
 23e:	99 24       	eor	r9, r9
 240:	c8 15       	cp	r28, r8
 242:	d9 05       	cpc	r29, r9
 244:	01 f0       	breq	.+0      	; 0x246 <_ZN6Stream8parseIntEc+0x34>
 246:	cd 32       	cpi	r28, 0x2D	; 45
 248:	d1 05       	cpc	r29, r1
 24a:	01 f0       	breq	.+0      	; 0x24c <_ZN6Stream8parseIntEc+0x3a>
 24c:	ce 01       	movw	r24, r28
 24e:	c0 97       	sbiw	r24, 0x30	; 48
 250:	8a 30       	cpi	r24, 0x0A	; 10
 252:	91 05       	cpc	r25, r1
 254:	00 f4       	brcc	.+0      	; 0x256 <_ZN6Stream8parseIntEc+0x44>
 256:	c7 01       	movw	r24, r14
 258:	b6 01       	movw	r22, r12
 25a:	2a e0       	ldi	r18, 0x0A	; 10
 25c:	30 e0       	ldi	r19, 0x00	; 0
 25e:	40 e0       	ldi	r20, 0x00	; 0
 260:	50 e0       	ldi	r21, 0x00	; 0
 262:	0e 94 00 00 	call	0	; 0x0 <_ZN6Stream9timedReadEv>
 266:	6b 01       	movw	r12, r22
 268:	7c 01       	movw	r14, r24
 26a:	ce 01       	movw	r24, r28
 26c:	aa 27       	eor	r26, r26
 26e:	97 fd       	sbrc	r25, 7
 270:	a0 95       	com	r26
 272:	ba 2f       	mov	r27, r26
 274:	c8 0e       	add	r12, r24
 276:	d9 1e       	adc	r13, r25
 278:	ea 1e       	adc	r14, r26
 27a:	fb 1e       	adc	r15, r27
 27c:	80 ed       	ldi	r24, 0xD0	; 208
 27e:	9f ef       	ldi	r25, 0xFF	; 255
 280:	af ef       	ldi	r26, 0xFF	; 255
 282:	bf ef       	ldi	r27, 0xFF	; 255
 284:	c8 0e       	add	r12, r24
 286:	d9 1e       	adc	r13, r25
 288:	ea 1e       	adc	r14, r26
 28a:	fb 1e       	adc	r15, r27
 28c:	00 c0       	rjmp	.+0      	; 0x28e <_ZN6Stream8parseIntEc+0x7c>
 28e:	bb 24       	eor	r11, r11
 290:	b3 94       	inc	r11
 292:	d8 01       	movw	r26, r16
 294:	ed 91       	ld	r30, X+
 296:	fc 91       	ld	r31, X
 298:	06 80       	ldd	r0, Z+6	; 0x06
 29a:	f7 81       	ldd	r31, Z+7	; 0x07
 29c:	e0 2d       	mov	r30, r0
 29e:	c8 01       	movw	r24, r16
 2a0:	09 95       	icall
 2a2:	c8 01       	movw	r24, r16
 2a4:	0e 94 00 00 	call	0	; 0x0 <_ZN6Stream9timedReadEv>
 2a8:	ec 01       	movw	r28, r24
 2aa:	c0 97       	sbiw	r24, 0x30	; 48
 2ac:	8a 30       	cpi	r24, 0x0A	; 10
 2ae:	91 05       	cpc	r25, r1
 2b0:	00 f0       	brcs	.+0      	; 0x2b2 <_ZN6Stream8parseIntEc+0xa0>
 2b2:	c8 15       	cp	r28, r8
 2b4:	d9 05       	cpc	r29, r9
 2b6:	01 f0       	breq	.+0      	; 0x2b8 <_ZN6Stream8parseIntEc+0xa6>
 2b8:	bb 20       	and	r11, r11
 2ba:	01 f0       	breq	.+0      	; 0x2bc <_ZN6Stream8parseIntEc+0xaa>
 2bc:	f0 94       	com	r15
 2be:	e0 94       	com	r14
 2c0:	d0 94       	com	r13
 2c2:	c0 94       	com	r12
 2c4:	c1 1c       	adc	r12, r1
 2c6:	d1 1c       	adc	r13, r1
 2c8:	e1 1c       	adc	r14, r1
 2ca:	f1 1c       	adc	r15, r1
 2cc:	b6 01       	movw	r22, r12
 2ce:	c7 01       	movw	r24, r14
 2d0:	df 91       	pop	r29
 2d2:	cf 91       	pop	r28
 2d4:	1f 91       	pop	r17
 2d6:	0f 91       	pop	r16
 2d8:	ff 90       	pop	r15
 2da:	ef 90       	pop	r14
 2dc:	df 90       	pop	r13
 2de:	cf 90       	pop	r12
 2e0:	bf 90       	pop	r11
 2e2:	9f 90       	pop	r9
 2e4:	8f 90       	pop	r8
 2e6:	08 95       	ret

000002e8 <_ZN6Stream8parseIntEv>:
 2e8:	61 e0       	ldi	r22, 0x01	; 1
 2ea:	0e 94 00 00 	call	0	; 0x0 <_ZN6Stream9timedReadEv>
 2ee:	08 95       	ret

000002f0 <_ZN6Stream10parseFloatEc>:
 2f0:	6f 92       	push	r6
 2f2:	7f 92       	push	r7
 2f4:	8f 92       	push	r8
 2f6:	9f 92       	push	r9
 2f8:	af 92       	push	r10
 2fa:	bf 92       	push	r11
 2fc:	cf 92       	push	r12
 2fe:	df 92       	push	r13
 300:	ef 92       	push	r14
 302:	ff 92       	push	r15
 304:	0f 93       	push	r16
 306:	1f 93       	push	r17
 308:	cf 93       	push	r28
 30a:	df 93       	push	r29
 30c:	4c 01       	movw	r8, r24
 30e:	76 2e       	mov	r7, r22
 310:	0e 94 00 00 	call	0	; 0x0 <_ZN6Stream9timedReadEv>
 314:	c8 2f       	mov	r28, r24
 316:	10 e0       	ldi	r17, 0x00	; 0
 318:	00 e0       	ldi	r16, 0x00	; 0
 31a:	80 e8       	ldi	r24, 0x80	; 128
 31c:	b8 2e       	mov	r11, r24
 31e:	9f e3       	ldi	r25, 0x3F	; 63
 320:	a9 2e       	mov	r10, r25
 322:	cc 24       	eor	r12, r12
 324:	dd 24       	eor	r13, r13
 326:	76 01       	movw	r14, r12
 328:	d0 e0       	ldi	r29, 0x00	; 0
 32a:	66 24       	eor	r6, r6
 32c:	c7 15       	cp	r28, r7
 32e:	01 f0       	breq	.+0      	; 0x330 <_ZN6Stream10parseFloatEc+0x40>
 330:	cd 32       	cpi	r28, 0x2D	; 45
 332:	01 f0       	breq	.+0      	; 0x334 <_ZN6Stream10parseFloatEc+0x44>
 334:	ce 32       	cpi	r28, 0x2E	; 46
 336:	01 f0       	breq	.+0      	; 0x338 <_ZN6Stream10parseFloatEc+0x48>
 338:	8c 2f       	mov	r24, r28
 33a:	80 53       	subi	r24, 0x30	; 48
 33c:	8a 30       	cpi	r24, 0x0A	; 10
 33e:	00 f4       	brcc	.+0      	; 0x340 <_ZN6Stream10parseFloatEc+0x50>
 340:	c7 01       	movw	r24, r14
 342:	b6 01       	movw	r22, r12
 344:	2a e0       	ldi	r18, 0x0A	; 10
 346:	30 e0       	ldi	r19, 0x00	; 0
 348:	40 e0       	ldi	r20, 0x00	; 0
 34a:	50 e0       	ldi	r21, 0x00	; 0
 34c:	0e 94 00 00 	call	0	; 0x0 <_ZN6Stream9timedReadEv>
 350:	6b 01       	movw	r12, r22
 352:	7c 01       	movw	r14, r24
 354:	cc 0e       	add	r12, r28
 356:	d1 1c       	adc	r13, r1
 358:	e1 1c       	adc	r14, r1
 35a:	f1 1c       	adc	r15, r1
 35c:	80 ed       	ldi	r24, 0xD0	; 208
 35e:	9f ef       	ldi	r25, 0xFF	; 255
 360:	af ef       	ldi	r26, 0xFF	; 255
 362:	bf ef       	ldi	r27, 0xFF	; 255
 364:	c8 0e       	add	r12, r24
 366:	d9 1e       	adc	r13, r25
 368:	ea 1e       	adc	r14, r26
 36a:	fb 1e       	adc	r15, r27
 36c:	dd 23       	and	r29, r29
 36e:	01 f0       	breq	.+0      	; 0x370 <_ZN6Stream10parseFloatEc+0x80>
 370:	a8 01       	movw	r20, r16
 372:	95 01       	movw	r18, r10
 374:	85 2f       	mov	r24, r21
 376:	90 2f       	mov	r25, r16
 378:	a3 2f       	mov	r26, r19
 37a:	ba 2d       	mov	r27, r10
 37c:	bc 01       	movw	r22, r24
 37e:	cd 01       	movw	r24, r26
 380:	2d ec       	ldi	r18, 0xCD	; 205
 382:	3c ec       	ldi	r19, 0xCC	; 204
 384:	4c ec       	ldi	r20, 0xCC	; 204
 386:	5d e3       	ldi	r21, 0x3D	; 61
 388:	0e 94 00 00 	call	0	; 0x0 <_ZN6Stream9timedReadEv>
 38c:	16 2f       	mov	r17, r22
 38e:	07 2f       	mov	r16, r23
 390:	b8 2e       	mov	r11, r24
 392:	a9 2e       	mov	r10, r25
 394:	00 c0       	rjmp	.+0      	; 0x396 <_ZN6Stream10parseFloatEc+0xa6>
 396:	66 24       	eor	r6, r6
 398:	63 94       	inc	r6
 39a:	00 c0       	rjmp	.+0      	; 0x39c <_ZN6Stream10parseFloatEc+0xac>
 39c:	d1 e0       	ldi	r29, 0x01	; 1
 39e:	d4 01       	movw	r26, r8
 3a0:	ed 91       	ld	r30, X+
 3a2:	fc 91       	ld	r31, X
 3a4:	06 80       	ldd	r0, Z+6	; 0x06
 3a6:	f7 81       	ldd	r31, Z+7	; 0x07
 3a8:	e0 2d       	mov	r30, r0
 3aa:	c4 01       	movw	r24, r8
 3ac:	09 95       	icall
 3ae:	c4 01       	movw	r24, r8
 3b0:	0e 94 00 00 	call	0	; 0x0 <_ZN6Stream9timedReadEv>
 3b4:	c8 2f       	mov	r28, r24
 3b6:	98 2f       	mov	r25, r24
 3b8:	90 53       	subi	r25, 0x30	; 48
 3ba:	9a 30       	cpi	r25, 0x0A	; 10
 3bc:	00 f4       	brcc	.+0      	; 0x3be <_ZN6Stream10parseFloatEc+0xce>
 3be:	00 c0       	rjmp	.+0      	; 0x3c0 <_ZN6Stream10parseFloatEc+0xd0>
 3c0:	8e 32       	cpi	r24, 0x2E	; 46
 3c2:	01 f4       	brne	.+0      	; 0x3c4 <_ZN6Stream10parseFloatEc+0xd4>
 3c4:	00 c0       	rjmp	.+0      	; 0x3c6 <_ZN6Stream10parseFloatEc+0xd6>
 3c6:	87 15       	cp	r24, r7
 3c8:	01 f4       	brne	.+0      	; 0x3ca <_ZN6Stream10parseFloatEc+0xda>
 3ca:	00 c0       	rjmp	.+0      	; 0x3cc <_ZN6Stream10parseFloatEc+0xdc>
 3cc:	66 20       	and	r6, r6
 3ce:	01 f0       	breq	.+0      	; 0x3d0 <_ZN6Stream10parseFloatEc+0xe0>
 3d0:	f0 94       	com	r15
 3d2:	e0 94       	com	r14
 3d4:	d0 94       	com	r13
 3d6:	c0 94       	com	r12
 3d8:	c1 1c       	adc	r12, r1
 3da:	d1 1c       	adc	r13, r1
 3dc:	e1 1c       	adc	r14, r1
 3de:	f1 1c       	adc	r15, r1
 3e0:	c7 01       	movw	r24, r14
 3e2:	b6 01       	movw	r22, r12
 3e4:	dd 23       	and	r29, r29
 3e6:	01 f0       	breq	.+0      	; 0x3e8 <_ZN6Stream10parseFloatEc+0xf8>
 3e8:	0e 94 00 00 	call	0	; 0x0 <_ZN6Stream9timedReadEv>
 3ec:	f8 01       	movw	r30, r16
 3ee:	a5 01       	movw	r20, r10
 3f0:	0f 2f       	mov	r16, r31
 3f2:	1e 2f       	mov	r17, r30
 3f4:	25 2f       	mov	r18, r21
 3f6:	3a 2d       	mov	r19, r10
 3f8:	a9 01       	movw	r20, r18
 3fa:	98 01       	movw	r18, r16
 3fc:	0e 94 00 00 	call	0	; 0x0 <_ZN6Stream9timedReadEv>
 400:	00 c0       	rjmp	.+0      	; 0x402 <_ZN6Stream10parseFloatEc+0x112>
 402:	0e 94 00 00 	call	0	; 0x0 <_ZN6Stream9timedReadEv>
 406:	38 2f       	mov	r19, r24
 408:	29 2f       	mov	r18, r25
 40a:	86 2f       	mov	r24, r22
 40c:	97 2f       	mov	r25, r23
 40e:	a3 2f       	mov	r26, r19
 410:	b2 2f       	mov	r27, r18
 412:	bc 01       	movw	r22, r24
 414:	cd 01       	movw	r24, r26
 416:	df 91       	pop	r29
 418:	cf 91       	pop	r28
 41a:	1f 91       	pop	r17
 41c:	0f 91       	pop	r16
 41e:	ff 90       	pop	r15
 420:	ef 90       	pop	r14
 422:	df 90       	pop	r13
 424:	cf 90       	pop	r12
 426:	bf 90       	pop	r11
 428:	af 90       	pop	r10
 42a:	9f 90       	pop	r9
 42c:	8f 90       	pop	r8
 42e:	7f 90       	pop	r7
 430:	6f 90       	pop	r6
 432:	08 95       	ret

00000434 <_ZN6Stream10parseFloatEv>:
 434:	61 e0       	ldi	r22, 0x01	; 1
 436:	0e 94 00 00 	call	0	; 0x0 <_ZN6Stream9timedReadEv>
 43a:	46 2f       	mov	r20, r22
 43c:	57 2f       	mov	r21, r23
 43e:	68 2f       	mov	r22, r24
 440:	79 2f       	mov	r23, r25
 442:	cb 01       	movw	r24, r22
 444:	ba 01       	movw	r22, r20
 446:	08 95       	ret

00000448 <_ZN6Stream9readBytesEPcj>:
 448:	cf 92       	push	r12
 44a:	df 92       	push	r13
 44c:	ef 92       	push	r14
 44e:	ff 92       	push	r15
 450:	0f 93       	push	r16
 452:	1f 93       	push	r17
 454:	cf 93       	push	r28
 456:	df 93       	push	r29
 458:	6c 01       	movw	r12, r24
 45a:	8b 01       	movw	r16, r22
 45c:	7a 01       	movw	r14, r20
 45e:	c0 e0       	ldi	r28, 0x00	; 0
 460:	d0 e0       	ldi	r29, 0x00	; 0
 462:	00 c0       	rjmp	.+0      	; 0x464 <_ZN6Stream9readBytesEPcj+0x1c>
 464:	c6 01       	movw	r24, r12
 466:	0e 94 00 00 	call	0	; 0x0 <_ZN6Stream9timedReadEv>
 46a:	97 fd       	sbrc	r25, 7
 46c:	00 c0       	rjmp	.+0      	; 0x46e <_ZN6Stream9readBytesEPcj+0x26>
 46e:	f8 01       	movw	r30, r16
 470:	81 93       	st	Z+, r24
 472:	8f 01       	movw	r16, r30
 474:	21 96       	adiw	r28, 0x01	; 1
 476:	ce 15       	cp	r28, r14
 478:	df 05       	cpc	r29, r15
 47a:	01 f4       	brne	.+0      	; 0x47c <_ZN6Stream9readBytesEPcj+0x34>
 47c:	ce 01       	movw	r24, r28
 47e:	df 91       	pop	r29
 480:	cf 91       	pop	r28
 482:	1f 91       	pop	r17
 484:	0f 91       	pop	r16
 486:	ff 90       	pop	r15
 488:	ef 90       	pop	r14
 48a:	df 90       	pop	r13
 48c:	cf 90       	pop	r12
 48e:	08 95       	ret

00000490 <_ZN6Stream14readBytesUntilEcPcj>:
 490:	af 92       	push	r10
 492:	bf 92       	push	r11
 494:	cf 92       	push	r12
 496:	df 92       	push	r13
 498:	ef 92       	push	r14
 49a:	ff 92       	push	r15
 49c:	0f 93       	push	r16
 49e:	1f 93       	push	r17
 4a0:	cf 93       	push	r28
 4a2:	df 93       	push	r29
 4a4:	5c 01       	movw	r10, r24
 4a6:	6a 01       	movw	r12, r20
 4a8:	e9 01       	movw	r28, r18
 4aa:	ee 24       	eor	r14, r14
 4ac:	ff 24       	eor	r15, r15
 4ae:	20 97       	sbiw	r28, 0x00	; 0
 4b0:	01 f0       	breq	.+0      	; 0x4b2 <_ZN6Stream14readBytesUntilEcPcj+0x22>
 4b2:	06 2f       	mov	r16, r22
 4b4:	10 e0       	ldi	r17, 0x00	; 0
 4b6:	c5 01       	movw	r24, r10
 4b8:	0e 94 00 00 	call	0	; 0x0 <_ZN6Stream9timedReadEv>
 4bc:	97 fd       	sbrc	r25, 7
 4be:	00 c0       	rjmp	.+0      	; 0x4c0 <_ZN6Stream14readBytesUntilEcPcj+0x30>
 4c0:	80 17       	cp	r24, r16
 4c2:	91 07       	cpc	r25, r17
 4c4:	01 f0       	breq	.+0      	; 0x4c6 <_ZN6Stream14readBytesUntilEcPcj+0x36>
 4c6:	f6 01       	movw	r30, r12
 4c8:	81 93       	st	Z+, r24
 4ca:	6f 01       	movw	r12, r30
 4cc:	08 94       	sec
 4ce:	e1 1c       	adc	r14, r1
 4d0:	f1 1c       	adc	r15, r1
 4d2:	ec 16       	cp	r14, r28
 4d4:	fd 06       	cpc	r15, r29
 4d6:	01 f4       	brne	.+0      	; 0x4d8 <_ZN6Stream14readBytesUntilEcPcj+0x48>
 4d8:	c7 01       	movw	r24, r14
 4da:	df 91       	pop	r29
 4dc:	cf 91       	pop	r28
 4de:	1f 91       	pop	r17
 4e0:	0f 91       	pop	r16
 4e2:	ff 90       	pop	r15
 4e4:	ef 90       	pop	r14
 4e6:	df 90       	pop	r13
 4e8:	cf 90       	pop	r12
 4ea:	bf 90       	pop	r11
 4ec:	af 90       	pop	r10
 4ee:	08 95       	ret

000004f0 <_ZN6Stream10readStringEv>:
 4f0:	0f 93       	push	r16
 4f2:	1f 93       	push	r17
 4f4:	cf 93       	push	r28
 4f6:	df 93       	push	r29
 4f8:	ec 01       	movw	r28, r24
 4fa:	8b 01       	movw	r16, r22
 4fc:	60 e0       	ldi	r22, 0x00	; 0
 4fe:	70 e0       	ldi	r23, 0x00	; 0
 500:	0e 94 00 00 	call	0	; 0x0 <_ZN6Stream9timedReadEv>
 504:	00 c0       	rjmp	.+0      	; 0x506 <_ZN6Stream10readStringEv+0x16>
 506:	0e 94 00 00 	call	0	; 0x0 <_ZN6Stream9timedReadEv>
 50a:	c8 01       	movw	r24, r16
 50c:	0e 94 00 00 	call	0	; 0x0 <_ZN6Stream9timedReadEv>
 510:	bc 01       	movw	r22, r24
 512:	ce 01       	movw	r24, r28
 514:	77 ff       	sbrs	r23, 7
 516:	00 c0       	rjmp	.+0      	; 0x518 <_ZN6Stream10readStringEv+0x28>
 518:	df 91       	pop	r29
 51a:	cf 91       	pop	r28
 51c:	1f 91       	pop	r17
 51e:	0f 91       	pop	r16
 520:	08 95       	ret

00000522 <_ZN6Stream15readStringUntilEc>:
 522:	ef 92       	push	r14
 524:	ff 92       	push	r15
 526:	0f 93       	push	r16
 528:	1f 93       	push	r17
 52a:	cf 93       	push	r28
 52c:	df 93       	push	r29
 52e:	ec 01       	movw	r28, r24
 530:	8b 01       	movw	r16, r22
 532:	e4 2e       	mov	r14, r20
 534:	60 e0       	ldi	r22, 0x00	; 0
 536:	70 e0       	ldi	r23, 0x00	; 0
 538:	0e 94 00 00 	call	0	; 0x0 <_ZN6Stream9timedReadEv>
 53c:	c8 01       	movw	r24, r16
 53e:	0e 94 00 00 	call	0	; 0x0 <_ZN6Stream9timedReadEv>
 542:	bc 01       	movw	r22, r24
 544:	ff 24       	eor	r15, r15
 546:	ce 01       	movw	r24, r28
 548:	77 fd       	sbrc	r23, 7
 54a:	00 c0       	rjmp	.+0      	; 0x54c <_ZN6Stream15readStringUntilEc+0x2a>
 54c:	6e 15       	cp	r22, r14
 54e:	7f 05       	cpc	r23, r15
 550:	01 f0       	breq	.+0      	; 0x552 <_ZN6Stream15readStringUntilEc+0x30>
 552:	0e 94 00 00 	call	0	; 0x0 <_ZN6Stream9timedReadEv>
 556:	c8 01       	movw	r24, r16
 558:	0e 94 00 00 	call	0	; 0x0 <_ZN6Stream9timedReadEv>
 55c:	bc 01       	movw	r22, r24
 55e:	00 c0       	rjmp	.+0      	; 0x560 <_ZN6Stream15readStringUntilEc+0x3e>
 560:	df 91       	pop	r29
 562:	cf 91       	pop	r28
 564:	1f 91       	pop	r17
 566:	0f 91       	pop	r16
 568:	ff 90       	pop	r15
 56a:	ef 90       	pop	r14
 56c:	08 95       	ret

Tone.o:     file format elf32-avr

Sections:
Idx Name          Size      VMA       LMA       File off  Algn
  0 .text         0000053e  00000000  00000000  00000034  2**0
                  CONTENTS, ALLOC, LOAD, RELOC, READONLY, CODE
  1 .data         00000001  00000000  00000000  00000572  2**0
                  CONTENTS, ALLOC, LOAD, DATA
  2 .bss          00000015  00000000  00000000  00000573  2**0
                  ALLOC
  3 .progmem.data 00000001  00000000  00000000  00000573  2**0
                  CONTENTS, ALLOC, LOAD, READONLY, DATA

Disassembly of section .text:

00000000 <_Z4tonehjm>:
   0:	3f 92       	push	r3
   2:	4f 92       	push	r4
   4:	5f 92       	push	r5
   6:	6f 92       	push	r6
   8:	7f 92       	push	r7
   a:	8f 92       	push	r8
   c:	9f 92       	push	r9
   e:	af 92       	push	r10
  10:	bf 92       	push	r11
  12:	cf 92       	push	r12
  14:	df 92       	push	r13
  16:	ef 92       	push	r14
  18:	ff 92       	push	r15
  1a:	0f 93       	push	r16
  1c:	1f 93       	push	r17
  1e:	cf 93       	push	r28
  20:	df 93       	push	r29
  22:	00 d0       	rcall	.+0      	; 0x24 <_Z4tonehjm+0x24>
  24:	00 d0       	rcall	.+0      	; 0x26 <_Z4tonehjm+0x26>
  26:	cd b7       	in	r28, 0x3d	; 61
  28:	de b7       	in	r29, 0x3e	; 62
  2a:	a8 2f       	mov	r26, r24
  2c:	8b 01       	movw	r16, r22
  2e:	29 83       	std	Y+1, r18	; 0x01
  30:	3a 83       	std	Y+2, r19	; 0x02
  32:	4b 83       	std	Y+3, r20	; 0x03
  34:	5c 83       	std	Y+4, r21	; 0x04
  36:	80 91 00 00 	lds	r24, 0x0000
  3a:	8a 17       	cp	r24, r26
  3c:	01 f0       	breq	.+0      	; 0x3e <_Z4tonehjm+0x3e>
  3e:	8f 3f       	cpi	r24, 0xFF	; 255
  40:	01 f0       	breq	.+0      	; 0x42 <_Z4tonehjm+0x42>
  42:	00 c0       	rjmp	.+0      	; 0x44 <_Z4tonehjm+0x44>
  44:	00 c0       	rjmp	.+0      	; 0x46 <_Z4tonehjm+0x46>
  46:	e0 e0       	ldi	r30, 0x00	; 0
  48:	f0 e0       	ldi	r31, 0x00	; 0
  4a:	34 90       	lpm	r3, Z
  4c:	00 c0       	rjmp	.+0      	; 0x4e <_Z4tonehjm+0x4e>
  4e:	a0 93 00 00 	sts	0x0000, r26
  52:	e0 e0       	ldi	r30, 0x00	; 0
  54:	f0 e0       	ldi	r31, 0x00	; 0
  56:	34 90       	lpm	r3, Z
  58:	8f ef       	ldi	r24, 0xFF	; 255
  5a:	38 16       	cp	r3, r24
  5c:	01 f4       	brne	.+0      	; 0x5e <_Z4tonehjm+0x5e>
  5e:	00 c0       	rjmp	.+0      	; 0x60 <_Z4tonehjm+0x60>
  60:	91 e0       	ldi	r25, 0x01	; 1
  62:	39 16       	cp	r3, r25
  64:	01 f0       	breq	.+0      	; 0x66 <_Z4tonehjm+0x66>
  66:	b2 e0       	ldi	r27, 0x02	; 2
  68:	3b 16       	cp	r3, r27
  6a:	01 f4       	brne	.+0      	; 0x6c <_Z4tonehjm+0x6c>
  6c:	00 c0       	rjmp	.+0      	; 0x6e <_Z4tonehjm+0x6e>
  6e:	33 20       	and	r3, r3
  70:	01 f0       	breq	.+0      	; 0x72 <_Z4tonehjm+0x72>
  72:	00 c0       	rjmp	.+0      	; 0x74 <_Z4tonehjm+0x74>
  74:	14 bc       	out	0x24, r1	; 36
  76:	15 bc       	out	0x25, r1	; 37
  78:	84 b5       	in	r24, 0x24	; 36
  7a:	82 60       	ori	r24, 0x02	; 2
  7c:	84 bd       	out	0x24, r24	; 36
  7e:	85 b5       	in	r24, 0x25	; 37
  80:	81 60       	ori	r24, 0x01	; 1
  82:	85 bd       	out	0x25, r24	; 37
  84:	2a 2f       	mov	r18, r26
  86:	30 e0       	ldi	r19, 0x00	; 0
  88:	f9 01       	movw	r30, r18
  8a:	e0 50       	subi	r30, 0x00	; 0
  8c:	f0 40       	sbci	r31, 0x00	; 0
  8e:	e4 91       	lpm	r30, Z
  90:	f0 e0       	ldi	r31, 0x00	; 0
  92:	ee 0f       	add	r30, r30
  94:	ff 1f       	adc	r31, r31
  96:	e0 50       	subi	r30, 0x00	; 0
  98:	f0 40       	sbci	r31, 0x00	; 0
  9a:	85 91       	lpm	r24, Z+
  9c:	94 91       	lpm	r25, Z
  9e:	80 93 00 00 	sts	0x0000, r24
  a2:	90 93 00 00 	sts	0x0000, r25
  a6:	20 50       	subi	r18, 0x00	; 0
  a8:	30 40       	sbci	r19, 0x00	; 0
  aa:	f9 01       	movw	r30, r18
  ac:	24 91       	lpm	r18, Z
  ae:	20 93 00 00 	sts	0x0000, r18
  b2:	00 c0       	rjmp	.+0      	; 0xb4 <_Z4tonehjm+0xb4>
  b4:	10 92 80 00 	sts	0x0080, r1
  b8:	10 92 81 00 	sts	0x0081, r1
  bc:	80 91 81 00 	lds	r24, 0x0081
  c0:	88 60       	ori	r24, 0x08	; 8
  c2:	80 93 81 00 	sts	0x0081, r24
  c6:	80 91 81 00 	lds	r24, 0x0081
  ca:	81 60       	ori	r24, 0x01	; 1
  cc:	80 93 81 00 	sts	0x0081, r24
  d0:	2a 2f       	mov	r18, r26
  d2:	30 e0       	ldi	r19, 0x00	; 0
  d4:	f9 01       	movw	r30, r18
  d6:	e0 50       	subi	r30, 0x00	; 0
  d8:	f0 40       	sbci	r31, 0x00	; 0
  da:	e4 91       	lpm	r30, Z
  dc:	f0 e0       	ldi	r31, 0x00	; 0
  de:	ee 0f       	add	r30, r30
  e0:	ff 1f       	adc	r31, r31
  e2:	e0 50       	subi	r30, 0x00	; 0
  e4:	f0 40       	sbci	r31, 0x00	; 0
  e6:	85 91       	lpm	r24, Z+
  e8:	94 91       	lpm	r25, Z
  ea:	80 93 00 00 	sts	0x0000, r24
  ee:	90 93 00 00 	sts	0x0000, r25
  f2:	20 50       	subi	r18, 0x00	; 0
  f4:	30 40       	sbci	r19, 0x00	; 0
  f6:	f9 01       	movw	r30, r18
  f8:	24 91       	lpm	r18, Z
  fa:	20 93 00 00 	sts	0x0000, r18
  fe:	00 c0       	rjmp	.+0      	; 0x100 <_Z4tonehjm+0x100>
 100:	10 92 b0 00 	sts	0x00B0, r1
 104:	10 92 b1 00 	sts	0x00B1, r1
 108:	80 91 b0 00 	lds	r24, 0x00B0
 10c:	82 60       	ori	r24, 0x02	; 2
 10e:	80 93 b0 00 	sts	0x00B0, r24
 112:	80 91 b1 00 	lds	r24, 0x00B1
 116:	81 60       	ori	r24, 0x01	; 1
 118:	80 93 b1 00 	sts	0x00B1, r24
 11c:	2a 2f       	mov	r18, r26
 11e:	30 e0       	ldi	r19, 0x00	; 0
 120:	f9 01       	movw	r30, r18
 122:	e0 50       	subi	r30, 0x00	; 0
 124:	f0 40       	sbci	r31, 0x00	; 0
 126:	e4 91       	lpm	r30, Z
 128:	f0 e0       	ldi	r31, 0x00	; 0
 12a:	ee 0f       	add	r30, r30
 12c:	ff 1f       	adc	r31, r31
 12e:	e0 50       	subi	r30, 0x00	; 0
 130:	f0 40       	sbci	r31, 0x00	; 0
 132:	85 91       	lpm	r24, Z+
 134:	94 91       	lpm	r25, Z
 136:	80 93 00 00 	sts	0x0000, r24
 13a:	90 93 00 00 	sts	0x0000, r25
 13e:	20 50       	subi	r18, 0x00	; 0
 140:	30 40       	sbci	r19, 0x00	; 0
 142:	f9 01       	movw	r30, r18
 144:	24 91       	lpm	r18, Z
 146:	20 93 00 00 	sts	0x0000, r18
 14a:	00 c0       	rjmp	.+0      	; 0x14c <_Z4tonehjm+0x14c>
 14c:	37 fc       	sbrc	r3, 7
 14e:	00 c0       	rjmp	.+0      	; 0x150 <_Z4tonehjm+0x150>
 150:	8a 2f       	mov	r24, r26
 152:	61 e0       	ldi	r22, 0x01	; 1
 154:	0e 94 00 00 	call	0	; 0x0 <_Z4tonehjm>
 158:	48 01       	movw	r8, r16
 15a:	aa 24       	eor	r10, r10
 15c:	bb 24       	eor	r11, r11
 15e:	60 e0       	ldi	r22, 0x00	; 0
 160:	72 e1       	ldi	r23, 0x12	; 18
 162:	8a e7       	ldi	r24, 0x7A	; 122
 164:	90 e0       	ldi	r25, 0x00	; 0
 166:	a5 01       	movw	r20, r10
 168:	94 01       	movw	r18, r8
 16a:	0e 94 00 00 	call	0	; 0x0 <_Z4tonehjm>
 16e:	33 20       	and	r3, r3
 170:	01 f0       	breq	.+0      	; 0x172 <_Z4tonehjm+0x172>
 172:	f2 e0       	ldi	r31, 0x02	; 2
 174:	3f 16       	cp	r3, r31
 176:	01 f0       	breq	.+0      	; 0x178 <_Z4tonehjm+0x178>
 178:	00 c0       	rjmp	.+0      	; 0x17a <_Z4tonehjm+0x17a>
 17a:	29 01       	movw	r4, r18
 17c:	3a 01       	movw	r6, r20
 17e:	69 01       	movw	r12, r18
 180:	7a 01       	movw	r14, r20
 182:	08 94       	sec
 184:	c1 08       	sbc	r12, r1
 186:	d1 08       	sbc	r13, r1
 188:	e1 08       	sbc	r14, r1
 18a:	f1 08       	sbc	r15, r1
 18c:	8f ef       	ldi	r24, 0xFF	; 255
 18e:	c8 16       	cp	r12, r24
 190:	d1 04       	cpc	r13, r1
 192:	e1 04       	cpc	r14, r1
 194:	f1 04       	cpc	r15, r1
 196:	01 f0       	breq	.+0      	; 0x198 <_Z4tonehjm+0x198>
 198:	00 f4       	brcc	.+0      	; 0x19a <_Z4tonehjm+0x19a>
 19a:	00 c0       	rjmp	.+0      	; 0x19c <_Z4tonehjm+0x19c>
 19c:	60 e4       	ldi	r22, 0x40	; 64
 19e:	72 e4       	ldi	r23, 0x42	; 66
 1a0:	8f e0       	ldi	r24, 0x0F	; 15
 1a2:	90 e0       	ldi	r25, 0x00	; 0
 1a4:	a5 01       	movw	r20, r10
 1a6:	94 01       	movw	r18, r8
 1a8:	0e 94 00 00 	call	0	; 0x0 <_Z4tonehjm>
 1ac:	69 01       	movw	r12, r18
 1ae:	7a 01       	movw	r14, r20
 1b0:	08 94       	sec
 1b2:	c1 08       	sbc	r12, r1
 1b4:	d1 08       	sbc	r13, r1
 1b6:	e1 08       	sbc	r14, r1
 1b8:	f1 08       	sbc	r15, r1
 1ba:	92 e0       	ldi	r25, 0x02	; 2
 1bc:	39 16       	cp	r3, r25
 1be:	01 f4       	brne	.+0      	; 0x1c0 <_Z4tonehjm+0x1c0>
 1c0:	af ef       	ldi	r26, 0xFF	; 255
 1c2:	ca 16       	cp	r12, r26
 1c4:	d1 04       	cpc	r13, r1
 1c6:	e1 04       	cpc	r14, r1
 1c8:	f1 04       	cpc	r15, r1
 1ca:	01 f0       	breq	.+0      	; 0x1cc <_Z4tonehjm+0x1cc>
 1cc:	00 f4       	brcc	.+0      	; 0x1ce <_Z4tonehjm+0x1ce>
 1ce:	00 c0       	rjmp	.+0      	; 0x1d0 <_Z4tonehjm+0x1d0>
 1d0:	60 e9       	ldi	r22, 0x90	; 144
 1d2:	70 ed       	ldi	r23, 0xD0	; 208
 1d4:	83 e0       	ldi	r24, 0x03	; 3
 1d6:	90 e0       	ldi	r25, 0x00	; 0
 1d8:	a5 01       	movw	r20, r10
 1da:	94 01       	movw	r18, r8
 1dc:	0e 94 00 00 	call	0	; 0x0 <_Z4tonehjm>
 1e0:	69 01       	movw	r12, r18
 1e2:	7a 01       	movw	r14, r20
 1e4:	08 94       	sec
 1e6:	c1 08       	sbc	r12, r1
 1e8:	d1 08       	sbc	r13, r1
 1ea:	e1 08       	sbc	r14, r1
 1ec:	f1 08       	sbc	r15, r1
 1ee:	83 e0       	ldi	r24, 0x03	; 3
 1f0:	00 c0       	rjmp	.+0      	; 0x1f2 <_Z4tonehjm+0x1f2>
 1f2:	82 e0       	ldi	r24, 0x02	; 2
 1f4:	bf ef       	ldi	r27, 0xFF	; 255
 1f6:	cb 16       	cp	r12, r27
 1f8:	d1 04       	cpc	r13, r1
 1fa:	e1 04       	cpc	r14, r1
 1fc:	f1 04       	cpc	r15, r1
 1fe:	01 f0       	breq	.+0      	; 0x200 <_Z4tonehjm+0x200>
 200:	00 f4       	brcc	.+0      	; 0x202 <_Z4tonehjm+0x202>
 202:	00 c0       	rjmp	.+0      	; 0x204 <_Z4tonehjm+0x204>
 204:	68 e4       	ldi	r22, 0x48	; 72
 206:	78 ee       	ldi	r23, 0xE8	; 232
 208:	81 e0       	ldi	r24, 0x01	; 1
 20a:	90 e0       	ldi	r25, 0x00	; 0
 20c:	a5 01       	movw	r20, r10
 20e:	94 01       	movw	r18, r8
 210:	0e 94 00 00 	call	0	; 0x0 <_Z4tonehjm>
 214:	69 01       	movw	r12, r18
 216:	7a 01       	movw	r14, r20
 218:	08 94       	sec
 21a:	c1 08       	sbc	r12, r1
 21c:	d1 08       	sbc	r13, r1
 21e:	e1 08       	sbc	r14, r1
 220:	f1 08       	sbc	r15, r1
 222:	33 20       	and	r3, r3
 224:	01 f0       	breq	.+0      	; 0x226 <_Z4tonehjm+0x226>
 226:	e2 e0       	ldi	r30, 0x02	; 2
 228:	3e 16       	cp	r3, r30
 22a:	01 f4       	brne	.+0      	; 0x22c <_Z4tonehjm+0x22c>
 22c:	ff ef       	ldi	r31, 0xFF	; 255
 22e:	cf 16       	cp	r12, r31
 230:	d1 04       	cpc	r13, r1
 232:	e1 04       	cpc	r14, r1
 234:	f1 04       	cpc	r15, r1
 236:	01 f0       	breq	.+0      	; 0x238 <_Z4tonehjm+0x238>
 238:	00 f4       	brcc	.+0      	; 0x23a <_Z4tonehjm+0x23a>
 23a:	00 c0       	rjmp	.+0      	; 0x23c <_Z4tonehjm+0x23c>
 23c:	64 e2       	ldi	r22, 0x24	; 36
 23e:	74 ef       	ldi	r23, 0xF4	; 244
 240:	80 e0       	ldi	r24, 0x00	; 0
 242:	90 e0       	ldi	r25, 0x00	; 0
 244:	a5 01       	movw	r20, r10
 246:	94 01       	movw	r18, r8
 248:	0e 94 00 00 	call	0	; 0x0 <_Z4tonehjm>
 24c:	69 01       	movw	r12, r18
 24e:	7a 01       	movw	r14, r20
 250:	08 94       	sec
 252:	c1 08       	sbc	r12, r1
 254:	d1 08       	sbc	r13, r1
 256:	e1 08       	sbc	r14, r1
 258:	f1 08       	sbc	r15, r1
 25a:	85 e0       	ldi	r24, 0x05	; 5
 25c:	00 c0       	rjmp	.+0      	; 0x25e <_Z4tonehjm+0x25e>
 25e:	83 e0       	ldi	r24, 0x03	; 3
 260:	00 c0       	rjmp	.+0      	; 0x262 <_Z4tonehjm+0x262>
 262:	84 e0       	ldi	r24, 0x04	; 4
 264:	9f ef       	ldi	r25, 0xFF	; 255
 266:	c9 16       	cp	r12, r25
 268:	d1 04       	cpc	r13, r1
 26a:	e1 04       	cpc	r14, r1
 26c:	f1 04       	cpc	r15, r1
 26e:	01 f0       	breq	.+0      	; 0x270 <_Z4tonehjm+0x270>
 270:	00 f0       	brcs	.+0      	; 0x272 <_Z4tonehjm+0x272>
 272:	62 e1       	ldi	r22, 0x12	; 18
 274:	7a e7       	ldi	r23, 0x7A	; 122
 276:	80 e0       	ldi	r24, 0x00	; 0
 278:	90 e0       	ldi	r25, 0x00	; 0
 27a:	a5 01       	movw	r20, r10
 27c:	94 01       	movw	r18, r8
 27e:	0e 94 00 00 	call	0	; 0x0 <_Z4tonehjm>
 282:	69 01       	movw	r12, r18
 284:	7a 01       	movw	r14, r20
 286:	08 94       	sec
 288:	c1 08       	sbc	r12, r1
 28a:	d1 08       	sbc	r13, r1
 28c:	e1 08       	sbc	r14, r1
 28e:	f1 08       	sbc	r15, r1
 290:	33 20       	and	r3, r3
 292:	01 f4       	brne	.+0      	; 0x294 <_Z4tonehjm+0x294>
 294:	84 e0       	ldi	r24, 0x04	; 4
 296:	00 c0       	rjmp	.+0      	; 0x298 <_Z4tonehjm+0x298>
 298:	86 e0       	ldi	r24, 0x06	; 6
 29a:	af ef       	ldi	r26, 0xFF	; 255
 29c:	ca 16       	cp	r12, r26
 29e:	d1 04       	cpc	r13, r1
 2a0:	e1 04       	cpc	r14, r1
 2a2:	f1 04       	cpc	r15, r1
 2a4:	01 f0       	breq	.+0      	; 0x2a6 <_Z4tonehjm+0x2a6>
 2a6:	00 f0       	brcs	.+0      	; 0x2a8 <_Z4tonehjm+0x2a8>
 2a8:	73 01       	movw	r14, r6
 2aa:	62 01       	movw	r12, r4
 2ac:	9a e0       	ldi	r25, 0x0A	; 10
 2ae:	f6 94       	lsr	r15
 2b0:	e7 94       	ror	r14
 2b2:	d7 94       	ror	r13
 2b4:	c7 94       	ror	r12
 2b6:	9a 95       	dec	r25
 2b8:	01 f4       	brne	.+0      	; 0x2ba <_Z4tonehjm+0x2ba>
 2ba:	08 94       	sec
 2bc:	c1 08       	sbc	r12, r1
 2be:	d1 08       	sbc	r13, r1
 2c0:	e1 08       	sbc	r14, r1
 2c2:	f1 08       	sbc	r15, r1
 2c4:	33 20       	and	r3, r3
 2c6:	01 f0       	breq	.+0      	; 0x2c8 <_Z4tonehjm+0x2c8>
 2c8:	87 e0       	ldi	r24, 0x07	; 7
 2ca:	00 c0       	rjmp	.+0      	; 0x2cc <_Z4tonehjm+0x2cc>
 2cc:	81 e0       	ldi	r24, 0x01	; 1
 2ce:	33 20       	and	r3, r3
 2d0:	01 f0       	breq	.+0      	; 0x2d2 <_Z4tonehjm+0x2d2>
 2d2:	00 c0       	rjmp	.+0      	; 0x2d4 <_Z4tonehjm+0x2d4>
 2d4:	85 e0       	ldi	r24, 0x05	; 5
 2d6:	85 bd       	out	0x25, r24	; 37
 2d8:	00 c0       	rjmp	.+0      	; 0x2da <_Z4tonehjm+0x2da>
 2da:	82 e0       	ldi	r24, 0x02	; 2
 2dc:	00 c0       	rjmp	.+0      	; 0x2de <_Z4tonehjm+0x2de>
 2de:	84 e0       	ldi	r24, 0x04	; 4
 2e0:	80 93 b1 00 	sts	0x00B1, r24
 2e4:	00 c0       	rjmp	.+0      	; 0x2e6 <_Z4tonehjm+0x2e6>
 2e6:	69 01       	movw	r12, r18
 2e8:	7a 01       	movw	r14, r20
 2ea:	08 94       	sec
 2ec:	c1 08       	sbc	r12, r1
 2ee:	d1 08       	sbc	r13, r1
 2f0:	e1 08       	sbc	r14, r1
 2f2:	f1 08       	sbc	r15, r1
 2f4:	b0 e0       	ldi	r27, 0x00	; 0
 2f6:	cb 16       	cp	r12, r27
 2f8:	b0 e0       	ldi	r27, 0x00	; 0
 2fa:	db 06       	cpc	r13, r27
 2fc:	b1 e0       	ldi	r27, 0x01	; 1
 2fe:	eb 06       	cpc	r14, r27
 300:	b0 e0       	ldi	r27, 0x00	; 0
 302:	fb 06       	cpc	r15, r27
 304:	00 f0       	brcs	.+0      	; 0x306 <_Z4tonehjm+0x306>
 306:	68 e4       	ldi	r22, 0x48	; 72
 308:	78 ee       	ldi	r23, 0xE8	; 232
 30a:	81 e0       	ldi	r24, 0x01	; 1
 30c:	90 e0       	ldi	r25, 0x00	; 0
 30e:	a5 01       	movw	r20, r10
 310:	94 01       	movw	r18, r8
 312:	0e 94 00 00 	call	0	; 0x0 <_Z4tonehjm>
 316:	69 01       	movw	r12, r18
 318:	7a 01       	movw	r14, r20
 31a:	08 94       	sec
 31c:	c1 08       	sbc	r12, r1
 31e:	d1 08       	sbc	r13, r1
 320:	e1 08       	sbc	r14, r1
 322:	f1 08       	sbc	r15, r1
 324:	93 e0       	ldi	r25, 0x03	; 3
 326:	00 c0       	rjmp	.+0      	; 0x328 <_Z4tonehjm+0x328>
 328:	91 e0       	ldi	r25, 0x01	; 1
 32a:	e1 e0       	ldi	r30, 0x01	; 1
 32c:	3e 16       	cp	r3, r30
 32e:	01 f4       	brne	.+0      	; 0x330 <_Z4tonehjm+0x330>
 330:	80 91 81 00 	lds	r24, 0x0081
 334:	88 7f       	andi	r24, 0xF8	; 248
 336:	89 2b       	or	r24, r25
 338:	80 93 81 00 	sts	0x0081, r24
 33c:	89 81       	ldd	r24, Y+1	; 0x01
 33e:	9a 81       	ldd	r25, Y+2	; 0x02
 340:	ab 81       	ldd	r26, Y+3	; 0x03
 342:	bc 81       	ldd	r27, Y+4	; 0x04
 344:	00 97       	sbiw	r24, 0x00	; 0
 346:	a1 05       	cpc	r26, r1
 348:	b1 05       	cpc	r27, r1
 34a:	01 f0       	breq	.+0      	; 0x34c <_Z4tonehjm+0x34c>
 34c:	b8 01       	movw	r22, r16
 34e:	66 0f       	add	r22, r22
 350:	77 1f       	adc	r23, r23
 352:	80 e0       	ldi	r24, 0x00	; 0
 354:	90 e0       	ldi	r25, 0x00	; 0
 356:	29 81       	ldd	r18, Y+1	; 0x01
 358:	3a 81       	ldd	r19, Y+2	; 0x02
 35a:	4b 81       	ldd	r20, Y+3	; 0x03
 35c:	5c 81       	ldd	r21, Y+4	; 0x04
 35e:	0e 94 00 00 	call	0	; 0x0 <_Z4tonehjm>
 362:	28 ee       	ldi	r18, 0xE8	; 232
 364:	33 e0       	ldi	r19, 0x03	; 3
 366:	40 e0       	ldi	r20, 0x00	; 0
 368:	50 e0       	ldi	r21, 0x00	; 0
 36a:	0e 94 00 00 	call	0	; 0x0 <_Z4tonehjm>
 36e:	89 01       	movw	r16, r18
 370:	9a 01       	movw	r18, r20
 372:	00 c0       	rjmp	.+0      	; 0x374 <_Z4tonehjm+0x374>
 374:	0f ef       	ldi	r16, 0xFF	; 255
 376:	1f ef       	ldi	r17, 0xFF	; 255
 378:	2f ef       	ldi	r18, 0xFF	; 255
 37a:	3f ef       	ldi	r19, 0xFF	; 255
 37c:	91 e0       	ldi	r25, 0x01	; 1
 37e:	39 16       	cp	r3, r25
 380:	01 f0       	breq	.+0      	; 0x382 <_Z4tonehjm+0x382>
 382:	a2 e0       	ldi	r26, 0x02	; 2
 384:	3a 16       	cp	r3, r26
 386:	01 f0       	breq	.+0      	; 0x388 <_Z4tonehjm+0x388>
 388:	33 20       	and	r3, r3
 38a:	01 f4       	brne	.+0      	; 0x38c <_Z4tonehjm+0x38c>
 38c:	c7 bc       	out	0x27, r12	; 39
 38e:	00 93 00 00 	sts	0x0000, r16
 392:	10 93 00 00 	sts	0x0000, r17
 396:	20 93 00 00 	sts	0x0000, r18
 39a:	30 93 00 00 	sts	0x0000, r19
 39e:	80 91 6e 00 	lds	r24, 0x006E
 3a2:	82 60       	ori	r24, 0x02	; 2
 3a4:	80 93 6e 00 	sts	0x006E, r24
 3a8:	00 c0       	rjmp	.+0      	; 0x3aa <_Z4tonehjm+0x3aa>
 3aa:	d0 92 89 00 	sts	0x0089, r13
 3ae:	c0 92 88 00 	sts	0x0088, r12
 3b2:	00 93 00 00 	sts	0x0000, r16
 3b6:	10 93 00 00 	sts	0x0000, r17
 3ba:	20 93 00 00 	sts	0x0000, r18
 3be:	30 93 00 00 	sts	0x0000, r19
 3c2:	80 91 6f 00 	lds	r24, 0x006F
 3c6:	82 60       	ori	r24, 0x02	; 2
 3c8:	80 93 6f 00 	sts	0x006F, r24
 3cc:	00 c0       	rjmp	.+0      	; 0x3ce <_Z4tonehjm+0x3ce>
 3ce:	c0 92 b3 00 	sts	0x00B3, r12
 3d2:	00 93 00 00 	sts	0x0000, r16
 3d6:	10 93 00 00 	sts	0x0000, r17
 3da:	20 93 00 00 	sts	0x0000, r18
 3de:	30 93 00 00 	sts	0x0000, r19
 3e2:	80 91 70 00 	lds	r24, 0x0070
 3e6:	82 60       	ori	r24, 0x02	; 2
 3e8:	80 93 70 00 	sts	0x0070, r24
 3ec:	0f 90       	pop	r0
 3ee:	0f 90       	pop	r0
 3f0:	0f 90       	pop	r0
 3f2:	0f 90       	pop	r0
 3f4:	df 91       	pop	r29
 3f6:	cf 91       	pop	r28
 3f8:	1f 91       	pop	r17
 3fa:	0f 91       	pop	r16
 3fc:	ff 90       	pop	r15
 3fe:	ef 90       	pop	r14
 400:	df 90       	pop	r13
 402:	cf 90       	pop	r12
 404:	bf 90       	pop	r11
 406:	af 90       	pop	r10
 408:	9f 90       	pop	r9
 40a:	8f 90       	pop	r8
 40c:	7f 90       	pop	r7
 40e:	6f 90       	pop	r6
 410:	5f 90       	pop	r5
 412:	4f 90       	pop	r4
 414:	3f 90       	pop	r3
 416:	08 95       	ret

00000418 <_Z12disableTimerh>:
 418:	81 30       	cpi	r24, 0x01	; 1
 41a:	01 f0       	breq	.+0      	; 0x41c <_Z12disableTimerh+0x4>
 41c:	81 30       	cpi	r24, 0x01	; 1
 41e:	00 f0       	brcs	.+0      	; 0x420 <_Z12disableTimerh+0x8>
 420:	82 30       	cpi	r24, 0x02	; 2
 422:	01 f4       	brne	.+0      	; 0x424 <_Z12disableTimerh+0xc>
 424:	00 c0       	rjmp	.+0      	; 0x426 <_Z12disableTimerh+0xe>
 426:	10 92 6e 00 	sts	0x006E, r1
 42a:	08 95       	ret
 42c:	80 91 6f 00 	lds	r24, 0x006F
 430:	8d 7f       	andi	r24, 0xFD	; 253
 432:	80 93 6f 00 	sts	0x006F, r24
 436:	08 95       	ret
 438:	80 91 70 00 	lds	r24, 0x0070
 43c:	8d 7f       	andi	r24, 0xFD	; 253
 43e:	80 93 70 00 	sts	0x0070, r24
 442:	81 e0       	ldi	r24, 0x01	; 1
 444:	80 93 b0 00 	sts	0x00B0, r24
 448:	80 91 b1 00 	lds	r24, 0x00B1
 44c:	88 7f       	andi	r24, 0xF8	; 248
 44e:	84 60       	ori	r24, 0x04	; 4
 450:	80 93 b1 00 	sts	0x00B1, r24
 454:	10 92 b3 00 	sts	0x00B3, r1
 458:	08 95       	ret

0000045a <_Z6noToneh>:
 45a:	cf 93       	push	r28
 45c:	c8 2f       	mov	r28, r24
 45e:	80 91 00 00 	lds	r24, 0x0000
 462:	8c 17       	cp	r24, r28
 464:	01 f4       	brne	.+0      	; 0x466 <_Z6noToneh+0xc>
 466:	e0 e0       	ldi	r30, 0x00	; 0
 468:	f0 e0       	ldi	r31, 0x00	; 0
 46a:	84 91       	lpm	r24, Z
 46c:	9f ef       	ldi	r25, 0xFF	; 255
 46e:	90 93 00 00 	sts	0x0000, r25
 472:	00 c0       	rjmp	.+0      	; 0x474 <_Z6noToneh+0x1a>
 474:	8f ef       	ldi	r24, 0xFF	; 255
 476:	0e 94 00 00 	call	0	; 0x0 <_Z4tonehjm>
 47a:	8c 2f       	mov	r24, r28
 47c:	60 e0       	ldi	r22, 0x00	; 0
 47e:	0e 94 00 00 	call	0	; 0x0 <_Z4tonehjm>
 482:	cf 91       	pop	r28
 484:	08 95       	ret

00000486 <__vector_7>:
 486:	1f 92       	push	r1
 488:	0f 92       	push	r0
 48a:	0f b6       	in	r0, 0x3f	; 63
 48c:	0f 92       	push	r0
 48e:	11 24       	eor	r1, r1
 490:	2f 93       	push	r18
 492:	3f 93       	push	r19
 494:	4f 93       	push	r20
 496:	5f 93       	push	r21
 498:	6f 93       	push	r22
 49a:	7f 93       	push	r23
 49c:	8f 93       	push	r24
 49e:	9f 93       	push	r25
 4a0:	af 93       	push	r26
 4a2:	bf 93       	push	r27
 4a4:	ef 93       	push	r30
 4a6:	ff 93       	push	r31
 4a8:	80 91 00 00 	lds	r24, 0x0000
 4ac:	90 91 00 00 	lds	r25, 0x0000
 4b0:	a0 91 00 00 	lds	r26, 0x0000
 4b4:	b0 91 00 00 	lds	r27, 0x0000
 4b8:	00 97       	sbiw	r24, 0x00	; 0
 4ba:	a1 05       	cpc	r26, r1
 4bc:	b1 05       	cpc	r27, r1
 4be:	01 f0       	breq	.+0      	; 0x4c0 <__vector_7+0x3a>
 4c0:	e0 91 00 00 	lds	r30, 0x0000
 4c4:	f0 91 00 00 	lds	r31, 0x0000
 4c8:	80 81       	ld	r24, Z
 4ca:	90 91 00 00 	lds	r25, 0x0000
 4ce:	89 27       	eor	r24, r25
 4d0:	80 83       	st	Z, r24
 4d2:	80 91 00 00 	lds	r24, 0x0000
 4d6:	90 91 00 00 	lds	r25, 0x0000
 4da:	a0 91 00 00 	lds	r26, 0x0000
 4de:	b0 91 00 00 	lds	r27, 0x0000
 4e2:	18 16       	cp	r1, r24
 4e4:	19 06       	cpc	r1, r25
 4e6:	1a 06       	cpc	r1, r26
 4e8:	1b 06       	cpc	r1, r27
 4ea:	04 f4       	brge	.+0      	; 0x4ec <__vector_7+0x66>
 4ec:	80 91 00 00 	lds	r24, 0x0000
 4f0:	90 91 00 00 	lds	r25, 0x0000
 4f4:	a0 91 00 00 	lds	r26, 0x0000
 4f8:	b0 91 00 00 	lds	r27, 0x0000
 4fc:	01 97       	sbiw	r24, 0x01	; 1
 4fe:	a1 09       	sbc	r26, r1
 500:	b1 09       	sbc	r27, r1
 502:	80 93 00 00 	sts	0x0000, r24
 506:	90 93 00 00 	sts	0x0000, r25
 50a:	a0 93 00 00 	sts	0x0000, r26
 50e:	b0 93 00 00 	sts	0x0000, r27
 512:	00 c0       	rjmp	.+0      	; 0x514 <__vector_7+0x8e>
 514:	80 91 00 00 	lds	r24, 0x0000
 518:	0e 94 00 00 	call	0	; 0x0 <_Z4tonehjm>
 51c:	ff 91       	pop	r31
 51e:	ef 91       	pop	r30
 520:	bf 91       	pop	r27
 522:	af 91       	pop	r26
 524:	9f 91       	pop	r25
 526:	8f 91       	pop	r24
 528:	7f 91       	pop	r23
 52a:	6f 91       	pop	r22
 52c:	5f 91       	pop	r21
 52e:	4f 91       	pop	r20
 530:	3f 91       	pop	r19
 532:	2f 91       	pop	r18
 534:	0f 90       	pop	r0
 536:	0f be       	out	0x3f, r0	; 63
 538:	0f 90       	pop	r0
 53a:	1f 90       	pop	r1
 53c:	18 95       	reti

USBCore.o:     file format elf32-avr

Sections:
Idx Name          Size      VMA       LMA       File off  Algn
  0 .text         00000000  00000000  00000000  00000034  2**0
                  CONTENTS, ALLOC, LOAD, READONLY, CODE
  1 .data         00000000  00000000  00000000  00000034  2**0
                  CONTENTS, ALLOC, LOAD, DATA
  2 .bss          00000000  00000000  00000000  00000034  2**0
                  ALLOC

WInterrupts.o:     file format elf32-avr

Sections:
Idx Name          Size      VMA       LMA       File off  Algn
  0 .text         00000114  00000000  00000000  00000034  2**0
                  CONTENTS, ALLOC, LOAD, RELOC, READONLY, CODE
  1 .data         00000000  00000000  00000000  00000148  2**0
                  CONTENTS, ALLOC, LOAD, DATA
  2 .bss          00000004  00000000  00000000  00000148  2**0
                  ALLOC

Disassembly of section .text:

00000000 <attachInterrupt>:
   0:	82 30       	cpi	r24, 0x02	; 2
   2:	00 f4       	brcc	.+0      	; 0x4 <attachInterrupt+0x4>
   4:	e8 2f       	mov	r30, r24
   6:	f0 e0       	ldi	r31, 0x00	; 0
   8:	ee 0f       	add	r30, r30
   a:	ff 1f       	adc	r31, r31
   c:	e0 50       	subi	r30, 0x00	; 0
   e:	f0 40       	sbci	r31, 0x00	; 0
  10:	71 83       	std	Z+1, r23	; 0x01
  12:	60 83       	st	Z, r22
  14:	81 30       	cpi	r24, 0x01	; 1
  16:	01 f0       	breq	.+0      	; 0x18 <attachInterrupt+0x18>
  18:	80 91 69 00 	lds	r24, 0x0069
  1c:	8c 7f       	andi	r24, 0xFC	; 252
  1e:	84 2b       	or	r24, r20
  20:	80 93 69 00 	sts	0x0069, r24
  24:	e8 9a       	sbi	0x1d, 0	; 29
  26:	08 95       	ret
  28:	80 91 69 00 	lds	r24, 0x0069
  2c:	44 0f       	add	r20, r20
  2e:	55 1f       	adc	r21, r21
  30:	44 0f       	add	r20, r20
  32:	55 1f       	adc	r21, r21
  34:	83 7f       	andi	r24, 0xF3	; 243
  36:	84 2b       	or	r24, r20
  38:	80 93 69 00 	sts	0x0069, r24
  3c:	e9 9a       	sbi	0x1d, 1	; 29
  3e:	08 95       	ret

00000040 <detachInterrupt>:
  40:	82 30       	cpi	r24, 0x02	; 2
  42:	00 f4       	brcc	.+0      	; 0x44 <detachInterrupt+0x4>
  44:	81 30       	cpi	r24, 0x01	; 1
  46:	01 f0       	breq	.+0      	; 0x48 <detachInterrupt+0x8>
  48:	e8 98       	cbi	0x1d, 0	; 29
  4a:	00 c0       	rjmp	.+0      	; 0x4c <detachInterrupt+0xc>
  4c:	e9 98       	cbi	0x1d, 1	; 29
  4e:	e8 2f       	mov	r30, r24
  50:	f0 e0       	ldi	r31, 0x00	; 0
  52:	ee 0f       	add	r30, r30
  54:	ff 1f       	adc	r31, r31
  56:	e0 50       	subi	r30, 0x00	; 0
  58:	f0 40       	sbci	r31, 0x00	; 0
  5a:	11 82       	std	Z+1, r1	; 0x01
  5c:	10 82       	st	Z, r1
  5e:	08 95       	ret

00000060 <__vector_1>:
  60:	1f 92       	push	r1
  62:	0f 92       	push	r0
  64:	0f b6       	in	r0, 0x3f	; 63
  66:	0f 92       	push	r0
  68:	11 24       	eor	r1, r1
  6a:	2f 93       	push	r18
  6c:	3f 93       	push	r19
  6e:	4f 93       	push	r20
  70:	5f 93       	push	r21
  72:	6f 93       	push	r22
  74:	7f 93       	push	r23
  76:	8f 93       	push	r24
  78:	9f 93       	push	r25
  7a:	af 93       	push	r26
  7c:	bf 93       	push	r27
  7e:	ef 93       	push	r30
  80:	ff 93       	push	r31
  82:	80 91 00 00 	lds	r24, 0x0000
  86:	90 91 00 00 	lds	r25, 0x0000
  8a:	00 97       	sbiw	r24, 0x00	; 0
  8c:	01 f0       	breq	.+0      	; 0x8e <__vector_1+0x2e>
  8e:	e0 91 00 00 	lds	r30, 0x0000
  92:	f0 91 00 00 	lds	r31, 0x0000
  96:	09 95       	icall
  98:	ff 91       	pop	r31
  9a:	ef 91       	pop	r30
  9c:	bf 91       	pop	r27
  9e:	af 91       	pop	r26
  a0:	9f 91       	pop	r25
  a2:	8f 91       	pop	r24
  a4:	7f 91       	pop	r23
  a6:	6f 91       	pop	r22
  a8:	5f 91       	pop	r21
  aa:	4f 91       	pop	r20
  ac:	3f 91       	pop	r19
  ae:	2f 91       	pop	r18
  b0:	0f 90       	pop	r0
  b2:	0f be       	out	0x3f, r0	; 63
  b4:	0f 90       	pop	r0
  b6:	1f 90       	pop	r1
  b8:	18 95       	reti

000000ba <__vector_2>:
  ba:	1f 92       	push	r1
  bc:	0f 92       	push	r0
  be:	0f b6       	in	r0, 0x3f	; 63
  c0:	0f 92       	push	r0
  c2:	11 24       	eor	r1, r1
  c4:	2f 93       	push	r18
  c6:	3f 93       	push	r19
  c8:	4f 93       	push	r20
  ca:	5f 93       	push	r21
  cc:	6f 93       	push	r22
  ce:	7f 93       	push	r23
  d0:	8f 93       	push	r24
  d2:	9f 93       	push	r25
  d4:	af 93       	push	r26
  d6:	bf 93       	push	r27
  d8:	ef 93       	push	r30
  da:	ff 93       	push	r31
  dc:	80 91 00 00 	lds	r24, 0x0000
  e0:	90 91 00 00 	lds	r25, 0x0000
  e4:	00 97       	sbiw	r24, 0x00	; 0
  e6:	01 f0       	breq	.+0      	; 0xe8 <__vector_2+0x2e>
  e8:	e0 91 00 00 	lds	r30, 0x0000
  ec:	f0 91 00 00 	lds	r31, 0x0000
  f0:	09 95       	icall
  f2:	ff 91       	pop	r31
  f4:	ef 91       	pop	r30
  f6:	bf 91       	pop	r27
  f8:	af 91       	pop	r26
  fa:	9f 91       	pop	r25
  fc:	8f 91       	pop	r24
  fe:	7f 91       	pop	r23
 100:	6f 91       	pop	r22
 102:	5f 91       	pop	r21
 104:	4f 91       	pop	r20
 106:	3f 91       	pop	r19
 108:	2f 91       	pop	r18
 10a:	0f 90       	pop	r0
 10c:	0f be       	out	0x3f, r0	; 63
 10e:	0f 90       	pop	r0
 110:	1f 90       	pop	r1
 112:	18 95       	reti

WMath.o:     file format elf32-avr

Sections:
Idx Name          Size      VMA       LMA       File off  Algn
  0 .text         00000150  00000000  00000000  00000034  2**0
                  CONTENTS, ALLOC, LOAD, RELOC, READONLY, CODE
  1 .data         00000000  00000000  00000000  00000184  2**0
                  CONTENTS, ALLOC, LOAD, DATA
  2 .bss          00000000  00000000  00000000  00000184  2**0
                  ALLOC

Disassembly of section .text:

00000000 <_Z10randomSeedj>:
   0:	00 97       	sbiw	r24, 0x00	; 0
   2:	01 f0       	breq	.+0      	; 0x4 <_Z10randomSeedj+0x4>
   4:	bc 01       	movw	r22, r24
   6:	80 e0       	ldi	r24, 0x00	; 0
   8:	90 e0       	ldi	r25, 0x00	; 0
   a:	0e 94 00 00 	call	0	; 0x0 <_Z10randomSeedj>
   e:	08 95       	ret

00000010 <_Z6randoml>:
  10:	cf 92       	push	r12
  12:	df 92       	push	r13
  14:	ef 92       	push	r14
  16:	ff 92       	push	r15
  18:	0f 93       	push	r16
  1a:	1f 93       	push	r17
  1c:	6b 01       	movw	r12, r22
  1e:	7c 01       	movw	r14, r24
  20:	61 15       	cp	r22, r1
  22:	71 05       	cpc	r23, r1
  24:	81 05       	cpc	r24, r1
  26:	91 05       	cpc	r25, r1
  28:	01 f0       	breq	.+0      	; 0x2a <_Z6randoml+0x1a>
  2a:	0e 94 00 00 	call	0	; 0x0 <_Z10randomSeedj>
  2e:	a7 01       	movw	r20, r14
  30:	96 01       	movw	r18, r12
  32:	0e 94 00 00 	call	0	; 0x0 <_Z10randomSeedj>
  36:	8b 01       	movw	r16, r22
  38:	9c 01       	movw	r18, r24
  3a:	00 c0       	rjmp	.+0      	; 0x3c <_Z6randoml+0x2c>
  3c:	00 e0       	ldi	r16, 0x00	; 0
  3e:	10 e0       	ldi	r17, 0x00	; 0
  40:	20 e0       	ldi	r18, 0x00	; 0
  42:	30 e0       	ldi	r19, 0x00	; 0
  44:	b8 01       	movw	r22, r16
  46:	c9 01       	movw	r24, r18
  48:	1f 91       	pop	r17
  4a:	0f 91       	pop	r16
  4c:	ff 90       	pop	r15
  4e:	ef 90       	pop	r14
  50:	df 90       	pop	r13
  52:	cf 90       	pop	r12
  54:	08 95       	ret

00000056 <_Z6randomll>:
  56:	cf 92       	push	r12
  58:	df 92       	push	r13
  5a:	ef 92       	push	r14
  5c:	ff 92       	push	r15
  5e:	6b 01       	movw	r12, r22
  60:	7c 01       	movw	r14, r24
  62:	da 01       	movw	r26, r20
  64:	c9 01       	movw	r24, r18
  66:	c2 16       	cp	r12, r18
  68:	d3 06       	cpc	r13, r19
  6a:	e4 06       	cpc	r14, r20
  6c:	f5 06       	cpc	r15, r21
  6e:	04 f4       	brge	.+0      	; 0x70 <_Z6randomll+0x1a>
  70:	8c 19       	sub	r24, r12
  72:	9d 09       	sbc	r25, r13
  74:	ae 09       	sbc	r26, r14
  76:	bf 09       	sbc	r27, r15
  78:	bc 01       	movw	r22, r24
  7a:	cd 01       	movw	r24, r26
  7c:	0e 94 00 00 	call	0	; 0x0 <_Z10randomSeedj>
  80:	dc 01       	movw	r26, r24
  82:	cb 01       	movw	r24, r22
  84:	c8 0e       	add	r12, r24
  86:	d9 1e       	adc	r13, r25
  88:	ea 1e       	adc	r14, r26
  8a:	fb 1e       	adc	r15, r27
  8c:	b6 01       	movw	r22, r12
  8e:	c7 01       	movw	r24, r14
  90:	ff 90       	pop	r15
  92:	ef 90       	pop	r14
  94:	df 90       	pop	r13
  96:	cf 90       	pop	r12
  98:	08 95       	ret

0000009a <_Z3maplllll>:
  9a:	4f 92       	push	r4
  9c:	5f 92       	push	r5
  9e:	6f 92       	push	r6
  a0:	7f 92       	push	r7
  a2:	8f 92       	push	r8
  a4:	9f 92       	push	r9
  a6:	af 92       	push	r10
  a8:	bf 92       	push	r11
  aa:	cf 92       	push	r12
  ac:	df 92       	push	r13
  ae:	ef 92       	push	r14
  b0:	ff 92       	push	r15
  b2:	0f 93       	push	r16
  b4:	1f 93       	push	r17
  b6:	cf 93       	push	r28
  b8:	df 93       	push	r29
  ba:	00 d0       	rcall	.+0      	; 0xbc <_Z3maplllll+0x22>
  bc:	00 d0       	rcall	.+0      	; 0xbe <_Z3maplllll+0x24>
  be:	cd b7       	in	r28, 0x3d	; 61
  c0:	de b7       	in	r29, 0x3e	; 62
  c2:	29 83       	std	Y+1, r18	; 0x01
  c4:	3a 83       	std	Y+2, r19	; 0x02
  c6:	4b 83       	std	Y+3, r20	; 0x03
  c8:	5c 83       	std	Y+4, r21	; 0x04
  ca:	27 01       	movw	r4, r14
  cc:	38 01       	movw	r6, r16
  ce:	76 01       	movw	r14, r12
  d0:	65 01       	movw	r12, r10
  d2:	2f 89       	ldd	r18, Y+23	; 0x17
  d4:	38 8d       	ldd	r19, Y+24	; 0x18
  d6:	49 8d       	ldd	r20, Y+25	; 0x19
  d8:	5a 8d       	ldd	r21, Y+26	; 0x1a
  da:	89 80       	ldd	r8, Y+1	; 0x01
  dc:	9a 80       	ldd	r9, Y+2	; 0x02
  de:	ab 80       	ldd	r10, Y+3	; 0x03
  e0:	bc 80       	ldd	r11, Y+4	; 0x04
  e2:	68 19       	sub	r22, r8
  e4:	79 09       	sbc	r23, r9
  e6:	8a 09       	sbc	r24, r10
  e8:	9b 09       	sbc	r25, r11
  ea:	2c 19       	sub	r18, r12
  ec:	3d 09       	sbc	r19, r13
  ee:	4e 09       	sbc	r20, r14
  f0:	5f 09       	sbc	r21, r15
  f2:	0e 94 00 00 	call	0	; 0x0 <_Z10randomSeedj>
  f6:	48 18       	sub	r4, r8
  f8:	59 08       	sbc	r5, r9
  fa:	6a 08       	sbc	r6, r10
  fc:	7b 08       	sbc	r7, r11
  fe:	a3 01       	movw	r20, r6
 100:	92 01       	movw	r18, r4
 102:	0e 94 00 00 	call	0	; 0x0 <_Z10randomSeedj>
 106:	89 01       	movw	r16, r18
 108:	9a 01       	movw	r18, r20
 10a:	0c 0d       	add	r16, r12
 10c:	1d 1d       	adc	r17, r13
 10e:	2e 1d       	adc	r18, r14
 110:	3f 1d       	adc	r19, r15
 112:	b8 01       	movw	r22, r16
 114:	c9 01       	movw	r24, r18
 116:	0f 90       	pop	r0
 118:	0f 90       	pop	r0
 11a:	0f 90       	pop	r0
 11c:	0f 90       	pop	r0
 11e:	df 91       	pop	r29
 120:	cf 91       	pop	r28
 122:	1f 91       	pop	r17
 124:	0f 91       	pop	r16
 126:	ff 90       	pop	r15
 128:	ef 90       	pop	r14
 12a:	df 90       	pop	r13
 12c:	cf 90       	pop	r12
 12e:	bf 90       	pop	r11
 130:	af 90       	pop	r10
 132:	9f 90       	pop	r9
 134:	8f 90       	pop	r8
 136:	7f 90       	pop	r7
 138:	6f 90       	pop	r6
 13a:	5f 90       	pop	r5
 13c:	4f 90       	pop	r4
 13e:	08 95       	ret

00000140 <_Z8makeWordj>:
 140:	08 95       	ret

00000142 <_Z8makeWordhh>:
 142:	70 e0       	ldi	r23, 0x00	; 0
 144:	38 2f       	mov	r19, r24
 146:	20 e0       	ldi	r18, 0x00	; 0
 148:	62 2b       	or	r22, r18
 14a:	73 2b       	or	r23, r19
 14c:	cb 01       	movw	r24, r22
 14e:	08 95       	ret

WString.o:     file format elf32-avr

Sections:
Idx Name          Size      VMA       LMA       File off  Algn
  0 .text         00000fd2  00000000  00000000  00000034  2**0
                  CONTENTS, ALLOC, LOAD, RELOC, READONLY, CODE
  1 .data         00000001  00000000  00000000  00001006  2**0
                  CONTENTS, ALLOC, LOAD, DATA
  2 .bss          00000001  00000000  00000000  00001007  2**0
                  ALLOC

Disassembly of section .text:

00000000 <_ZN6StringD1Ev>:
   0:	fc 01       	movw	r30, r24
   2:	80 81       	ld	r24, Z
   4:	91 81       	ldd	r25, Z+1	; 0x01
   6:	0e 94 00 00 	call	0	; 0x0 <_ZN6StringD1Ev>
   a:	08 95       	ret

0000000c <_ZN6String10invalidateEv>:
   c:	cf 93       	push	r28
   e:	df 93       	push	r29
  10:	ec 01       	movw	r28, r24
  12:	88 81       	ld	r24, Y
  14:	99 81       	ldd	r25, Y+1	; 0x01
  16:	00 97       	sbiw	r24, 0x00	; 0
  18:	01 f0       	breq	.+0      	; 0x1a <_ZN6String10invalidateEv+0xe>
  1a:	0e 94 00 00 	call	0	; 0x0 <_ZN6StringD1Ev>
  1e:	19 82       	std	Y+1, r1	; 0x01
  20:	18 82       	st	Y, r1
  22:	1d 82       	std	Y+5, r1	; 0x05
  24:	1c 82       	std	Y+4, r1	; 0x04
  26:	1b 82       	std	Y+3, r1	; 0x03
  28:	1a 82       	std	Y+2, r1	; 0x02
  2a:	df 91       	pop	r29
  2c:	cf 91       	pop	r28
  2e:	08 95       	ret

00000030 <_ZN6String12changeBufferEj>:
  30:	0f 93       	push	r16
  32:	1f 93       	push	r17
  34:	cf 93       	push	r28
  36:	df 93       	push	r29
  38:	ec 01       	movw	r28, r24
  3a:	8b 01       	movw	r16, r22
  3c:	6f 5f       	subi	r22, 0xFF	; 255
  3e:	7f 4f       	sbci	r23, 0xFF	; 255
  40:	88 81       	ld	r24, Y
  42:	99 81       	ldd	r25, Y+1	; 0x01
  44:	0e 94 00 00 	call	0	; 0x0 <_ZN6StringD1Ev>
  48:	00 97       	sbiw	r24, 0x00	; 0
  4a:	01 f0       	breq	.+0      	; 0x4c <_ZN6String12changeBufferEj+0x1c>
  4c:	99 83       	std	Y+1, r25	; 0x01
  4e:	88 83       	st	Y, r24
  50:	1b 83       	std	Y+3, r17	; 0x03
  52:	0a 83       	std	Y+2, r16	; 0x02
  54:	81 e0       	ldi	r24, 0x01	; 1
  56:	00 c0       	rjmp	.+0      	; 0x58 <_ZN6String12changeBufferEj+0x28>
  58:	80 e0       	ldi	r24, 0x00	; 0
  5a:	df 91       	pop	r29
  5c:	cf 91       	pop	r28
  5e:	1f 91       	pop	r17
  60:	0f 91       	pop	r16
  62:	08 95       	ret

00000064 <_ZN6String7reserveEj>:
  64:	cf 93       	push	r28
  66:	df 93       	push	r29
  68:	ec 01       	movw	r28, r24
  6a:	88 81       	ld	r24, Y
  6c:	99 81       	ldd	r25, Y+1	; 0x01
  6e:	00 97       	sbiw	r24, 0x00	; 0
  70:	01 f0       	breq	.+0      	; 0x72 <_ZN6String7reserveEj+0xe>
  72:	8a 81       	ldd	r24, Y+2	; 0x02
  74:	9b 81       	ldd	r25, Y+3	; 0x03
  76:	86 17       	cp	r24, r22
  78:	97 07       	cpc	r25, r23
  7a:	00 f4       	brcc	.+0      	; 0x7c <_ZN6String7reserveEj+0x18>
  7c:	ce 01       	movw	r24, r28
  7e:	0e 94 00 00 	call	0	; 0x0 <_ZN6StringD1Ev>
  82:	88 23       	and	r24, r24
  84:	01 f0       	breq	.+0      	; 0x86 <_ZN6String7reserveEj+0x22>
  86:	8c 81       	ldd	r24, Y+4	; 0x04
  88:	9d 81       	ldd	r25, Y+5	; 0x05
  8a:	00 97       	sbiw	r24, 0x00	; 0
  8c:	01 f4       	brne	.+0      	; 0x8e <_ZN6String7reserveEj+0x2a>
  8e:	e8 81       	ld	r30, Y
  90:	f9 81       	ldd	r31, Y+1	; 0x01
  92:	10 82       	st	Z, r1
  94:	00 c0       	rjmp	.+0      	; 0x96 <_ZN6String7reserveEj+0x32>
  96:	80 e0       	ldi	r24, 0x00	; 0
  98:	00 c0       	rjmp	.+0      	; 0x9a <_ZN6String7reserveEj+0x36>
  9a:	81 e0       	ldi	r24, 0x01	; 1
  9c:	df 91       	pop	r29
  9e:	cf 91       	pop	r28
  a0:	08 95       	ret

000000a2 <_ZN6String4copyEPKcj>:
  a2:	ef 92       	push	r14
  a4:	ff 92       	push	r15
  a6:	0f 93       	push	r16
  a8:	1f 93       	push	r17
  aa:	cf 93       	push	r28
  ac:	df 93       	push	r29
  ae:	ec 01       	movw	r28, r24
  b0:	7b 01       	movw	r14, r22
  b2:	8a 01       	movw	r16, r20
  b4:	ba 01       	movw	r22, r20
  b6:	0e 94 00 00 	call	0	; 0x0 <_ZN6StringD1Ev>
  ba:	88 23       	and	r24, r24
  bc:	01 f4       	brne	.+0      	; 0xbe <_ZN6String4copyEPKcj+0x1c>
  be:	ce 01       	movw	r24, r28
  c0:	0e 94 00 00 	call	0	; 0x0 <_ZN6StringD1Ev>
  c4:	00 c0       	rjmp	.+0      	; 0xc6 <_ZN6String4copyEPKcj+0x24>
  c6:	1d 83       	std	Y+5, r17	; 0x05
  c8:	0c 83       	std	Y+4, r16	; 0x04
  ca:	88 81       	ld	r24, Y
  cc:	99 81       	ldd	r25, Y+1	; 0x01
  ce:	b7 01       	movw	r22, r14
  d0:	0e 94 00 00 	call	0	; 0x0 <_ZN6StringD1Ev>
  d4:	ce 01       	movw	r24, r28
  d6:	df 91       	pop	r29
  d8:	cf 91       	pop	r28
  da:	1f 91       	pop	r17
  dc:	0f 91       	pop	r16
  de:	ff 90       	pop	r15
  e0:	ef 90       	pop	r14
  e2:	08 95       	ret

000000e4 <_ZN6StringC1EPKc>:
  e4:	cf 93       	push	r28
  e6:	df 93       	push	r29
  e8:	fc 01       	movw	r30, r24
  ea:	11 82       	std	Z+1, r1	; 0x01
  ec:	10 82       	st	Z, r1
  ee:	13 82       	std	Z+3, r1	; 0x03
  f0:	12 82       	std	Z+2, r1	; 0x02
  f2:	15 82       	std	Z+5, r1	; 0x05
  f4:	14 82       	std	Z+4, r1	; 0x04
  f6:	16 82       	std	Z+6, r1	; 0x06
  f8:	61 15       	cp	r22, r1
  fa:	71 05       	cpc	r23, r1
  fc:	01 f0       	breq	.+0      	; 0xfe <_ZN6StringC1EPKc+0x1a>
  fe:	eb 01       	movw	r28, r22
 100:	09 90       	ld	r0, Y+
 102:	00 20       	and	r0, r0
 104:	01 f4       	brne	.+0      	; 0x106 <_ZN6StringC1EPKc+0x22>
 106:	ae 01       	movw	r20, r28
 108:	41 50       	subi	r20, 0x01	; 1
 10a:	50 40       	sbci	r21, 0x00	; 0
 10c:	46 1b       	sub	r20, r22
 10e:	57 0b       	sbc	r21, r23
 110:	0e 94 00 00 	call	0	; 0x0 <_ZN6StringD1Ev>
 114:	df 91       	pop	r29
 116:	cf 91       	pop	r28
 118:	08 95       	ret

0000011a <_ZN6StringaSERKS_>:
 11a:	cf 93       	push	r28
 11c:	df 93       	push	r29
 11e:	ec 01       	movw	r28, r24
 120:	fb 01       	movw	r30, r22
 122:	86 17       	cp	r24, r22
 124:	97 07       	cpc	r25, r23
 126:	01 f0       	breq	.+0      	; 0x128 <_ZN6StringaSERKS_+0xe>
 128:	20 81       	ld	r18, Z
 12a:	31 81       	ldd	r19, Z+1	; 0x01
 12c:	21 15       	cp	r18, r1
 12e:	31 05       	cpc	r19, r1
 130:	01 f0       	breq	.+0      	; 0x132 <_ZN6StringaSERKS_+0x18>
 132:	44 81       	ldd	r20, Z+4	; 0x04
 134:	55 81       	ldd	r21, Z+5	; 0x05
 136:	b9 01       	movw	r22, r18
 138:	0e 94 00 00 	call	0	; 0x0 <_ZN6StringD1Ev>
 13c:	00 c0       	rjmp	.+0      	; 0x13e <_ZN6StringaSERKS_+0x24>
 13e:	0e 94 00 00 	call	0	; 0x0 <_ZN6StringD1Ev>
 142:	ce 01       	movw	r24, r28
 144:	df 91       	pop	r29
 146:	cf 91       	pop	r28
 148:	08 95       	ret

0000014a <_ZN6StringC1ERKS_>:
 14a:	fc 01       	movw	r30, r24
 14c:	11 82       	std	Z+1, r1	; 0x01
 14e:	10 82       	st	Z, r1
 150:	13 82       	std	Z+3, r1	; 0x03
 152:	12 82       	std	Z+2, r1	; 0x02
 154:	15 82       	std	Z+5, r1	; 0x05
 156:	14 82       	std	Z+4, r1	; 0x04
 158:	16 82       	std	Z+6, r1	; 0x06
 15a:	0e 94 00 00 	call	0	; 0x0 <_ZN6StringD1Ev>
 15e:	08 95       	ret

00000160 <_ZN6StringaSEPKc>:
 160:	cf 93       	push	r28
 162:	df 93       	push	r29
 164:	ec 01       	movw	r28, r24
 166:	61 15       	cp	r22, r1
 168:	71 05       	cpc	r23, r1
 16a:	01 f0       	breq	.+0      	; 0x16c <_ZN6StringaSEPKc+0xc>
 16c:	db 01       	movw	r26, r22
 16e:	0d 90       	ld	r0, X+
 170:	00 20       	and	r0, r0
 172:	01 f4       	brne	.+0      	; 0x174 <_ZN6StringaSEPKc+0x14>
 174:	ad 01       	movw	r20, r26
 176:	41 50       	subi	r20, 0x01	; 1
 178:	50 40       	sbci	r21, 0x00	; 0
 17a:	46 1b       	sub	r20, r22
 17c:	57 0b       	sbc	r21, r23
 17e:	0e 94 00 00 	call	0	; 0x0 <_ZN6StringD1Ev>
 182:	00 c0       	rjmp	.+0      	; 0x184 <_ZN6StringaSEPKc+0x24>
 184:	0e 94 00 00 	call	0	; 0x0 <_ZN6StringD1Ev>
 188:	ce 01       	movw	r24, r28
 18a:	df 91       	pop	r29
 18c:	cf 91       	pop	r28
 18e:	08 95       	ret

00000190 <_ZN6StringC1Emh>:
 190:	0f 93       	push	r16
 192:	1f 93       	push	r17
 194:	cf 93       	push	r28
 196:	df 93       	push	r29
 198:	cd b7       	in	r28, 0x3d	; 61
 19a:	de b7       	in	r29, 0x3e	; 62
 19c:	a1 97       	sbiw	r28, 0x21	; 33
 19e:	0f b6       	in	r0, 0x3f	; 63
 1a0:	f8 94       	cli
 1a2:	de bf       	out	0x3e, r29	; 62
 1a4:	0f be       	out	0x3f, r0	; 63
 1a6:	cd bf       	out	0x3d, r28	; 61
 1a8:	8c 01       	movw	r16, r24
 1aa:	fc 01       	movw	r30, r24
 1ac:	11 82       	std	Z+1, r1	; 0x01
 1ae:	10 82       	st	Z, r1
 1b0:	13 82       	std	Z+3, r1	; 0x03
 1b2:	12 82       	std	Z+2, r1	; 0x02
 1b4:	15 82       	std	Z+5, r1	; 0x05
 1b6:	14 82       	std	Z+4, r1	; 0x04
 1b8:	16 82       	std	Z+6, r1	; 0x06
 1ba:	cb 01       	movw	r24, r22
 1bc:	ba 01       	movw	r22, r20
 1be:	ae 01       	movw	r20, r28
 1c0:	4f 5f       	subi	r20, 0xFF	; 255
 1c2:	5f 4f       	sbci	r21, 0xFF	; 255
 1c4:	30 e0       	ldi	r19, 0x00	; 0
 1c6:	0e 94 00 00 	call	0	; 0x0 <_ZN6StringD1Ev>
 1ca:	c8 01       	movw	r24, r16
 1cc:	be 01       	movw	r22, r28
 1ce:	6f 5f       	subi	r22, 0xFF	; 255
 1d0:	7f 4f       	sbci	r23, 0xFF	; 255
 1d2:	0e 94 00 00 	call	0	; 0x0 <_ZN6StringD1Ev>
 1d6:	a1 96       	adiw	r28, 0x21	; 33
 1d8:	0f b6       	in	r0, 0x3f	; 63
 1da:	f8 94       	cli
 1dc:	de bf       	out	0x3e, r29	; 62
 1de:	0f be       	out	0x3f, r0	; 63
 1e0:	cd bf       	out	0x3d, r28	; 61
 1e2:	df 91       	pop	r29
 1e4:	cf 91       	pop	r28
 1e6:	1f 91       	pop	r17
 1e8:	0f 91       	pop	r16
 1ea:	08 95       	ret

000001ec <_ZN6StringC1Elh>:
 1ec:	0f 93       	push	r16
 1ee:	1f 93       	push	r17
 1f0:	cf 93       	push	r28
 1f2:	df 93       	push	r29
 1f4:	cd b7       	in	r28, 0x3d	; 61
 1f6:	de b7       	in	r29, 0x3e	; 62
 1f8:	a2 97       	sbiw	r28, 0x22	; 34
 1fa:	0f b6       	in	r0, 0x3f	; 63
 1fc:	f8 94       	cli
 1fe:	de bf       	out	0x3e, r29	; 62
 200:	0f be       	out	0x3f, r0	; 63
 202:	cd bf       	out	0x3d, r28	; 61
 204:	8c 01       	movw	r16, r24
 206:	fc 01       	movw	r30, r24
 208:	11 82       	std	Z+1, r1	; 0x01
 20a:	10 82       	st	Z, r1
 20c:	13 82       	std	Z+3, r1	; 0x03
 20e:	12 82       	std	Z+2, r1	; 0x02
 210:	15 82       	std	Z+5, r1	; 0x05
 212:	14 82       	std	Z+4, r1	; 0x04
 214:	16 82       	std	Z+6, r1	; 0x06
 216:	cb 01       	movw	r24, r22
 218:	ba 01       	movw	r22, r20
 21a:	ae 01       	movw	r20, r28
 21c:	4f 5f       	subi	r20, 0xFF	; 255
 21e:	5f 4f       	sbci	r21, 0xFF	; 255
 220:	30 e0       	ldi	r19, 0x00	; 0
 222:	0e 94 00 00 	call	0	; 0x0 <_ZN6StringD1Ev>
 226:	c8 01       	movw	r24, r16
 228:	be 01       	movw	r22, r28
 22a:	6f 5f       	subi	r22, 0xFF	; 255
 22c:	7f 4f       	sbci	r23, 0xFF	; 255
 22e:	0e 94 00 00 	call	0	; 0x0 <_ZN6StringD1Ev>
 232:	a2 96       	adiw	r28, 0x22	; 34
 234:	0f b6       	in	r0, 0x3f	; 63
 236:	f8 94       	cli
 238:	de bf       	out	0x3e, r29	; 62
 23a:	0f be       	out	0x3f, r0	; 63
 23c:	cd bf       	out	0x3d, r28	; 61
 23e:	df 91       	pop	r29
 240:	cf 91       	pop	r28
 242:	1f 91       	pop	r17
 244:	0f 91       	pop	r16
 246:	08 95       	ret

00000248 <_ZN6StringC1Ejh>:
 248:	0f 93       	push	r16
 24a:	1f 93       	push	r17
 24c:	cf 93       	push	r28
 24e:	df 93       	push	r29
 250:	cd b7       	in	r28, 0x3d	; 61
 252:	de b7       	in	r29, 0x3e	; 62
 254:	61 97       	sbiw	r28, 0x11	; 17
 256:	0f b6       	in	r0, 0x3f	; 63
 258:	f8 94       	cli
 25a:	de bf       	out	0x3e, r29	; 62
 25c:	0f be       	out	0x3f, r0	; 63
 25e:	cd bf       	out	0x3d, r28	; 61
 260:	8c 01       	movw	r16, r24
 262:	cb 01       	movw	r24, r22
 264:	f8 01       	movw	r30, r16
 266:	11 82       	std	Z+1, r1	; 0x01
 268:	10 82       	st	Z, r1
 26a:	13 82       	std	Z+3, r1	; 0x03
 26c:	12 82       	std	Z+2, r1	; 0x02
 26e:	15 82       	std	Z+5, r1	; 0x05
 270:	14 82       	std	Z+4, r1	; 0x04
 272:	16 82       	std	Z+6, r1	; 0x06
 274:	be 01       	movw	r22, r28
 276:	6f 5f       	subi	r22, 0xFF	; 255
 278:	7f 4f       	sbci	r23, 0xFF	; 255
 27a:	50 e0       	ldi	r21, 0x00	; 0
 27c:	0e 94 00 00 	call	0	; 0x0 <_ZN6StringD1Ev>
 280:	c8 01       	movw	r24, r16
 282:	be 01       	movw	r22, r28
 284:	6f 5f       	subi	r22, 0xFF	; 255
 286:	7f 4f       	sbci	r23, 0xFF	; 255
 288:	0e 94 00 00 	call	0	; 0x0 <_ZN6StringD1Ev>
 28c:	61 96       	adiw	r28, 0x11	; 17
 28e:	0f b6       	in	r0, 0x3f	; 63
 290:	f8 94       	cli
 292:	de bf       	out	0x3e, r29	; 62
 294:	0f be       	out	0x3f, r0	; 63
 296:	cd bf       	out	0x3d, r28	; 61
 298:	df 91       	pop	r29
 29a:	cf 91       	pop	r28
 29c:	1f 91       	pop	r17
 29e:	0f 91       	pop	r16
 2a0:	08 95       	ret

000002a2 <_ZN6StringC1Eih>:
 2a2:	0f 93       	push	r16
 2a4:	1f 93       	push	r17
 2a6:	cf 93       	push	r28
 2a8:	df 93       	push	r29
 2aa:	cd b7       	in	r28, 0x3d	; 61
 2ac:	de b7       	in	r29, 0x3e	; 62
 2ae:	62 97       	sbiw	r28, 0x12	; 18
 2b0:	0f b6       	in	r0, 0x3f	; 63
 2b2:	f8 94       	cli
 2b4:	de bf       	out	0x3e, r29	; 62
 2b6:	0f be       	out	0x3f, r0	; 63
 2b8:	cd bf       	out	0x3d, r28	; 61
 2ba:	8c 01       	movw	r16, r24
 2bc:	cb 01       	movw	r24, r22
 2be:	f8 01       	movw	r30, r16
 2c0:	11 82       	std	Z+1, r1	; 0x01
 2c2:	10 82       	st	Z, r1
 2c4:	13 82       	std	Z+3, r1	; 0x03
 2c6:	12 82       	std	Z+2, r1	; 0x02
 2c8:	15 82       	std	Z+5, r1	; 0x05
 2ca:	14 82       	std	Z+4, r1	; 0x04
 2cc:	16 82       	std	Z+6, r1	; 0x06
 2ce:	be 01       	movw	r22, r28
 2d0:	6f 5f       	subi	r22, 0xFF	; 255
 2d2:	7f 4f       	sbci	r23, 0xFF	; 255
 2d4:	50 e0       	ldi	r21, 0x00	; 0
 2d6:	0e 94 00 00 	call	0	; 0x0 <_ZN6StringD1Ev>
 2da:	c8 01       	movw	r24, r16
 2dc:	be 01       	movw	r22, r28
 2de:	6f 5f       	subi	r22, 0xFF	; 255
 2e0:	7f 4f       	sbci	r23, 0xFF	; 255
 2e2:	0e 94 00 00 	call	0	; 0x0 <_ZN6StringD1Ev>
 2e6:	62 96       	adiw	r28, 0x12	; 18
 2e8:	0f b6       	in	r0, 0x3f	; 63
 2ea:	f8 94       	cli
 2ec:	de bf       	out	0x3e, r29	; 62
 2ee:	0f be       	out	0x3f, r0	; 63
 2f0:	cd bf       	out	0x3d, r28	; 61
 2f2:	df 91       	pop	r29
 2f4:	cf 91       	pop	r28
 2f6:	1f 91       	pop	r17
 2f8:	0f 91       	pop	r16
 2fa:	08 95       	ret

000002fc <_ZN6StringC1Ehh>:
 2fc:	0f 93       	push	r16
 2fe:	1f 93       	push	r17
 300:	cf 93       	push	r28
 302:	df 93       	push	r29
 304:	cd b7       	in	r28, 0x3d	; 61
 306:	de b7       	in	r29, 0x3e	; 62
 308:	29 97       	sbiw	r28, 0x09	; 9
 30a:	0f b6       	in	r0, 0x3f	; 63
 30c:	f8 94       	cli
 30e:	de bf       	out	0x3e, r29	; 62
 310:	0f be       	out	0x3f, r0	; 63
 312:	cd bf       	out	0x3d, r28	; 61
 314:	8c 01       	movw	r16, r24
 316:	86 2f       	mov	r24, r22
 318:	f8 01       	movw	r30, r16
 31a:	11 82       	std	Z+1, r1	; 0x01
 31c:	10 82       	st	Z, r1
 31e:	13 82       	std	Z+3, r1	; 0x03
 320:	12 82       	std	Z+2, r1	; 0x02
 322:	15 82       	std	Z+5, r1	; 0x05
 324:	14 82       	std	Z+4, r1	; 0x04
 326:	16 82       	std	Z+6, r1	; 0x06
 328:	90 e0       	ldi	r25, 0x00	; 0
 32a:	be 01       	movw	r22, r28
 32c:	6f 5f       	subi	r22, 0xFF	; 255
 32e:	7f 4f       	sbci	r23, 0xFF	; 255
 330:	50 e0       	ldi	r21, 0x00	; 0
 332:	0e 94 00 00 	call	0	; 0x0 <_ZN6StringD1Ev>
 336:	c8 01       	movw	r24, r16
 338:	be 01       	movw	r22, r28
 33a:	6f 5f       	subi	r22, 0xFF	; 255
 33c:	7f 4f       	sbci	r23, 0xFF	; 255
 33e:	0e 94 00 00 	call	0	; 0x0 <_ZN6StringD1Ev>
 342:	29 96       	adiw	r28, 0x09	; 9
 344:	0f b6       	in	r0, 0x3f	; 63
 346:	f8 94       	cli
 348:	de bf       	out	0x3e, r29	; 62
 34a:	0f be       	out	0x3f, r0	; 63
 34c:	cd bf       	out	0x3d, r28	; 61
 34e:	df 91       	pop	r29
 350:	cf 91       	pop	r28
 352:	1f 91       	pop	r17
 354:	0f 91       	pop	r16
 356:	08 95       	ret

00000358 <_ZN6StringC1Ec>:
 358:	cf 93       	push	r28
 35a:	df 93       	push	r29
 35c:	00 d0       	rcall	.+0      	; 0x35e <_ZN6StringC1Ec+0x6>
 35e:	cd b7       	in	r28, 0x3d	; 61
 360:	de b7       	in	r29, 0x3e	; 62
 362:	fc 01       	movw	r30, r24
 364:	11 82       	std	Z+1, r1	; 0x01
 366:	10 82       	st	Z, r1
 368:	13 82       	std	Z+3, r1	; 0x03
 36a:	12 82       	std	Z+2, r1	; 0x02
 36c:	15 82       	std	Z+5, r1	; 0x05
 36e:	14 82       	std	Z+4, r1	; 0x04
 370:	16 82       	std	Z+6, r1	; 0x06
 372:	69 83       	std	Y+1, r22	; 0x01
 374:	1a 82       	std	Y+2, r1	; 0x02
 376:	be 01       	movw	r22, r28
 378:	6f 5f       	subi	r22, 0xFF	; 255
 37a:	7f 4f       	sbci	r23, 0xFF	; 255
 37c:	0e 94 00 00 	call	0	; 0x0 <_ZN6StringD1Ev>
 380:	0f 90       	pop	r0
 382:	0f 90       	pop	r0
 384:	df 91       	pop	r29
 386:	cf 91       	pop	r28
 388:	08 95       	ret

0000038a <_ZN6String6concatEPKcj>:
 38a:	ef 92       	push	r14
 38c:	ff 92       	push	r15
 38e:	0f 93       	push	r16
 390:	1f 93       	push	r17
 392:	cf 93       	push	r28
 394:	df 93       	push	r29
 396:	8c 01       	movw	r16, r24
 398:	7b 01       	movw	r14, r22
 39a:	fc 01       	movw	r30, r24
 39c:	c4 81       	ldd	r28, Z+4	; 0x04
 39e:	d5 81       	ldd	r29, Z+5	; 0x05
 3a0:	61 15       	cp	r22, r1
 3a2:	71 05       	cpc	r23, r1
 3a4:	01 f0       	breq	.+0      	; 0x3a6 <_ZN6String6concatEPKcj+0x1c>
 3a6:	41 15       	cp	r20, r1
 3a8:	51 05       	cpc	r21, r1
 3aa:	01 f0       	breq	.+0      	; 0x3ac <_ZN6String6concatEPKcj+0x22>
 3ac:	c4 0f       	add	r28, r20
 3ae:	d5 1f       	adc	r29, r21
 3b0:	be 01       	movw	r22, r28
 3b2:	0e 94 00 00 	call	0	; 0x0 <_ZN6StringD1Ev>
 3b6:	88 23       	and	r24, r24
 3b8:	01 f0       	breq	.+0      	; 0x3ba <_ZN6String6concatEPKcj+0x30>
 3ba:	f8 01       	movw	r30, r16
 3bc:	80 81       	ld	r24, Z
 3be:	91 81       	ldd	r25, Z+1	; 0x01
 3c0:	24 81       	ldd	r18, Z+4	; 0x04
 3c2:	35 81       	ldd	r19, Z+5	; 0x05
 3c4:	82 0f       	add	r24, r18
 3c6:	93 1f       	adc	r25, r19
 3c8:	b7 01       	movw	r22, r14
 3ca:	0e 94 00 00 	call	0	; 0x0 <_ZN6StringD1Ev>
 3ce:	f8 01       	movw	r30, r16
 3d0:	d5 83       	std	Z+5, r29	; 0x05
 3d2:	c4 83       	std	Z+4, r28	; 0x04
 3d4:	81 e0       	ldi	r24, 0x01	; 1
 3d6:	00 c0       	rjmp	.+0      	; 0x3d8 <_ZN6String6concatEPKcj+0x4e>
 3d8:	80 e0       	ldi	r24, 0x00	; 0
 3da:	df 91       	pop	r29
 3dc:	cf 91       	pop	r28
 3de:	1f 91       	pop	r17
 3e0:	0f 91       	pop	r16
 3e2:	ff 90       	pop	r15
 3e4:	ef 90       	pop	r14
 3e6:	08 95       	ret

000003e8 <_ZN6String6concatERKS_>:
 3e8:	fb 01       	movw	r30, r22
 3ea:	20 81       	ld	r18, Z
 3ec:	31 81       	ldd	r19, Z+1	; 0x01
 3ee:	44 81       	ldd	r20, Z+4	; 0x04
 3f0:	55 81       	ldd	r21, Z+5	; 0x05
 3f2:	b9 01       	movw	r22, r18
 3f4:	0e 94 00 00 	call	0	; 0x0 <_ZN6StringD1Ev>
 3f8:	08 95       	ret

000003fa <_ZN6String6concatEPKc>:
 3fa:	61 15       	cp	r22, r1
 3fc:	71 05       	cpc	r23, r1
 3fe:	01 f0       	breq	.+0      	; 0x400 <_ZN6String6concatEPKc+0x6>
 400:	db 01       	movw	r26, r22
 402:	0d 90       	ld	r0, X+
 404:	00 20       	and	r0, r0
 406:	01 f4       	brne	.+0      	; 0x408 <_ZN6String6concatEPKc+0xe>
 408:	ad 01       	movw	r20, r26
 40a:	41 50       	subi	r20, 0x01	; 1
 40c:	50 40       	sbci	r21, 0x00	; 0
 40e:	46 1b       	sub	r20, r22
 410:	57 0b       	sbc	r21, r23
 412:	0e 94 00 00 	call	0	; 0x0 <_ZN6StringD1Ev>
 416:	08 95       	ret
 418:	80 e0       	ldi	r24, 0x00	; 0
 41a:	08 95       	ret

0000041c <_ZN6String6concatEc>:
 41c:	cf 93       	push	r28
 41e:	df 93       	push	r29
 420:	00 d0       	rcall	.+0      	; 0x422 <_ZN6String6concatEc+0x6>
 422:	cd b7       	in	r28, 0x3d	; 61
 424:	de b7       	in	r29, 0x3e	; 62
 426:	69 83       	std	Y+1, r22	; 0x01
 428:	1a 82       	std	Y+2, r1	; 0x02
 42a:	be 01       	movw	r22, r28
 42c:	6f 5f       	subi	r22, 0xFF	; 255
 42e:	7f 4f       	sbci	r23, 0xFF	; 255
 430:	41 e0       	ldi	r20, 0x01	; 1
 432:	50 e0       	ldi	r21, 0x00	; 0
 434:	0e 94 00 00 	call	0	; 0x0 <_ZN6StringD1Ev>
 438:	0f 90       	pop	r0
 43a:	0f 90       	pop	r0
 43c:	df 91       	pop	r29
 43e:	cf 91       	pop	r28
 440:	08 95       	ret

00000442 <_ZN6String6concatEh>:
 442:	ef 92       	push	r14
 444:	ff 92       	push	r15
 446:	0f 93       	push	r16
 448:	1f 93       	push	r17
 44a:	cf 93       	push	r28
 44c:	df 93       	push	r29
 44e:	00 d0       	rcall	.+0      	; 0x450 <_ZN6String6concatEh+0xe>
 450:	00 d0       	rcall	.+0      	; 0x452 <_ZN6String6concatEh+0x10>
 452:	cd b7       	in	r28, 0x3d	; 61
 454:	de b7       	in	r29, 0x3e	; 62
 456:	7c 01       	movw	r14, r24
 458:	86 2f       	mov	r24, r22
 45a:	90 e0       	ldi	r25, 0x00	; 0
 45c:	8e 01       	movw	r16, r28
 45e:	0f 5f       	subi	r16, 0xFF	; 255
 460:	1f 4f       	sbci	r17, 0xFF	; 255
 462:	b8 01       	movw	r22, r16
 464:	4a e0       	ldi	r20, 0x0A	; 10
 466:	50 e0       	ldi	r21, 0x00	; 0
 468:	0e 94 00 00 	call	0	; 0x0 <_ZN6StringD1Ev>
 46c:	f8 01       	movw	r30, r16
 46e:	01 90       	ld	r0, Z+
 470:	00 20       	and	r0, r0
 472:	01 f4       	brne	.+0      	; 0x474 <_ZN6String6concatEh+0x32>
 474:	af 01       	movw	r20, r30
 476:	41 50       	subi	r20, 0x01	; 1
 478:	50 40       	sbci	r21, 0x00	; 0
 47a:	40 1b       	sub	r20, r16
 47c:	51 0b       	sbc	r21, r17
 47e:	c7 01       	movw	r24, r14
 480:	b8 01       	movw	r22, r16
 482:	0e 94 00 00 	call	0	; 0x0 <_ZN6StringD1Ev>
 486:	0f 90       	pop	r0
 488:	0f 90       	pop	r0
 48a:	0f 90       	pop	r0
 48c:	0f 90       	pop	r0
 48e:	df 91       	pop	r29
 490:	cf 91       	pop	r28
 492:	1f 91       	pop	r17
 494:	0f 91       	pop	r16
 496:	ff 90       	pop	r15
 498:	ef 90       	pop	r14
 49a:	08 95       	ret

0000049c <_ZN6String6concatEi>:
 49c:	ef 92       	push	r14
 49e:	ff 92       	push	r15
 4a0:	0f 93       	push	r16
 4a2:	1f 93       	push	r17
 4a4:	cf 93       	push	r28
 4a6:	df 93       	push	r29
 4a8:	cd b7       	in	r28, 0x3d	; 61
 4aa:	de b7       	in	r29, 0x3e	; 62
 4ac:	27 97       	sbiw	r28, 0x07	; 7
 4ae:	0f b6       	in	r0, 0x3f	; 63
 4b0:	f8 94       	cli
 4b2:	de bf       	out	0x3e, r29	; 62
 4b4:	0f be       	out	0x3f, r0	; 63
 4b6:	cd bf       	out	0x3d, r28	; 61
 4b8:	7c 01       	movw	r14, r24
 4ba:	cb 01       	movw	r24, r22
 4bc:	8e 01       	movw	r16, r28
 4be:	0f 5f       	subi	r16, 0xFF	; 255
 4c0:	1f 4f       	sbci	r17, 0xFF	; 255
 4c2:	b8 01       	movw	r22, r16
 4c4:	4a e0       	ldi	r20, 0x0A	; 10
 4c6:	50 e0       	ldi	r21, 0x00	; 0
 4c8:	0e 94 00 00 	call	0	; 0x0 <_ZN6StringD1Ev>
 4cc:	f8 01       	movw	r30, r16
 4ce:	01 90       	ld	r0, Z+
 4d0:	00 20       	and	r0, r0
 4d2:	01 f4       	brne	.+0      	; 0x4d4 <_ZN6String6concatEi+0x38>
 4d4:	af 01       	movw	r20, r30
 4d6:	41 50       	subi	r20, 0x01	; 1
 4d8:	50 40       	sbci	r21, 0x00	; 0
 4da:	40 1b       	sub	r20, r16
 4dc:	51 0b       	sbc	r21, r17
 4de:	c7 01       	movw	r24, r14
 4e0:	b8 01       	movw	r22, r16
 4e2:	0e 94 00 00 	call	0	; 0x0 <_ZN6StringD1Ev>
 4e6:	27 96       	adiw	r28, 0x07	; 7
 4e8:	0f b6       	in	r0, 0x3f	; 63
 4ea:	f8 94       	cli
 4ec:	de bf       	out	0x3e, r29	; 62
 4ee:	0f be       	out	0x3f, r0	; 63
 4f0:	cd bf       	out	0x3d, r28	; 61
 4f2:	df 91       	pop	r29
 4f4:	cf 91       	pop	r28
 4f6:	1f 91       	pop	r17
 4f8:	0f 91       	pop	r16
 4fa:	ff 90       	pop	r15
 4fc:	ef 90       	pop	r14
 4fe:	08 95       	ret

00000500 <_ZN6String6concatEj>:
 500:	ef 92       	push	r14
 502:	ff 92       	push	r15
 504:	0f 93       	push	r16
 506:	1f 93       	push	r17
 508:	cf 93       	push	r28
 50a:	df 93       	push	r29
 50c:	00 d0       	rcall	.+0      	; 0x50e <_ZN6String6concatEj+0xe>
 50e:	00 d0       	rcall	.+0      	; 0x510 <_ZN6String6concatEj+0x10>
 510:	00 d0       	rcall	.+0      	; 0x512 <_ZN6String6concatEj+0x12>
 512:	cd b7       	in	r28, 0x3d	; 61
 514:	de b7       	in	r29, 0x3e	; 62
 516:	7c 01       	movw	r14, r24
 518:	cb 01       	movw	r24, r22
 51a:	8e 01       	movw	r16, r28
 51c:	0f 5f       	subi	r16, 0xFF	; 255
 51e:	1f 4f       	sbci	r17, 0xFF	; 255
 520:	b8 01       	movw	r22, r16
 522:	4a e0       	ldi	r20, 0x0A	; 10
 524:	50 e0       	ldi	r21, 0x00	; 0
 526:	0e 94 00 00 	call	0	; 0x0 <_ZN6StringD1Ev>
 52a:	f8 01       	movw	r30, r16
 52c:	01 90       	ld	r0, Z+
 52e:	00 20       	and	r0, r0
 530:	01 f4       	brne	.+0      	; 0x532 <_ZN6String6concatEj+0x32>
 532:	af 01       	movw	r20, r30
 534:	41 50       	subi	r20, 0x01	; 1
 536:	50 40       	sbci	r21, 0x00	; 0
 538:	40 1b       	sub	r20, r16
 53a:	51 0b       	sbc	r21, r17
 53c:	c7 01       	movw	r24, r14
 53e:	b8 01       	movw	r22, r16
 540:	0e 94 00 00 	call	0	; 0x0 <_ZN6StringD1Ev>
 544:	26 96       	adiw	r28, 0x06	; 6
 546:	0f b6       	in	r0, 0x3f	; 63
 548:	f8 94       	cli
 54a:	de bf       	out	0x3e, r29	; 62
 54c:	0f be       	out	0x3f, r0	; 63
 54e:	cd bf       	out	0x3d, r28	; 61
 550:	df 91       	pop	r29
 552:	cf 91       	pop	r28
 554:	1f 91       	pop	r17
 556:	0f 91       	pop	r16
 558:	ff 90       	pop	r15
 55a:	ef 90       	pop	r14
 55c:	08 95       	ret

0000055e <_ZN6String6concatEl>:
 55e:	ef 92       	push	r14
 560:	ff 92       	push	r15
 562:	0f 93       	push	r16
 564:	1f 93       	push	r17
 566:	cf 93       	push	r28
 568:	df 93       	push	r29
 56a:	cd b7       	in	r28, 0x3d	; 61
 56c:	de b7       	in	r29, 0x3e	; 62
 56e:	2c 97       	sbiw	r28, 0x0c	; 12
 570:	0f b6       	in	r0, 0x3f	; 63
 572:	f8 94       	cli
 574:	de bf       	out	0x3e, r29	; 62
 576:	0f be       	out	0x3f, r0	; 63
 578:	cd bf       	out	0x3d, r28	; 61
 57a:	7c 01       	movw	r14, r24
 57c:	cb 01       	movw	r24, r22
 57e:	ba 01       	movw	r22, r20
 580:	8e 01       	movw	r16, r28
 582:	0f 5f       	subi	r16, 0xFF	; 255
 584:	1f 4f       	sbci	r17, 0xFF	; 255
 586:	a8 01       	movw	r20, r16
 588:	2a e0       	ldi	r18, 0x0A	; 10
 58a:	30 e0       	ldi	r19, 0x00	; 0
 58c:	0e 94 00 00 	call	0	; 0x0 <_ZN6StringD1Ev>
 590:	f8 01       	movw	r30, r16
 592:	01 90       	ld	r0, Z+
 594:	00 20       	and	r0, r0
 596:	01 f4       	brne	.+0      	; 0x598 <_ZN6String6concatEl+0x3a>
 598:	af 01       	movw	r20, r30
 59a:	41 50       	subi	r20, 0x01	; 1
 59c:	50 40       	sbci	r21, 0x00	; 0
 59e:	40 1b       	sub	r20, r16
 5a0:	51 0b       	sbc	r21, r17
 5a2:	c7 01       	movw	r24, r14
 5a4:	b8 01       	movw	r22, r16
 5a6:	0e 94 00 00 	call	0	; 0x0 <_ZN6StringD1Ev>
 5aa:	2c 96       	adiw	r28, 0x0c	; 12
 5ac:	0f b6       	in	r0, 0x3f	; 63
 5ae:	f8 94       	cli
 5b0:	de bf       	out	0x3e, r29	; 62
 5b2:	0f be       	out	0x3f, r0	; 63
 5b4:	cd bf       	out	0x3d, r28	; 61
 5b6:	df 91       	pop	r29
 5b8:	cf 91       	pop	r28
 5ba:	1f 91       	pop	r17
 5bc:	0f 91       	pop	r16
 5be:	ff 90       	pop	r15
 5c0:	ef 90       	pop	r14
 5c2:	08 95       	ret

000005c4 <_ZN6String6concatEm>:
 5c4:	ef 92       	push	r14
 5c6:	ff 92       	push	r15
 5c8:	0f 93       	push	r16
 5ca:	1f 93       	push	r17
 5cc:	cf 93       	push	r28
 5ce:	df 93       	push	r29
 5d0:	cd b7       	in	r28, 0x3d	; 61
 5d2:	de b7       	in	r29, 0x3e	; 62
 5d4:	2b 97       	sbiw	r28, 0x0b	; 11
 5d6:	0f b6       	in	r0, 0x3f	; 63
 5d8:	f8 94       	cli
 5da:	de bf       	out	0x3e, r29	; 62
 5dc:	0f be       	out	0x3f, r0	; 63
 5de:	cd bf       	out	0x3d, r28	; 61
 5e0:	7c 01       	movw	r14, r24
 5e2:	cb 01       	movw	r24, r22
 5e4:	ba 01       	movw	r22, r20
 5e6:	8e 01       	movw	r16, r28
 5e8:	0f 5f       	subi	r16, 0xFF	; 255
 5ea:	1f 4f       	sbci	r17, 0xFF	; 255
 5ec:	a8 01       	movw	r20, r16
 5ee:	2a e0       	ldi	r18, 0x0A	; 10
 5f0:	30 e0       	ldi	r19, 0x00	; 0
 5f2:	0e 94 00 00 	call	0	; 0x0 <_ZN6StringD1Ev>
 5f6:	f8 01       	movw	r30, r16
 5f8:	01 90       	ld	r0, Z+
 5fa:	00 20       	and	r0, r0
 5fc:	01 f4       	brne	.+0      	; 0x5fe <_ZN6String6concatEm+0x3a>
 5fe:	af 01       	movw	r20, r30
 600:	41 50       	subi	r20, 0x01	; 1
 602:	50 40       	sbci	r21, 0x00	; 0
 604:	40 1b       	sub	r20, r16
 606:	51 0b       	sbc	r21, r17
 608:	c7 01       	movw	r24, r14
 60a:	b8 01       	movw	r22, r16
 60c:	0e 94 00 00 	call	0	; 0x0 <_ZN6StringD1Ev>
 610:	2b 96       	adiw	r28, 0x0b	; 11
 612:	0f b6       	in	r0, 0x3f	; 63
 614:	f8 94       	cli
 616:	de bf       	out	0x3e, r29	; 62
 618:	0f be       	out	0x3f, r0	; 63
 61a:	cd bf       	out	0x3d, r28	; 61
 61c:	df 91       	pop	r29
 61e:	cf 91       	pop	r28
 620:	1f 91       	pop	r17
 622:	0f 91       	pop	r16
 624:	ff 90       	pop	r15
 626:	ef 90       	pop	r14
 628:	08 95       	ret

0000062a <_ZplRK15StringSumHelperRK6String>:
 62a:	cf 93       	push	r28
 62c:	df 93       	push	r29
 62e:	d8 2f       	mov	r29, r24
 630:	c9 2f       	mov	r28, r25
 632:	fb 01       	movw	r30, r22
 634:	20 81       	ld	r18, Z
 636:	31 81       	ldd	r19, Z+1	; 0x01
 638:	44 81       	ldd	r20, Z+4	; 0x04
 63a:	55 81       	ldd	r21, Z+5	; 0x05
 63c:	b9 01       	movw	r22, r18
 63e:	0e 94 00 00 	call	0	; 0x0 <_ZN6StringD1Ev>
 642:	88 23       	and	r24, r24
 644:	01 f4       	brne	.+0      	; 0x646 <_ZplRK15StringSumHelperRK6String+0x1c>
 646:	8d 2f       	mov	r24, r29
 648:	9c 2f       	mov	r25, r28
 64a:	0e 94 00 00 	call	0	; 0x0 <_ZN6StringD1Ev>
 64e:	8d 2f       	mov	r24, r29
 650:	9c 2f       	mov	r25, r28
 652:	df 91       	pop	r29
 654:	cf 91       	pop	r28
 656:	08 95       	ret

00000658 <_ZplRK15StringSumHelperPKc>:
 658:	cf 93       	push	r28
 65a:	df 93       	push	r29
 65c:	ec 01       	movw	r28, r24
 65e:	61 15       	cp	r22, r1
 660:	71 05       	cpc	r23, r1
 662:	01 f0       	breq	.+0      	; 0x664 <_ZplRK15StringSumHelperPKc+0xc>
 664:	db 01       	movw	r26, r22
 666:	0d 90       	ld	r0, X+
 668:	00 20       	and	r0, r0
 66a:	01 f4       	brne	.+0      	; 0x66c <_ZplRK15StringSumHelperPKc+0x14>
 66c:	ad 01       	movw	r20, r26
 66e:	41 50       	subi	r20, 0x01	; 1
 670:	50 40       	sbci	r21, 0x00	; 0
 672:	46 1b       	sub	r20, r22
 674:	57 0b       	sbc	r21, r23
 676:	0e 94 00 00 	call	0	; 0x0 <_ZN6StringD1Ev>
 67a:	88 23       	and	r24, r24
 67c:	01 f4       	brne	.+0      	; 0x67e <_ZplRK15StringSumHelperPKc+0x26>
 67e:	ce 01       	movw	r24, r28
 680:	0e 94 00 00 	call	0	; 0x0 <_ZN6StringD1Ev>
 684:	ce 01       	movw	r24, r28
 686:	df 91       	pop	r29
 688:	cf 91       	pop	r28
 68a:	08 95       	ret

0000068c <_ZplRK15StringSumHelperc>:
 68c:	cf 93       	push	r28
 68e:	df 93       	push	r29
 690:	d8 2f       	mov	r29, r24
 692:	c9 2f       	mov	r28, r25
 694:	0e 94 00 00 	call	0	; 0x0 <_ZN6StringD1Ev>
 698:	88 23       	and	r24, r24
 69a:	01 f4       	brne	.+0      	; 0x69c <_ZplRK15StringSumHelperc+0x10>
 69c:	8d 2f       	mov	r24, r29
 69e:	9c 2f       	mov	r25, r28
 6a0:	0e 94 00 00 	call	0	; 0x0 <_ZN6StringD1Ev>
 6a4:	8d 2f       	mov	r24, r29
 6a6:	9c 2f       	mov	r25, r28
 6a8:	df 91       	pop	r29
 6aa:	cf 91       	pop	r28
 6ac:	08 95       	ret

000006ae <_ZplRK15StringSumHelperh>:
 6ae:	cf 93       	push	r28
 6b0:	df 93       	push	r29
 6b2:	d8 2f       	mov	r29, r24
 6b4:	c9 2f       	mov	r28, r25
 6b6:	0e 94 00 00 	call	0	; 0x0 <_ZN6StringD1Ev>
 6ba:	88 23       	and	r24, r24
 6bc:	01 f4       	brne	.+0      	; 0x6be <_ZplRK15StringSumHelperh+0x10>
 6be:	8d 2f       	mov	r24, r29
 6c0:	9c 2f       	mov	r25, r28
 6c2:	0e 94 00 00 	call	0	; 0x0 <_ZN6StringD1Ev>
 6c6:	8d 2f       	mov	r24, r29
 6c8:	9c 2f       	mov	r25, r28
 6ca:	df 91       	pop	r29
 6cc:	cf 91       	pop	r28
 6ce:	08 95       	ret

000006d0 <_ZplRK15StringSumHelperi>:
 6d0:	cf 93       	push	r28
 6d2:	df 93       	push	r29
 6d4:	d8 2f       	mov	r29, r24
 6d6:	c9 2f       	mov	r28, r25
 6d8:	0e 94 00 00 	call	0	; 0x0 <_ZN6StringD1Ev>
 6dc:	88 23       	and	r24, r24
 6de:	01 f4       	brne	.+0      	; 0x6e0 <_ZplRK15StringSumHelperi+0x10>
 6e0:	8d 2f       	mov	r24, r29
 6e2:	9c 2f       	mov	r25, r28
 6e4:	0e 94 00 00 	call	0	; 0x0 <_ZN6StringD1Ev>
 6e8:	8d 2f       	mov	r24, r29
 6ea:	9c 2f       	mov	r25, r28
 6ec:	df 91       	pop	r29
 6ee:	cf 91       	pop	r28
 6f0:	08 95       	ret

000006f2 <_ZplRK15StringSumHelperj>:
 6f2:	cf 93       	push	r28
 6f4:	df 93       	push	r29
 6f6:	d8 2f       	mov	r29, r24
 6f8:	c9 2f       	mov	r28, r25
 6fa:	0e 94 00 00 	call	0	; 0x0 <_ZN6StringD1Ev>
 6fe:	88 23       	and	r24, r24
 700:	01 f4       	brne	.+0      	; 0x702 <_ZplRK15StringSumHelperj+0x10>
 702:	8d 2f       	mov	r24, r29
 704:	9c 2f       	mov	r25, r28
 706:	0e 94 00 00 	call	0	; 0x0 <_ZN6StringD1Ev>
 70a:	8d 2f       	mov	r24, r29
 70c:	9c 2f       	mov	r25, r28
 70e:	df 91       	pop	r29
 710:	cf 91       	pop	r28
 712:	08 95       	ret

00000714 <_ZplRK15StringSumHelperl>:
 714:	cf 93       	push	r28
 716:	df 93       	push	r29
 718:	d8 2f       	mov	r29, r24
 71a:	c9 2f       	mov	r28, r25
 71c:	0e 94 00 00 	call	0	; 0x0 <_ZN6StringD1Ev>
 720:	88 23       	and	r24, r24
 722:	01 f4       	brne	.+0      	; 0x724 <_ZplRK15StringSumHelperl+0x10>
 724:	8d 2f       	mov	r24, r29
 726:	9c 2f       	mov	r25, r28
 728:	0e 94 00 00 	call	0	; 0x0 <_ZN6StringD1Ev>
 72c:	8d 2f       	mov	r24, r29
 72e:	9c 2f       	mov	r25, r28
 730:	df 91       	pop	r29
 732:	cf 91       	pop	r28
 734:	08 95       	ret

00000736 <_ZplRK15StringSumHelperm>:
 736:	cf 93       	push	r28
 738:	df 93       	push	r29
 73a:	d8 2f       	mov	r29, r24
 73c:	c9 2f       	mov	r28, r25
 73e:	0e 94 00 00 	call	0	; 0x0 <_ZN6StringD1Ev>
 742:	88 23       	and	r24, r24
 744:	01 f4       	brne	.+0      	; 0x746 <_ZplRK15StringSumHelperm+0x10>
 746:	8d 2f       	mov	r24, r29
 748:	9c 2f       	mov	r25, r28
 74a:	0e 94 00 00 	call	0	; 0x0 <_ZN6StringD1Ev>
 74e:	8d 2f       	mov	r24, r29
 750:	9c 2f       	mov	r25, r28
 752:	df 91       	pop	r29
 754:	cf 91       	pop	r28
 756:	08 95       	ret

00000758 <_ZNK6String9compareToERKS_>:
 758:	cf 93       	push	r28
 75a:	df 93       	push	r29
 75c:	9c 01       	movw	r18, r24
 75e:	db 01       	movw	r26, r22
 760:	fc 01       	movw	r30, r24
 762:	c0 81       	ld	r28, Z
 764:	d1 81       	ldd	r29, Z+1	; 0x01
 766:	ed 91       	ld	r30, X+
 768:	fc 91       	ld	r31, X
 76a:	11 97       	sbiw	r26, 0x01	; 1
 76c:	20 97       	sbiw	r28, 0x00	; 0
 76e:	01 f0       	breq	.+0      	; 0x770 <_ZNK6String9compareToERKS_+0x18>
 770:	30 97       	sbiw	r30, 0x00	; 0
 772:	01 f4       	brne	.+0      	; 0x774 <_ZNK6String9compareToERKS_+0x1c>
 774:	30 97       	sbiw	r30, 0x00	; 0
 776:	01 f0       	breq	.+0      	; 0x778 <_ZNK6String9compareToERKS_+0x20>
 778:	14 96       	adiw	r26, 0x04	; 4
 77a:	8d 91       	ld	r24, X+
 77c:	9c 91       	ld	r25, X
 77e:	15 97       	sbiw	r26, 0x05	; 5
 780:	00 97       	sbiw	r24, 0x00	; 0
 782:	01 f0       	breq	.+0      	; 0x784 <_ZNK6String9compareToERKS_+0x2c>
 784:	20 81       	ld	r18, Z
 786:	30 e0       	ldi	r19, 0x00	; 0
 788:	30 95       	com	r19
 78a:	21 95       	neg	r18
 78c:	3f 4f       	sbci	r19, 0xFF	; 255
 78e:	00 c0       	rjmp	.+0      	; 0x790 <_ZNK6String9compareToERKS_+0x38>
 790:	20 97       	sbiw	r28, 0x00	; 0
 792:	01 f0       	breq	.+0      	; 0x794 <_ZNK6String9compareToERKS_+0x3c>
 794:	f9 01       	movw	r30, r18
 796:	84 81       	ldd	r24, Z+4	; 0x04
 798:	95 81       	ldd	r25, Z+5	; 0x05
 79a:	00 97       	sbiw	r24, 0x00	; 0
 79c:	01 f0       	breq	.+0      	; 0x79e <_ZNK6String9compareToERKS_+0x46>
 79e:	28 81       	ld	r18, Y
 7a0:	30 e0       	ldi	r19, 0x00	; 0
 7a2:	00 c0       	rjmp	.+0      	; 0x7a4 <_ZNK6String9compareToERKS_+0x4c>
 7a4:	ce 01       	movw	r24, r28
 7a6:	bf 01       	movw	r22, r30
 7a8:	0e 94 00 00 	call	0	; 0x0 <_ZN6StringD1Ev>
 7ac:	9c 01       	movw	r18, r24
 7ae:	00 c0       	rjmp	.+0      	; 0x7b0 <_ZNK6String9compareToERKS_+0x58>
 7b0:	20 e0       	ldi	r18, 0x00	; 0
 7b2:	30 e0       	ldi	r19, 0x00	; 0
 7b4:	c9 01       	movw	r24, r18
 7b6:	df 91       	pop	r29
 7b8:	cf 91       	pop	r28
 7ba:	08 95       	ret

000007bc <_ZNK6String6equalsERKS_>:
 7bc:	fc 01       	movw	r30, r24
 7be:	24 81       	ldd	r18, Z+4	; 0x04
 7c0:	35 81       	ldd	r19, Z+5	; 0x05
 7c2:	fb 01       	movw	r30, r22
 7c4:	44 81       	ldd	r20, Z+4	; 0x04
 7c6:	55 81       	ldd	r21, Z+5	; 0x05
 7c8:	24 17       	cp	r18, r20
 7ca:	35 07       	cpc	r19, r21
 7cc:	01 f4       	brne	.+0      	; 0x7ce <_ZNK6String6equalsERKS_+0x12>
 7ce:	0e 94 00 00 	call	0	; 0x0 <_ZN6StringD1Ev>
 7d2:	21 e0       	ldi	r18, 0x01	; 1
 7d4:	00 97       	sbiw	r24, 0x00	; 0
 7d6:	01 f0       	breq	.+0      	; 0x7d8 <_ZNK6String6equalsERKS_+0x1c>
 7d8:	20 e0       	ldi	r18, 0x00	; 0
 7da:	82 2f       	mov	r24, r18
 7dc:	08 95       	ret

000007de <_ZNK6String6equalsEPKc>:
 7de:	fc 01       	movw	r30, r24
 7e0:	84 81       	ldd	r24, Z+4	; 0x04
 7e2:	95 81       	ldd	r25, Z+5	; 0x05
 7e4:	00 97       	sbiw	r24, 0x00	; 0
 7e6:	01 f4       	brne	.+0      	; 0x7e8 <_ZNK6String6equalsEPKc+0xa>
 7e8:	81 e0       	ldi	r24, 0x01	; 1
 7ea:	61 15       	cp	r22, r1
 7ec:	71 05       	cpc	r23, r1
 7ee:	01 f0       	breq	.+0      	; 0x7f0 <_ZNK6String6equalsEPKc+0x12>
 7f0:	fb 01       	movw	r30, r22
 7f2:	00 c0       	rjmp	.+0      	; 0x7f4 <_ZNK6String6equalsEPKc+0x16>
 7f4:	08 95       	ret
 7f6:	01 90       	ld	r0, Z+
 7f8:	f0 81       	ld	r31, Z
 7fa:	e0 2d       	mov	r30, r0
 7fc:	61 15       	cp	r22, r1
 7fe:	71 05       	cpc	r23, r1
 800:	01 f4       	brne	.+0      	; 0x802 <_ZNK6String6equalsEPKc+0x24>
 802:	81 e0       	ldi	r24, 0x01	; 1
 804:	90 81       	ld	r25, Z
 806:	99 23       	and	r25, r25
 808:	01 f0       	breq	.+0      	; 0x80a <_ZNK6String6equalsEPKc+0x2c>
 80a:	80 e0       	ldi	r24, 0x00	; 0
 80c:	08 95       	ret
 80e:	cf 01       	movw	r24, r30
 810:	0e 94 00 00 	call	0	; 0x0 <_ZN6StringD1Ev>
 814:	9c 01       	movw	r18, r24
 816:	81 e0       	ldi	r24, 0x01	; 1
 818:	21 15       	cp	r18, r1
 81a:	31 05       	cpc	r19, r1
 81c:	01 f0       	breq	.+0      	; 0x81e <_ZNK6String6equalsEPKc+0x40>
 81e:	80 e0       	ldi	r24, 0x00	; 0
 820:	08 95       	ret

00000822 <_ZNK6StringltERKS_>:
 822:	0e 94 00 00 	call	0	; 0x0 <_ZN6StringD1Ev>
 826:	89 2f       	mov	r24, r25
 828:	88 1f       	adc	r24, r24
 82a:	88 27       	eor	r24, r24
 82c:	88 1f       	adc	r24, r24
 82e:	08 95       	ret

00000830 <_ZNK6StringgtERKS_>:
 830:	0e 94 00 00 	call	0	; 0x0 <_ZN6StringD1Ev>
 834:	21 e0       	ldi	r18, 0x01	; 1
 836:	18 16       	cp	r1, r24
 838:	19 06       	cpc	r1, r25
 83a:	04 f0       	brlt	.+0      	; 0x83c <_ZNK6StringgtERKS_+0xc>
 83c:	20 e0       	ldi	r18, 0x00	; 0
 83e:	82 2f       	mov	r24, r18
 840:	08 95       	ret

00000842 <_ZNK6StringleERKS_>:
 842:	0e 94 00 00 	call	0	; 0x0 <_ZN6StringD1Ev>
 846:	21 e0       	ldi	r18, 0x01	; 1
 848:	18 16       	cp	r1, r24
 84a:	19 06       	cpc	r1, r25
 84c:	04 f4       	brge	.+0      	; 0x84e <_ZNK6StringleERKS_+0xc>
 84e:	20 e0       	ldi	r18, 0x00	; 0
 850:	82 2f       	mov	r24, r18
 852:	08 95       	ret

00000854 <_ZNK6StringgeERKS_>:
 854:	0e 94 00 00 	call	0	; 0x0 <_ZN6StringD1Ev>
 858:	89 2f       	mov	r24, r25
 85a:	80 95       	com	r24
 85c:	88 1f       	adc	r24, r24
 85e:	88 27       	eor	r24, r24
 860:	88 1f       	adc	r24, r24
 862:	08 95       	ret

00000864 <_ZNK6String16equalsIgnoreCaseERKS_>:
 864:	ef 92       	push	r14
 866:	ff 92       	push	r15
 868:	0f 93       	push	r16
 86a:	1f 93       	push	r17
 86c:	cf 93       	push	r28
 86e:	df 93       	push	r29
 870:	dc 01       	movw	r26, r24
 872:	fb 01       	movw	r30, r22
 874:	86 17       	cp	r24, r22
 876:	97 07       	cpc	r25, r23
 878:	01 f0       	breq	.+0      	; 0x87a <_ZNK6String16equalsIgnoreCaseERKS_+0x16>
 87a:	14 96       	adiw	r26, 0x04	; 4
 87c:	8d 91       	ld	r24, X+
 87e:	9c 91       	ld	r25, X
 880:	15 97       	sbiw	r26, 0x05	; 5
 882:	24 81       	ldd	r18, Z+4	; 0x04
 884:	35 81       	ldd	r19, Z+5	; 0x05
 886:	82 17       	cp	r24, r18
 888:	93 07       	cpc	r25, r19
 88a:	01 f4       	brne	.+0      	; 0x88c <_ZNK6String16equalsIgnoreCaseERKS_+0x28>
 88c:	00 97       	sbiw	r24, 0x00	; 0
 88e:	01 f0       	breq	.+0      	; 0x890 <_ZNK6String16equalsIgnoreCaseERKS_+0x2c>
 890:	e0 80       	ld	r14, Z
 892:	f1 80       	ldd	r15, Z+1	; 0x01
 894:	0d 91       	ld	r16, X+
 896:	1c 91       	ld	r17, X
 898:	11 97       	sbiw	r26, 0x01	; 1
 89a:	00 c0       	rjmp	.+0      	; 0x89c <_ZNK6String16equalsIgnoreCaseERKS_+0x38>
 89c:	90 e0       	ldi	r25, 0x00	; 0
 89e:	0e 94 00 00 	call	0	; 0x0 <_ZN6StringD1Ev>
 8a2:	ec 01       	movw	r28, r24
 8a4:	f7 01       	movw	r30, r14
 8a6:	81 91       	ld	r24, Z+
 8a8:	7f 01       	movw	r14, r30
 8aa:	90 e0       	ldi	r25, 0x00	; 0
 8ac:	0e 94 00 00 	call	0	; 0x0 <_ZN6StringD1Ev>
 8b0:	c8 17       	cp	r28, r24
 8b2:	d9 07       	cpc	r29, r25
 8b4:	01 f4       	brne	.+0      	; 0x8b6 <_ZNK6String16equalsIgnoreCaseERKS_+0x52>
 8b6:	f8 01       	movw	r30, r16
 8b8:	81 91       	ld	r24, Z+
 8ba:	8f 01       	movw	r16, r30
 8bc:	88 23       	and	r24, r24
 8be:	01 f4       	brne	.+0      	; 0x8c0 <_ZNK6String16equalsIgnoreCaseERKS_+0x5c>
 8c0:	81 e0       	ldi	r24, 0x01	; 1
 8c2:	00 c0       	rjmp	.+0      	; 0x8c4 <_ZNK6String16equalsIgnoreCaseERKS_+0x60>
 8c4:	80 e0       	ldi	r24, 0x00	; 0
 8c6:	df 91       	pop	r29
 8c8:	cf 91       	pop	r28
 8ca:	1f 91       	pop	r17
 8cc:	0f 91       	pop	r16
 8ce:	ff 90       	pop	r15
 8d0:	ef 90       	pop	r14
 8d2:	08 95       	ret

000008d4 <_ZNK6String10startsWithERKS_j>:
 8d4:	fc 01       	movw	r30, r24
 8d6:	db 01       	movw	r26, r22
 8d8:	9a 01       	movw	r18, r20
 8da:	14 96       	adiw	r26, 0x04	; 4
 8dc:	4d 91       	ld	r20, X+
 8de:	5c 91       	ld	r21, X
 8e0:	15 97       	sbiw	r26, 0x05	; 5
 8e2:	84 81       	ldd	r24, Z+4	; 0x04
 8e4:	95 81       	ldd	r25, Z+5	; 0x05
 8e6:	84 1b       	sub	r24, r20
 8e8:	95 0b       	sbc	r25, r21
 8ea:	82 17       	cp	r24, r18
 8ec:	93 07       	cpc	r25, r19
 8ee:	00 f0       	brcs	.+0      	; 0x8f0 <_ZNK6String10startsWithERKS_j+0x1c>
 8f0:	80 81       	ld	r24, Z
 8f2:	91 81       	ldd	r25, Z+1	; 0x01
 8f4:	00 97       	sbiw	r24, 0x00	; 0
 8f6:	01 f0       	breq	.+0      	; 0x8f8 <_ZNK6String10startsWithERKS_j+0x24>
 8f8:	6d 91       	ld	r22, X+
 8fa:	7c 91       	ld	r23, X
 8fc:	11 97       	sbiw	r26, 0x01	; 1
 8fe:	61 15       	cp	r22, r1
 900:	71 05       	cpc	r23, r1
 902:	01 f0       	breq	.+0      	; 0x904 <_ZNK6String10startsWithERKS_j+0x30>
 904:	82 0f       	add	r24, r18
 906:	93 1f       	adc	r25, r19
 908:	0e 94 00 00 	call	0	; 0x0 <_ZN6StringD1Ev>
 90c:	9c 01       	movw	r18, r24
 90e:	81 e0       	ldi	r24, 0x01	; 1
 910:	21 15       	cp	r18, r1
 912:	31 05       	cpc	r19, r1
 914:	01 f0       	breq	.+0      	; 0x916 <_ZNK6String10startsWithERKS_j+0x42>
 916:	80 e0       	ldi	r24, 0x00	; 0
 918:	08 95       	ret
 91a:	80 e0       	ldi	r24, 0x00	; 0
 91c:	08 95       	ret

0000091e <_ZNK6String10startsWithERKS_>:
 91e:	fc 01       	movw	r30, r24
 920:	24 81       	ldd	r18, Z+4	; 0x04
 922:	35 81       	ldd	r19, Z+5	; 0x05
 924:	fb 01       	movw	r30, r22
 926:	44 81       	ldd	r20, Z+4	; 0x04
 928:	55 81       	ldd	r21, Z+5	; 0x05
 92a:	24 17       	cp	r18, r20
 92c:	35 07       	cpc	r19, r21
 92e:	00 f0       	brcs	.+0      	; 0x930 <_ZNK6String10startsWithERKS_+0x12>
 930:	40 e0       	ldi	r20, 0x00	; 0
 932:	50 e0       	ldi	r21, 0x00	; 0
 934:	0e 94 00 00 	call	0	; 0x0 <_ZN6StringD1Ev>
 938:	08 95       	ret
 93a:	80 e0       	ldi	r24, 0x00	; 0
 93c:	08 95       	ret

0000093e <_ZNK6String8endsWithERKS_>:
 93e:	fc 01       	movw	r30, r24
 940:	db 01       	movw	r26, r22
 942:	84 81       	ldd	r24, Z+4	; 0x04
 944:	95 81       	ldd	r25, Z+5	; 0x05
 946:	14 96       	adiw	r26, 0x04	; 4
 948:	4d 91       	ld	r20, X+
 94a:	5c 91       	ld	r21, X
 94c:	15 97       	sbiw	r26, 0x05	; 5
 94e:	84 17       	cp	r24, r20
 950:	95 07       	cpc	r25, r21
 952:	00 f0       	brcs	.+0      	; 0x954 <_ZNK6String8endsWithERKS_+0x16>
 954:	20 81       	ld	r18, Z
 956:	31 81       	ldd	r19, Z+1	; 0x01
 958:	21 15       	cp	r18, r1
 95a:	31 05       	cpc	r19, r1
 95c:	01 f0       	breq	.+0      	; 0x95e <_ZNK6String8endsWithERKS_+0x20>
 95e:	6d 91       	ld	r22, X+
 960:	7c 91       	ld	r23, X
 962:	11 97       	sbiw	r26, 0x01	; 1
 964:	61 15       	cp	r22, r1
 966:	71 05       	cpc	r23, r1
 968:	01 f0       	breq	.+0      	; 0x96a <_ZNK6String8endsWithERKS_+0x2c>
 96a:	84 1b       	sub	r24, r20
 96c:	95 0b       	sbc	r25, r21
 96e:	82 0f       	add	r24, r18
 970:	93 1f       	adc	r25, r19
 972:	0e 94 00 00 	call	0	; 0x0 <_ZN6StringD1Ev>
 976:	9c 01       	movw	r18, r24
 978:	81 e0       	ldi	r24, 0x01	; 1
 97a:	21 15       	cp	r18, r1
 97c:	31 05       	cpc	r19, r1
 97e:	01 f0       	breq	.+0      	; 0x980 <_ZNK6String8endsWithERKS_+0x42>
 980:	80 e0       	ldi	r24, 0x00	; 0
 982:	08 95       	ret
 984:	80 e0       	ldi	r24, 0x00	; 0
 986:	08 95       	ret

00000988 <_ZN6String9setCharAtEjc>:
 988:	fc 01       	movw	r30, r24
 98a:	84 81       	ldd	r24, Z+4	; 0x04
 98c:	95 81       	ldd	r25, Z+5	; 0x05
 98e:	68 17       	cp	r22, r24
 990:	79 07       	cpc	r23, r25
 992:	00 f4       	brcc	.+0      	; 0x994 <_ZN6String9setCharAtEjc+0xc>
 994:	01 90       	ld	r0, Z+
 996:	f0 81       	ld	r31, Z
 998:	e0 2d       	mov	r30, r0
 99a:	e6 0f       	add	r30, r22
 99c:	f7 1f       	adc	r31, r23
 99e:	40 83       	st	Z, r20
 9a0:	08 95       	ret

000009a2 <_ZN6StringixEj>:
 9a2:	fc 01       	movw	r30, r24
 9a4:	84 81       	ldd	r24, Z+4	; 0x04
 9a6:	95 81       	ldd	r25, Z+5	; 0x05
 9a8:	68 17       	cp	r22, r24
 9aa:	79 07       	cpc	r23, r25
 9ac:	00 f4       	brcc	.+0      	; 0x9ae <_ZN6StringixEj+0xc>
 9ae:	80 81       	ld	r24, Z
 9b0:	91 81       	ldd	r25, Z+1	; 0x01
 9b2:	00 97       	sbiw	r24, 0x00	; 0
 9b4:	01 f4       	brne	.+0      	; 0x9b6 <_ZN6StringixEj+0x14>
 9b6:	10 92 00 00 	sts	0x0000, r1
 9ba:	80 e0       	ldi	r24, 0x00	; 0
 9bc:	90 e0       	ldi	r25, 0x00	; 0
 9be:	08 95       	ret
 9c0:	86 0f       	add	r24, r22
 9c2:	97 1f       	adc	r25, r23
 9c4:	08 95       	ret

000009c6 <_ZNK6StringixEj>:
 9c6:	fc 01       	movw	r30, r24
 9c8:	84 81       	ldd	r24, Z+4	; 0x04
 9ca:	95 81       	ldd	r25, Z+5	; 0x05
 9cc:	68 17       	cp	r22, r24
 9ce:	79 07       	cpc	r23, r25
 9d0:	00 f4       	brcc	.+0      	; 0x9d2 <_ZNK6StringixEj+0xc>
 9d2:	80 81       	ld	r24, Z
 9d4:	91 81       	ldd	r25, Z+1	; 0x01
 9d6:	00 97       	sbiw	r24, 0x00	; 0
 9d8:	01 f0       	breq	.+0      	; 0x9da <_ZNK6StringixEj+0x14>
 9da:	68 0f       	add	r22, r24
 9dc:	79 1f       	adc	r23, r25
 9de:	fb 01       	movw	r30, r22
 9e0:	80 81       	ld	r24, Z
 9e2:	08 95       	ret
 9e4:	80 e0       	ldi	r24, 0x00	; 0
 9e6:	08 95       	ret
 9e8:	80 e0       	ldi	r24, 0x00	; 0
 9ea:	08 95       	ret

000009ec <_ZNK6String6charAtEj>:
 9ec:	0e 94 00 00 	call	0	; 0x0 <_ZN6StringD1Ev>
 9f0:	08 95       	ret

000009f2 <_ZNK6String8getBytesEPhjj>:
 9f2:	0f 93       	push	r16
 9f4:	1f 93       	push	r17
 9f6:	cf 93       	push	r28
 9f8:	df 93       	push	r29
 9fa:	fc 01       	movw	r30, r24
 9fc:	8b 01       	movw	r16, r22
 9fe:	41 15       	cp	r20, r1
 a00:	51 05       	cpc	r21, r1
 a02:	01 f0       	breq	.+0      	; 0xa04 <_ZNK6String8getBytesEPhjj+0x12>
 a04:	61 15       	cp	r22, r1
 a06:	71 05       	cpc	r23, r1
 a08:	01 f0       	breq	.+0      	; 0xa0a <_ZNK6String8getBytesEPhjj+0x18>
 a0a:	c4 81       	ldd	r28, Z+4	; 0x04
 a0c:	d5 81       	ldd	r29, Z+5	; 0x05
 a0e:	2c 17       	cp	r18, r28
 a10:	3d 07       	cpc	r19, r29
 a12:	00 f0       	brcs	.+0      	; 0xa14 <_ZNK6String8getBytesEPhjj+0x22>
 a14:	fb 01       	movw	r30, r22
 a16:	10 82       	st	Z, r1
 a18:	00 c0       	rjmp	.+0      	; 0xa1a <_ZNK6String8getBytesEPhjj+0x28>
 a1a:	41 50       	subi	r20, 0x01	; 1
 a1c:	50 40       	sbci	r21, 0x00	; 0
 a1e:	c2 1b       	sub	r28, r18
 a20:	d3 0b       	sbc	r29, r19
 a22:	4c 17       	cp	r20, r28
 a24:	5d 07       	cpc	r21, r29
 a26:	00 f4       	brcc	.+0      	; 0xa28 <_ZNK6String8getBytesEPhjj+0x36>
 a28:	ea 01       	movw	r28, r20
 a2a:	60 81       	ld	r22, Z
 a2c:	71 81       	ldd	r23, Z+1	; 0x01
 a2e:	62 0f       	add	r22, r18
 a30:	73 1f       	adc	r23, r19
 a32:	c8 01       	movw	r24, r16
 a34:	ae 01       	movw	r20, r28
 a36:	0e 94 00 00 	call	0	; 0x0 <_ZN6StringD1Ev>
 a3a:	c0 0f       	add	r28, r16
 a3c:	d1 1f       	adc	r29, r17
 a3e:	18 82       	st	Y, r1
 a40:	df 91       	pop	r29
 a42:	cf 91       	pop	r28
 a44:	1f 91       	pop	r17
 a46:	0f 91       	pop	r16
 a48:	08 95       	ret

00000a4a <_ZNK6String7indexOfEcj>:
 a4a:	cf 93       	push	r28
 a4c:	df 93       	push	r29
 a4e:	fc 01       	movw	r30, r24
 a50:	ca 01       	movw	r24, r20
 a52:	24 81       	ldd	r18, Z+4	; 0x04
 a54:	35 81       	ldd	r19, Z+5	; 0x05
 a56:	42 17       	cp	r20, r18
 a58:	53 07       	cpc	r21, r19
 a5a:	00 f4       	brcc	.+0      	; 0xa5c <_ZNK6String7indexOfEcj+0x12>
 a5c:	c0 81       	ld	r28, Z
 a5e:	d1 81       	ldd	r29, Z+1	; 0x01
 a60:	8c 0f       	add	r24, r28
 a62:	9d 1f       	adc	r25, r29
 a64:	70 e0       	ldi	r23, 0x00	; 0
 a66:	0e 94 00 00 	call	0	; 0x0 <_ZN6StringD1Ev>
 a6a:	00 97       	sbiw	r24, 0x00	; 0
 a6c:	01 f0       	breq	.+0      	; 0xa6e <_ZNK6String7indexOfEcj+0x24>
 a6e:	8c 1b       	sub	r24, r28
 a70:	9d 0b       	sbc	r25, r29
 a72:	00 c0       	rjmp	.+0      	; 0xa74 <_ZNK6String7indexOfEcj+0x2a>
 a74:	8f ef       	ldi	r24, 0xFF	; 255
 a76:	9f ef       	ldi	r25, 0xFF	; 255
 a78:	df 91       	pop	r29
 a7a:	cf 91       	pop	r28
 a7c:	08 95       	ret

00000a7e <_ZNK6String7indexOfEc>:
 a7e:	40 e0       	ldi	r20, 0x00	; 0
 a80:	50 e0       	ldi	r21, 0x00	; 0
 a82:	0e 94 00 00 	call	0	; 0x0 <_ZN6StringD1Ev>
 a86:	08 95       	ret

00000a88 <_ZNK6String7indexOfERKS_j>:
 a88:	cf 93       	push	r28
 a8a:	df 93       	push	r29
 a8c:	fc 01       	movw	r30, r24
 a8e:	84 81       	ldd	r24, Z+4	; 0x04
 a90:	95 81       	ldd	r25, Z+5	; 0x05
 a92:	48 17       	cp	r20, r24
 a94:	59 07       	cpc	r21, r25
 a96:	00 f4       	brcc	.+0      	; 0xa98 <_ZNK6String7indexOfERKS_j+0x10>
 a98:	c0 81       	ld	r28, Z
 a9a:	d1 81       	ldd	r29, Z+1	; 0x01
 a9c:	fb 01       	movw	r30, r22
 a9e:	60 81       	ld	r22, Z
 aa0:	71 81       	ldd	r23, Z+1	; 0x01
 aa2:	ce 01       	movw	r24, r28
 aa4:	84 0f       	add	r24, r20
 aa6:	95 1f       	adc	r25, r21
 aa8:	0e 94 00 00 	call	0	; 0x0 <_ZN6StringD1Ev>
 aac:	00 97       	sbiw	r24, 0x00	; 0
 aae:	01 f0       	breq	.+0      	; 0xab0 <_ZNK6String7indexOfERKS_j+0x28>
 ab0:	8c 1b       	sub	r24, r28
 ab2:	9d 0b       	sbc	r25, r29
 ab4:	00 c0       	rjmp	.+0      	; 0xab6 <_ZNK6String7indexOfERKS_j+0x2e>
 ab6:	8f ef       	ldi	r24, 0xFF	; 255
 ab8:	9f ef       	ldi	r25, 0xFF	; 255
 aba:	df 91       	pop	r29
 abc:	cf 91       	pop	r28
 abe:	08 95       	ret

00000ac0 <_ZNK6String7indexOfERKS_>:
 ac0:	40 e0       	ldi	r20, 0x00	; 0
 ac2:	50 e0       	ldi	r21, 0x00	; 0
 ac4:	0e 94 00 00 	call	0	; 0x0 <_ZN6StringD1Ev>
 ac8:	08 95       	ret

00000aca <_ZNK6String11lastIndexOfEcj>:
 aca:	df 92       	push	r13
 acc:	ef 92       	push	r14
 ace:	ff 92       	push	r15
 ad0:	0f 93       	push	r16
 ad2:	1f 93       	push	r17
 ad4:	cf 93       	push	r28
 ad6:	df 93       	push	r29
 ad8:	ec 01       	movw	r28, r24
 ada:	8c 81       	ldd	r24, Y+4	; 0x04
 adc:	9d 81       	ldd	r25, Y+5	; 0x05
 ade:	48 17       	cp	r20, r24
 ae0:	59 07       	cpc	r21, r25
 ae2:	00 f4       	brcc	.+0      	; 0xae4 <_ZNK6String11lastIndexOfEcj+0x1a>
 ae4:	7a 01       	movw	r14, r20
 ae6:	08 94       	sec
 ae8:	e1 1c       	adc	r14, r1
 aea:	f1 1c       	adc	r15, r1
 aec:	e8 81       	ld	r30, Y
 aee:	f9 81       	ldd	r31, Y+1	; 0x01
 af0:	ee 0d       	add	r30, r14
 af2:	ff 1d       	adc	r31, r15
 af4:	d0 80       	ld	r13, Z
 af6:	10 82       	st	Z, r1
 af8:	08 81       	ld	r16, Y
 afa:	19 81       	ldd	r17, Y+1	; 0x01
 afc:	c8 01       	movw	r24, r16
 afe:	70 e0       	ldi	r23, 0x00	; 0
 b00:	0e 94 00 00 	call	0	; 0x0 <_ZN6StringD1Ev>
 b04:	0e 0d       	add	r16, r14
 b06:	1f 1d       	adc	r17, r15
 b08:	f8 01       	movw	r30, r16
 b0a:	d0 82       	st	Z, r13
 b0c:	00 97       	sbiw	r24, 0x00	; 0
 b0e:	01 f0       	breq	.+0      	; 0xb10 <_ZNK6String11lastIndexOfEcj+0x46>
 b10:	28 81       	ld	r18, Y
 b12:	39 81       	ldd	r19, Y+1	; 0x01
 b14:	82 1b       	sub	r24, r18
 b16:	93 0b       	sbc	r25, r19
 b18:	00 c0       	rjmp	.+0      	; 0xb1a <_ZNK6String11lastIndexOfEcj+0x50>
 b1a:	8f ef       	ldi	r24, 0xFF	; 255
 b1c:	9f ef       	ldi	r25, 0xFF	; 255
 b1e:	df 91       	pop	r29
 b20:	cf 91       	pop	r28
 b22:	1f 91       	pop	r17
 b24:	0f 91       	pop	r16
 b26:	ff 90       	pop	r15
 b28:	ef 90       	pop	r14
 b2a:	df 90       	pop	r13
 b2c:	08 95       	ret

00000b2e <_ZNK6String11lastIndexOfEc>:
 b2e:	fc 01       	movw	r30, r24
 b30:	44 81       	ldd	r20, Z+4	; 0x04
 b32:	55 81       	ldd	r21, Z+5	; 0x05
 b34:	41 50       	subi	r20, 0x01	; 1
 b36:	50 40       	sbci	r21, 0x00	; 0
 b38:	0e 94 00 00 	call	0	; 0x0 <_ZN6StringD1Ev>
 b3c:	08 95       	ret

00000b3e <_ZNK6String11lastIndexOfERKS_j>:
 b3e:	af 92       	push	r10
 b40:	bf 92       	push	r11
 b42:	cf 92       	push	r12
 b44:	df 92       	push	r13
 b46:	ef 92       	push	r14
 b48:	ff 92       	push	r15
 b4a:	0f 93       	push	r16
 b4c:	1f 93       	push	r17
 b4e:	cf 93       	push	r28
 b50:	df 93       	push	r29
 b52:	fc 01       	movw	r30, r24
 b54:	6b 01       	movw	r12, r22
 b56:	7a 01       	movw	r14, r20
 b58:	db 01       	movw	r26, r22
 b5a:	14 96       	adiw	r26, 0x04	; 4
 b5c:	2d 91       	ld	r18, X+
 b5e:	3c 91       	ld	r19, X
 b60:	15 97       	sbiw	r26, 0x05	; 5
 b62:	21 15       	cp	r18, r1
 b64:	31 05       	cpc	r19, r1
 b66:	01 f0       	breq	.+0      	; 0xb68 <_ZNK6String11lastIndexOfERKS_j+0x2a>
 b68:	84 81       	ldd	r24, Z+4	; 0x04
 b6a:	95 81       	ldd	r25, Z+5	; 0x05
 b6c:	00 97       	sbiw	r24, 0x00	; 0
 b6e:	01 f0       	breq	.+0      	; 0xb70 <_ZNK6String11lastIndexOfERKS_j+0x32>
 b70:	82 17       	cp	r24, r18
 b72:	93 07       	cpc	r25, r19
 b74:	00 f0       	brcs	.+0      	; 0xb76 <_ZNK6String11lastIndexOfERKS_j+0x38>
 b76:	48 17       	cp	r20, r24
 b78:	59 07       	cpc	r21, r25
 b7a:	00 f0       	brcs	.+0      	; 0xb7c <_ZNK6String11lastIndexOfERKS_j+0x3e>
 b7c:	7c 01       	movw	r14, r24
 b7e:	08 94       	sec
 b80:	e1 08       	sbc	r14, r1
 b82:	f1 08       	sbc	r15, r1
 b84:	00 81       	ld	r16, Z
 b86:	11 81       	ldd	r17, Z+1	; 0x01
 b88:	c8 01       	movw	r24, r16
 b8a:	cf ef       	ldi	r28, 0xFF	; 255
 b8c:	df ef       	ldi	r29, 0xFF	; 255
 b8e:	58 01       	movw	r10, r16
 b90:	ae 0c       	add	r10, r14
 b92:	bf 1c       	adc	r11, r15
 b94:	00 c0       	rjmp	.+0      	; 0xb96 <_ZNK6String11lastIndexOfERKS_j+0x58>
 b96:	f6 01       	movw	r30, r12
 b98:	60 81       	ld	r22, Z
 b9a:	71 81       	ldd	r23, Z+1	; 0x01
 b9c:	0e 94 00 00 	call	0	; 0x0 <_ZN6StringD1Ev>
 ba0:	00 97       	sbiw	r24, 0x00	; 0
 ba2:	01 f0       	breq	.+0      	; 0xba4 <_ZNK6String11lastIndexOfERKS_j+0x66>
 ba4:	9c 01       	movw	r18, r24
 ba6:	20 1b       	sub	r18, r16
 ba8:	31 0b       	sbc	r19, r17
 baa:	e2 16       	cp	r14, r18
 bac:	f3 06       	cpc	r15, r19
 bae:	00 f4       	brcc	.+0      	; 0xbb0 <_ZNK6String11lastIndexOfERKS_j+0x72>
 bb0:	9e 01       	movw	r18, r28
 bb2:	01 96       	adiw	r24, 0x01	; 1
 bb4:	e9 01       	movw	r28, r18
 bb6:	a8 16       	cp	r10, r24
 bb8:	b9 06       	cpc	r11, r25
 bba:	00 f4       	brcc	.+0      	; 0xbbc <_ZNK6String11lastIndexOfERKS_j+0x7e>
 bbc:	00 c0       	rjmp	.+0      	; 0xbbe <_ZNK6String11lastIndexOfERKS_j+0x80>
 bbe:	cf ef       	ldi	r28, 0xFF	; 255
 bc0:	df ef       	ldi	r29, 0xFF	; 255
 bc2:	ce 01       	movw	r24, r28
 bc4:	df 91       	pop	r29
 bc6:	cf 91       	pop	r28
 bc8:	1f 91       	pop	r17
 bca:	0f 91       	pop	r16
 bcc:	ff 90       	pop	r15
 bce:	ef 90       	pop	r14
 bd0:	df 90       	pop	r13
 bd2:	cf 90       	pop	r12
 bd4:	bf 90       	pop	r11
 bd6:	af 90       	pop	r10
 bd8:	08 95       	ret

00000bda <_ZNK6String11lastIndexOfERKS_>:
 bda:	fc 01       	movw	r30, r24
 bdc:	44 81       	ldd	r20, Z+4	; 0x04
 bde:	55 81       	ldd	r21, Z+5	; 0x05
 be0:	fb 01       	movw	r30, r22
 be2:	24 81       	ldd	r18, Z+4	; 0x04
 be4:	35 81       	ldd	r19, Z+5	; 0x05
 be6:	42 1b       	sub	r20, r18
 be8:	53 0b       	sbc	r21, r19
 bea:	0e 94 00 00 	call	0	; 0x0 <_ZN6StringD1Ev>
 bee:	08 95       	ret

00000bf0 <_ZNK6String9substringEjj>:
 bf0:	bf 92       	push	r11
 bf2:	cf 92       	push	r12
 bf4:	df 92       	push	r13
 bf6:	ef 92       	push	r14
 bf8:	ff 92       	push	r15
 bfa:	0f 93       	push	r16
 bfc:	1f 93       	push	r17
 bfe:	cf 93       	push	r28
 c00:	df 93       	push	r29
 c02:	6c 01       	movw	r12, r24
 c04:	7b 01       	movw	r14, r22
 c06:	8a 01       	movw	r16, r20
 c08:	e9 01       	movw	r28, r18
 c0a:	24 17       	cp	r18, r20
 c0c:	35 07       	cpc	r19, r21
 c0e:	00 f4       	brcc	.+0      	; 0xc10 <_ZNK6String9substringEjj+0x20>
 c10:	81 2f       	mov	r24, r17
 c12:	89 01       	movw	r16, r18
 c14:	c4 2f       	mov	r28, r20
 c16:	d8 2f       	mov	r29, r24
 c18:	c6 01       	movw	r24, r12
 c1a:	60 e0       	ldi	r22, 0x00	; 0
 c1c:	70 e0       	ldi	r23, 0x00	; 0
 c1e:	0e 94 00 00 	call	0	; 0x0 <_ZN6StringD1Ev>
 c22:	d7 01       	movw	r26, r14
 c24:	14 96       	adiw	r26, 0x04	; 4
 c26:	8d 91       	ld	r24, X+
 c28:	9c 91       	ld	r25, X
 c2a:	15 97       	sbiw	r26, 0x05	; 5
 c2c:	80 17       	cp	r24, r16
 c2e:	91 07       	cpc	r25, r17
 c30:	00 f0       	brcs	.+0      	; 0xc32 <_ZNK6String9substringEjj+0x42>
 c32:	8c 17       	cp	r24, r28
 c34:	9d 07       	cpc	r25, r29
 c36:	00 f4       	brcc	.+0      	; 0xc38 <_ZNK6String9substringEjj+0x48>
 c38:	ec 01       	movw	r28, r24
 c3a:	d7 01       	movw	r26, r14
 c3c:	ed 91       	ld	r30, X+
 c3e:	fc 91       	ld	r31, X
 c40:	11 97       	sbiw	r26, 0x01	; 1
 c42:	ec 0f       	add	r30, r28
 c44:	fd 1f       	adc	r31, r29
 c46:	b0 80       	ld	r11, Z
 c48:	10 82       	st	Z, r1
 c4a:	6d 91       	ld	r22, X+
 c4c:	7c 91       	ld	r23, X
 c4e:	60 0f       	add	r22, r16
 c50:	71 1f       	adc	r23, r17
 c52:	c6 01       	movw	r24, r12
 c54:	0e 94 00 00 	call	0	; 0x0 <_ZN6StringD1Ev>
 c58:	d7 01       	movw	r26, r14
 c5a:	ed 91       	ld	r30, X+
 c5c:	fc 91       	ld	r31, X
 c5e:	11 97       	sbiw	r26, 0x01	; 1
 c60:	ec 0f       	add	r30, r28
 c62:	fd 1f       	adc	r31, r29
 c64:	b0 82       	st	Z, r11
 c66:	c6 01       	movw	r24, r12
 c68:	df 91       	pop	r29
 c6a:	cf 91       	pop	r28
 c6c:	1f 91       	pop	r17
 c6e:	0f 91       	pop	r16
 c70:	ff 90       	pop	r15
 c72:	ef 90       	pop	r14
 c74:	df 90       	pop	r13
 c76:	cf 90       	pop	r12
 c78:	bf 90       	pop	r11
 c7a:	08 95       	ret

00000c7c <_ZNK6String9substringEj>:
 c7c:	cf 93       	push	r28
 c7e:	df 93       	push	r29
 c80:	ec 01       	movw	r28, r24
 c82:	fb 01       	movw	r30, r22
 c84:	24 81       	ldd	r18, Z+4	; 0x04
 c86:	35 81       	ldd	r19, Z+5	; 0x05
 c88:	0e 94 00 00 	call	0	; 0x0 <_ZN6StringD1Ev>
 c8c:	ce 01       	movw	r24, r28
 c8e:	df 91       	pop	r29
 c90:	cf 91       	pop	r28
 c92:	08 95       	ret

00000c94 <_ZN6String7replaceEcc>:
 c94:	dc 01       	movw	r26, r24
 c96:	ed 91       	ld	r30, X+
 c98:	fc 91       	ld	r31, X
 c9a:	11 97       	sbiw	r26, 0x01	; 1
 c9c:	30 97       	sbiw	r30, 0x00	; 0
 c9e:	01 f4       	brne	.+0      	; 0xca0 <_ZN6String7replaceEcc+0xc>
 ca0:	08 95       	ret
 ca2:	86 17       	cp	r24, r22
 ca4:	01 f4       	brne	.+0      	; 0xca6 <_ZN6String7replaceEcc+0x12>
 ca6:	40 83       	st	Z, r20
 ca8:	31 96       	adiw	r30, 0x01	; 1
 caa:	80 81       	ld	r24, Z
 cac:	88 23       	and	r24, r24
 cae:	01 f4       	brne	.+0      	; 0xcb0 <_ZN6String7replaceEcc+0x1c>
 cb0:	08 95       	ret

00000cb2 <_ZN6String7replaceERKS_S1_>:
 cb2:	4f 92       	push	r4
 cb4:	5f 92       	push	r5
 cb6:	6f 92       	push	r6
 cb8:	7f 92       	push	r7
 cba:	8f 92       	push	r8
 cbc:	9f 92       	push	r9
 cbe:	af 92       	push	r10
 cc0:	bf 92       	push	r11
 cc2:	cf 92       	push	r12
 cc4:	df 92       	push	r13
 cc6:	ef 92       	push	r14
 cc8:	ff 92       	push	r15
 cca:	0f 93       	push	r16
 ccc:	1f 93       	push	r17
 cce:	cf 93       	push	r28
 cd0:	df 93       	push	r29
 cd2:	6c 01       	movw	r12, r24
 cd4:	2b 01       	movw	r4, r22
 cd6:	5a 01       	movw	r10, r20
 cd8:	dc 01       	movw	r26, r24
 cda:	14 96       	adiw	r26, 0x04	; 4
 cdc:	8d 90       	ld	r8, X+
 cde:	9c 90       	ld	r9, X
 ce0:	15 97       	sbiw	r26, 0x05	; 5
 ce2:	81 14       	cp	r8, r1
 ce4:	91 04       	cpc	r9, r1
 ce6:	01 f4       	brne	.+0      	; 0xce8 <_ZN6String7replaceERKS_S1_+0x36>
 ce8:	00 c0       	rjmp	.+0      	; 0xcea <_ZN6String7replaceERKS_S1_+0x38>
 cea:	fb 01       	movw	r30, r22
 cec:	e4 80       	ldd	r14, Z+4	; 0x04
 cee:	f5 80       	ldd	r15, Z+5	; 0x05
 cf0:	e1 14       	cp	r14, r1
 cf2:	f1 04       	cpc	r15, r1
 cf4:	01 f4       	brne	.+0      	; 0xcf6 <_ZN6String7replaceERKS_S1_+0x44>
 cf6:	00 c0       	rjmp	.+0      	; 0xcf8 <_ZN6String7replaceERKS_S1_+0x46>
 cf8:	da 01       	movw	r26, r20
 cfa:	14 96       	adiw	r26, 0x04	; 4
 cfc:	6d 90       	ld	r6, X+
 cfe:	7c 90       	ld	r7, X
 d00:	15 97       	sbiw	r26, 0x05	; 5
 d02:	6e 18       	sub	r6, r14
 d04:	7f 08       	sbc	r7, r15
 d06:	fc 01       	movw	r30, r24
 d08:	00 81       	ld	r16, Z
 d0a:	11 81       	ldd	r17, Z+1	; 0x01
 d0c:	61 14       	cp	r6, r1
 d0e:	71 04       	cpc	r7, r1
 d10:	01 f4       	brne	.+0      	; 0xd12 <_ZN6String7replaceERKS_S1_+0x60>
 d12:	00 c0       	rjmp	.+0      	; 0xd14 <_ZN6String7replaceERKS_S1_+0x62>
 d14:	d5 01       	movw	r26, r10
 d16:	6c 91       	ld	r22, X
 d18:	11 96       	adiw	r26, 0x01	; 1
 d1a:	7c 91       	ld	r23, X
 d1c:	11 97       	sbiw	r26, 0x01	; 1
 d1e:	14 96       	adiw	r26, 0x04	; 4
 d20:	4d 91       	ld	r20, X+
 d22:	5c 91       	ld	r21, X
 d24:	15 97       	sbiw	r26, 0x05	; 5
 d26:	ce 01       	movw	r24, r28
 d28:	0e 94 00 00 	call	0	; 0x0 <_ZN6StringD1Ev>
 d2c:	f5 01       	movw	r30, r10
 d2e:	04 81       	ldd	r16, Z+4	; 0x04
 d30:	15 81       	ldd	r17, Z+5	; 0x05
 d32:	0c 0f       	add	r16, r28
 d34:	1d 1f       	adc	r17, r29
 d36:	d2 01       	movw	r26, r4
 d38:	6d 91       	ld	r22, X+
 d3a:	7c 91       	ld	r23, X
 d3c:	c8 01       	movw	r24, r16
 d3e:	0e 94 00 00 	call	0	; 0x0 <_ZN6StringD1Ev>
 d42:	ec 01       	movw	r28, r24
 d44:	00 97       	sbiw	r24, 0x00	; 0
 d46:	01 f4       	brne	.+0      	; 0xd48 <_ZN6String7replaceERKS_S1_+0x96>
 d48:	00 c0       	rjmp	.+0      	; 0xd4a <_ZN6String7replaceERKS_S1_+0x98>
 d4a:	77 fc       	sbrc	r7, 7
 d4c:	00 c0       	rjmp	.+0      	; 0xd4e <_ZN6String7replaceERKS_S1_+0x9c>
 d4e:	e4 01       	movw	r28, r8
 d50:	00 c0       	rjmp	.+0      	; 0xd52 <_ZN6String7replaceERKS_S1_+0xa0>
 d52:	78 01       	movw	r14, r16
 d54:	00 c0       	rjmp	.+0      	; 0xd56 <_ZN6String7replaceERKS_S1_+0xa4>
 d56:	e4 01       	movw	r28, r8
 d58:	c0 1b       	sub	r28, r16
 d5a:	d1 0b       	sbc	r29, r17
 d5c:	c7 01       	movw	r24, r14
 d5e:	b8 01       	movw	r22, r16
 d60:	ae 01       	movw	r20, r28
 d62:	0e 94 00 00 	call	0	; 0x0 <_ZN6StringD1Ev>
 d66:	ce 0d       	add	r28, r14
 d68:	df 1d       	adc	r29, r15
 d6a:	f5 01       	movw	r30, r10
 d6c:	60 81       	ld	r22, Z
 d6e:	71 81       	ldd	r23, Z+1	; 0x01
 d70:	44 81       	ldd	r20, Z+4	; 0x04
 d72:	55 81       	ldd	r21, Z+5	; 0x05
 d74:	ce 01       	movw	r24, r28
 d76:	0e 94 00 00 	call	0	; 0x0 <_ZN6StringD1Ev>
 d7a:	d5 01       	movw	r26, r10
 d7c:	14 96       	adiw	r26, 0x04	; 4
 d7e:	ed 90       	ld	r14, X+
 d80:	fc 90       	ld	r15, X
 d82:	15 97       	sbiw	r26, 0x05	; 5
 d84:	ec 0e       	add	r14, r28
 d86:	fd 1e       	adc	r15, r29
 d88:	f2 01       	movw	r30, r4
 d8a:	04 81       	ldd	r16, Z+4	; 0x04
 d8c:	15 81       	ldd	r17, Z+5	; 0x05
 d8e:	08 0d       	add	r16, r8
 d90:	19 1d       	adc	r17, r9
 d92:	d6 01       	movw	r26, r12
 d94:	14 96       	adiw	r26, 0x04	; 4
 d96:	8d 91       	ld	r24, X+
 d98:	9c 91       	ld	r25, X
 d9a:	15 97       	sbiw	r26, 0x05	; 5
 d9c:	86 0d       	add	r24, r6
 d9e:	97 1d       	adc	r25, r7
 da0:	15 96       	adiw	r26, 0x05	; 5
 da2:	9c 93       	st	X, r25
 da4:	8e 93       	st	-X, r24
 da6:	14 97       	sbiw	r26, 0x04	; 4
 da8:	f2 01       	movw	r30, r4
 daa:	60 81       	ld	r22, Z
 dac:	71 81       	ldd	r23, Z+1	; 0x01
 dae:	c8 01       	movw	r24, r16
 db0:	0e 94 00 00 	call	0	; 0x0 <_ZN6StringD1Ev>
 db4:	4c 01       	movw	r8, r24
 db6:	00 97       	sbiw	r24, 0x00	; 0
 db8:	01 f4       	brne	.+0      	; 0xdba <_ZN6String7replaceERKS_S1_+0x108>
 dba:	c7 01       	movw	r24, r14
 dbc:	b8 01       	movw	r22, r16
 dbe:	0e 94 00 00 	call	0	; 0x0 <_ZN6StringD1Ev>
 dc2:	00 c0       	rjmp	.+0      	; 0xdc4 <_ZN6String7replaceERKS_S1_+0x112>
 dc4:	8c 01       	movw	r16, r24
 dc6:	0e 0d       	add	r16, r14
 dc8:	1f 1d       	adc	r17, r15
 dca:	c6 0d       	add	r28, r6
 dcc:	d7 1d       	adc	r29, r7
 dce:	d2 01       	movw	r26, r4
 dd0:	6d 91       	ld	r22, X+
 dd2:	7c 91       	ld	r23, X
 dd4:	c8 01       	movw	r24, r16
 dd6:	0e 94 00 00 	call	0	; 0x0 <_ZN6StringD1Ev>
 dda:	00 97       	sbiw	r24, 0x00	; 0
 ddc:	01 f4       	brne	.+0      	; 0xdde <_ZN6String7replaceERKS_S1_+0x12c>
 dde:	c8 15       	cp	r28, r8
 de0:	d9 05       	cpc	r29, r9
 de2:	01 f4       	brne	.+0      	; 0xde4 <_ZN6String7replaceERKS_S1_+0x132>
 de4:	00 c0       	rjmp	.+0      	; 0xde6 <_ZN6String7replaceERKS_S1_+0x134>
 de6:	f6 01       	movw	r30, r12
 de8:	82 81       	ldd	r24, Z+2	; 0x02
 dea:	93 81       	ldd	r25, Z+3	; 0x03
 dec:	8c 17       	cp	r24, r28
 dee:	9d 07       	cpc	r25, r29
 df0:	00 f0       	brcs	.+0      	; 0xdf2 <_ZN6String7replaceERKS_S1_+0x140>
 df2:	00 c0       	rjmp	.+0      	; 0xdf4 <_ZN6String7replaceERKS_S1_+0x142>
 df4:	c6 01       	movw	r24, r12
 df6:	be 01       	movw	r22, r28
 df8:	0e 94 00 00 	call	0	; 0x0 <_ZN6StringD1Ev>
 dfc:	88 23       	and	r24, r24
 dfe:	01 f4       	brne	.+0      	; 0xe00 <_ZN6String7replaceERKS_S1_+0x14e>
 e00:	00 c0       	rjmp	.+0      	; 0xe02 <_ZN6String7replaceERKS_S1_+0x150>
 e02:	00 c0       	rjmp	.+0      	; 0xe04 <_ZN6String7replaceERKS_S1_+0x152>
 e04:	c6 01       	movw	r24, r12
 e06:	b2 01       	movw	r22, r4
 e08:	0e 94 00 00 	call	0	; 0x0 <_ZN6StringD1Ev>
 e0c:	ec 01       	movw	r28, r24
 e0e:	97 fd       	sbrc	r25, 7
 e10:	00 c0       	rjmp	.+0      	; 0xe12 <_ZN6String7replaceERKS_S1_+0x160>
 e12:	d6 01       	movw	r26, r12
 e14:	6d 91       	ld	r22, X+
 e16:	7c 91       	ld	r23, X
 e18:	11 97       	sbiw	r26, 0x01	; 1
 e1a:	f2 01       	movw	r30, r4
 e1c:	84 81       	ldd	r24, Z+4	; 0x04
 e1e:	95 81       	ldd	r25, Z+5	; 0x05
 e20:	8c 0f       	add	r24, r28
 e22:	9d 1f       	adc	r25, r29
 e24:	68 0f       	add	r22, r24
 e26:	79 1f       	adc	r23, r25
 e28:	14 96       	adiw	r26, 0x04	; 4
 e2a:	4d 91       	ld	r20, X+
 e2c:	5c 91       	ld	r21, X
 e2e:	15 97       	sbiw	r26, 0x05	; 5
 e30:	48 1b       	sub	r20, r24
 e32:	59 0b       	sbc	r21, r25
 e34:	cb 01       	movw	r24, r22
 e36:	86 0d       	add	r24, r6
 e38:	97 1d       	adc	r25, r7
 e3a:	0e 94 00 00 	call	0	; 0x0 <_ZN6StringD1Ev>
 e3e:	d6 01       	movw	r26, r12
 e40:	14 96       	adiw	r26, 0x04	; 4
 e42:	8d 91       	ld	r24, X+
 e44:	9c 91       	ld	r25, X
 e46:	15 97       	sbiw	r26, 0x05	; 5
 e48:	86 0d       	add	r24, r6
 e4a:	97 1d       	adc	r25, r7
 e4c:	15 96       	adiw	r26, 0x05	; 5
 e4e:	9c 93       	st	X, r25
 e50:	8e 93       	st	-X, r24
 e52:	14 97       	sbiw	r26, 0x04	; 4
 e54:	ed 91       	ld	r30, X+
 e56:	fc 91       	ld	r31, X
 e58:	11 97       	sbiw	r26, 0x01	; 1
 e5a:	e8 0f       	add	r30, r24
 e5c:	f9 1f       	adc	r31, r25
 e5e:	10 82       	st	Z, r1
 e60:	8d 91       	ld	r24, X+
 e62:	9c 91       	ld	r25, X
 e64:	8c 0f       	add	r24, r28
 e66:	9d 1f       	adc	r25, r29
 e68:	f5 01       	movw	r30, r10
 e6a:	60 81       	ld	r22, Z
 e6c:	71 81       	ldd	r23, Z+1	; 0x01
 e6e:	44 81       	ldd	r20, Z+4	; 0x04
 e70:	55 81       	ldd	r21, Z+5	; 0x05
 e72:	0e 94 00 00 	call	0	; 0x0 <_ZN6StringD1Ev>
 e76:	ae 01       	movw	r20, r28
 e78:	00 c0       	rjmp	.+0      	; 0xe7a <_ZN6String7replaceERKS_S1_+0x1c8>
 e7a:	d6 01       	movw	r26, r12
 e7c:	14 96       	adiw	r26, 0x04	; 4
 e7e:	4d 91       	ld	r20, X+
 e80:	5c 91       	ld	r21, X
 e82:	15 97       	sbiw	r26, 0x05	; 5
 e84:	41 50       	subi	r20, 0x01	; 1
 e86:	50 40       	sbci	r21, 0x00	; 0
 e88:	57 ff       	sbrs	r21, 7
 e8a:	00 c0       	rjmp	.+0      	; 0xe8c <_ZN6String7replaceERKS_S1_+0x1da>
 e8c:	df 91       	pop	r29
 e8e:	cf 91       	pop	r28
 e90:	1f 91       	pop	r17
 e92:	0f 91       	pop	r16
 e94:	ff 90       	pop	r15
 e96:	ef 90       	pop	r14
 e98:	df 90       	pop	r13
 e9a:	cf 90       	pop	r12
 e9c:	bf 90       	pop	r11
 e9e:	af 90       	pop	r10
 ea0:	9f 90       	pop	r9
 ea2:	8f 90       	pop	r8
 ea4:	7f 90       	pop	r7
 ea6:	6f 90       	pop	r6
 ea8:	5f 90       	pop	r5
 eaa:	4f 90       	pop	r4
 eac:	08 95       	ret

00000eae <_ZN6String11toLowerCaseEv>:
 eae:	cf 93       	push	r28
 eb0:	df 93       	push	r29
 eb2:	fc 01       	movw	r30, r24
 eb4:	c0 81       	ld	r28, Z
 eb6:	d1 81       	ldd	r29, Z+1	; 0x01
 eb8:	20 97       	sbiw	r28, 0x00	; 0
 eba:	01 f4       	brne	.+0      	; 0xebc <_ZN6String11toLowerCaseEv+0xe>
 ebc:	00 c0       	rjmp	.+0      	; 0xebe <_ZN6String11toLowerCaseEv+0x10>
 ebe:	90 e0       	ldi	r25, 0x00	; 0
 ec0:	0e 94 00 00 	call	0	; 0x0 <_ZN6StringD1Ev>
 ec4:	89 93       	st	Y+, r24
 ec6:	88 81       	ld	r24, Y
 ec8:	88 23       	and	r24, r24
 eca:	01 f4       	brne	.+0      	; 0xecc <_ZN6String11toLowerCaseEv+0x1e>
 ecc:	df 91       	pop	r29
 ece:	cf 91       	pop	r28
 ed0:	08 95       	ret

00000ed2 <_ZN6String11toUpperCaseEv>:
 ed2:	cf 93       	push	r28
 ed4:	df 93       	push	r29
 ed6:	fc 01       	movw	r30, r24
 ed8:	c0 81       	ld	r28, Z
 eda:	d1 81       	ldd	r29, Z+1	; 0x01
 edc:	20 97       	sbiw	r28, 0x00	; 0
 ede:	01 f4       	brne	.+0      	; 0xee0 <_ZN6String11toUpperCaseEv+0xe>
 ee0:	00 c0       	rjmp	.+0      	; 0xee2 <_ZN6String11toUpperCaseEv+0x10>
 ee2:	90 e0       	ldi	r25, 0x00	; 0
 ee4:	0e 94 00 00 	call	0	; 0x0 <_ZN6StringD1Ev>
 ee8:	89 93       	st	Y+, r24
 eea:	88 81       	ld	r24, Y
 eec:	88 23       	and	r24, r24
 eee:	01 f4       	brne	.+0      	; 0xef0 <_ZN6String11toUpperCaseEv+0x1e>
 ef0:	df 91       	pop	r29
 ef2:	cf 91       	pop	r28
 ef4:	08 95       	ret

00000ef6 <_ZN6String4trimEv>:
 ef6:	af 92       	push	r10
 ef8:	bf 92       	push	r11
 efa:	cf 92       	push	r12
 efc:	df 92       	push	r13
 efe:	ef 92       	push	r14
 f00:	ff 92       	push	r15
 f02:	0f 93       	push	r16
 f04:	1f 93       	push	r17
 f06:	cf 93       	push	r28
 f08:	df 93       	push	r29
 f0a:	6c 01       	movw	r12, r24
 f0c:	dc 01       	movw	r26, r24
 f0e:	ed 90       	ld	r14, X+
 f10:	fc 90       	ld	r15, X
 f12:	11 97       	sbiw	r26, 0x01	; 1
 f14:	e1 14       	cp	r14, r1
 f16:	f1 04       	cpc	r15, r1
 f18:	01 f0       	breq	.+0      	; 0xf1a <_ZN6String4trimEv+0x24>
 f1a:	14 96       	adiw	r26, 0x04	; 4
 f1c:	ad 90       	ld	r10, X+
 f1e:	bc 90       	ld	r11, X
 f20:	15 97       	sbiw	r26, 0x05	; 5
 f22:	a1 14       	cp	r10, r1
 f24:	b1 04       	cpc	r11, r1
 f26:	01 f0       	breq	.+0      	; 0xf28 <_ZN6String4trimEv+0x32>
 f28:	e7 01       	movw	r28, r14
 f2a:	8e 01       	movw	r16, r28
 f2c:	21 96       	adiw	r28, 0x01	; 1
 f2e:	f8 01       	movw	r30, r16
 f30:	80 81       	ld	r24, Z
 f32:	90 e0       	ldi	r25, 0x00	; 0
 f34:	0e 94 00 00 	call	0	; 0x0 <_ZN6StringD1Ev>
 f38:	00 97       	sbiw	r24, 0x00	; 0
 f3a:	01 f4       	brne	.+0      	; 0xf3c <_ZN6String4trimEv+0x46>
 f3c:	e5 01       	movw	r28, r10
 f3e:	21 97       	sbiw	r28, 0x01	; 1
 f40:	ce 0d       	add	r28, r14
 f42:	df 1d       	adc	r29, r15
 f44:	88 81       	ld	r24, Y
 f46:	90 e0       	ldi	r25, 0x00	; 0
 f48:	0e 94 00 00 	call	0	; 0x0 <_ZN6StringD1Ev>
 f4c:	00 97       	sbiw	r24, 0x00	; 0
 f4e:	01 f0       	breq	.+0      	; 0xf50 <_ZN6String4trimEv+0x5a>
 f50:	c0 17       	cp	r28, r16
 f52:	d1 07       	cpc	r29, r17
 f54:	00 f0       	brcs	.+0      	; 0xf56 <_ZN6String4trimEv+0x60>
 f56:	21 97       	sbiw	r28, 0x01	; 1
 f58:	00 c0       	rjmp	.+0      	; 0xf5a <_ZN6String4trimEv+0x64>
 f5a:	ae 01       	movw	r20, r28
 f5c:	4f 5f       	subi	r20, 0xFF	; 255
 f5e:	5f 4f       	sbci	r21, 0xFF	; 255
 f60:	40 1b       	sub	r20, r16
 f62:	51 0b       	sbc	r21, r17
 f64:	d6 01       	movw	r26, r12
 f66:	15 96       	adiw	r26, 0x05	; 5
 f68:	5c 93       	st	X, r21
 f6a:	4e 93       	st	-X, r20
 f6c:	14 97       	sbiw	r26, 0x04	; 4
 f6e:	e0 16       	cp	r14, r16
 f70:	f1 06       	cpc	r15, r17
 f72:	00 f4       	brcc	.+0      	; 0xf74 <_ZN6String4trimEv+0x7e>
 f74:	c7 01       	movw	r24, r14
 f76:	b8 01       	movw	r22, r16
 f78:	0e 94 00 00 	call	0	; 0x0 <_ZN6StringD1Ev>
 f7c:	d6 01       	movw	r26, r12
 f7e:	ed 91       	ld	r30, X+
 f80:	fc 91       	ld	r31, X
 f82:	11 97       	sbiw	r26, 0x01	; 1
 f84:	14 96       	adiw	r26, 0x04	; 4
 f86:	8d 91       	ld	r24, X+
 f88:	9c 91       	ld	r25, X
 f8a:	15 97       	sbiw	r26, 0x05	; 5
 f8c:	e8 0f       	add	r30, r24
 f8e:	f9 1f       	adc	r31, r25
 f90:	10 82       	st	Z, r1
 f92:	df 91       	pop	r29
 f94:	cf 91       	pop	r28
 f96:	1f 91       	pop	r17
 f98:	0f 91       	pop	r16
 f9a:	ff 90       	pop	r15
 f9c:	ef 90       	pop	r14
 f9e:	df 90       	pop	r13
 fa0:	cf 90       	pop	r12
 fa2:	bf 90       	pop	r11
 fa4:	af 90       	pop	r10
 fa6:	08 95       	ret

00000fa8 <_ZNK6String5toIntEv>:
 fa8:	0f 93       	push	r16
 faa:	1f 93       	push	r17
 fac:	fc 01       	movw	r30, r24
 fae:	80 81       	ld	r24, Z
 fb0:	91 81       	ldd	r25, Z+1	; 0x01
 fb2:	00 97       	sbiw	r24, 0x00	; 0
 fb4:	01 f0       	breq	.+0      	; 0xfb6 <_ZNK6String5toIntEv+0xe>
 fb6:	0e 94 00 00 	call	0	; 0x0 <_ZN6StringD1Ev>
 fba:	8b 01       	movw	r16, r22
 fbc:	9c 01       	movw	r18, r24
 fbe:	00 c0       	rjmp	.+0      	; 0xfc0 <_ZNK6String5toIntEv+0x18>
 fc0:	00 e0       	ldi	r16, 0x00	; 0
 fc2:	10 e0       	ldi	r17, 0x00	; 0
 fc4:	20 e0       	ldi	r18, 0x00	; 0
 fc6:	30 e0       	ldi	r19, 0x00	; 0
 fc8:	b8 01       	movw	r22, r16
 fca:	c9 01       	movw	r24, r18
 fcc:	1f 91       	pop	r17
 fce:	0f 91       	pop	r16
 fd0:	08 95       	ret

new.o:     file format elf32-avr

Sections:
Idx Name          Size      VMA       LMA       File off  Algn
  0 .text         0000002c  00000000  00000000  00000034  2**0
                  CONTENTS, ALLOC, LOAD, RELOC, READONLY, CODE
  1 .data         00000000  00000000  00000000  00000060  2**0
                  CONTENTS, ALLOC, LOAD, DATA
  2 .bss          00000000  00000000  00000000  00000060  2**0
                  ALLOC

Disassembly of section .text:

00000000 <_Znwj>:
   0:	0e 94 00 00 	call	0	; 0x0 <_Znwj>
   4:	08 95       	ret

00000006 <_ZdlPv>:
   6:	0e 94 00 00 	call	0	; 0x0 <_Znwj>
   a:	08 95       	ret

0000000c <__cxa_guard_acquire>:
   c:	21 e0       	ldi	r18, 0x01	; 1
   e:	30 e0       	ldi	r19, 0x00	; 0
  10:	fc 01       	movw	r30, r24
  12:	80 81       	ld	r24, Z
  14:	88 23       	and	r24, r24
  16:	01 f0       	breq	.+0      	; 0x18 <__cxa_guard_acquire+0xc>
  18:	20 e0       	ldi	r18, 0x00	; 0
  1a:	30 e0       	ldi	r19, 0x00	; 0
  1c:	c9 01       	movw	r24, r18
  1e:	08 95       	ret

00000020 <__cxa_guard_release>:
  20:	21 e0       	ldi	r18, 0x01	; 1
  22:	fc 01       	movw	r30, r24
  24:	20 83       	st	Z, r18
  26:	08 95       	ret

00000028 <__cxa_guard_abort>:
  28:	08 95       	ret

0000002a <__cxa_pure_virtual>:
  2a:	08 95       	ret

wiring.o:     file format elf32-avr

Sections:
Idx Name          Size      VMA       LMA       File off  Algn
  0 .text         000001e8  00000000  00000000  00000034  2**0
                  CONTENTS, ALLOC, LOAD, RELOC, READONLY, CODE
  1 .data         00000000  00000000  00000000  0000021c  2**0
                  CONTENTS, ALLOC, LOAD, DATA
  2 .bss          00000009  00000000  00000000  0000021c  2**0
                  ALLOC

Disassembly of section .text:

00000000 <__vector_16>:
   0:	1f 92       	push	r1
   2:	0f 92       	push	r0
   4:	0f b6       	in	r0, 0x3f	; 63
   6:	0f 92       	push	r0
   8:	11 24       	eor	r1, r1
   a:	2f 93       	push	r18
   c:	3f 93       	push	r19
   e:	8f 93       	push	r24
  10:	9f 93       	push	r25
  12:	af 93       	push	r26
  14:	bf 93       	push	r27
  16:	80 91 00 00 	lds	r24, 0x0000
  1a:	90 91 00 00 	lds	r25, 0x0000
  1e:	a0 91 00 00 	lds	r26, 0x0000
  22:	b0 91 00 00 	lds	r27, 0x0000
  26:	30 91 00 00 	lds	r19, 0x0000
  2a:	23 2f       	mov	r18, r19
  2c:	2d 5f       	subi	r18, 0xFD	; 253
  2e:	2d 37       	cpi	r18, 0x7D	; 125
  30:	00 f4       	brcc	.+0      	; 0x32 <__vector_16+0x32>
  32:	01 96       	adiw	r24, 0x01	; 1
  34:	a1 1d       	adc	r26, r1
  36:	b1 1d       	adc	r27, r1
  38:	00 c0       	rjmp	.+0      	; 0x3a <__vector_16+0x3a>
  3a:	23 2f       	mov	r18, r19
  3c:	2a 57       	subi	r18, 0x7A	; 122
  3e:	02 96       	adiw	r24, 0x02	; 2
  40:	a1 1d       	adc	r26, r1
  42:	b1 1d       	adc	r27, r1
  44:	20 93 00 00 	sts	0x0000, r18
  48:	80 93 00 00 	sts	0x0000, r24
  4c:	90 93 00 00 	sts	0x0000, r25
  50:	a0 93 00 00 	sts	0x0000, r26
  54:	b0 93 00 00 	sts	0x0000, r27
  58:	80 91 00 00 	lds	r24, 0x0000
  5c:	90 91 00 00 	lds	r25, 0x0000
  60:	a0 91 00 00 	lds	r26, 0x0000
  64:	b0 91 00 00 	lds	r27, 0x0000
  68:	01 96       	adiw	r24, 0x01	; 1
  6a:	a1 1d       	adc	r26, r1
  6c:	b1 1d       	adc	r27, r1
  6e:	80 93 00 00 	sts	0x0000, r24
  72:	90 93 00 00 	sts	0x0000, r25
  76:	a0 93 00 00 	sts	0x0000, r26
  7a:	b0 93 00 00 	sts	0x0000, r27
  7e:	bf 91       	pop	r27
  80:	af 91       	pop	r26
  82:	9f 91       	pop	r25
  84:	8f 91       	pop	r24
  86:	3f 91       	pop	r19
  88:	2f 91       	pop	r18
  8a:	0f 90       	pop	r0
  8c:	0f be       	out	0x3f, r0	; 63
  8e:	0f 90       	pop	r0
  90:	1f 90       	pop	r1
  92:	18 95       	reti

00000094 <millis>:
  94:	0f 93       	push	r16
  96:	1f 93       	push	r17
  98:	8f b7       	in	r24, 0x3f	; 63
  9a:	f8 94       	cli
  9c:	00 91 00 00 	lds	r16, 0x0000
  a0:	10 91 00 00 	lds	r17, 0x0000
  a4:	20 91 00 00 	lds	r18, 0x0000
  a8:	30 91 00 00 	lds	r19, 0x0000
  ac:	8f bf       	out	0x3f, r24	; 63
  ae:	b8 01       	movw	r22, r16
  b0:	c9 01       	movw	r24, r18
  b2:	1f 91       	pop	r17
  b4:	0f 91       	pop	r16
  b6:	08 95       	ret

000000b8 <micros>:
  b8:	0f 93       	push	r16
  ba:	1f 93       	push	r17
  bc:	9f b7       	in	r25, 0x3f	; 63
  be:	f8 94       	cli
  c0:	00 91 00 00 	lds	r16, 0x0000
  c4:	10 91 00 00 	lds	r17, 0x0000
  c8:	20 91 00 00 	lds	r18, 0x0000
  cc:	30 91 00 00 	lds	r19, 0x0000
  d0:	86 b5       	in	r24, 0x26	; 38
  d2:	a8 9b       	sbis	0x15, 0	; 21
  d4:	00 c0       	rjmp	.+0      	; 0xd6 <micros+0x1e>
  d6:	8f 3f       	cpi	r24, 0xFF	; 255
  d8:	01 f0       	breq	.+0      	; 0xda <micros+0x22>
  da:	0f 5f       	subi	r16, 0xFF	; 255
  dc:	1f 4f       	sbci	r17, 0xFF	; 255
  de:	2f 4f       	sbci	r18, 0xFF	; 255
  e0:	3f 4f       	sbci	r19, 0xFF	; 255
  e2:	9f bf       	out	0x3f, r25	; 63
  e4:	32 2f       	mov	r19, r18
  e6:	21 2f       	mov	r18, r17
  e8:	10 2f       	mov	r17, r16
  ea:	00 27       	eor	r16, r16
  ec:	08 0f       	add	r16, r24
  ee:	11 1d       	adc	r17, r1
  f0:	21 1d       	adc	r18, r1
  f2:	31 1d       	adc	r19, r1
  f4:	42 e0       	ldi	r20, 0x02	; 2
  f6:	00 0f       	add	r16, r16
  f8:	11 1f       	adc	r17, r17
  fa:	22 1f       	adc	r18, r18
  fc:	33 1f       	adc	r19, r19
  fe:	4a 95       	dec	r20
 100:	01 f4       	brne	.+0      	; 0x102 <micros+0x4a>
 102:	b8 01       	movw	r22, r16
 104:	c9 01       	movw	r24, r18
 106:	1f 91       	pop	r17
 108:	0f 91       	pop	r16
 10a:	08 95       	ret

0000010c <delay>:
 10c:	cf 92       	push	r12
 10e:	df 92       	push	r13
 110:	ef 92       	push	r14
 112:	ff 92       	push	r15
 114:	cf 93       	push	r28
 116:	df 93       	push	r29
 118:	6b 01       	movw	r12, r22
 11a:	7c 01       	movw	r14, r24
 11c:	0e 94 00 00 	call	0	; 0x0 <__vector_16>
 120:	dc 01       	movw	r26, r24
 122:	cb 01       	movw	r24, r22
 124:	ec 01       	movw	r28, r24
 126:	00 c0       	rjmp	.+0      	; 0x128 <delay+0x1c>
 128:	0e 94 00 00 	call	0	; 0x0 <__vector_16>
 12c:	6c 1b       	sub	r22, r28
 12e:	7d 0b       	sbc	r23, r29
 130:	83 e0       	ldi	r24, 0x03	; 3
 132:	68 3e       	cpi	r22, 0xE8	; 232
 134:	78 07       	cpc	r23, r24
 136:	00 f0       	brcs	.+0      	; 0x138 <delay+0x2c>
 138:	08 94       	sec
 13a:	c1 08       	sbc	r12, r1
 13c:	d1 08       	sbc	r13, r1
 13e:	e1 08       	sbc	r14, r1
 140:	f1 08       	sbc	r15, r1
 142:	c8 51       	subi	r28, 0x18	; 24
 144:	dc 4f       	sbci	r29, 0xFC	; 252
 146:	c1 14       	cp	r12, r1
 148:	d1 04       	cpc	r13, r1
 14a:	e1 04       	cpc	r14, r1
 14c:	f1 04       	cpc	r15, r1
 14e:	01 f4       	brne	.+0      	; 0x150 <delay+0x44>
 150:	df 91       	pop	r29
 152:	cf 91       	pop	r28
 154:	ff 90       	pop	r15
 156:	ef 90       	pop	r14
 158:	df 90       	pop	r13
 15a:	cf 90       	pop	r12
 15c:	08 95       	ret

0000015e <delayMicroseconds>:
 15e:	01 97       	sbiw	r24, 0x01	; 1
 160:	01 f0       	breq	.+0      	; 0x162 <delayMicroseconds+0x4>
 162:	88 0f       	add	r24, r24
 164:	99 1f       	adc	r25, r25
 166:	88 0f       	add	r24, r24
 168:	99 1f       	adc	r25, r25
 16a:	02 97       	sbiw	r24, 0x02	; 2
 16c:	01 97       	sbiw	r24, 0x01	; 1
 16e:	01 f4       	brne	.+0      	; 0x170 <delayMicroseconds+0x12>
 170:	08 95       	ret

00000172 <init>:
 172:	78 94       	sei
 174:	84 b5       	in	r24, 0x24	; 36
 176:	82 60       	ori	r24, 0x02	; 2
 178:	84 bd       	out	0x24, r24	; 36
 17a:	84 b5       	in	r24, 0x24	; 36
 17c:	81 60       	ori	r24, 0x01	; 1
 17e:	84 bd       	out	0x24, r24	; 36
 180:	85 b5       	in	r24, 0x25	; 37
 182:	82 60       	ori	r24, 0x02	; 2
 184:	85 bd       	out	0x25, r24	; 37
 186:	85 b5       	in	r24, 0x25	; 37
 188:	81 60       	ori	r24, 0x01	; 1
 18a:	85 bd       	out	0x25, r24	; 37
 18c:	ee e6       	ldi	r30, 0x6E	; 110
 18e:	f0 e0       	ldi	r31, 0x00	; 0
 190:	80 81       	ld	r24, Z
 192:	81 60       	ori	r24, 0x01	; 1
 194:	80 83       	st	Z, r24
 196:	e1 e8       	ldi	r30, 0x81	; 129
 198:	f0 e0       	ldi	r31, 0x00	; 0
 19a:	10 82       	st	Z, r1
 19c:	80 81       	ld	r24, Z
 19e:	82 60       	ori	r24, 0x02	; 2
 1a0:	80 83       	st	Z, r24
 1a2:	80 81       	ld	r24, Z
 1a4:	81 60       	ori	r24, 0x01	; 1
 1a6:	80 83       	st	Z, r24
 1a8:	e0 e8       	ldi	r30, 0x80	; 128
 1aa:	f0 e0       	ldi	r31, 0x00	; 0
 1ac:	80 81       	ld	r24, Z
 1ae:	81 60       	ori	r24, 0x01	; 1
 1b0:	80 83       	st	Z, r24
 1b2:	e1 eb       	ldi	r30, 0xB1	; 177
 1b4:	f0 e0       	ldi	r31, 0x00	; 0
 1b6:	80 81       	ld	r24, Z
 1b8:	84 60       	ori	r24, 0x04	; 4
 1ba:	80 83       	st	Z, r24
 1bc:	e0 eb       	ldi	r30, 0xB0	; 176
 1be:	f0 e0       	ldi	r31, 0x00	; 0
 1c0:	80 81       	ld	r24, Z
 1c2:	81 60       	ori	r24, 0x01	; 1
 1c4:	80 83       	st	Z, r24
 1c6:	ea e7       	ldi	r30, 0x7A	; 122
 1c8:	f0 e0       	ldi	r31, 0x00	; 0
 1ca:	80 81       	ld	r24, Z
 1cc:	84 60       	ori	r24, 0x04	; 4
 1ce:	80 83       	st	Z, r24
 1d0:	80 81       	ld	r24, Z
 1d2:	82 60       	ori	r24, 0x02	; 2
 1d4:	80 83       	st	Z, r24
 1d6:	80 81       	ld	r24, Z
 1d8:	81 60       	ori	r24, 0x01	; 1
 1da:	80 83       	st	Z, r24
 1dc:	80 81       	ld	r24, Z
 1de:	80 68       	ori	r24, 0x80	; 128
 1e0:	80 83       	st	Z, r24
 1e2:	10 92 c1 00 	sts	0x00C1, r1
 1e6:	08 95       	ret

wiring_analog.o:     file format elf32-avr

Sections:
Idx Name          Size      VMA       LMA       File off  Algn
  0 .text         00000108  00000000  00000000  00000034  2**0
                  CONTENTS, ALLOC, LOAD, RELOC, READONLY, CODE
  1 .data         00000001  00000000  00000000  0000013c  2**0
                  CONTENTS, ALLOC, LOAD, DATA
  2 .bss          00000000  00000000  00000000  0000013d  2**0
                  ALLOC

Disassembly of section .text:

00000000 <analogReference>:
   0:	80 93 00 00 	sts	0x0000, r24
   4:	08 95       	ret

00000006 <analogRead>:
   6:	8e 30       	cpi	r24, 0x0E	; 14
   8:	00 f0       	brcs	.+0      	; 0xa <analogRead+0x4>
   a:	8e 50       	subi	r24, 0x0E	; 14
   c:	87 70       	andi	r24, 0x07	; 7
   e:	90 91 00 00 	lds	r25, 0x0000
  12:	92 95       	swap	r25
  14:	99 0f       	add	r25, r25
  16:	99 0f       	add	r25, r25
  18:	90 7c       	andi	r25, 0xC0	; 192
  1a:	98 2b       	or	r25, r24
  1c:	90 93 7c 00 	sts	0x007C, r25
  20:	80 91 7a 00 	lds	r24, 0x007A
  24:	80 64       	ori	r24, 0x40	; 64
  26:	80 93 7a 00 	sts	0x007A, r24
  2a:	80 91 7a 00 	lds	r24, 0x007A
  2e:	86 fd       	sbrc	r24, 6
  30:	00 c0       	rjmp	.+0      	; 0x32 <analogRead+0x2c>
  32:	80 91 78 00 	lds	r24, 0x0078
  36:	90 91 79 00 	lds	r25, 0x0079
  3a:	39 2f       	mov	r19, r25
  3c:	20 e0       	ldi	r18, 0x00	; 0
  3e:	90 e0       	ldi	r25, 0x00	; 0
  40:	82 2b       	or	r24, r18
  42:	93 2b       	or	r25, r19
  44:	08 95       	ret

00000046 <analogWrite>:
  46:	1f 93       	push	r17
  48:	cf 93       	push	r28
  4a:	df 93       	push	r29
  4c:	18 2f       	mov	r17, r24
  4e:	eb 01       	movw	r28, r22
  50:	61 e0       	ldi	r22, 0x01	; 1
  52:	0e 94 00 00 	call	0	; 0x0 <analogReference>
  56:	20 97       	sbiw	r28, 0x00	; 0
  58:	01 f4       	brne	.+0      	; 0x5a <analogWrite+0x14>
  5a:	81 2f       	mov	r24, r17
  5c:	00 c0       	rjmp	.+0      	; 0x5e <analogWrite+0x18>
  5e:	cf 3f       	cpi	r28, 0xFF	; 255
  60:	d1 05       	cpc	r29, r1
  62:	01 f4       	brne	.+0      	; 0x64 <analogWrite+0x1e>
  64:	81 2f       	mov	r24, r17
  66:	00 c0       	rjmp	.+0      	; 0x68 <analogWrite+0x22>
  68:	e1 2f       	mov	r30, r17
  6a:	f0 e0       	ldi	r31, 0x00	; 0
  6c:	e0 50       	subi	r30, 0x00	; 0
  6e:	f0 40       	sbci	r31, 0x00	; 0
  70:	e4 91       	lpm	r30, Z
  72:	e3 30       	cpi	r30, 0x03	; 3
  74:	01 f0       	breq	.+0      	; 0x76 <analogWrite+0x30>
  76:	e4 30       	cpi	r30, 0x04	; 4
  78:	00 f4       	brcc	.+0      	; 0x7a <analogWrite+0x34>
  7a:	e1 30       	cpi	r30, 0x01	; 1
  7c:	01 f0       	breq	.+0      	; 0x7e <analogWrite+0x38>
  7e:	e2 30       	cpi	r30, 0x02	; 2
  80:	01 f4       	brne	.+0      	; 0x82 <analogWrite+0x3c>
  82:	00 c0       	rjmp	.+0      	; 0x84 <analogWrite+0x3e>
  84:	e6 30       	cpi	r30, 0x06	; 6
  86:	01 f0       	breq	.+0      	; 0x88 <analogWrite+0x42>
  88:	e7 30       	cpi	r30, 0x07	; 7
  8a:	01 f0       	breq	.+0      	; 0x8c <analogWrite+0x46>
  8c:	e4 30       	cpi	r30, 0x04	; 4
  8e:	01 f4       	brne	.+0      	; 0x90 <analogWrite+0x4a>
  90:	00 c0       	rjmp	.+0      	; 0x92 <analogWrite+0x4c>
  92:	84 b5       	in	r24, 0x24	; 36
  94:	80 68       	ori	r24, 0x80	; 128
  96:	84 bd       	out	0x24, r24	; 36
  98:	c7 bd       	out	0x27, r28	; 39
  9a:	00 c0       	rjmp	.+0      	; 0x9c <analogWrite+0x56>
  9c:	84 b5       	in	r24, 0x24	; 36
  9e:	80 62       	ori	r24, 0x20	; 32
  a0:	84 bd       	out	0x24, r24	; 36
  a2:	c8 bd       	out	0x28, r28	; 40
  a4:	00 c0       	rjmp	.+0      	; 0xa6 <analogWrite+0x60>
  a6:	80 91 80 00 	lds	r24, 0x0080
  aa:	80 68       	ori	r24, 0x80	; 128
  ac:	80 93 80 00 	sts	0x0080, r24
  b0:	d0 93 89 00 	sts	0x0089, r29
  b4:	c0 93 88 00 	sts	0x0088, r28
  b8:	00 c0       	rjmp	.+0      	; 0xba <analogWrite+0x74>
  ba:	80 91 80 00 	lds	r24, 0x0080
  be:	80 62       	ori	r24, 0x20	; 32
  c0:	80 93 80 00 	sts	0x0080, r24
  c4:	d0 93 8b 00 	sts	0x008B, r29
  c8:	c0 93 8a 00 	sts	0x008A, r28
  cc:	00 c0       	rjmp	.+0      	; 0xce <analogWrite+0x88>
  ce:	80 91 b0 00 	lds	r24, 0x00B0
  d2:	80 68       	ori	r24, 0x80	; 128
  d4:	80 93 b0 00 	sts	0x00B0, r24
  d8:	c0 93 b3 00 	sts	0x00B3, r28
  dc:	00 c0       	rjmp	.+0      	; 0xde <analogWrite+0x98>
  de:	80 91 b0 00 	lds	r24, 0x00B0
  e2:	80 62       	ori	r24, 0x20	; 32
  e4:	80 93 b0 00 	sts	0x00B0, r24
  e8:	c0 93 b4 00 	sts	0x00B4, r28
  ec:	00 c0       	rjmp	.+0      	; 0xee <analogWrite+0xa8>
  ee:	81 2f       	mov	r24, r17
  f0:	c0 38       	cpi	r28, 0x80	; 128
  f2:	d1 05       	cpc	r29, r1
  f4:	04 f4       	brge	.+0      	; 0xf6 <analogWrite+0xb0>
  f6:	60 e0       	ldi	r22, 0x00	; 0
  f8:	00 c0       	rjmp	.+0      	; 0xfa <analogWrite+0xb4>
  fa:	61 e0       	ldi	r22, 0x01	; 1
  fc:	0e 94 00 00 	call	0	; 0x0 <analogReference>
 100:	df 91       	pop	r29
 102:	cf 91       	pop	r28
 104:	1f 91       	pop	r17
 106:	08 95       	ret

wiring_digital.o:     file format elf32-avr

Sections:
Idx Name          Size      VMA       LMA       File off  Algn
  0 .text         00000182  00000000  00000000  00000034  2**0
                  CONTENTS, ALLOC, LOAD, RELOC, READONLY, CODE
  1 .data         00000000  00000000  00000000  000001b6  2**0
                  CONTENTS, ALLOC, LOAD, DATA
  2 .bss          00000000  00000000  00000000  000001b6  2**0
                  ALLOC
  3 .progmem.data 0000005a  00000000  00000000  000001b6  2**0
                  CONTENTS, ALLOC, LOAD, READONLY, DATA

Disassembly of section .text:

00000000 <turnOffPWM>:
   0:	83 30       	cpi	r24, 0x03	; 3
   2:	01 f0       	breq	.+0      	; 0x4 <turnOffPWM+0x4>
   4:	84 30       	cpi	r24, 0x04	; 4
   6:	00 f4       	brcc	.+0      	; 0x8 <turnOffPWM+0x8>
   8:	81 30       	cpi	r24, 0x01	; 1
   a:	01 f0       	breq	.+0      	; 0xc <turnOffPWM+0xc>
   c:	82 30       	cpi	r24, 0x02	; 2
   e:	01 f4       	brne	.+0      	; 0x10 <turnOffPWM+0x10>
  10:	00 c0       	rjmp	.+0      	; 0x12 <turnOffPWM+0x12>
  12:	86 30       	cpi	r24, 0x06	; 6
  14:	01 f0       	breq	.+0      	; 0x16 <turnOffPWM+0x16>
  16:	87 30       	cpi	r24, 0x07	; 7
  18:	01 f0       	breq	.+0      	; 0x1a <turnOffPWM+0x1a>
  1a:	84 30       	cpi	r24, 0x04	; 4
  1c:	01 f4       	brne	.+0      	; 0x1e <turnOffPWM+0x1e>
  1e:	00 c0       	rjmp	.+0      	; 0x20 <turnOffPWM+0x20>
  20:	80 91 80 00 	lds	r24, 0x0080
  24:	8f 77       	andi	r24, 0x7F	; 127
  26:	00 c0       	rjmp	.+0      	; 0x28 <turnOffPWM+0x28>
  28:	80 91 80 00 	lds	r24, 0x0080
  2c:	8f 7d       	andi	r24, 0xDF	; 223
  2e:	80 93 80 00 	sts	0x0080, r24
  32:	08 95       	ret
  34:	84 b5       	in	r24, 0x24	; 36
  36:	8f 77       	andi	r24, 0x7F	; 127
  38:	00 c0       	rjmp	.+0      	; 0x3a <turnOffPWM+0x3a>
  3a:	84 b5       	in	r24, 0x24	; 36
  3c:	8f 7d       	andi	r24, 0xDF	; 223
  3e:	84 bd       	out	0x24, r24	; 36
  40:	08 95       	ret
  42:	80 91 b0 00 	lds	r24, 0x00B0
  46:	8f 77       	andi	r24, 0x7F	; 127
  48:	80 93 b0 00 	sts	0x00B0, r24
  4c:	08 95       	ret
  4e:	80 91 b0 00 	lds	r24, 0x00B0
  52:	8f 7d       	andi	r24, 0xDF	; 223
  54:	80 93 b0 00 	sts	0x00B0, r24
  58:	08 95       	ret

0000005a <pinMode>:
  5a:	90 e0       	ldi	r25, 0x00	; 0
  5c:	fc 01       	movw	r30, r24
  5e:	e0 50       	subi	r30, 0x00	; 0
  60:	f0 40       	sbci	r31, 0x00	; 0
  62:	24 91       	lpm	r18, Z
  64:	80 50       	subi	r24, 0x00	; 0
  66:	90 40       	sbci	r25, 0x00	; 0
  68:	fc 01       	movw	r30, r24
  6a:	84 91       	lpm	r24, Z
  6c:	88 23       	and	r24, r24
  6e:	01 f0       	breq	.+0      	; 0x70 <pinMode+0x16>
  70:	90 e0       	ldi	r25, 0x00	; 0
  72:	88 0f       	add	r24, r24
  74:	99 1f       	adc	r25, r25
  76:	fc 01       	movw	r30, r24
  78:	e0 50       	subi	r30, 0x00	; 0
  7a:	f0 40       	sbci	r31, 0x00	; 0
  7c:	45 91       	lpm	r20, Z+
  7e:	54 91       	lpm	r21, Z
  80:	da 01       	movw	r26, r20
  82:	80 50       	subi	r24, 0x00	; 0
  84:	90 40       	sbci	r25, 0x00	; 0
  86:	fc 01       	movw	r30, r24
  88:	85 91       	lpm	r24, Z+
  8a:	94 91       	lpm	r25, Z
  8c:	fc 01       	movw	r30, r24
  8e:	9f b7       	in	r25, 0x3f	; 63
  90:	f8 94       	cli
  92:	8c 91       	ld	r24, X
  94:	66 23       	and	r22, r22
  96:	01 f4       	brne	.+0      	; 0x98 <pinMode+0x3e>
  98:	20 95       	com	r18
  9a:	82 23       	and	r24, r18
  9c:	8c 93       	st	X, r24
  9e:	80 81       	ld	r24, Z
  a0:	82 23       	and	r24, r18
  a2:	00 c0       	rjmp	.+0      	; 0xa4 <pinMode+0x4a>
  a4:	62 30       	cpi	r22, 0x02	; 2
  a6:	01 f4       	brne	.+0      	; 0xa8 <pinMode+0x4e>
  a8:	32 2f       	mov	r19, r18
  aa:	30 95       	com	r19
  ac:	83 23       	and	r24, r19
  ae:	8c 93       	st	X, r24
  b0:	80 81       	ld	r24, Z
  b2:	82 2b       	or	r24, r18
  b4:	80 83       	st	Z, r24
  b6:	9f bf       	out	0x3f, r25	; 63
  b8:	08 95       	ret
  ba:	82 2b       	or	r24, r18
  bc:	8c 93       	st	X, r24
  be:	9f bf       	out	0x3f, r25	; 63
  c0:	08 95       	ret

000000c2 <digitalWrite>:
  c2:	0f 93       	push	r16
  c4:	1f 93       	push	r17
  c6:	cf 93       	push	r28
  c8:	df 93       	push	r29
  ca:	0f 92       	push	r0
  cc:	cd b7       	in	r28, 0x3d	; 61
  ce:	de b7       	in	r29, 0x3e	; 62
  d0:	28 2f       	mov	r18, r24
  d2:	30 e0       	ldi	r19, 0x00	; 0
  d4:	f9 01       	movw	r30, r18
  d6:	e0 50       	subi	r30, 0x00	; 0
  d8:	f0 40       	sbci	r31, 0x00	; 0
  da:	84 91       	lpm	r24, Z
  dc:	f9 01       	movw	r30, r18
  de:	e0 50       	subi	r30, 0x00	; 0
  e0:	f0 40       	sbci	r31, 0x00	; 0
  e2:	14 91       	lpm	r17, Z
  e4:	f9 01       	movw	r30, r18
  e6:	e0 50       	subi	r30, 0x00	; 0
  e8:	f0 40       	sbci	r31, 0x00	; 0
  ea:	04 91       	lpm	r16, Z
  ec:	00 23       	and	r16, r16
  ee:	01 f0       	breq	.+0      	; 0xf0 <digitalWrite+0x2e>
  f0:	88 23       	and	r24, r24
  f2:	01 f0       	breq	.+0      	; 0xf4 <digitalWrite+0x32>
  f4:	69 83       	std	Y+1, r22	; 0x01
  f6:	0e 94 00 00 	call	0	; 0x0 <turnOffPWM>
  fa:	69 81       	ldd	r22, Y+1	; 0x01
  fc:	e0 2f       	mov	r30, r16
  fe:	f0 e0       	ldi	r31, 0x00	; 0
 100:	ee 0f       	add	r30, r30
 102:	ff 1f       	adc	r31, r31
 104:	e0 50       	subi	r30, 0x00	; 0
 106:	f0 40       	sbci	r31, 0x00	; 0
 108:	85 91       	lpm	r24, Z+
 10a:	94 91       	lpm	r25, Z
 10c:	dc 01       	movw	r26, r24
 10e:	9f b7       	in	r25, 0x3f	; 63
 110:	f8 94       	cli
 112:	8c 91       	ld	r24, X
 114:	66 23       	and	r22, r22
 116:	01 f4       	brne	.+0      	; 0x118 <digitalWrite+0x56>
 118:	10 95       	com	r17
 11a:	81 23       	and	r24, r17
 11c:	00 c0       	rjmp	.+0      	; 0x11e <digitalWrite+0x5c>
 11e:	81 2b       	or	r24, r17
 120:	8c 93       	st	X, r24
 122:	9f bf       	out	0x3f, r25	; 63
 124:	0f 90       	pop	r0
 126:	df 91       	pop	r29
 128:	cf 91       	pop	r28
 12a:	1f 91       	pop	r17
 12c:	0f 91       	pop	r16
 12e:	08 95       	ret

00000130 <digitalRead>:
 130:	cf 93       	push	r28
 132:	df 93       	push	r29
 134:	28 2f       	mov	r18, r24
 136:	30 e0       	ldi	r19, 0x00	; 0
 138:	f9 01       	movw	r30, r18
 13a:	e0 50       	subi	r30, 0x00	; 0
 13c:	f0 40       	sbci	r31, 0x00	; 0
 13e:	84 91       	lpm	r24, Z
 140:	f9 01       	movw	r30, r18
 142:	e0 50       	subi	r30, 0x00	; 0
 144:	f0 40       	sbci	r31, 0x00	; 0
 146:	c4 91       	lpm	r28, Z
 148:	f9 01       	movw	r30, r18
 14a:	e0 50       	subi	r30, 0x00	; 0
 14c:	f0 40       	sbci	r31, 0x00	; 0
 14e:	d4 91       	lpm	r29, Z
 150:	dd 23       	and	r29, r29
 152:	01 f0       	breq	.+0      	; 0x154 <digitalRead+0x24>
 154:	88 23       	and	r24, r24
 156:	01 f0       	breq	.+0      	; 0x158 <digitalRead+0x28>
 158:	0e 94 00 00 	call	0	; 0x0 <turnOffPWM>
 15c:	ed 2f       	mov	r30, r29
 15e:	f0 e0       	ldi	r31, 0x00	; 0
 160:	ee 0f       	add	r30, r30
 162:	ff 1f       	adc	r31, r31
 164:	e0 50       	subi	r30, 0x00	; 0
 166:	f0 40       	sbci	r31, 0x00	; 0
 168:	85 91       	lpm	r24, Z+
 16a:	94 91       	lpm	r25, Z
 16c:	fc 01       	movw	r30, r24
 16e:	20 81       	ld	r18, Z
 170:	2c 23       	and	r18, r28
 172:	81 e0       	ldi	r24, 0x01	; 1
 174:	90 e0       	ldi	r25, 0x00	; 0
 176:	01 f4       	brne	.+0      	; 0x178 <digitalRead+0x48>
 178:	80 e0       	ldi	r24, 0x00	; 0
 17a:	90 e0       	ldi	r25, 0x00	; 0
 17c:	df 91       	pop	r29
 17e:	cf 91       	pop	r28
 180:	08 95       	ret

wiring_pulse.o:     file format elf32-avr

Sections:
Idx Name          Size      VMA       LMA       File off  Algn
  0 .text         00000136  00000000  00000000  00000034  2**0
                  CONTENTS, ALLOC, LOAD, RELOC, READONLY, CODE
  1 .data         00000000  00000000  00000000  0000016a  2**0
                  CONTENTS, ALLOC, LOAD, DATA
  2 .bss          00000000  00000000  00000000  0000016a  2**0
                  ALLOC

Disassembly of section .text:

00000000 <pulseIn>:
   0:	cf 92       	push	r12
   2:	df 92       	push	r13
   4:	ef 92       	push	r14
   6:	ff 92       	push	r15
   8:	0f 93       	push	r16
   a:	1f 93       	push	r17
   c:	cf 93       	push	r28
   e:	df 93       	push	r29
  10:	90 e0       	ldi	r25, 0x00	; 0
  12:	fc 01       	movw	r30, r24
  14:	e0 50       	subi	r30, 0x00	; 0
  16:	f0 40       	sbci	r31, 0x00	; 0
  18:	d4 91       	lpm	r29, Z
  1a:	80 50       	subi	r24, 0x00	; 0
  1c:	90 40       	sbci	r25, 0x00	; 0
  1e:	fc 01       	movw	r30, r24
  20:	84 91       	lpm	r24, Z
  22:	66 23       	and	r22, r22
  24:	01 f4       	brne	.+0      	; 0x26 <pulseIn+0x26>
  26:	c0 e0       	ldi	r28, 0x00	; 0
  28:	00 c0       	rjmp	.+0      	; 0x2a <pulseIn+0x2a>
  2a:	cd 2f       	mov	r28, r29
  2c:	af ef       	ldi	r26, 0xFF	; 255
  2e:	ca 2e       	mov	r12, r26
  30:	af ef       	ldi	r26, 0xFF	; 255
  32:	da 2e       	mov	r13, r26
  34:	af ef       	ldi	r26, 0xFF	; 255
  36:	ea 2e       	mov	r14, r26
  38:	af e0       	ldi	r26, 0x0F	; 15
  3a:	fa 2e       	mov	r15, r26
  3c:	c2 22       	and	r12, r18
  3e:	d3 22       	and	r13, r19
  40:	e4 22       	and	r14, r20
  42:	f5 22       	and	r15, r21
  44:	40 e0       	ldi	r20, 0x00	; 0
  46:	50 e0       	ldi	r21, 0x00	; 0
  48:	60 e0       	ldi	r22, 0x00	; 0
  4a:	70 e0       	ldi	r23, 0x00	; 0
  4c:	28 2f       	mov	r18, r24
  4e:	30 e0       	ldi	r19, 0x00	; 0
  50:	f9 01       	movw	r30, r18
  52:	ee 0f       	add	r30, r30
  54:	ff 1f       	adc	r31, r31
  56:	e0 50       	subi	r30, 0x00	; 0
  58:	f0 40       	sbci	r31, 0x00	; 0
  5a:	05 91       	lpm	r16, Z+
  5c:	14 91       	lpm	r17, Z
  5e:	00 c0       	rjmp	.+0      	; 0x60 <pulseIn+0x60>
  60:	db 01       	movw	r26, r22
  62:	ca 01       	movw	r24, r20
  64:	01 96       	adiw	r24, 0x01	; 1
  66:	a1 1d       	adc	r26, r1
  68:	b1 1d       	adc	r27, r1
  6a:	4c 15       	cp	r20, r12
  6c:	5d 05       	cpc	r21, r13
  6e:	6e 05       	cpc	r22, r14
  70:	7f 05       	cpc	r23, r15
  72:	01 f4       	brne	.+0      	; 0x74 <pulseIn+0x74>
  74:	00 c0       	rjmp	.+0      	; 0x76 <pulseIn+0x76>
  76:	ac 01       	movw	r20, r24
  78:	bd 01       	movw	r22, r26
  7a:	f8 01       	movw	r30, r16
  7c:	80 81       	ld	r24, Z
  7e:	8d 23       	and	r24, r29
  80:	8c 17       	cp	r24, r28
  82:	01 f0       	breq	.+0      	; 0x84 <pulseIn+0x84>
  84:	00 c0       	rjmp	.+0      	; 0x86 <pulseIn+0x86>
  86:	db 01       	movw	r26, r22
  88:	ca 01       	movw	r24, r20
  8a:	01 96       	adiw	r24, 0x01	; 1
  8c:	a1 1d       	adc	r26, r1
  8e:	b1 1d       	adc	r27, r1
  90:	4c 15       	cp	r20, r12
  92:	5d 05       	cpc	r21, r13
  94:	6e 05       	cpc	r22, r14
  96:	7f 05       	cpc	r23, r15
  98:	01 f4       	brne	.+0      	; 0x9a <pulseIn+0x9a>
  9a:	00 c0       	rjmp	.+0      	; 0x9c <pulseIn+0x9c>
  9c:	ac 01       	movw	r20, r24
  9e:	bd 01       	movw	r22, r26
  a0:	00 c0       	rjmp	.+0      	; 0xa2 <pulseIn+0xa2>
  a2:	22 0f       	add	r18, r18
  a4:	33 1f       	adc	r19, r19
  a6:	20 50       	subi	r18, 0x00	; 0
  a8:	30 40       	sbci	r19, 0x00	; 0
  aa:	f9 01       	movw	r30, r18
  ac:	05 91       	lpm	r16, Z+
  ae:	14 91       	lpm	r17, Z
  b0:	f8 01       	movw	r30, r16
  b2:	80 81       	ld	r24, Z
  b4:	8d 23       	and	r24, r29
  b6:	8c 17       	cp	r24, r28
  b8:	01 f4       	brne	.+0      	; 0xba <pulseIn+0xba>
  ba:	80 e0       	ldi	r24, 0x00	; 0
  bc:	90 e0       	ldi	r25, 0x00	; 0
  be:	a0 e0       	ldi	r26, 0x00	; 0
  c0:	b0 e0       	ldi	r27, 0x00	; 0
  c2:	f9 01       	movw	r30, r18
  c4:	25 91       	lpm	r18, Z+
  c6:	34 91       	lpm	r19, Z
  c8:	00 c0       	rjmp	.+0      	; 0xca <pulseIn+0xca>
  ca:	4c 15       	cp	r20, r12
  cc:	5d 05       	cpc	r21, r13
  ce:	6e 05       	cpc	r22, r14
  d0:	7f 05       	cpc	r23, r15
  d2:	01 f0       	breq	.+0      	; 0xd4 <pulseIn+0xd4>
  d4:	4f 5f       	subi	r20, 0xFF	; 255
  d6:	5f 4f       	sbci	r21, 0xFF	; 255
  d8:	6f 4f       	sbci	r22, 0xFF	; 255
  da:	7f 4f       	sbci	r23, 0xFF	; 255
  dc:	01 96       	adiw	r24, 0x01	; 1
  de:	a1 1d       	adc	r26, r1
  e0:	b1 1d       	adc	r27, r1
  e2:	f9 01       	movw	r30, r18
  e4:	e0 81       	ld	r30, Z
  e6:	ed 23       	and	r30, r29
  e8:	ec 17       	cp	r30, r28
  ea:	01 f0       	breq	.+0      	; 0xec <pulseIn+0xec>
  ec:	bc 01       	movw	r22, r24
  ee:	cd 01       	movw	r24, r26
  f0:	25 e1       	ldi	r18, 0x15	; 21
  f2:	30 e0       	ldi	r19, 0x00	; 0
  f4:	40 e0       	ldi	r20, 0x00	; 0
  f6:	50 e0       	ldi	r21, 0x00	; 0
  f8:	0e 94 00 00 	call	0	; 0x0 <pulseIn>
  fc:	8b 01       	movw	r16, r22
  fe:	9c 01       	movw	r18, r24
 100:	00 5f       	subi	r16, 0xF0	; 240
 102:	1f 4f       	sbci	r17, 0xFF	; 255
 104:	2f 4f       	sbci	r18, 0xFF	; 255
 106:	3f 4f       	sbci	r19, 0xFF	; 255
 108:	e4 e0       	ldi	r30, 0x04	; 4
 10a:	36 95       	lsr	r19
 10c:	27 95       	ror	r18
 10e:	17 95       	ror	r17
 110:	07 95       	ror	r16
 112:	ea 95       	dec	r30
 114:	01 f4       	brne	.+0      	; 0x116 <pulseIn+0x116>
 116:	00 c0       	rjmp	.+0      	; 0x118 <pulseIn+0x118>
 118:	00 e0       	ldi	r16, 0x00	; 0
 11a:	10 e0       	ldi	r17, 0x00	; 0
 11c:	20 e0       	ldi	r18, 0x00	; 0
 11e:	30 e0       	ldi	r19, 0x00	; 0
 120:	b8 01       	movw	r22, r16
 122:	c9 01       	movw	r24, r18
 124:	df 91       	pop	r29
 126:	cf 91       	pop	r28
 128:	1f 91       	pop	r17
 12a:	0f 91       	pop	r16
 12c:	ff 90       	pop	r15
 12e:	ef 90       	pop	r14
 130:	df 90       	pop	r13
 132:	cf 90       	pop	r12
 134:	08 95       	ret

wiring_shift.o:     file format elf32-avr

Sections:
Idx Name          Size      VMA       LMA       File off  Algn
  0 .text         00000106  00000000  00000000  00000034  2**0
                  CONTENTS, ALLOC, LOAD, RELOC, READONLY, CODE
  1 .data         00000000  00000000  00000000  0000013a  2**0
                  CONTENTS, ALLOC, LOAD, DATA
  2 .bss          00000000  00000000  00000000  0000013a  2**0
                  ALLOC

Disassembly of section .text:

00000000 <shiftIn>:
   0:	cf 92       	push	r12
   2:	df 92       	push	r13
   4:	ef 92       	push	r14
   6:	ff 92       	push	r15
   8:	0f 93       	push	r16
   a:	1f 93       	push	r17
   c:	cf 93       	push	r28
   e:	df 93       	push	r29
  10:	18 2f       	mov	r17, r24
  12:	f6 2e       	mov	r15, r22
  14:	e4 2e       	mov	r14, r20
  16:	c7 e0       	ldi	r28, 0x07	; 7
  18:	d0 e0       	ldi	r29, 0x00	; 0
  1a:	00 e0       	ldi	r16, 0x00	; 0
  1c:	87 e0       	ldi	r24, 0x07	; 7
  1e:	c8 2e       	mov	r12, r24
  20:	d1 2c       	mov	r13, r1
  22:	8f 2d       	mov	r24, r15
  24:	61 e0       	ldi	r22, 0x01	; 1
  26:	0e 94 00 00 	call	0	; 0x0 <shiftIn>
  2a:	81 2f       	mov	r24, r17
  2c:	ee 20       	and	r14, r14
  2e:	01 f4       	brne	.+0      	; 0x30 <shiftIn+0x30>
  30:	0e 94 00 00 	call	0	; 0x0 <shiftIn>
  34:	96 01       	movw	r18, r12
  36:	2c 1b       	sub	r18, r28
  38:	3d 0b       	sbc	r19, r29
  3a:	ac 01       	movw	r20, r24
  3c:	00 c0       	rjmp	.+0      	; 0x3e <shiftIn+0x3e>
  3e:	44 0f       	add	r20, r20
  40:	55 1f       	adc	r21, r21
  42:	2a 95       	dec	r18
  44:	02 f4       	brpl	.+0      	; 0x46 <shiftIn+0x46>
  46:	04 2b       	or	r16, r20
  48:	00 c0       	rjmp	.+0      	; 0x4a <shiftIn+0x4a>
  4a:	0e 94 00 00 	call	0	; 0x0 <shiftIn>
  4e:	0c 2e       	mov	r0, r28
  50:	00 c0       	rjmp	.+0      	; 0x52 <shiftIn+0x52>
  52:	88 0f       	add	r24, r24
  54:	99 1f       	adc	r25, r25
  56:	0a 94       	dec	r0
  58:	02 f4       	brpl	.+0      	; 0x5a <shiftIn+0x5a>
  5a:	08 2b       	or	r16, r24
  5c:	8f 2d       	mov	r24, r15
  5e:	60 e0       	ldi	r22, 0x00	; 0
  60:	0e 94 00 00 	call	0	; 0x0 <shiftIn>
  64:	21 97       	sbiw	r28, 0x01	; 1
  66:	8f ef       	ldi	r24, 0xFF	; 255
  68:	cf 3f       	cpi	r28, 0xFF	; 255
  6a:	d8 07       	cpc	r29, r24
  6c:	01 f4       	brne	.+0      	; 0x6e <shiftIn+0x6e>
  6e:	80 2f       	mov	r24, r16
  70:	df 91       	pop	r29
  72:	cf 91       	pop	r28
  74:	1f 91       	pop	r17
  76:	0f 91       	pop	r16
  78:	ff 90       	pop	r15
  7a:	ef 90       	pop	r14
  7c:	df 90       	pop	r13
  7e:	cf 90       	pop	r12
  80:	08 95       	ret

00000082 <shiftOut>:
  82:	bf 92       	push	r11
  84:	cf 92       	push	r12
  86:	df 92       	push	r13
  88:	ef 92       	push	r14
  8a:	ff 92       	push	r15
  8c:	0f 93       	push	r16
  8e:	1f 93       	push	r17
  90:	cf 93       	push	r28
  92:	df 93       	push	r29
  94:	18 2f       	mov	r17, r24
  96:	06 2f       	mov	r16, r22
  98:	b4 2e       	mov	r11, r20
  9a:	c7 e0       	ldi	r28, 0x07	; 7
  9c:	d0 e0       	ldi	r29, 0x00	; 0
  9e:	e2 2e       	mov	r14, r18
  a0:	ff 24       	eor	r15, r15
  a2:	97 e0       	ldi	r25, 0x07	; 7
  a4:	c9 2e       	mov	r12, r25
  a6:	d1 2c       	mov	r13, r1
  a8:	bb 20       	and	r11, r11
  aa:	01 f4       	brne	.+0      	; 0xac <shiftOut+0x2a>
  ac:	b6 01       	movw	r22, r12
  ae:	6c 1b       	sub	r22, r28
  b0:	7d 0b       	sbc	r23, r29
  b2:	c7 01       	movw	r24, r14
  b4:	00 c0       	rjmp	.+0      	; 0xb6 <shiftOut+0x34>
  b6:	95 95       	asr	r25
  b8:	87 95       	ror	r24
  ba:	6a 95       	dec	r22
  bc:	02 f4       	brpl	.+0      	; 0xbe <shiftOut+0x3c>
  be:	bc 01       	movw	r22, r24
  c0:	00 c0       	rjmp	.+0      	; 0xc2 <shiftOut+0x40>
  c2:	b7 01       	movw	r22, r14
  c4:	0c 2e       	mov	r0, r28
  c6:	00 c0       	rjmp	.+0      	; 0xc8 <shiftOut+0x46>
  c8:	75 95       	asr	r23
  ca:	67 95       	ror	r22
  cc:	0a 94       	dec	r0
  ce:	02 f4       	brpl	.+0      	; 0xd0 <shiftOut+0x4e>
  d0:	61 70       	andi	r22, 0x01	; 1
  d2:	81 2f       	mov	r24, r17
  d4:	0e 94 00 00 	call	0	; 0x0 <shiftIn>
  d8:	80 2f       	mov	r24, r16
  da:	61 e0       	ldi	r22, 0x01	; 1
  dc:	0e 94 00 00 	call	0	; 0x0 <shiftIn>
  e0:	80 2f       	mov	r24, r16
  e2:	60 e0       	ldi	r22, 0x00	; 0
  e4:	0e 94 00 00 	call	0	; 0x0 <shiftIn>
  e8:	21 97       	sbiw	r28, 0x01	; 1
  ea:	8f ef       	ldi	r24, 0xFF	; 255
  ec:	cf 3f       	cpi	r28, 0xFF	; 255
  ee:	d8 07       	cpc	r29, r24
  f0:	01 f4       	brne	.+0      	; 0xf2 <shiftOut+0x70>
  f2:	df 91       	pop	r29
  f4:	cf 91       	pop	r28
  f6:	1f 91       	pop	r17
  f8:	0f 91       	pop	r16
  fa:	ff 90       	pop	r15
  fc:	ef 90       	pop	r14
  fe:	df 90       	pop	r13
 100:	cf 90       	pop	r12
 102:	bf 90       	pop	r11
 104:	08 95       	ret
